(dp1
S'23178117'
p2
(lp3
V22571197
p4
aV22610119
p5
aV22460902
p6
aV21868628
p7
aV21315472
p8
aV21383288
p9
aV21639808
p10
aV21097893
p11
aV21098318
p12
aV21107320
p13
aV20979473
p14
aV20979469
p15
aV20713723
p16
aV20655465
p17
aV20573926
p18
aV20371346
p19
aV19945376
p20
aV19906727
p21
aV19345331
p22
aV19114990
p23
aV18946061
p24
aV18794900
p25
aV18451166
p26
aV18381447
p27
asS'18077337'
p28
(lp29
V17344378
p30
aV16217793
p31
aV15860528
p32
aV15356192
p33
aV14657188
p34
aV12483691
p35
aV12486177
p36
aV12414097
p37
aV12117536
p38
aV11752216
p39
aV11350119
p40
aV11248107
p41
aV10896156
p42
aV11044723
p43
aV10875922
p44
aV10713500
p45
aV10402196
p46
aV9927615
p47
aV9570815
p48
aV9753158
p49
aV9390507
p50
aV8951441
p51
aV8921285
p52
aV8786433
p53
asS'19097194'
p54
(lp55
V18083014
p56
aV17621635
p57
aV17433286
p58
aV17419683
p59
aV16187314
p60
aV16141072
p61
aV15975222
p62
aV15857913
p63
aV15771625
p64
aV15289607
p65
aV15123739
p66
aV14745966
p67
aV14723851
p68
aV12839624
p69
aV12748651
p70
aV12435628
p71
aV12414734
p72
aV12399314
p73
aV11698188
p74
aV11371614
p75
aV11230154
p76
aV11111126
p77
aV11031235
p78
aV10700181
p79
aV10433919
p80
asS'16001084'
p81
(lp82
V15987814
p83
aV15630085
p84
aV15607425
p85
aV15355595
p86
aV15081113
p87
aV14685270
p88
aV14723848
p89
aV12511597
p90
aV12471261
p91
aV12296827
p92
aV11861841
p93
aV11804965
p94
aV11416173
p95
aV11410654
p96
aV11343903
p97
aV11274061
p98
aV11097429
p99
aV11058556
p100
aV10970864
p101
aV10819768
p102
aV10842082
p103
aV10857750
p104
aV10662646
p105
aV10631166
p106
asS'15736266'
p107
(lp108
V15136147
p109
aV11171400
p110
aV11091076
p111
aV11044622
p112
aV10985852
p113
aV10677508
p114
aV10529433
p115
aV10529411
p116
aV10433919
p117
aV9488439
p118
aV9070329
p119
aV9006071
p120
aV8682319
p121
aV8650183
p122
aV8557628
p123
aV8557195
p124
aV7590242
p125
aV7931345
p126
aV7687285
p127
aV7916661
p128
aV8250258
p129
aV8250257
p130
aV1687460
p131
asS'21565611'
p132
(lp133
V20819941
p134
aV20664800
p135
aV20169535
p136
aV20097287
p137
aV19755384
p138
aV19777577
p139
aV19615732
p140
aV19405035
p141
aV19208769
p142
aV19165332
p143
aV19118152
p144
aV18723859
p145
aV18635607
p146
aV18513680
p147
aV17825558
p148
aV17564974
p149
aV17574030
p150
aV17502601
p151
aV17377524
p152
aV16885411
p153
aV16632484
p154
aV16713569
p155
aV16357211
p156
aV16136078
p157
aV15998662
p158
asS'15793281'
p159
(lp160
V15316047
p161
aV15126626
p162
aV14769819
p163
aV14657002
p164
aV14695198
p165
aV12453184
p166
aV12204326
p167
aV12115864
p168
aV11530216
p169
aV11442744
p170
aV11427519
p171
aV11250066
p172
aV11181640
p173
aV11152763
p174
aV11207364
p175
aV10966107
p176
aV10504436
p177
aV10508651
p178
aV10441606
p179
aV10395325
p180
aV9759499
p181
aV9094999
p182
aV7738394
p183
aV7798648
p184
aV8160773
p185
asS'23503662'
p186
(lp187
V22798407
p188
aV22080955
p189
aV21526969
p190
aV21284980
p191
aV21127246
p192
aV20943427
p193
aV19917250
p194
aV19833968
p195
aV19359474
p196
aV19185492
p197
aV18956392
p198
aV18775307
p199
aV18419269
p200
aV17462724
p201
aV17463251
p202
aV17463252
p203
aV17410169
p204
aV17244599
p205
aV16794082
p206
aV16478995
p207
aV16332522
p208
aV16209941
p209
asS'3972797'
p210
(lp211
sS'14583634'
p212
(lp213
V12795636
p214
aV12194977
p215
aV12391231
p216
aV11861648
p217
aV11823536
p218
aV11602603
p219
aV11438529
p220
aV11467974
p221
aV11425330
p222
aV11335723
p223
aV11259427
p224
aV11231276
p225
aV11041873
p226
aV10843716
p227
aV10767349
p228
aV10786627
p229
aV10617625
p230
aV10482820
p231
aV10521469
p232
aV10432289
p233
aV10391906
p234
aV10397266
p235
aV9920877
p236
aV9826525
p237
asS'3674914'
p238
(lp239
sS'20170638'
p240
(lp241
V19570817
p242
aV17681941
p243
aV16291737
p244
aV15163304
p245
aV15314210
p246
aV14526100
p247
aV12499447
p248
aV11884614
p249
aV11352070
p250
aV10931946
p251
aV10683373
p252
aV9843212
p253
aV9826705
p254
aV9813193
p255
aV8622925
p256
aV8711206
p257
asS'11286509'
p258
(lp259
V10625670
p260
aV10482244
p261
aV10335846
p262
aV10335845
p263
aV10230783
p264
aV10197534
p265
aV9694893
p266
aV9637430
p267
aV9681195
p268
aV9342204
p269
aV9254694
p270
aV8980240
p271
aV8961484
p272
aV8611623
p273
aV8986342
p274
aV8740440
p275
aV8701470
p276
aV8565852
p277
aV7781067
p278
aV7726172
p279
aV7663132
p280
aV8428750
p281
aV8314583
p282
aV1594723
p283
aV1384200
p284
asS'12738960'
p285
(lp286
V12388597
p287
aV12160751
p288
aV11877500
p289
aV12074877
p290
aV12049935
p291
aV11970867
p292
aV11640925
p293
aV11567040
p294
aV11283303
p295
aV11422938
p296
aV11356872
p297
aV11381098
p298
aV11348590
p299
aV11312291
p300
aV11591811
p301
aV11163274
p302
aV11252776
p303
aV10973998
p304
aV10856930
p305
aV10731148
p306
aV10648730
p307
aV10480938
p308
aV10479681
p309
asS'18064667'
p310
(lp311
sS'8921909'
p312
(lp313
V7597652
p314
aV7883971
p315
aV7878058
p316
aV7596837
p317
aV8146196
p318
aV8289781
p319
aV7964191
p320
aV8391633
p321
aV8460149
p322
aV8496659
p323
aV1479285
p324
aV1466657
p325
aV1411543
p326
aV1596308
p327
aV1875928
p328
aV1672446
p329
aV2349238
p330
aV2332175
p331
aV2280177
p332
aV2373961
p333
aV2573070
p334
aV2563166
p335
aV3174435
p336
aV3659919
p337
aV3621347
p338
asS'16940177'
p339
(lp340
V16223943
p341
aV16093419
p342
aV16079152
p343
aV16107537
p344
aV15920471
p345
aV15703995
p346
aV15464586
p347
aV14715527
p348
aV15282745
p349
aV15044355
p350
aV14739144
p351
aV14644203
p352
aV12865297
p353
aV12571085
p354
aV12456679
p355
aV12546783
p356
aV12060663
p357
aV11944939
p358
aV11875002
p359
aV11509565
p360
aV11408257
p361
aV11396803
p362
aV11279518
p363
aV11123198
p364
asS'19136670'
p365
(lp366
V18037706
p367
aV17545692
p368
aV17143322
p369
aV16601231
p370
aV16231090
p371
aV15891396
p372
aV15738977
p373
aV15528479
p374
aV15314100
p375
aV15362876
p376
aV15178567
p377
aV15210842
p378
aV14517167
p379
aV12920050
p380
aV12637261
p381
aV12601178
p382
aV12569161
p383
aV12569160
p384
aV12511957
p385
aV12117740
p386
aV12032167
p387
aV11509445
p388
aV10744687
p389
aV10559220
p390
aV10318835
p391
asS'14555653'
p392
(lp393
V11525383
p394
aV11527386
p395
aV11438577
p396
aV10747923
p397
aV10630640
p398
aV10393912
p399
aV10373470
p400
aV9677324
p401
aV9616132
p402
aV9420334
p403
aV9315635
p404
aV9307303
p405
aV9150384
p406
aV8945939
p407
aV8787752
p408
aV9110405
p409
aV8872613
p410
aV7542657
p411
aV7891692
p412
aV7774811
p413
aV7642639
p414
aV8058329
p415
aV8197461
p416
aV8114703
p417
aV8255752
p418
asS'16940172'
p419
(lp420
V16597837
p421
aV16483777
p422
aV16079794
p423
aV15684403
p424
aV15620353
p425
aV15542832
p426
aV15476264
p427
aV14633678
p428
aV12881723
p429
aV12805226
p430
aV12769861
p431
aV12700765
p432
aV12676992
p433
aV12679040
p434
aV12493763
p435
aV12444977
p436
aV12372828
p437
aV12419229
p438
aV12101226
p439
aV11864595
p440
aV12037320
p441
aV11430829
p442
aV11245413
p443
aV10949939
p444
aV10766745
p445
as.