ccollections
OrderedDict
p1
((lp2
(lp3
S'GO:0047555'
p4
accopy_reg
_reconstructor
p5
(csets
Set
p6
c__builtin__
object
p7
NtRp8
((dp9
S'Q8MLZ3'
p10
I01
sS'Q23917'
p11
I01
sS'B0G0Y8'
p12
I01
sS'Q8MM62'
p13
I01
sS'P12019'
p14
I01
sS'Q54HY0'
p15
I01
stbaa(lp16
S'GO:0003684'
p17
ag5
(g6
g7
NtRp18
((dp19
S'B0M0P5'
p20
I01
sS'O00835'
p21
I01
stbaa(lp22
S'GO:0005515'
p23
ag5
(g6
g7
NtRp24
((dp25
S'P32252'
p26
I01
sS'Q75K16'
p27
I01
sS'P32256'
p28
I01
sS'P52285'
p29
I01
sS'P32254'
p30
I01
sS'P32255'
p31
I01
sS'Q54D08'
p32
I01
sS'P25870'
p33
I01
sS'Q75JI3'
p34
I01
sS'P16894'
p35
I01
sS'Q5XM24'
p36
I01
sS'P35352'
p37
I01
sS'Q54HL6'
p38
I01
sS'Q55FT9'
p39
I01
sS'Q54NP6'
p40
I01
sS'Q557I6'
p41
I01
sS'Q8I7T3'
p42
I01
sS'Q9Y0T2'
p43
I01
sS'Q54JE1'
p44
I01
sS'Q54S83'
p45
I01
sS'O00899'
p46
I01
sS'Q54QX3'
p47
I01
sS'Q86G47'
p48
I01
sS'Q54DW1'
p49
I01
sS'Q75J96'
p50
I01
sS'Q9U1M8'
p51
I01
sS'Q550K3'
p52
I01
sS'Q54K32'
p53
I01
sS'Q75K24'
p54
I01
sS'Q54E53'
p55
I01
sS'Q54JA5'
p56
I01
sS'Q54JA4'
p57
I01
sS'Q54JA3'
p58
I01
sS'Q55BD5'
p59
I01
sS'O15706'
p60
I01
sS'P34119'
p61
I01
sS'Q54TR1'
p62
I01
sS'P34117'
p63
I01
sS'P34112'
p64
I01
sS'Q86I66'
p65
I01
sS'Q556N5'
p66
I01
sS'Q8I0F4'
p67
I01
sS'Q54Q71'
p68
I01
sS'Q54YW1'
p69
I01
sS'Q8MN58'
p70
I01
sS'Q86I44'
p71
I01
sS'O00909'
p72
I01
sS'Q552E2'
p73
I01
sS'Q9NIV0'
p74
I01
sS'Q54C92'
p75
I01
sS'Q55GF9'
p76
I01
sS'P08799'
p77
I01
sS'P34042'
p78
I01
sS'Q869N2'
p79
I01
sS'Q8T8M2'
p80
I01
sS'P16051'
p81
I01
sS'Q54JY7'
p82
I01
sS'Q550R2'
p83
I01
sS'P24639'
p84
I01
sS'Q54CN9'
p85
I01
sS'Q54Y26'
p86
I01
sS'Q54XJ0'
p87
I01
sS'Q54WZ2'
p88
I01
sS'Q54XJ7'
p89
I01
sS'Q9GPK9'
p90
I01
sS'P03967'
p91
I01
sS'Q54QB1'
p92
I01
sS'Q86KG9'
p93
I01
sS'P13466'
p94
I01
sS'Q55GV9'
p95
I01
sS'Q54WH2'
p96
I01
sS'P54637'
p97
I01
sS'P54632'
p98
I01
sS'P36410'
p99
I01
sS'Q5TJ65'
p100
I01
sS'P36412'
p101
I01
sS'Q54VS0'
p102
I01
sS'P36415'
p103
I01
sS'Q54BD4'
p104
I01
sS'P02599'
p105
I01
sS'P18161'
p106
I01
sS'P07830'
p107
I01
sS'Q553U6'
p108
I01
sS'Q9Y0C9'
p109
I01
sS'Q86AQ7'
p110
I01
sS'O96622'
p111
I01
sS'O96623'
p112
I01
sS'Q9GSG9'
p113
I01
sS'Q54H39'
p114
I01
sS'P26200'
p115
I01
sS'Q54N17'
p116
I01
sS'Q54KF7'
p117
I01
sS'P54686'
p118
I01
sS'Q9Y0B7'
p119
I01
sS'Q9U9R7'
p120
I01
sS'P34144'
p121
I01
sS'P34145'
p122
I01
sS'Q54JS2'
p123
I01
sS'P34142'
p124
I01
sS'Q54HS9'
p125
I01
sS'Q54Y50'
p126
I01
sS'P34148'
p127
I01
sS'P34149'
p128
I01
sS'P07829'
p129
I01
sS'P54704'
p130
I01
sS'P54705'
p131
I01
sS'Q54WX4'
p132
I01
sS'Q23862'
p133
I01
sS'Q9GPM2'
p134
I01
sS'P42529'
p135
I01
sS'P0CE94'
p136
I01
sS'P42527'
p137
I01
sS'Q8N0B4'
p138
I01
sS'P26199'
p139
I01
sS'P15064'
p140
I01
sS'Q55BN3'
p141
I01
sS'Q54HC6'
p142
I01
sS'Q769F7'
p143
I01
sS'Q54N00'
p144
I01
sS'P27133'
p145
I01
sS'Q95YL4'
p146
I01
sS'Q95YL5'
p147
I01
sS'Q54RF4'
p148
I01
sS'P13021'
p149
I01
sS'P13022'
p150
I01
sS'Q7YSW8'
p151
I01
sS'Q54B82'
p152
I01
sS'P54657'
p153
I01
sS'P54654'
p154
I01
sS'Q557J6'
p155
I01
sS'P54653'
p156
I01
sS'P54651'
p157
I01
sS'P18613'
p158
I01
sS'Q86C65'
p159
I01
sS'O96923'
p160
I01
sS'Q1ZXQ8'
p161
I01
sS'Q9NI62'
p162
I01
sS'Q8MML6'
p163
I01
sS'Q54X82'
p164
I01
sS'Q54CK6'
p165
I01
sS'P90526'
p166
I01
sS'Q55G87'
p167
I01
sS'Q9U7C9'
p168
I01
sS'Q54CR8'
p169
I01
sS'Q54I18'
p170
I01
sS'P36408'
p171
I01
sS'Q86D86'
p172
I01
sS'Q54CA8'
p173
I01
sS'Q94464'
p174
I01
sS'Q86IL5'
p175
I01
sS'Q54E04'
p176
I01
sS'P54644'
p177
I01
sS'P54647'
p178
I01
sS'Q8WQ86'
p179
I01
sS'P10733'
p180
I01
sS'Q54WH5'
p181
I01
sS'P22685'
p182
I01
sS'O76187'
p183
I01
sS'Q9XXV8'
p184
I01
sS'O97470'
p185
I01
sS'P34092'
p186
I01
sS'Q6UK63'
p187
I01
sS'Q55CL6'
p188
I01
sS'Q54QT7'
p189
I01
sS'P34036'
p190
I01
sS'O77203'
p191
I01
sS'Q8MPQ7'
p192
I01
sS'B0M0P5'
p193
I01
sS'Q54YZ6'
p194
I01
sS'Q8I8U2'
p195
I01
sS'Q54HG2'
p196
I01
sS'P54672'
p197
I01
sS'Q9NAX4'
p198
I01
sS'Q54KI4'
p199
I01
sS'Q54NW7'
p200
I01
sS'Q86KI1'
p201
I01
sS'Q54QQ1'
p202
I01
sS'Q54GX7'
p203
I01
sS'Q54NF8'
p204
I01
sS'Q54X65'
p205
I01
sS'Q550U9'
p206
I01
sS'Q9GPF1'
p207
I01
sS'Q553P5'
p208
I01
sS'Q54PF3'
p209
I01
stbaa(lp210
S'GO:0043140'
p211
ag5
(g6
g7
NtRp212
((dp213
S'O00835'
p214
I01
stbaa(lp215
S'GO:0043565'
p216
ag5
(g6
g7
NtRp217
((dp218
S'Q55BY9'
p219
I01
sS'Q54PT9'
p220
I01
sS'Q54G53'
p221
I01
sS'Q54LR3'
p222
I01
sS'Q54LR0'
p223
I01
sS'Q54KJ1'
p224
I01
sS'O00841'
p225
I01
sS'O97101'
p226
I01
sS'Q54T71'
p227
I01
sS'Q54ER9'
p228
I01
sS'Q54RY6'
p229
I01
sS'Q54XG7'
p230
I01
stbaa(lp231
S'GO:0005525'
p232
ag5
(g6
g7
NtRp233
((dp234
S'P32252'
p235
I01
sS'P32253'
p236
I01
sS'O00909'
p237
I01
sS'P20790'
p238
I01
sS'P20791'
p239
I01
sS'P32254'
p240
I01
sS'Q54Z54'
p241
I01
sS'P36412'
p242
I01
sS'O15743'
p243
I01
sS'Q54EY2'
p244
I01
sS'Q9GPZ7'
p245
I01
sS'Q869N9'
p246
I01
sS'P15064'
p247
I01
sS'Q54T92'
p248
I01
sS'P18613'
p249
I01
sS'P21900'
p250
I01
sS'Q8MVR1'
p251
I01
sS'Q94464'
p252
I01
sS'Q55CB8'
p253
I01
sS'P16051'
p254
I01
stbaa(lp255
S'GO:0003677'
p256
ag5
(g6
g7
NtRp257
((dp258
S'Q55A48'
p259
I01
sS'Q54WG6'
p260
I01
sS'Q54YU6'
p261
I01
sS'Q54JH6'
p262
I01
sS'P34127'
p263
I01
sS'Q54K19'
p264
I01
sS'Q554C5'
p265
I01
sS'Q54RN0'
p266
I01
sS'Q558Z2'
p267
I01
sS'Q54PN9'
p268
I01
sS'O00910'
p269
I01
sS'Q869R9'
p270
I01
sS'P36417'
p271
I01
sS'Q54Z40'
p272
I01
sS'Q54IF9'
p273
I01
sS'Q95NZ8'
p274
I01
sS'Q54RQ4'
p275
I01
sS'O15816'
p276
I01
sS'P90520'
p277
I01
sS'Q54HX6'
p278
I01
sS'O97101'
p279
I01
sS'Q54YB7'
p280
I01
sS'Q54CR9'
p281
I01
stbaa(lp282
S'GO:0042803'
p283
ag5
(g6
g7
NtRp284
((dp285
S'Q54XG7'
p286
I01
sS'Q94491'
p287
I01
sS'Q558Z2'
p288
I01
sS'Q86A17'
p289
I01
sS'O00910'
p290
I01
sS'Q8WQ86'
p291
I01
sS'Q54BD4'
p292
I01
sS'Q54HG2'
p293
I01
sS'Q9NHF6'
p294
I01
sS'P54657'
p295
I01
sS'P08799'
p296
I01
sS'Q27564'
p297
I01
sS'Q70GP4'
p298
I01
sS'Q54ER9'
p299
I01
sS'Q03380'
p300
I01
sS'P08796'
p301
I01
sS'Q54UC9'
p302
I01
sS'P13466'
p303
I01
sS'Q95YL5'
p304
I01
stbaa(lp305
S'GO:0000287'
p306
ag5
(g6
g7
NtRp307
((dp308
S'P20425'
p309
I01
sS'O15743'
p310
I01
sS'Q54HH2'
p311
I01
sS'Q55G81'
p312
I01
stbaa(lp313
S'GO:0004722'
p314
ag5
(g6
g7
NtRp315
((dp316
S'Q9XZE5'
p317
I01
sS'Q7YSW8'
p318
I01
sS'O15743'
p319
I01
sS'Q54QR9'
p320
I01
sS'Q54Q99'
p321
I01
sS'Q9Y0B7'
p322
I01
stbaa(lp323
S'GO:0030145'
p324
ag5
(g6
g7
NtRp325
((dp326
S'O15743'
p327
I01
stbaa(lp328
S'GO:0004842'
p329
ag5
(g6
g7
NtRp330
((dp331
S'O60999'
p332
I01
sS'Q94490'
p333
I01
sS'Q9Y0T2'
p334
I01
stbaa(lp335
S'GO:0004672'
p336
ag5
(g6
g7
NtRp337
((dp338
S'Q86CS2'
p339
I01
sS'Q6B9X6'
p340
I01
sS'Q54QV3'
p341
I01
sS'O61122'
p342
I01
sS'P42527'
p343
I01
sS'P42525'
p344
I01
sS'Q54XQ2'
p345
I01
sS'O61125'
p346
I01
sS'Q86AT8'
p347
I01
sS'P34125'
p348
I01
sS'Q54UC0'
p349
I01
sS'Q54I36'
p350
I01
sS'Q54ER4'
p351
I01
sS'Q54WJ0'
p352
I01
sS'Q55CL6'
p353
I01
sS'Q6XHB2'
p354
I01
stbaa(lp355
S'GO:0004674'
p356
ag5
(g6
g7
NtRp357
((dp358
S'Q86CS2'
p359
I01
sS'Q556Y4'
p360
I01
sS'Q6B9X6'
p361
I01
sS'P51136'
p362
I01
sS'P25323'
p363
I01
sS'Q54DK4'
p364
I01
sS'Q54RB7'
p365
I01
sS'P42527'
p366
I01
sS'P90648'
p367
I01
sS'Q54SF9'
p368
I01
sS'P54644'
p369
I01
sS'Q54MY9'
p370
I01
sS'Q55FT4'
p371
I01
sS'Q02720'
p372
I01
sS'O61122'
p373
I01
sS'Q869N2'
p374
I01
sS'Q55BN8'
p375
I01
sS'Q8MY12'
p376
I01
sS'Q54QQ1'
p377
I01
stbaa(lp378
S'GO:0005524'
p379
ag5
(g6
g7
NtRp380
((dp381
S'Q54G53'
p382
I01
sS'Q8T662'
p383
I01
sS'P22887'
p384
I01
sS'P54644'
p385
I01
sS'Q8T663'
p386
I01
sS'P08799'
p387
I01
sS'Q8T665'
p388
I01
sS'Q27564'
p389
I01
sS'Q8T6B4'
p390
I01
sS'Q9TW28'
p391
I01
sS'Q558U1'
p392
I01
sS'P20425'
p393
I01
sS'Q6B516'
p394
I01
sS'P32073'
p395
I01
sS'P42527'
p396
I01
sS'P34092'
p397
I01
sS'P54697'
p398
I01
sS'Q95YH0'
p399
I01
sS'P34099'
p400
I01
sS'P34036'
p401
I01
sS'Q6B9X6'
p402
I01
sS'P51136'
p403
I01
sS'Q54DK4'
p404
I01
sS'P90648'
p405
I01
sS'P25323'
p406
I01
sS'Q03479'
p407
I01
sS'Q8T6B8'
p408
I01
sS'Q54U87'
p409
I01
sS'P54678'
p410
I01
sS'P54679'
p411
I01
sS'P34112'
p412
I01
sS'Q54QQ1'
p413
I01
sS'Q86JM7'
p414
I01
sS'Q54TA1'
p415
I01
sS'O61125'
p416
I01
sS'Q552C6'
p417
I01
sS'P34125'
p418
I01
sS'Q54I36'
p419
I01
sS'Q550L8'
p420
I01
sS'Q54UC0'
p421
I01
sS'Q86KF9'
p422
I01
sS'P90520'
p423
I01
sS'Q55G81'
p424
I01
sS'Q8T664'
p425
I01
stbaa(lp426
S'GO:0048365'
p427
ag5
(g6
g7
NtRp428
((dp429
S'Q54WH5'
p430
I01
sS'O76187'
p431
I01
sS'Q9GSG9'
p432
I01
sS'Q55GV3'
p433
I01
sS'Q869N2'
p434
I01
sS'Q54K32'
p435
I01
sS'Q1ZXH8'
p436
I01
stbaa(lp437
S'GO:0003779'
p438
ag5
(g6
g7
NtRp439
((dp440
S'Q54T47'
p441
I01
sS'Q54QT7'
p442
I01
sS'Q557J6'
p443
I01
sS'Q966T6'
p444
I01
sS'P26199'
p445
I01
sS'P26200'
p446
I01
sS'O76329'
p447
I01
sS'Q54CK9'
p448
I01
sS'Q03479'
p449
I01
sS'Q8T8M2'
p450
I01
stbaa(lp451
S'GO:0000822'
p452
ag5
(g6
g7
NtRp453
((dp454
S'P51405'
p455
I01
sS'O77082'
p456
I01
stbaa(lp457
S'GO:0008047'
p458
ag5
(g6
g7
NtRp459
((dp460
S'Q95ZG8'
p461
I01
sS'P36408'
p462
I01
sS'O77203'
p463
I01
sS'P35401'
p464
I01
stbaa(lp465
S'GO:0004096'
p466
ag5
(g6
g7
NtRp467
((dp468
S'O77229'
p469
I01
sS'Q55DH8'
p470
I01
stbaa(lp471
S'GO:0016491'
p472
ag5
(g6
g7
NtRp473
((dp474
S'O96099'
p475
I01
sS'Q9Y1W0'
p476
I01
stbaa(lp477
S'GO:0019901'
p478
ag5
(g6
g7
NtRp479
((dp480
S'P34144'
p481
I01
sS'P34145'
p482
I01
sS'P34146'
p483
I01
sS'P34147'
p484
I01
sS'P34143'
p485
I01
sS'O96390'
p486
I01
sS'P34149'
p487
I01
sS'P02599'
p488
I01
sS'Q55CT4'
p489
I01
sS'Q9GPS3'
p490
I01
sS'Q557J6'
p491
I01
sS'Q5FXM5'
p492
I01
stbaa(lp493
S'GO:0008976'
p494
ag5
(g6
g7
NtRp495
((dp496
S'Q54HE7'
p497
I01
sS'O96621'
p498
I01
sS'Q54I79'
p499
I01
sS'Q54BM7'
p500
I01
stbaa(lp501
S'GO:0051015'
p502
ag5
(g6
g7
NtRp503
((dp504
S'Q54MH2'
p505
I01
sS'P13231'
p506
I01
sS'P27133'
p507
I01
sS'P0DJ26'
p508
I01
sS'P08799'
p509
I01
sS'Q55E26'
p510
I01
sS'P34121'
p511
I01
sS'Q8T135'
p512
I01
sS'P10733'
p513
I01
sS'P54660'
p514
I01
sS'P42528'
p515
I01
sS'Q86G47'
p516
I01
sS'P42527'
p517
I01
sS'Q55E54'
p518
I01
sS'P34092'
p519
I01
sS'P54697'
p520
I01
sS'Q55C43'
p521
I01
sS'Q54M25'
p522
I01
sS'Q03380'
p523
I01
sS'P13466'
p524
I01
sS'P24005'
p525
I01
sS'Q54XX0'
p526
I01
sS'Q9TW28'
p527
I01
sS'Q54HG2'
p528
I01
sS'Q550R2'
p529
I01
sS'Q54N00'
p530
I01
sS'Q9XXV8'
p531
I01
sS'O96621'
p532
I01
sS'O96622'
p533
I01
sS'O96623'
p534
I01
sS'O96624'
p535
I01
sS'O96625'
p536
I01
sS'O96626'
p537
I01
sS'P05095'
p538
I01
sS'P54680'
p539
I01
sS'Q75JH9'
p540
I01
sS'P54686'
p541
I01
sS'Q9NHF6'
p542
I01
stbaa(lp543
S'GO:0008609'
p544
ag5
(g6
g7
NtRp545
((dp546
S'O96759'
p547
I01
stbaa(lp548
S'GO:0043178'
p549
ag5
(g6
g7
NtRp550
((dp551
S'O96759'
p552
I01
stbaa(lp553
S'GO:0050660'
p554
ag5
(g6
g7
NtRp555
((dp556
S'Q54F44'
p557
I01
sS'Q9XYS3'
p558
I01
sS'Q86GL4'
p559
I01
sS'O96759'
p560
I01
sS'Q54B10'
p561
I01
stbaa(lp562
S'GO:0017137'
p563
ag5
(g6
g7
NtRp564
((dp565
S'Q54UM5'
p566
I01
sS'O96904'
p567
I01
stbaa(lp568
S'GO:0005097'
p569
ag5
(g6
g7
NtRp570
((dp571
S'Q54UM5'
p572
I01
sS'O96904'
p573
I01
stbaa(lp574
S'GO:0005471'
p575
ag5
(g6
g7
NtRp576
((dp577
S'O97470'
p578
I01
stbaa(lp579
S'GO:0005509'
p580
ag5
(g6
g7
NtRp581
((dp582
S'Q54QT7'
p583
I01
sS'Q54QT9'
p584
I01
sS'Q54QT8'
p585
I01
sS'Q869S9'
p586
I01
sS'Q54LX0'
p587
I01
sS'Q55BA8'
p588
I01
sS'Q23858'
p589
I01
sS'Q75K28'
p590
I01
sS'Q966R0'
p591
I01
sS'P42529'
p592
I01
sS'Q55C62'
p593
I01
sS'Q95YL4'
p594
I01
sS'Q95YL5'
p595
I01
sS'Q54RF4'
p596
I01
sS'P24639'
p597
I01
sS'Q54GL7'
p598
I01
sS'Q966Q9'
p599
I01
sS'P02599'
p600
I01
sS'P54657'
p601
I01
sS'P54653'
p602
I01
sS'P54678'
p603
I01
sS'Q54RB9'
p604
I01
sS'Q6DN52'
p605
I01
sS'Q54PW0'
p606
I01
sS'Q86IV7'
p607
I01
sS'Q9GYD9'
p608
I01
sS'P05095'
p609
I01
sS'P54681'
p610
I01
sS'P54680'
p611
I01
sS'P09402'
p612
I01
stbaa(lp613
S'GO:0031013'
p614
ag5
(g6
g7
NtRp615
((dp616
S'P02599'
p617
I01
stbaa(lp618
S'GO:0050839'
p619
ag5
(g6
g7
NtRp620
((dp621
S'P02599'
p622
I01
stbaa(lp623
S'GO:0046871'
p624
ag5
(g6
g7
NtRp625
((dp626
S'P42530'
p627
I01
sS'P02886'
p628
I01
stbaa(lp629
S'GO:0070492'
p630
ag5
(g6
g7
NtRp631
((dp632
S'P42530'
p633
I01
sS'P02886'
p634
I01
stbaa(lp635
S'GO:0003924'
p636
ag5
(g6
g7
NtRp637
((dp638
S'P32252'
p639
I01
sS'P32253'
p640
I01
sS'Q55CA9'
p641
I01
sS'P32254'
p642
I01
sS'Q94464'
p643
I01
sS'Q9GPZ7'
p644
I01
sS'Q55CB7'
p645
I01
sS'P15064'
p646
I01
sS'P03967'
p647
I01
sS'Q54Z54'
p648
I01
sS'P16894'
p649
I01
sS'P18613'
p650
I01
sS'Q55CB8'
p651
I01
sS'P16051'
p652
I01
stbaa(lp653
S'GO:0005200'
p654
ag5
(g6
g7
NtRp655
((dp656
S'Q554S6'
p657
I01
sS'P07828'
p658
I01
sS'P07830'
p659
I01
sS'Q54GX7'
p660
I01
sS'P05095'
p661
I01
stbaa(lp662
S'GO:0030674'
p663
ag5
(g6
g7
NtRp664
((dp665
S'P05095'
p666
I01
stbaa(lp667
S'GO:0008603'
p668
ag5
(g6
g7
NtRp669
((dp670
S'P05987'
p671
I01
stbaa(lp672
S'GO:0030552'
p673
ag5
(g6
g7
NtRp674
((dp675
S'Q9TX43'
p676
I01
sS'P10819'
p677
I01
sS'P05987'
p678
I01
sS'P13773'
p679
I01
sS'P35352'
p680
I01
sS'Q54S40'
p681
I01
sS'P34907'
p682
I01
stbaa(lp683
S'GO:0004152'
p684
ag5
(g6
g7
NtRp685
((dp686
S'P07670'
p687
I01
stbaa(lp688
S'GO:0017022'
p689
ag5
(g6
g7
NtRp690
((dp691
S'P07830'
p692
I01
sS'Q54GX7'
p693
I01
stbaa(lp694
S'GO:0000146'
p695
ag5
(g6
g7
NtRp696
((dp697
S'P34092'
p698
I01
sS'P08799'
p699
I01
sS'Q03479'
p700
I01
sS'P54697'
p701
I01
sS'Q9TW28'
p702
I01
stbaa(lp703
S'GO:0003774'
p704
ag5
(g6
g7
NtRp705
((dp706
S'P08799'
p707
I01
stbaa(lp708
S'GO:0030554'
p709
ag5
(g6
g7
NtRp710
((dp711
S'P08799'
p712
I01
stbaa(lp713
S'GO:0030898'
p714
ag5
(g6
g7
NtRp715
((dp716
S'P34092'
p717
I01
sS'P25323'
p718
I01
sS'P08799'
p719
I01
sS'P13833'
p720
I01
sS'P54697'
p721
I01
sS'Q03479'
p722
I01
sS'P09402'
p723
I01
stbaa(lp724
S'GO:0071889'
p725
ag5
(g6
g7
NtRp726
((dp727
S'P08799'
p728
I01
stbaa(lp729
S'GO:0004588'
p730
ag5
(g6
g7
NtRp731
((dp732
S'P09556'
p733
I01
stbaa(lp734
S'GO:0004590'
p735
ag5
(g6
g7
NtRp736
((dp737
S'P09556'
p738
I01
stbaa(lp739
S'GO:0003785'
p740
ag5
(g6
g7
NtRp741
((dp742
S'P0DJ26'
p743
I01
sS'P13231'
p744
I01
sS'Q9GSG9'
p745
I01
sS'Q03380'
p746
I01
sS'Q9GRF8'
p747
I01
stbaa(lp748
S'GO:0048306'
p749
ag5
(g6
g7
NtRp750
((dp751
S'P10733'
p752
I01
stbaa(lp753
S'GO:0004013'
p754
ag5
(g6
g7
NtRp755
((dp756
S'P10819'
p757
I01
stbaa(lp758
S'GO:0004560'
p759
ag5
(g6
g7
NtRp760
((dp761
S'P10901'
p762
I01
stbaa(lp763
S'GO:0033938'
p764
ag5
(g6
g7
NtRp765
((dp766
S'P10901'
p767
I01
stbaa(lp768
S'GO:0005198'
p769
ag5
(g6
g7
NtRp770
((dp771
S'Q54YG2'
p772
I01
sS'P11976'
p773
I01
stbaa(lp774
S'GO:0004115'
p775
ag5
(g6
g7
NtRp776
((dp777
S'Q86H13'
p778
I01
sS'Q8MM62'
p779
I01
sS'Q23917'
p780
I01
sS'Q54HY0'
p781
I01
sS'P12019'
p782
I01
stbaa(lp783
S'GO:0005504'
p784
ag5
(g6
g7
NtRp785
((dp786
S'P13231'
p787
I01
sS'P42526'
p788
I01
stbaa(lp789
S'GO:0001637'
p790
ag5
(g6
g7
NtRp791
((dp792
S'P13773'
p793
I01
stbaa(lp794
S'GO:0001646'
p795
ag5
(g6
g7
NtRp796
((dp797
S'Q6UUW5'
p798
I01
sS'Q6UUW6'
p799
I01
sS'Q9TX43'
p800
I01
sS'P13773'
p801
I01
sS'P35352'
p802
I01
sS'Q54U75'
p803
I01
sS'P34907'
p804
I01
stbaa(lp805
S'GO:0004871'
p806
ag5
(g6
g7
NtRp807
((dp808
S'Q556R7'
p809
I01
sS'Q86IV5'
p810
I01
sS'Q9TX43'
p811
I01
sS'P34045'
p812
I01
sS'P13773'
p813
I01
sS'P35352'
p814
I01
sS'Q86HE5'
p815
I01
sS'P16894'
p816
I01
sS'P34907'
p817
I01
stbaa(lp818
S'GO:0019900'
p819
ag5
(g6
g7
NtRp820
((dp821
S'P15064'
p822
I01
stbaa(lp823
S'GO:0050797'
p824
ag5
(g6
g7
NtRp825
((dp826
S'P15808'
p827
I01
stbaa(lp828
S'GO:0001664'
p829
ag5
(g6
g7
NtRp830
((dp831
S'P16051'
p832
I01
stbaa(lp833
S'GO:0004712'
p834
ag5
(g6
g7
NtRp835
((dp836
S'P18160'
p837
I01
stbaa(lp838
S'GO:0004713'
p839
ag5
(g6
g7
NtRp840
((dp841
S'Q54TA1'
p842
I01
sS'Q552C6'
p843
I01
sS'P18160'
p844
I01
sS'P18161'
p845
I01
sS'Q54I36'
p846
I01
sS'Q54RB7'
p847
I01
sS'Q75JK0'
p848
I01
stbaa(lp849
S'GO:0017160'
p850
ag5
(g6
g7
NtRp851
((dp852
S'P18613'
p853
I01
stbaa(lp854
S'GO:0004070'
p855
ag5
(g6
g7
NtRp856
((dp857
S'P20054'
p858
I01
stbaa(lp859
S'GO:0004088'
p860
ag5
(g6
g7
NtRp861
((dp862
S'P20054'
p863
I01
stbaa(lp864
S'GO:0004151'
p865
ag5
(g6
g7
NtRp866
((dp867
S'P20054'
p868
I01
stbaa(lp869
S'GO:0004127'
p870
ag5
(g6
g7
NtRp871
((dp872
S'P20425'
p873
I01
stbaa(lp874
S'GO:0016776'
p875
ag5
(g6
g7
NtRp876
((dp877
S'P20425'
p878
I01
stbaa(lp879
S'GO:0033862'
p880
ag5
(g6
g7
NtRp881
((dp882
S'P20425'
p883
I01
stbaa(lp884
S'GO:0032794'
p885
ag5
(g6
g7
NtRp886
((dp887
S'P36412'
p888
I01
sS'P20790'
p889
I01
stbaa(lp890
S'GO:0004019'
p891
ag5
(g6
g7
NtRp892
((dp893
S'P21900'
p894
I01
stbaa(lp895
S'GO:0004550'
p896
ag5
(g6
g7
NtRp897
((dp898
S'P34093'
p899
I01
sS'P22887'
p900
I01
stbaa(lp901
S'GO:0005544'
p902
ag5
(g6
g7
NtRp903
((dp904
S'Q7YXU4'
p905
I01
sS'P24639'
p906
I01
stbaa(lp907
S'GO:0004687'
p908
ag5
(g6
g7
NtRp909
((dp910
S'P25323'
p911
I01
stbaa(lp912
S'GO:0004683'
p913
ag5
(g6
g7
NtRp914
((dp915
S'P25323'
p916
I01
sS'Q27564'
p917
I01
stbaa(lp918
S'GO:0005516'
p919
ag5
(g6
g7
NtRp920
((dp921
S'Q9GPM4'
p922
I01
sS'P54671'
p923
I01
sS'Q9U7C9'
p924
I01
sS'Q7YSW8'
p925
I01
sS'Q54T86'
p926
I01
sS'P25323'
p927
I01
sS'Q27564'
p928
I01
sS'Q6B9X6'
p929
I01
sS'Q54JC0'
p930
I01
sS'P34117'
p931
I01
sS'Q9GPK9'
p932
I01
sS'Q54K32'
p933
I01
sS'P54657'
p934
I01
stbaa(lp935
S'GO:0032037'
p936
ag5
(g6
g7
NtRp937
((dp938
S'Q557J6'
p939
I01
sS'P26199'
p940
I01
sS'P26200'
p941
I01
stbaa(lp942
S'GO:0004691'
p943
ag5
(g6
g7
NtRp944
((dp945
S'P54644'
p946
I01
sS'P34099'
p947
I01
sS'P28178'
p948
I01
sS'Q75JK0'
p949
I01
stbaa(lp950
S'GO:0003922'
p951
ag5
(g6
g7
NtRp952
((dp953
S'P32073'
p954
I01
stbaa(lp955
S'GO:0015631'
p956
ag5
(g6
g7
NtRp957
((dp958
S'P34036'
p959
I01
sS'P90521'
p960
I01
stbaa(lp961
S'GO:0016887'
p962
ag5
(g6
g7
NtRp963
((dp964
S'P54679'
p965
I01
sS'P34036'
p966
I01
sS'P42527'
p967
I01
sS'Q54UC9'
p968
I01
sS'Q9TW28'
p969
I01
stbaa(lp970
S'GO:0042623'
p971
ag5
(g6
g7
NtRp972
((dp973
S'P34036'
p974
I01
stbaa(lp975
S'GO:0032031'
p976
ag5
(g6
g7
NtRp977
((dp978
S'P34092'
p979
I01
stbaa(lp980
S'GO:0004693'
p981
ag5
(g6
g7
NtRp982
((dp983
S'P34117'
p984
I01
sS'P34112'
p985
I01
stbaa(lp986
S'GO:0008184'
p987
ag5
(g6
g7
NtRp988
((dp989
S'P34114'
p990
I01
sS'Q00766'
p991
I01
stbaa(lp992
S'GO:0008233'
p993
ag5
(g6
g7
NtRp994
((dp995
S'Q55G04'
p996
I01
sS'Q55GJ6'
p997
I01
sS'P34119'
p998
I01
sS'Q54BC8'
p999
I01
sS'Q54XM7'
p1000
I01
sS'Q86A21'
p1001
I01
sS'Q55DY7'
p1002
I01
sS'Q27563'
p1003
I01
sS'Q27562'
p1004
I01
sS'P34120'
p1005
I01
sS'Q55D66'
p1006
I01
sS'Q54DM7'
p1007
I01
sS'Q556Q0'
p1008
I01
sS'Q54QR2'
p1009
I01
stbaa(lp1010
S'GO:0000166'
p1011
ag5
(g6
g7
NtRp1012
((dp1013
S'P36412'
p1014
I01
sS'P34125'
p1015
I01
stbaa(lp1016
S'GO:0004143'
p1017
ag5
(g6
g7
NtRp1018
((dp1019
S'P34125'
p1020
I01
stbaa(lp1021
S'GO:0019992'
p1022
ag5
(g6
g7
NtRp1023
((dp1024
S'Q86A02'
p1025
I01
sS'P34125'
p1026
I01
stbaa(lp1027
S'GO:0016905'
p1028
ag5
(g6
g7
NtRp1029
((dp1030
S'Q8MY12'
p1031
I01
sS'P42527'
p1032
I01
sS'P90648'
p1033
I01
sS'Q54SF9'
p1034
I01
sS'P34125'
p1035
I01
sS'Q6B9X6'
p1036
I01
sS'Q869N2'
p1037
I01
stbaa(lp1038
S'GO:0004725'
p1039
ag5
(g6
g7
NtRp1040
((dp1041
S'Q54QM6'
p1042
I01
sS'P34138'
p1043
I01
stbaa(lp1044
S'GO:0016791'
p1045
ag5
(g6
g7
NtRp1046
((dp1047
S'Q55CS7'
p1048
I01
sS'P54637'
p1049
I01
sS'P34138'
p1050
I01
sS'Q54JL7'
p1051
I01
stbaa(lp1052
S'GO:0019904'
p1053
ag5
(g6
g7
NtRp1054
((dp1055
S'P34149'
p1056
I01
stbaa(lp1057
S'GO:0005547'
p1058
ag5
(g6
g7
NtRp1059
((dp1060
S'Q86KG9'
p1061
I01
sS'Q9GSG9'
p1062
I01
sS'P35401'
p1063
I01
stbaa(lp1064
S'GO:0043325'
p1065
ag5
(g6
g7
NtRp1066
((dp1067
S'Q86KG9'
p1068
I01
sS'P35401'
p1069
I01
stbaa(lp1070
S'GO:0031682'
p1071
ag5
(g6
g7
NtRp1072
((dp1073
S'P36408'
p1074
I01
stbaa(lp1075
S'GO:0003700'
p1076
ag5
(g6
g7
NtRp1077
((dp1078
S'Q54TN2'
p1079
I01
sS'Q54PT9'
p1080
I01
sS'P36417'
p1081
I01
sS'Q54TY7'
p1082
I01
sS'Q550D5'
p1083
I01
sS'Q54RY6'
p1084
I01
stbaa(lp1085
S'GO:0004776'
p1086
ag5
(g6
g7
NtRp1087
((dp1088
S'P36967'
p1089
I01
stbaa(lp1090
S'GO:0004748'
p1091
ag5
(g6
g7
NtRp1092
((dp1093
S'P42521'
p1094
I01
sS'Q54CW7'
p1095
I01
stbaa(lp1096
S'GO:0045159'
p1097
ag5
(g6
g7
NtRp1098
((dp1099
S'Q55D99'
p1100
I01
sS'Q86G47'
p1101
I01
sS'P42527'
p1102
I01
sS'P90648'
p1103
I01
sS'Q54YW1'
p1104
I01
stbaa(lp1105
S'GO:0016936'
p1106
ag5
(g6
g7
NtRp1107
((dp1108
S'P42530'
p1109
I01
stbaa(lp1110
S'GO:0003735'
p1111
ag5
(g6
g7
NtRp1112
((dp1113
S'Q54UG4'
p1114
I01
sS'P48160'
p1115
I01
stbaa(lp1116
S'GO:0016889'
p1117
ag5
(g6
g7
NtRp1118
((dp1119
S'P51173'
p1120
I01
stbaa(lp1121
S'GO:0032038'
p1122
ag5
(g6
g7
NtRp1123
((dp1124
S'P54632'
p1125
I01
stbaa(lp1126
S'GO:0046961'
p1127
ag5
(g6
g7
NtRp1128
((dp1129
S'P54642'
p1130
I01
stbaa(lp1131
S'GO:0019887'
p1132
ag5
(g6
g7
NtRp1133
((dp1134
S'P54644'
p1135
I01
stbaa(lp1136
S'GO:0000182'
p1137
ag5
(g6
g7
NtRp1138
((dp1139
S'P54658'
p1140
I01
stbaa(lp1141
S'GO:0030246'
p1142
ag5
(g6
g7
NtRp1143
((dp1144
S'Q54M25'
p1145
I01
sS'P54660'
p1146
I01
stbaa(lp1147
S'GO:0043495'
p1148
ag5
(g6
g7
NtRp1149
((dp1150
S'P54660'
p1151
I01
stbaa(lp1152
S'GO:0017016'
p1153
ag5
(g6
g7
NtRp1154
((dp1155
S'P54673'
p1156
I01
sS'Q9Y0C9'
p1157
I01
sS'Q54QQ1'
p1158
I01
stbaa(lp1159
S'GO:0016303'
p1160
ag5
(g6
g7
NtRp1161
((dp1162
S'P54675'
p1163
I01
stbaa(lp1164
S'GO:0005388'
p1165
ag5
(g6
g7
NtRp1166
((dp1167
S'P54678'
p1168
I01
stbaa(lp1169
S'GO:0015085'
p1170
ag5
(g6
g7
NtRp1171
((dp1172
S'P54678'
p1173
I01
sS'Q9NA13'
p1174
I01
sS'Q54WZ6'
p1175
I01
stbaa(lp1176
S'GO:0008553'
p1177
ag5
(g6
g7
NtRp1178
((dp1179
S'P54679'
p1180
I01
stbaa(lp1181
S'GO:0031210'
p1182
ag5
(g6
g7
NtRp1183
((dp1184
S'P54681'
p1185
I01
stbaa(lp1186
S'GO:0008236'
p1187
ag5
(g6
g7
NtRp1188
((dp1189
S'Q9GTN7'
p1190
I01
sS'P54683'
p1191
I01
sS'Q23868'
p1192
I01
stbaa(lp1193
S'GO:0042626'
p1194
ag5
(g6
g7
NtRp1195
((dp1196
S'Q8T675'
p1197
I01
sS'Q8T690'
p1198
I01
sS'Q55BC0'
p1199
I01
sS'Q9GTN7'
p1200
I01
sS'Q9NGP5'
p1201
I01
sS'Q54CG0'
p1202
I01
sS'Q54R52'
p1203
I01
sS'Q54LE6'
p1204
I01
sS'Q8T9W1'
p1205
I01
sS'Q8T663'
p1206
I01
sS'Q23868'
p1207
I01
sS'Q8T664'
p1208
I01
sS'Q86HQ2'
p1209
I01
sS'Q8T8P3'
p1210
I01
sS'Q8T5Z7'
p1211
I01
sS'Q54W20'
p1212
I01
sS'Q8T9W2'
p1213
I01
sS'Q54W24'
p1214
I01
sS'Q8T665'
p1215
I01
sS'Q55DQ2'
p1216
I01
sS'Q8T6J0'
p1217
I01
sS'Q55DR1'
p1218
I01
sS'Q8T689'
p1219
I01
sS'Q8T686'
p1220
I01
sS'Q8T685'
p1221
I01
sS'Q54HM0'
p1222
I01
sS'Q8T683'
p1223
I01
sS'Q54BU4'
p1224
I01
sS'Q54EK2'
p1225
I01
sS'Q8T6J5'
p1226
I01
sS'Q55GB1'
p1227
I01
sS'Q54VJ0'
p1228
I01
sS'Q8ST87'
p1229
I01
sS'Q54V86'
p1230
I01
sS'Q8T673'
p1231
I01
sS'Q54DT1'
p1232
I01
sS'Q8T674'
p1233
I01
sS'Q54BT3'
p1234
I01
sS'Q54TV2'
p1235
I01
sS'Q8T6B4'
p1236
I01
sS'Q54JR2'
p1237
I01
sS'Q54TV1'
p1238
I01
sS'Q8T9W4'
p1239
I01
sS'Q8T6B8'
p1240
I01
sS'Q54NL1'
p1241
I01
sS'Q8ST66'
p1242
I01
sS'Q8T6J1'
p1243
I01
sS'Q54W19'
p1244
I01
sS'Q8T6H8'
p1245
I01
sS'Q8T6J2'
p1246
I01
sS'Q8T6H3'
p1247
I01
sS'Q556W2'
p1248
I01
sS'Q555Z5'
p1249
I01
sS'Q54P13'
p1250
I01
sS'Q54U44'
p1251
I01
sS'P54683'
p1252
I01
sS'Q54K24'
p1253
I01
sS'Q552P3'
p1254
I01
sS'Q55DW4'
p1255
I01
sS'Q54BT5'
p1256
I01
stbaa(lp1257
S'GO:0043531'
p1258
ag5
(g6
g7
NtRp1259
((dp1260
S'P54697'
p1261
I01
stbaa(lp1262
S'GO:0003918'
p1263
ag5
(g6
g7
NtRp1264
((dp1265
S'P90520'
p1266
I01
stbaa(lp1267
S'GO:0003872'
p1268
ag5
(g6
g7
NtRp1269
((dp1270
S'P90521'
p1271
I01
stbaa(lp1272
S'GO:0005244'
p1273
ag5
(g6
g7
NtRp1274
((dp1275
S'Q01501'
p1276
I01
stbaa(lp1277
S'GO:0015288'
p1278
ag5
(g6
g7
NtRp1279
((dp1280
S'Q01501'
p1281
I01
stbaa(lp1282
S'GO:0004435'
p1283
ag5
(g6
g7
NtRp1284
((dp1285
S'Q02158'
p1286
I01
stbaa(lp1287
S'GO:0004016'
p1288
ag5
(g6
g7
NtRp1289
((dp1290
S'Q03101'
p1291
I01
sS'Q03100'
p1292
I01
sS'Q55F68'
p1293
I01
stbaa(lp1294
S'GO:0046982'
p1295
ag5
(g6
g7
NtRp1296
((dp1297
S'Q54RQ4'
p1298
I01
sS'Q03101'
p1299
I01
sS'Q54ER9'
p1300
I01
sS'Q54RN0'
p1301
I01
sS'Q54XG7'
p1302
I01
sS'Q95YL4'
p1303
I01
sS'Q95YL5'
p1304
I01
stbaa(lp1305
S'GO:0005537'
p1306
ag5
(g6
g7
NtRp1307
((dp1308
S'Q03380'
p1309
I01
stbaa(lp1310
S'GO:0003874'
p1311
ag5
(g6
g7
NtRp1312
((dp1313
S'Q1ZXI0'
p1314
I01
stbaa(lp1315
S'GO:0005522'
p1316
ag5
(g6
g7
NtRp1317
((dp1318
S'Q54WH2'
p1319
I01
sS'Q5TJ55'
p1320
I01
sS'Q9XXV8'
p1321
I01
sS'Q5TJ57'
p1322
I01
sS'Q5TJ56'
p1323
I01
sS'Q94464'
p1324
I01
sS'Q54SP2'
p1325
I01
sS'Q54PI9'
p1326
I01
sS'Q557J6'
p1327
I01
sS'Q54ER5'
p1328
I01
sS'Q1ZXK2'
p1329
I01
sS'Q54N00'
p1330
I01
stbaa(lp1331
S'GO:0004467'
p1332
ag5
(g6
g7
NtRp1333
((dp1334
S'Q55DR6'
p1335
I01
sS'Q1ZXQ4'
p1336
I01
stbaa(lp1337
S'GO:0008017'
p1338
ag5
(g6
g7
NtRp1339
((dp1340
S'Q8T135'
p1341
I01
sS'Q1ZXQ8'
p1342
I01
sS'Q8WQ86'
p1343
I01
stbaa(lp1344
S'GO:0045502'
p1345
ag5
(g6
g7
NtRp1346
((dp1347
S'Q1ZXQ8'
p1348
I01
sS'Q8WQ86'
p1349
I01
stbaa(lp1350
S'GO:0004797'
p1351
ag5
(g6
g7
NtRp1352
((dp1353
S'Q27564'
p1354
I01
stbaa(lp1355
S'GO:0000049'
p1356
ag5
(g6
g7
NtRp1357
((dp1358
S'Q3ZE13'
p1359
I01
stbaa(lp1360
S'GO:0003723'
p1361
ag5
(g6
g7
NtRp1362
((dp1363
S'Q54RQ4'
p1364
I01
sS'Q3ZE13'
p1365
I01
sS'Q55A48'
p1366
I01
sS'Q6TMI9'
p1367
I01
sS'Q54WA6'
p1368
I01
sS'Q54RN0'
p1369
I01
stbaa(lp1370
S'GO:0004526'
p1371
ag5
(g6
g7
NtRp1372
((dp1373
S'Q54W23'
p1374
I01
sS'Q3ZE13'
p1375
I01
sS'Q54HY6'
p1376
I01
stbaa(lp1377
S'GO:0004222'
p1378
ag5
(g6
g7
NtRp1379
((dp1380
S'Q4W6B5'
p1381
I01
stbaa(lp1382
S'GO:0003958'
p1383
ag5
(g6
g7
NtRp1384
((dp1385
S'Q54B10'
p1386
I01
stbaa(lp1387
S'GO:0010181'
p1388
ag5
(g6
g7
NtRp1389
((dp1390
S'Q54B10'
p1391
I01
stbaa(lp1392
S'GO:0050661'
p1393
ag5
(g6
g7
NtRp1394
((dp1395
S'Q9XYS3'
p1396
I01
sS'Q54F44'
p1397
I01
sS'Q86GL4'
p1398
I01
sS'Q54GP8'
p1399
I01
sS'Q54B10'
p1400
I01
sS'Q8T137'
p1401
I01
stbaa(lp1402
S'GO:0008168'
p1403
ag5
(g6
g7
NtRp1404
((dp1405
S'Q54B59'
p1406
I01
stbaa(lp1407
S'GO:0016740'
p1408
ag5
(g6
g7
NtRp1409
((dp1410
S'Q54B85'
p1411
I01
stbaa(lp1412
S'GO:0005215'
p1413
ag5
(g6
g7
NtRp1414
((dp1415
S'Q54VJ0'
p1416
I01
sS'Q54W24'
p1417
I01
sS'Q8T6H8'
p1418
I01
sS'Q8T6H3'
p1419
I01
sS'Q8ST87'
p1420
I01
sS'Q54V86'
p1421
I01
sS'Q54LE6'
p1422
I01
sS'Q8T9W4'
p1423
I01
sS'Q54P13'
p1424
I01
sS'Q54U44'
p1425
I01
sS'Q86M88'
p1426
I01
sS'Q54K24'
p1427
I01
sS'Q54BT3'
p1428
I01
sS'Q54JR2'
p1429
I01
sS'Q8T9W2'
p1430
I01
sS'Q54BU4'
p1431
I01
sS'Q54EK2'
p1432
I01
sS'Q54NL1'
p1433
I01
stbaa(lp1434
S'GO:0009922'
p1435
ag5
(g6
g7
NtRp1436
((dp1437
S'Q54CJ4'
p1438
I01
stbaa(lp1439
S'GO:0003910'
p1440
ag5
(g6
g7
NtRp1441
((dp1442
S'Q54CR9'
p1443
I01
stbaa(lp1444
S'GO:0004439'
p1445
ag5
(g6
g7
NtRp1446
((dp1447
S'Q54D97'
p1448
I01
sS'Q8I7P3'
p1449
I01
sS'Q86IG3'
p1450
I01
sS'Q54PV1'
p1451
I01
stbaa(lp1452
S'GO:0004445'
p1453
ag5
(g6
g7
NtRp1454
((dp1455
S'Q54D97'
p1456
I01
sS'Q8I7P3'
p1457
I01
sS'Q54W40'
p1458
I01
sS'Q54PV1'
p1459
I01
stbaa(lp1460
S'GO:0003876'
p1461
ag5
(g6
g7
NtRp1462
((dp1463
S'Q54DD0'
p1464
I01
stbaa(lp1465
S'GO:0001104'
p1466
ag5
(g6
g7
NtRp1467
((dp1468
S'Q54DD4'
p1469
I01
stbaa(lp1470
S'GO:0004028'
p1471
ag5
(g6
g7
NtRp1472
((dp1473
S'Q54DG1'
p1474
I01
stbaa(lp1475
S'GO:0030248'
p1476
ag5
(g6
g7
NtRp1477
((dp1478
S'Q54EX0'
p1479
I01
sS'Q55BZ9'
p1480
I01
sS'Q54JS4'
p1481
I01
sS'Q54JS3'
p1482
I01
sS'Q54LF5'
p1483
I01
sS'Q86KB6'
p1484
I01
sS'Q55BZ7'
p1485
I01
sS'Q54DJ4'
p1486
I01
sS'Q54DJ2'
p1487
I01
sS'Q54DJ3'
p1488
I01
sS'Q54DJ1'
p1489
I01
sS'Q54PW1'
p1490
I01
sS'Q54VM7'
p1491
I01
sS'Q55BZ8'
p1492
I01
sS'Q54U76'
p1493
I01
sS'Q54LG5'
p1494
I01
sS'Q55BZ6'
p1495
I01
sS'Q86K68'
p1496
I01
sS'Q55FE6'
p1497
I01
stbaa(lp1498
S'GO:0001965'
p1499
ag5
(g6
g7
NtRp1500
((dp1501
S'Q54DU0'
p1502
I01
stbaa(lp1503
S'GO:0005085'
p1504
ag5
(g6
g7
NtRp1505
((dp1506
S'Q54EY2'
p1507
I01
sS'Q54DU0'
p1508
I01
sS'Q8IS21'
p1509
I01
stbaa(lp1510
S'GO:0005546'
p1511
ag5
(g6
g7
NtRp1512
((dp1513
S'Q54EH1'
p1514
I01
sS'Q86KG9'
p1515
I01
sS'Q9GSG9'
p1516
I01
sS'Q8T8M2'
p1517
I01
sS'Q54QQ1'
p1518
I01
stbaa(lp1519
S'GO:0030276'
p1520
ag5
(g6
g7
NtRp1521
((dp1522
S'Q54EH1'
p1523
I01
sS'Q54Y50'
p1524
I01
sS'Q8I8U2'
p1525
I01
stbaa(lp1526
S'GO:0000976'
p1527
ag5
(g6
g7
NtRp1528
((dp1529
S'Q54ER9'
p1530
I01
stbaa(lp1531
S'GO:0044212'
p1532
ag5
(g6
g7
NtRp1533
((dp1534
S'Q54ER9'
p1535
I01
stbaa(lp1536
S'GO:0004965'
p1537
ag5
(g6
g7
NtRp1538
((dp1539
S'Q54ET0'
p1540
I01
stbaa(lp1541
S'GO:0008066'
p1542
ag5
(g6
g7
NtRp1543
((dp1544
S'Q54ET0'
p1545
I01
stbaa(lp1546
S'GO:0004148'
p1547
ag5
(g6
g7
NtRp1548
((dp1549
S'Q54EW8'
p1550
I01
stbaa(lp1551
S'GO:0005261'
p1552
ag5
(g6
g7
NtRp1553
((dp1554
S'Q54EY0'
p1555
I01
sS'Q54HZ8'
p1556
I01
sS'Q558Y3'
p1557
I01
stbaa(lp1558
S'GO:0003743'
p1559
ag5
(g6
g7
NtRp1560
((dp1561
S'Q54EY2'
p1562
I01
sS'Q869N9'
p1563
I01
stbaa(lp1564
S'GO:0016175'
p1565
ag5
(g6
g7
NtRp1566
((dp1567
S'Q54F44'
p1568
I01
sS'Q9XYS3'
p1569
I01
sS'Q86GL4'
p1570
I01
sS'Q867X6'
p1571
I01
stbaa(lp1572
S'GO:0020037'
p1573
ag5
(g6
g7
NtRp1574
((dp1575
S'Q54F44'
p1576
I01
sS'Q9XYS3'
p1577
I01
sS'Q86GL4'
p1578
I01
stbaa(lp1579
S'GO:0003824'
p1580
ag5
(g6
g7
NtRp1581
((dp1582
S'Q54FI4'
p1583
I01
stbaa(lp1584
S'GO:0051219'
p1585
ag5
(g6
g7
NtRp1586
((dp1587
S'Q54U31'
p1588
I01
sS'Q70GP4'
p1589
I01
sS'Q54Y55'
p1590
I01
sS'Q54IP4'
p1591
I01
sS'Q54G43'
p1592
I01
sS'Q54RB7'
p1593
I01
sS'Q86I20'
p1594
I01
stbaa(lp1595
S'GO:0004329'
p1596
ag5
(g6
g7
NtRp1597
((dp1598
S'Q54G53'
p1599
I01
stbaa(lp1600
S'GO:0017024'
p1601
ag5
(g6
g7
NtRp1602
((dp1603
S'Q54GL7'
p1604
I01
sS'Q95VZ3'
p1605
I01
stbaa(lp1606
S'GO:0004757'
p1607
ag5
(g6
g7
NtRp1608
((dp1609
S'Q54GP3'
p1610
I01
stbaa(lp1611
S'GO:0004364'
p1612
ag5
(g6
g7
NtRp1613
((dp1614
S'Q54GP8'
p1615
I01
stbaa(lp1616
S'GO:0043295'
p1617
ag5
(g6
g7
NtRp1618
((dp1619
S'Q8T137'
p1620
I01
sS'Q54GP8'
p1621
I01
stbaa(lp1622
S'GO:0015446'
p1623
ag5
(g6
g7
NtRp1624
((dp1625
S'Q54GU0'
p1626
I01
stbaa(lp1627
S'GO:0030170'
p1628
ag5
(g6
g7
NtRp1629
((dp1630
S'Q54HH2'
p1631
I01
stbaa(lp1632
S'GO:0030378'
p1633
ag5
(g6
g7
NtRp1634
((dp1635
S'Q54HH2'
p1636
I01
stbaa(lp1637
S'GO:0030527'
p1638
ag5
(g6
g7
NtRp1639
((dp1640
S'Q54HI5'
p1641
I01
stbaa(lp1642
S'GO:0042800'
p1643
ag5
(g6
g7
NtRp1644
((dp1645
S'Q54HS3'
p1646
I01
stbaa(lp1647
S'GO:0008565'
p1648
ag5
(g6
g7
NtRp1649
((dp1650
S'Q54HS9'
p1651
I01
sS'Q86H98'
p1652
I01
stbaa(lp1653
S'GO:0045294'
p1654
ag5
(g6
g7
NtRp1655
((dp1656
S'Q54I71'
p1657
I01
stbaa(lp1658
S'GO:0051505'
p1659
ag5
(g6
g7
NtRp1660
((dp1661
S'Q54IL5'
p1662
I01
stbaa(lp1663
S'GO:0051506'
p1664
ag5
(g6
g7
NtRp1665
((dp1666
S'Q54IL5'
p1667
I01
stbaa(lp1668
S'GO:0051507'
p1669
ag5
(g6
g7
NtRp1670
((dp1671
S'Q54IL5'
p1672
I01
stbaa(lp1673
S'GO:0051508'
p1674
ag5
(g6
g7
NtRp1675
((dp1676
S'Q54IL5'
p1677
I01
stbaa(lp1678
S'GO:0051509'
p1679
ag5
(g6
g7
NtRp1680
((dp1681
S'Q54IL5'
p1682
I01
stbaa(lp1683
S'GO:0033204'
p1684
ag5
(g6
g7
NtRp1685
((dp1686
S'Q54IT0'
p1687
I01
stbaa(lp1688
S'GO:0004931'
p1689
ag5
(g6
g7
NtRp1690
((dp1691
S'Q54J33'
p1692
I01
sS'Q553Y0'
p1693
I01
stbaa(lp1694
S'GO:0015276'
p1695
ag5
(g6
g7
NtRp1696
((dp1697
S'Q86JM7'
p1698
I01
sS'Q54JH4'
p1699
I01
sS'Q553Y1'
p1700
I01
stbaa(lp1701
S'GO:0003886'
p1702
ag5
(g6
g7
NtRp1703
((dp1704
S'Q54JH6'
p1705
I01
stbaa(lp1706
S'GO:0004340'
p1707
ag5
(g6
g7
NtRp1708
((dp1709
S'Q54K22'
p1710
I01
stbaa(lp1711
S'GO:0005099'
p1712
ag5
(g6
g7
NtRp1713
((dp1714
S'Q55AR6'
p1715
I01
sS'Q54K32'
p1716
I01
stbaa(lp1717
S'GO:0004630'
p1718
ag5
(g6
g7
NtRp1719
((dp1720
S'Q54K50'
p1721
I01
sS'Q54WR4'
p1722
I01
stbaa(lp1723
S'GO:0004146'
p1724
ag5
(g6
g7
NtRp1725
((dp1726
S'Q54LA0'
p1727
I01
stbaa(lp1728
S'GO:0005201'
p1729
ag5
(g6
g7
NtRp1730
((dp1731
S'Q54LG5'
p1732
I01
sS'Q54LF5'
p1733
I01
stbaa(lp1734
S'GO:0051287'
p1735
ag5
(g6
g7
NtRp1736
((dp1737
S'Q54LW0'
p1738
I01
sS'Q86A17'
p1739
I01
stbaa(lp1740
S'GO:0070402'
p1741
ag5
(g6
g7
NtRp1742
((dp1743
S'Q54LW0'
p1744
I01
stbaa(lp1745
S'GO:0003690'
p1746
ag5
(g6
g7
NtRp1747
((dp1748
S'Q54LY5'
p1749
I01
sS'Q54MA9'
p1750
I01
stbaa(lp1751
S'GO:0004003'
p1752
ag5
(g6
g7
NtRp1753
((dp1754
S'Q54LY5'
p1755
I01
sS'Q54MA9'
p1756
I01
stbaa(lp1757
S'GO:0008649'
p1758
ag5
(g6
g7
NtRp1759
((dp1760
S'Q54M56'
p1761
I01
stbaa(lp1762
S'GO:0008234'
p1763
ag5
(g6
g7
NtRp1764
((dp1765
S'Q54TR1'
p1766
I01
sS'Q54ME1'
p1767
I01
stbaa(lp1768
S'GO:0008013'
p1769
ag5
(g6
g7
NtRp1770
((dp1771
S'Q54MH2'
p1772
I01
stbaa(lp1773
S'GO:0003976'
p1774
ag5
(g6
g7
NtRp1775
((dp1776
S'Q54MP1'
p1777
I01
stbaa(lp1778
S'GO:0017049'
p1779
ag5
(g6
g7
NtRp1780
((dp1781
S'Q54N00'
p1782
I01
stbaa(lp1783
S'GO:0004512'
p1784
ag5
(g6
g7
NtRp1785
((dp1786
S'Q54N49'
p1787
I01
stbaa(lp1788
S'GO:0034416'
p1789
ag5
(g6
g7
NtRp1790
((dp1791
S'Q54ND5'
p1792
I01
stbaa(lp1793
S'GO:0034417'
p1794
ag5
(g6
g7
NtRp1795
((dp1796
S'Q54ND5'
p1797
I01
stbaa(lp1798
S'GO:0003713'
p1799
ag5
(g6
g7
NtRp1800
((dp1801
S'Q54NI7'
p1802
I01
stbaa(lp1803
S'GO:0005483'
p1804
ag5
(g6
g7
NtRp1805
((dp1806
S'Q54NP6'
p1807
I01
sS'Q9U9R7'
p1808
I01
stbaa(lp1809
S'GO:0008270'
p1810
ag5
(g6
g7
NtRp1811
((dp1812
S'Q86I44'
p1813
I01
sS'Q55DL0'
p1814
I01
sS'Q55CT4'
p1815
I01
sS'Q554C5'
p1816
I01
sS'Q54NW4'
p1817
I01
sS'Q55GV9'
p1818
I01
stbaa(lp1819
S'GO:0003697'
p1820
ag5
(g6
g7
NtRp1821
((dp1822
S'Q54P04'
p1823
I01
stbaa(lp1824
S'GO:0003899'
p1825
ag5
(g6
g7
NtRp1826
((dp1827
S'Q54P04'
p1828
I01
sS'Q54S04'
p1829
I01
sS'Q95NZ8'
p1830
I01
stbaa(lp1831
S'GO:0004357'
p1832
ag5
(g6
g7
NtRp1833
((dp1834
S'Q54PC2'
p1835
I01
stbaa(lp1836
S'GO:0005088'
p1837
ag5
(g6
g7
NtRp1838
((dp1839
S'Q86G47'
p1840
I01
sS'Q8SSQ0'
p1841
I01
sS'Q8MVR1'
p1842
I01
sS'Q54PQ4'
p1843
I01
stbaa(lp1844
S'GO:0030250'
p1845
ag5
(g6
g7
NtRp1846
((dp1847
S'Q54PQ4'
p1848
I01
stbaa(lp1849
S'GO:0003993'
p1850
ag5
(g6
g7
NtRp1851
((dp1852
S'Q54PR9'
p1853
I01
stbaa(lp1854
S'GO:0034485'
p1855
ag5
(g6
g7
NtRp1856
((dp1857
S'Q8I7P3'
p1858
I01
sS'Q54PV1'
p1859
I01
stbaa(lp1860
S'GO:0008601'
p1861
ag5
(g6
g7
NtRp1862
((dp1863
S'Q54VB6'
p1864
I01
sS'Q54Q99'
p1865
I01
stbaa(lp1866
S'GO:0017018'
p1867
ag5
(g6
g7
NtRp1868
((dp1869
S'Q9XZE5'
p1870
I01
sS'Q54QR9'
p1871
I01
sS'Q54Q99'
p1872
I01
stbaa(lp1873
S'GO:0008417'
p1874
ag5
(g6
g7
NtRp1875
((dp1876
S'Q54QG0'
p1877
I01
stbaa(lp1878
S'GO:0016263'
p1879
ag5
(g6
g7
NtRp1880
((dp1881
S'Q54QG0'
p1882
I01
stbaa(lp1883
S'GO:0031127'
p1884
ag5
(g6
g7
NtRp1885
((dp1886
S'Q54QG0'
p1887
I01
stbaa(lp1888
S'GO:0052621'
p1889
ag5
(g6
g7
NtRp1890
((dp1891
S'Q54R09'
p1892
I01
stbaa(lp1893
S'GO:0004709'
p1894
ag5
(g6
g7
NtRp1895
((dp1896
S'Q54R82'
p1897
I01
stbaa(lp1898
S'GO:0005313'
p1899
ag5
(g6
g7
NtRp1900
((dp1901
S'Q54RB9'
p1902
I01
stbaa(lp1903
S'GO:0015183'
p1904
ag5
(g6
g7
NtRp1905
((dp1906
S'Q54RB9'
p1907
I01
stbaa(lp1908
S'GO:0035250'
p1909
ag5
(g6
g7
NtRp1910
((dp1911
S'Q54RP0'
p1912
I01
stbaa(lp1913
S'GO:0004784'
p1914
ag5
(g6
g7
NtRp1915
((dp1916
S'Q54RQ1'
p1917
I01
sS'Q55GQ5'
p1918
I01
stbaa(lp1919
S'GO:0008117'
p1920
ag5
(g6
g7
NtRp1921
((dp1922
S'Q54RV9'
p1923
I01
stbaa(lp1924
S'GO:0015450'
p1925
ag5
(g6
g7
NtRp1926
((dp1927
S'Q54RZ5'
p1928
I01
stbaa(lp1929
S'GO:0017034'
p1930
ag5
(g6
g7
NtRp1931
((dp1932
S'Q54S40'
p1933
I01
stbaa(lp1934
S'GO:0030553'
p1935
ag5
(g6
g7
NtRp1936
((dp1937
S'Q54S40'
p1938
I01
sS'Q8MVR1'
p1939
I01
stbaa(lp1940
S'GO:0003712'
p1941
ag5
(g6
g7
NtRp1942
((dp1943
S'Q54T85'
p1944
I01
stbaa(lp1945
S'GO:0009784'
p1946
ag5
(g6
g7
NtRp1947
((dp1948
S'Q54U87'
p1949
I01
stbaa(lp1950
S'GO:0003777'
p1951
ag5
(g6
g7
NtRp1952
((dp1953
S'Q6S000'
p1954
I01
sS'Q6S001'
p1955
I01
sS'Q54UC9'
p1956
I01
stbaa(lp1957
S'GO:0004138'
p1958
ag5
(g6
g7
NtRp1959
((dp1960
S'Q54UT2'
p1961
I01
stbaa(lp1962
S'GO:0004791'
p1963
ag5
(g6
g7
NtRp1964
((dp1965
S'Q54UU8'
p1966
I01
stbaa(lp1967
S'GO:0031681'
p1968
ag5
(g6
g7
NtRp1969
((dp1970
S'Q95ZG8'
p1971
I01
sS'Q54WH5'
p1972
I01
stbaa(lp1973
S'GO:0005096'
p1974
ag5
(g6
g7
NtRp1975
((dp1976
S'Q551Q8'
p1977
I01
sS'Q54WI0'
p1978
I01
stbaa(lp1979
S'GO:0042802'
p1980
ag5
(g6
g7
NtRp1981
((dp1982
S'Q54XS1'
p1983
I01
sS'Q9GPZ7'
p1984
I01
sS'Q94464'
p1985
I01
sS'Q54WZ2'
p1986
I01
sS'Q54Z54'
p1987
I01
stbaa(lp1988
S'GO:0030515'
p1989
ag5
(g6
g7
NtRp1990
((dp1991
S'Q54XG2'
p1992
I01
stbaa(lp1993
S'GO:0004505'
p1994
ag5
(g6
g7
NtRp1995
((dp1996
S'Q54XS1'
p1997
I01
stbaa(lp1998
S'GO:0034617'
p1999
ag5
(g6
g7
NtRp2000
((dp2001
S'Q54XS1'
p2002
I01
stbaa(lp2003
S'GO:0047499'
p2004
ag5
(g6
g7
NtRp2005
((dp2006
S'Q54XY1'
p2007
I01
stbaa(lp2008
S'GO:0004035'
p2009
ag5
(g6
g7
NtRp2010
((dp2011
S'Q54Y02'
p2012
I01
stbaa(lp2013
S'GO:0000149'
p2014
ag5
(g6
g7
NtRp2015
((dp2016
S'Q54Y50'
p2017
I01
stbaa(lp2018
S'GO:0005543'
p2019
ag5
(g6
g7
NtRp2020
((dp2021
S'Q54Y50'
p2022
I01
sS'Q8MVR1'
p2023
I01
sS'Q55DM1'
p2024
I01
sS'Q94464'
p2025
I01
stbaa(lp2026
S'GO:0004136'
p2027
ag5
(g6
g7
NtRp2028
((dp2029
S'Q54YL2'
p2030
I01
stbaa(lp2031
S'GO:0030676'
p2032
ag5
(g6
g7
NtRp2033
((dp2034
S'Q54YZ6'
p2035
I01
sS'Q9TW28'
p2036
I01
stbaa(lp2037
S'GO:0003987'
p2038
ag5
(g6
g7
NtRp2039
((dp2040
S'Q557X0'
p2041
I01
sS'Q54Z60'
p2042
I01
stbaa(lp2043
S'GO:0016208'
p2044
ag5
(g6
g7
NtRp2045
((dp2046
S'Q557X0'
p2047
I01
sS'Q54Z60'
p2048
I01
stbaa(lp2049
S'GO:0004888'
p2050
ag5
(g6
g7
NtRp2051
((dp2052
S'Q7YTA6'
p2053
I01
sS'Q54ZW0'
p2054
I01
sS'Q55FP0'
p2055
I01
stbaa(lp2056
S'GO:0004694'
p2057
ag5
(g6
g7
NtRp2058
((dp2059
S'Q558U1'
p2060
I01
sS'Q550L8'
p2061
I01
stbaa(lp2062
S'GO:0004620'
p2063
ag5
(g6
g7
NtRp2064
((dp2065
S'Q550U9'
p2066
I01
stbaa(lp2067
S'GO:0043023'
p2068
ag5
(g6
g7
NtRp2069
((dp2070
S'Q551M2'
p2071
I01
stbaa(lp2072
S'GO:0004383'
p2073
ag5
(g6
g7
NtRp2074
((dp2075
S'Q551V8'
p2076
I01
sS'Q553Y7'
p2077
I01
stbaa(lp2078
S'GO:0031005'
p2079
ag5
(g6
g7
NtRp2080
((dp2081
S'Q556T3'
p2082
I01
stbaa(lp2083
S'GO:0003796'
p2084
ag5
(g6
g7
NtRp2085
((dp2086
S'Q556Y7'
p2087
I01
sS'Q8T1G5'
p2088
I01
sS'Q8T1G4'
p2089
I01
sS'Q8T1G6'
p2090
I01
stbaa(lp2091
S'GO:0031434'
p2092
ag5
(g6
g7
NtRp2093
((dp2094
S'Q557I6'
p2095
I01
stbaa(lp2096
S'GO:0004671'
p2097
ag5
(g6
g7
NtRp2098
((dp2099
S'Q558K8'
p2100
I01
stbaa(lp2101
S'GO:0003682'
p2102
ag5
(g6
g7
NtRp2103
((dp2104
S'Q558Z2'
p2105
I01
stbaa(lp2106
S'GO:0042392'
p2107
ag5
(g6
g7
NtRp2108
((dp2109
S'Q55A00'
p2110
I01
stbaa(lp2111
S'GO:0031151'
p2112
ag5
(g6
g7
NtRp2113
((dp2114
S'Q55AX2'
p2115
I01
stbaa(lp2116
S'GO:0004407'
p2117
ag5
(g6
g7
NtRp2118
((dp2119
S'Q55BW2'
p2120
I01
stbaa(lp2121
S'GO:0004708'
p2122
ag5
(g6
g7
NtRp2123
((dp2124
S'Q55CL6'
p2125
I01
stbaa(lp2126
S'GO:0008138'
p2127
ag5
(g6
g7
NtRp2128
((dp2129
S'Q55CS7'
p2130
I01
stbaa(lp2131
S'GO:0004177'
p2132
ag5
(g6
g7
NtRp2133
((dp2134
S'Q55CT4'
p2135
I01
stbaa(lp2136
S'GO:0004157'
p2137
ag5
(g6
g7
NtRp2138
((dp2139
S'Q55DL0'
p2140
I01
stbaa(lp2141
S'GO:0004721'
p2142
ag5
(g6
g7
NtRp2143
((dp2144
S'Q55E58'
p2145
I01
stbaa(lp2146
S'GO:0008478'
p2147
ag5
(g6
g7
NtRp2148
((dp2149
S'Q55EK9'
p2150
I01
stbaa(lp2151
S'GO:0000224'
p2152
ag5
(g6
g7
NtRp2153
((dp2154
S'Q55FC8'
p2155
I01
stbaa(lp2156
S'GO:0003810'
p2157
ag5
(g6
g7
NtRp2158
((dp2159
S'Q55FC8'
p2160
I01
stbaa(lp2161
S'GO:0016162'
p2162
ag5
(g6
g7
NtRp2163
((dp2164
S'Q55FE6'
p2165
I01
stbaa(lp2166
S'GO:0043141'
p2167
ag5
(g6
g7
NtRp2168
((dp2169
S'Q55G81'
p2170
I01
stbaa(lp2171
S'GO:0033192'
p2172
ag5
(g6
g7
NtRp2173
((dp2174
S'Q55G87'
p2175
I01
sS'Q7YSW8'
p2176
I01
stbaa(lp2177
S'GO:0004373'
p2178
ag5
(g6
g7
NtRp2179
((dp2180
S'Q55GH4'
p2181
I01
stbaa(lp2182
S'GO:0008146'
p2183
ag5
(g6
g7
NtRp2184
((dp2185
S'Q55GK8'
p2186
I01
stbaa(lp2187
S'GO:0005083'
p2188
ag5
(g6
g7
NtRp2189
((dp2190
S'Q86I44'
p2191
I01
sS'Q55GV9'
p2192
I01
stbaa(lp2193
S'GO:0000062'
p2194
ag5
(g6
g7
NtRp2195
((dp2196
S'Q5FXM5'
p2197
I01
stbaa(lp2198
S'GO:0004860'
p2199
ag5
(g6
g7
NtRp2200
((dp2201
S'Q5FXM5'
p2202
I01
stbaa(lp2203
S'GO:0004869'
p2204
ag5
(g6
g7
NtRp2205
((dp2206
S'Q65YR8'
p2207
I01
sS'Q65YR7'
p2208
I01
sS'Q5R1U3'
p2209
I01
stbaa(lp2210
S'GO:0017050'
p2211
ag5
(g6
g7
NtRp2212
((dp2213
S'Q86KF9'
p2214
I01
sS'Q6B516'
p2215
I01
stbaa(lp2216
S'GO:0004032'
p2217
ag5
(g6
g7
NtRp2218
((dp2219
S'Q6IMN8'
p2220
I01
stbaa(lp2221
S'GO:0042132'
p2222
ag5
(g6
g7
NtRp2223
((dp2224
S'Q6RYT0'
p2225
I01
stbaa(lp2226
S'GO:0051082'
p2227
ag5
(g6
g7
NtRp2228
((dp2229
S'Q6TMK3'
p2230
I01
stbaa(lp2231
S'GO:0004470'
p2232
ag5
(g6
g7
NtRp2233
((dp2234
S'Q6TU48'
p2235
I01
stbaa(lp2236
S'GO:0031683'
p2237
ag5
(g6
g7
NtRp2238
((dp2239
S'Q71A39'
p2240
I01
stbaa(lp2241
S'GO:0046582'
p2242
ag5
(g6
g7
NtRp2243
((dp2244
S'Q75J96'
p2245
I01
stbaa(lp2246
S'GO:0009815'
p2247
ag5
(g6
g7
NtRp2248
((dp2249
S'Q76NT9'
p2250
I01
stbaa(lp2251
S'GO:0016176'
p2252
ag5
(g6
g7
NtRp2253
((dp2254
S'Q867T7'
p2255
I01
stbaa(lp2256
S'GO:0000155'
p2257
ag5
(g6
g7
NtRp2258
((dp2259
S'Q869S5'
p2260
I01
stbaa(lp2261
S'GO:0000156'
p2262
ag5
(g6
g7
NtRp2263
((dp2264
S'Q869S5'
p2265
I01
stbaa(lp2266
S'GO:0009927'
p2267
ag5
(g6
g7
NtRp2268
((dp2269
S'Q869S5'
p2270
I01
stbaa(lp2271
S'GO:0005381'
p2272
ag5
(g6
g7
NtRp2273
((dp2274
S'Q869V1'
p2275
I01
stbaa(lp2276
S'GO:0016307'
p2277
ag5
(g6
g7
NtRp2278
((dp2279
S'Q86A02'
p2280
I01
stbaa(lp2281
S'GO:0004155'
p2282
ag5
(g6
g7
NtRp2283
((dp2284
S'Q86A17'
p2285
I01
stbaa(lp2286
S'GO:0004175'
p2287
ag5
(g6
g7
NtRp2288
((dp2289
S'Q86A84'
p2290
I01
stbaa(lp2291
S'GO:0003985'
p2292
ag5
(g6
g7
NtRp2293
((dp2294
S'Q86AD9'
p2295
I01
stbaa(lp2296
S'GO:0070012'
p2297
ag5
(g6
g7
NtRp2298
((dp2299
S'Q86AS5'
p2300
I01
stbaa(lp2301
S'GO:0004108'
p2302
ag5
(g6
g7
NtRp2303
((dp2304
S'Q8MQU6'
p2305
I01
sS'Q86AV6'
p2306
I01
stbaa(lp2307
S'GO:0019787'
p2308
ag5
(g6
g7
NtRp2309
((dp2310
S'Q86CR9'
p2311
I01
stbaa(lp2312
S'GO:0001786'
p2313
ag5
(g6
g7
NtRp2314
((dp2315
S'Q86D86'
p2316
I01
stbaa(lp2317
S'GO:0010314'
p2318
ag5
(g6
g7
NtRp2319
((dp2320
S'Q86D86'
p2321
I01
stbaa(lp2322
S'GO:0032266'
p2323
ag5
(g6
g7
NtRp2324
((dp2325
S'Q86D86'
p2326
I01
stbaa(lp2327
S'GO:0070273'
p2328
ag5
(g6
g7
NtRp2329
((dp2330
S'Q86D86'
p2331
I01
stbaa(lp2332
S'GO:0016917'
p2333
ag5
(g6
g7
NtRp2334
((dp2335
S'Q86HH3'
p2336
I01
stbaa(lp2337
S'GO:0004185'
p2338
ag5
(g6
g7
NtRp2339
((dp2340
S'Q86I79'
p2341
I01
stbaa(lp2342
S'GO:0003756'
p2343
ag5
(g6
g7
NtRp2344
((dp2345
S'Q86IA3'
p2346
I01
stbaa(lp2347
S'GO:0004864'
p2348
ag5
(g6
g7
NtRp2349
((dp2350
S'Q86IZ4'
p2351
I01
stbaa(lp2352
S'GO:0031545'
p2353
ag5
(g6
g7
NtRp2354
((dp2355
S'Q86KR9'
p2356
I01
stbaa(lp2357
S'GO:0008408'
p2358
ag5
(g6
g7
NtRp2359
((dp2360
S'Q86KS1'
p2361
I01
stbaa(lp2362
S'GO:0017048'
p2363
ag5
(g6
g7
NtRp2364
((dp2365
S'Q8I0F4'
p2366
I01
sS'Q95UQ1'
p2367
I01
sS'Q9GSG9'
p2368
I01
stbaa(lp2369
S'GO:0045504'
p2370
ag5
(g6
g7
NtRp2371
((dp2372
S'Q8I0F4'
p2373
I01
stbaa(lp2374
S'GO:0017064'
p2375
ag5
(g6
g7
NtRp2376
((dp2377
S'Q8MMR8'
p2378
I01
stbaa(lp2379
S'GO:0008519'
p2380
ag5
(g6
g7
NtRp2381
((dp2382
S'Q9BLG3'
p2383
I01
sS'Q8MXY0'
p2384
I01
stbaa(lp2385
S'GO:0004362'
p2386
ag5
(g6
g7
NtRp2387
((dp2388
S'Q8T137'
p2389
I01
stbaa(lp2390
S'GO:0008375'
p2391
ag5
(g6
g7
NtRp2392
((dp2393
S'Q8T1C6'
p2394
I01
stbaa(lp2395
S'GO:0033830'
p2396
ag5
(g6
g7
NtRp2397
((dp2398
S'Q8T1C6'
p2399
I01
stbaa(lp2400
S'GO:0008171'
p2401
ag5
(g6
g7
NtRp2402
((dp2403
S'Q8T638'
p2404
I01
stbaa(lp2405
S'GO:0008757'
p2406
ag5
(g6
g7
NtRp2407
((dp2408
S'Q8T638'
p2409
I01
stbaa(lp2410
S'GO:0016314'
p2411
ag5
(g6
g7
NtRp2412
((dp2413
S'Q8T9S7'
p2414
I01
stbaa(lp2415
S'GO:0003934'
p2416
ag5
(g6
g7
NtRp2417
((dp2418
S'Q94465'
p2419
I01
stbaa(lp2420
S'GO:0017124'
p2421
ag5
(g6
g7
NtRp2422
((dp2423
S'Q94491'
p2424
I01
stbaa(lp2425
S'GO:0005094'
p2426
ag5
(g6
g7
NtRp2427
((dp2428
S'Q95UQ1'
p2429
I01
sS'Q95UP9'
p2430
I01
stbaa(lp2431
S'GO:0008353'
p2432
ag5
(g6
g7
NtRp2433
((dp2434
S'Q95YH0'
p2435
I01
stbaa(lp2436
S'GO:0043015'
p2437
ag5
(g6
g7
NtRp2438
((dp2439
S'Q95ZG4'
p2440
I01
sS'Q95ZG3'
p2441
I01
stbaa(lp2442
S'GO:0004618'
p2443
ag5
(g6
g7
NtRp2444
((dp2445
S'Q9GPM4'
p2446
I01
stbaa(lp2447
S'GO:0003746'
p2448
ag5
(g6
g7
NtRp2449
((dp2450
S'Q9GRF8'
p2451
I01
stbaa(lp2452
S'GO:0005220'
p2453
ag5
(g6
g7
NtRp2454
((dp2455
S'Q9NA13'
p2456
I01
stbaa(lp2457
S'GO:0005262'
p2458
ag5
(g6
g7
NtRp2459
((dp2460
S'Q9NA13'
p2461
I01
stbaa(lp2462
S'GO:0005199'
p2463
ag5
(g6
g7
NtRp2464
((dp2465
S'Q9NAX4'
p2466
I01
stbaa(lp2467
S'GO:0004337'
p2468
ag5
(g6
g7
NtRp2469
((dp2470
S'Q9NH03'
p2471
I01
stbaa(lp2472
S'GO:0003755'
p2473
ag5
(g6
g7
NtRp2474
((dp2475
S'Q9NI62'
p2476
I01
stbaa(lp2477
S'GO:0043621'
p2478
ag5
(g6
g7
NtRp2479
((dp2480
S'Q9U1M8'
p2481
I01
stbaa(lp2482
S'GO:0016760'
p2483
ag5
(g6
g7
NtRp2484
((dp2485
S'Q9U720'
p2486
I01
stbaatRp2487
.