ccollections
OrderedDict
p1
((lp2
(lp3
S'GO:0030435'
p4
accopy_reg
_reconstructor
p5
(csets
Set
p6
c__builtin__
object
p7
NtRp8
((dp9
S'Q54DD0'
p10
I01
sS'Q9Y0T2'
p11
I01
sS'A2V850'
p12
I01
sS'P25870'
p13
I01
sS'Q54JW0'
p14
I01
sS'Q54YU6'
p15
I01
sS'O00841'
p16
I01
sS'Q54JH6'
p17
I01
sS'Q55AP1'
p18
I01
sS'P34042'
p19
I01
sS'P05987'
p20
I01
sS'Q54RV9'
p21
I01
sS'Q54TY7'
p22
I01
sS'Q54PC2'
p23
I01
sS'Q54S83'
p24
I01
sS'Q869S5'
p25
I01
sS'P35401'
p26
I01
sS'Q23925'
p27
I01
sS'Q03101'
p28
I01
sS'Q03100'
p29
I01
sS'Q5FXM5'
p30
I01
sS'Q86L04'
p31
I01
sS'Q75JT4'
p32
I01
sS'Q6T486'
p33
I01
sS'Q86CS2'
p34
I01
sS'P34099'
p35
I01
sS'Q54K32'
p36
I01
sS'Q86K86'
p37
I01
sS'Q5XM24'
p38
I01
sS'P51136'
p39
I01
sS'Q54F44'
p40
I01
sS'Q9XYS3'
p41
I01
sS'P18160'
p42
I01
sS'Q75JK0'
p43
I01
sS'Q54U87'
p44
I01
sS'Q55FB8'
p45
I01
sS'P34117'
p46
I01
sS'Q54XG7'
p47
I01
sS'Q54GT9'
p48
I01
sS'Q55CC5'
p49
I01
sS'Q8T638'
p50
I01
sS'Q54BM7'
p51
I01
sS'Q86GL4'
p52
I01
sS'Q23917'
p53
I01
sS'Q54EH1'
p54
I01
sS'Q54RR8'
p55
I01
sS'Q552C6'
p56
I01
sS'Q55F68'
p57
I01
sS'Q54D84'
p58
I01
sS'Q86CR8'
p59
I01
sS'Q86CR9'
p60
I01
stbaa(lp61
S'GO:0031152'
p62
ag5
(g6
g7
NtRp63
((dp64
S'Q86A02'
p65
I01
sS'P32253'
p66
I01
sS'Q54D08'
p67
I01
sS'P25870'
p68
I01
sS'Q8T675'
p69
I01
sS'Q54XY1'
p70
I01
sS'P35352'
p71
I01
sS'Q557I6'
p72
I01
sS'Q558U1'
p73
I01
sS'Q55EK9'
p74
I01
sS'Q54LW0'
p75
I01
sS'O76765'
p76
I01
sS'Q95YH0'
p77
I01
sS'Q54CG0'
p78
I01
sS'P34117'
p79
I01
sS'Q8T6B7'
p80
I01
sS'Q54RQ1'
p81
I01
sS'Q54ET0'
p82
I01
sS'Q55GQ5'
p83
I01
sS'O61125'
p84
I01
sS'Q9GPS3'
p85
I01
sS'Q9Y0C9'
p86
I01
sS'Q54D84'
p87
I01
sS'Q86I19'
p88
I01
sS'P34042'
p89
I01
sS'O77203'
p90
I01
sS'P08796'
p91
I01
sS'P16051'
p92
I01
sS'Q54NA3'
p93
I01
sS'Q03100'
p94
I01
sS'Q8WSR7'
p95
I01
sS'P13773'
p96
I01
sS'Q54QB1'
p97
I01
sS'Q54VL5'
p98
I01
sS'O96621'
p99
I01
sS'Q54AX5'
p100
I01
sS'Q86HH3'
p101
I01
sS'P34145'
p102
I01
sS'Q54HS3'
p103
I01
sS'A2V850'
p104
I01
sS'P34148'
p105
I01
sS'Q8IS21'
p106
I01
sS'Q54JL7'
p107
I01
sS'P42529'
p108
I01
sS'P35401'
p109
I01
sS'P42523'
p110
I01
sS'P42525'
p111
I01
sS'P15064'
p112
I01
sS'Q8T686'
p113
I01
sS'Q1ZXH8'
p114
I01
sS'Q555X5'
p115
I01
sS'Q55D99'
p116
I01
sS'Q94491'
p117
I01
sS'Q54S20'
p118
I01
sS'Q54CB3'
p119
I01
sS'Q54PN9'
p120
I01
sS'P54657'
p121
I01
sS'Q8T9S7'
p122
I01
sS'Q86HE5'
p123
I01
sS'Q54PQ4'
p124
I01
sS'Q54NL4'
p125
I01
sS'P15270'
p126
I01
sS'Q86AD8'
p127
I01
sS'Q9NGP5'
p128
I01
sS'Q557B8'
p129
I01
sS'P36408'
p130
I01
sS'Q54QV3'
p131
I01
sS'O96042'
p132
I01
sS'O15816'
p133
I01
sS'Q8T133'
p134
I01
sS'Q54YZ6'
p135
I01
sS'Q55AA6'
p136
I01
sS'O76187'
p137
I01
sS'Q8I7P3'
p138
I01
sS'Q55FC8'
p139
I01
sS'P54651'
p140
I01
sS'Q9U8Q1'
p141
I01
sS'Q55CL6'
p142
I01
sS'Q95ZG8'
p143
I01
sS'Q55DA0'
p144
I01
sS'Q54IJ3'
p145
I01
sS'Q54HG2'
p146
I01
sS'P54673'
p147
I01
sS'P54677'
p148
I01
sS'Q54NW4'
p149
I01
sS'P34138'
p150
I01
sS'O97101'
p151
I01
sS'Q553K4'
p152
I01
stbaa(lp153
S'GO:0031288'
p154
ag5
(g6
g7
NtRp155
((dp156
S'Q8T675'
p157
I01
sS'A2V850'
p158
I01
sS'Q8MQU6'
p159
I01
sS'Q555Z5'
p160
I01
sS'Q54FI3'
p161
I01
sS'Q54R52'
p162
I01
sS'Q75JK0'
p163
I01
sS'Q55CC5'
p164
I01
sS'Q8T664'
p165
I01
sS'Q8T8P3'
p166
I01
sS'Q94464'
p167
I01
sS'Q54EW0'
p168
I01
sS'Q8T6B8'
p169
I01
sS'Q54W24'
p170
I01
sS'Q54NA3'
p171
I01
sS'Q552C6'
p172
I01
sS'Q86CS2'
p173
I01
sS'Q8T686'
p174
I01
sS'Q555X5'
p175
I01
sS'Q54CG0'
p176
I01
sS'Q55DA0'
p177
I01
sS'Q54J97'
p178
I01
sS'Q558Y7'
p179
I01
sS'P51136'
p180
I01
sS'Q94502'
p181
I01
sS'Q54V86'
p182
I01
sS'Q54DT1'
p183
I01
sS'Q54TR1'
p184
I01
sS'Q8T6B4'
p185
I01
sS'Q8T6B7'
p186
I01
sS'Q54TV1'
p187
I01
sS'Q55GB1'
p188
I01
sS'Q54GT9'
p189
I01
sS'Q8ST66'
p190
I01
sS'Q55CT4'
p191
I01
sS'Q8T6J1'
p192
I01
sS'Q8T638'
p193
I01
sS'Q8T6J2'
p194
I01
sS'Q54NF8'
p195
I01
sS'Q9NGP5'
p196
I01
sS'Q556W2'
p197
I01
sS'P05817'
p198
I01
sS'Q54P13'
p199
I01
sS'Q54T02'
p200
I01
sS'Q55F68'
p201
I01
sS'Q6B9X6'
p202
I01
sS'Q54K24'
p203
I01
sS'Q86CR9'
p204
I01
sS'P28178'
p205
I01
sS'Q86CR8'
p206
I01
sS'Q54BT5'
p207
I01
stbaa(lp208
S'GO:0042594'
p209
ag5
(g6
g7
NtRp210
((dp211
S'A2V850'
p212
I01
stbaa(lp213
S'GO:0044351'
p214
ag5
(g6
g7
NtRp215
((dp216
S'Q54D02'
p217
I01
sS'Q54D03'
p218
I01
sS'Q54D04'
p219
I01
sS'Q54D06'
p220
I01
sS'Q54D07'
p221
I01
sS'Q54D08'
p222
I01
sS'Q8MQU6'
p223
I01
sS'Q55BE6'
p224
I01
sS'Q557I9'
p225
I01
sS'Q54RX9'
p226
I01
sS'Q54RX6'
p227
I01
sS'Q54RX7'
p228
I01
sS'Q54RX2'
p229
I01
sS'Q54RX0'
p230
I01
sS'Q557I4'
p231
I01
sS'Q54MM6'
p232
I01
sS'Q54PT5'
p233
I01
sS'Q54PT7'
p234
I01
sS'Q54DW2'
p235
I01
sS'Q54MM9'
p236
I01
sS'Q54N47'
p237
I01
sS'Q54E36'
p238
I01
sS'Q54E30'
p239
I01
sS'Q553Q8'
p240
I01
sS'Q55ET3'
p241
I01
sS'Q54JG6'
p242
I01
sS'P11874'
p243
I01
sS'Q54RJ1'
p244
I01
sS'Q8T2Q3'
p245
I01
sS'Q54B42'
p246
I01
sS'Q54B43'
p247
I01
sS'Q55E06'
p248
I01
sS'Q54CV3'
p249
I01
sS'Q54BJ7'
p250
I01
sS'Q552C9'
p251
I01
sS'Q86K89'
p252
I01
sS'Q86A21'
p253
I01
sS'P34045'
p254
I01
sS'Q869L6'
p255
I01
sS'P34046'
p256
I01
sS'P34043'
p257
I01
sS'P34042'
p258
I01
sS'Q550A6'
p259
I01
sS'Q555G2'
p260
I01
sS'Q555G0'
p261
I01
sS'Q55F30'
p262
I01
sS'Q557I5'
p263
I01
sS'Q557G3'
p264
I01
sS'Q55BE9'
p265
I01
sS'Q54GL5'
p266
I01
sS'Q54KM4'
p267
I01
sS'Q54KM5'
p268
I01
sS'Q55FI4'
p269
I01
sS'Q54HR9'
p270
I01
sS'Q55FI1'
p271
I01
sS'Q54KM9'
p272
I01
sS'Q55GG8'
p273
I01
sS'Q54UM3'
p274
I01
sS'Q54UM1'
p275
I01
sS'Q54FC3'
p276
I01
sS'Q7KWM5'
p277
I01
sS'Q8T690'
p278
I01
sS'Q9TW32'
p279
I01
sS'Q55DB6'
p280
I01
sS'Q54JG9'
p281
I01
sS'Q9BIW5'
p282
I01
sS'P24005'
p283
I01
sS'Q54N42'
p284
I01
sS'O96070'
p285
I01
sS'Q8T2U3'
p286
I01
sS'Q55AI5'
p287
I01
sS'Q54XI2'
p288
I01
sS'Q54XI5'
p289
I01
sS'Q54BM1'
p290
I01
sS'Q54BM0'
p291
I01
sS'Q54BM3'
p292
I01
sS'Q54BM2'
p293
I01
sS'P46794'
p294
I01
sS'Q54BM7'
p295
I01
sS'Q54U24'
p296
I01
sS'Q55ET7'
p297
I01
sS'P02888'
p298
I01
sS'Q55BX3'
p299
I01
sS'Q55BX5'
p300
I01
sS'Q54QA4'
p301
I01
sS'Q54R55'
p302
I01
sS'Q76NW2'
p303
I01
sS'Q54M03'
p304
I01
sS'Q54WM4'
p305
I01
sS'Q86HU8'
p306
I01
sS'Q86HU9'
p307
I01
sS'Q95UQ1'
p308
I01
sS'Q86JA1'
p309
I01
sS'P90532'
p310
I01
sS'Q86JA8'
p311
I01
sS'Q54JV8'
p312
I01
sS'Q54XS7'
p313
I01
sS'Q54VW1'
p314
I01
sS'Q1ZXL7'
p315
I01
sS'Q54JV6'
p316
I01
sS'Q54JV0'
p317
I01
sS'Q54JV1'
p318
I01
sS'Q54MB5'
p319
I01
sS'Q54MB4'
p320
I01
sS'Q02720'
p321
I01
sS'Q54HV6'
p322
I01
sS'Q9GS21'
p323
I01
sS'Q54HV5'
p324
I01
sS'Q86HC7'
p325
I01
sS'Q54NF2'
p326
I01
sS'Q54NF3'
p327
I01
sS'Q76P29'
p328
I01
sS'Q54NF8'
p329
I01
sS'Q54NF9'
p330
I01
sS'Q54K41'
p331
I01
sS'Q54K47'
p332
I01
sS'Q76P23'
p333
I01
sS'Q54GI7'
p334
I01
sS'Q54LV8'
p335
I01
sS'Q54WD9'
p336
I01
sS'Q54GI9'
p337
I01
sS'Q54ZW5'
p338
I01
sS'Q54SM3'
p339
I01
sS'Q54TU2'
p340
I01
sS'Q75K16'
p341
I01
sS'Q54TU4'
p342
I01
sS'Q54CG0'
p343
I01
sS'Q54TU8'
p344
I01
sS'Q54HD4'
p345
I01
sS'Q75JI5'
p346
I01
sS'Q54NP6'
p347
I01
sS'Q54SC9'
p348
I01
sS'Q54J34'
p349
I01
sS'O00899'
p350
I01
sS'O00897'
p351
I01
sS'Q54G47'
p352
I01
sS'Q54G46'
p353
I01
sS'Q55BJ9'
p354
I01
sS'Q54G42'
p355
I01
sS'Q54BQ3'
p356
I01
sS'Q55C16'
p357
I01
sS'Q54BQ8'
p358
I01
sS'O76856'
p359
I01
sS'Q54G75'
p360
I01
sS'Q8T664'
p361
I01
sS'Q54D10'
p362
I01
sS'Q55BD5'
p363
I01
sS'Q54DT1'
p364
I01
sS'Q54PX3'
p365
I01
sS'Q54JX6'
p366
I01
sS'Q54ML1'
p367
I01
sS'Q54JX0'
p368
I01
sS'Q1ZXA8'
p369
I01
sS'Q54PU7'
p370
I01
sS'Q8MMS1'
p371
I01
sS'Q54E22'
p372
I01
sS'Q54N57'
p373
I01
sS'Q54E20'
p374
I01
sS'Q54E24'
p375
I01
sS'Q553V2'
p376
I01
sS'Q553V1'
p377
I01
sS'Q54N59'
p378
I01
sS'Q54DJ0'
p379
I01
sS'Q54JJ1'
p380
I01
sS'Q54JJ8'
p381
I01
sS'Q54JJ9'
p382
I01
sS'Q75JD5'
p383
I01
sS'Q54CU7'
p384
I01
sS'Q54CU2'
p385
I01
sS'Q550R6'
p386
I01
sS'Q23924'
p387
I01
sS'Q23921'
p388
I01
sS'Q552B4'
p389
I01
sS'Q9BKJ9'
p390
I01
sS'Q552B8'
p391
I01
sS'Q86L28'
p392
I01
sS'Q86IX4'
p393
I01
sS'P29505'
p394
I01
sS'P02599'
p395
I01
sS'O77033'
p396
I01
sS'Q55FF9'
p397
I01
sS'Q55FF3'
p398
I01
sS'Q55FF2'
p399
I01
sS'Q55FF7'
p400
I01
sS'Q54RK5'
p401
I01
sS'Q9U3X4'
p402
I01
sS'Q54YY1'
p403
I01
sS'B0G108'
p404
I01
sS'Q54KL5'
p405
I01
sS'Q55FH2'
p406
I01
sS'Q86KB7'
p407
I01
sS'Q86KB4'
p408
I01
sS'Q558Y7'
p409
I01
sS'Q54IP5'
p410
I01
sS'Q54IP4'
p411
I01
sS'Q54UL9'
p412
I01
sS'Q55BV1'
p413
I01
sS'Q00766'
p414
I01
sS'Q54IP9'
p415
I01
sS'Q55CN9'
p416
I01
sS'Q8T683'
p417
I01
sS'Q54FN9'
p418
I01
sS'Q54X84'
p419
I01
sS'Q54X86'
p420
I01
sS'Q54X80'
p421
I01
sS'Q54W37'
p422
I01
sS'Q54W34'
p423
I01
sS'Q54W35'
p424
I01
sS'Q54EH1'
p425
I01
sS'Q54EH2'
p426
I01
sS'Q55AB6'
p427
I01
sS'Q54LA5'
p428
I01
sS'Q8T2T5'
p429
I01
sS'Q54XF7'
p430
I01
sS'Q54XF2'
p431
I01
sS'Q54P88'
p432
I01
sS'Q54CB3'
p433
I01
sS'Q54BN4'
p434
I01
sS'Q54BN0'
p435
I01
sS'O97470'
p436
I01
sS'Q54BN3'
p437
I01
sS'Q54XB6'
p438
I01
sS'Q54P64'
p439
I01
sS'Q54P63'
p440
I01
sS'P19198'
p441
I01
sS'Q54WL7'
p442
I01
sS'Q54WL4'
p443
I01
sS'Q54WL1'
p444
I01
sS'Q55GJ6'
p445
I01
sS'Q55GJ7'
p446
I01
sS'Q55GJ4'
p447
I01
sS'Q55GJ9'
p448
I01
sS'Q86HT1'
p449
I01
sS'Q54FX8'
p450
I01
sS'Q54S90'
p451
I01
sS'Q8T1G5'
p452
I01
sS'Q54S93'
p453
I01
sS'Q54FX4'
p454
I01
sS'Q54PQ6'
p455
I01
sS'Q9GSE7'
p456
I01
sS'Q55ED3'
p457
I01
sS'Q55ED1'
p458
I01
sS'Q86HB8'
p459
I01
sS'Q54TD0'
p460
I01
sS'Q54HW8'
p461
I01
sS'Q54TD3'
p462
I01
sS'Q8I7T3'
p463
I01
sS'Q54NG9'
p464
I01
sS'Q54ZH1'
p465
I01
sS'Q76P36'
p466
I01
sS'Q54NG2'
p467
I01
sS'Q54NG1'
p468
I01
sS'Q54L07'
p469
I01
sS'Q54R66'
p470
I01
sS'Q54R67'
p471
I01
sS'Q54LW6'
p472
I01
sS'Q54K91'
p473
I01
sS'Q54K93'
p474
I01
sS'Q75K24'
p475
I01
sS'Q75K27'
p476
I01
sS'Q54K99'
p477
I01
sS'Q54TZ4'
p478
I01
sS'Q54F42'
p479
I01
sS'Q54CF7'
p480
I01
sS'Q54SB4'
p481
I01
sS'Q65YR7'
p482
I01
sS'Q54SB0'
p483
I01
sS'Q55G58'
p484
I01
sS'Q54NQ0'
p485
I01
sS'Q65YR8'
p486
I01
sS'Q54NQ7'
p487
I01
sS'Q54J42'
p488
I01
sS'Q54J47'
p489
I01
sS'Q54J48'
p490
I01
sS'Q55BU8'
p491
I01
sS'Q54H86'
p492
I01
sS'Q54H87'
p493
I01
sS'Q8MML6'
p494
I01
sS'Q54G34'
p495
I01
sS'Q54G35'
p496
I01
sS'Q55C58'
p497
I01
sS'Q54D63'
p498
I01
sS'Q54C92'
p499
I01
sS'Q54D66'
p500
I01
sS'P22887'
p501
I01
sS'C7FZY1'
p502
I01
sS'Q86AE2'
p503
I01
sS'Q869N9'
p504
I01
sS'Q54DU1'
p505
I01
sS'Q54KM7'
p506
I01
sS'Q54WK3'
p507
I01
sS'Q869N1'
p508
I01
sS'Q54DU9'
p509
I01
sS'Q54RZ4'
p510
I01
sS'Q54RZ5'
p511
I01
sS'Q869N6'
p512
I01
sS'Q54JY7'
p513
I01
sS'Q54PR9'
p514
I01
sS'Q54JY1'
p515
I01
sS'Q55EQ3'
p516
I01
sS'Q9GSB0'
p517
I01
sS'Q54PR7'
p518
I01
sS'Q553W9'
p519
I01
sS'Q55GV4'
p520
I01
sS'Q54VB8'
p521
I01
sS'Q55GV3'
p522
I01
sS'Q55GV0'
p523
I01
sS'Q54N68'
p524
I01
sS'Q54VB5'
p525
I01
sS'P54660'
p526
I01
sS'Q559R0'
p527
I01
sS'Q55GV8'
p528
I01
sS'Q54VB3'
p529
I01
sS'Q55CY7'
p530
I01
sS'Q54B67'
p531
I01
sS'Q54DK1'
p532
I01
sS'Q55F29'
p533
I01
sS'Q55GU7'
p534
I01
sS'Q54J07'
p535
I01
sS'Q54JK6'
p536
I01
sS'Q54JK5'
p537
I01
sS'Q54JK3'
p538
I01
sS'Q9NCL8'
p539
I01
sS'Q550Q4'
p540
I01
sS'Q23911'
p541
I01
sS'Q23915'
p542
I01
sS'Q54AX5'
p543
I01
sS'Q8MP23'
p544
I01
sS'O76734'
p545
I01
sS'Q54EY3'
p546
I01
sS'Q86IY4'
p547
I01
sS'Q86IY7'
p548
I01
sS'Q86L14'
p549
I01
sS'Q86L17'
p550
I01
sS'Q86H98'
p551
I01
sS'Q555I8'
p552
I01
sS'Q86H96'
p553
I01
sS'Q54RL3'
p554
I01
sS'Q869X1'
p555
I01
sS'Q54YX5'
p556
I01
sS'Q54YX7'
p557
I01
sS'Q557E4'
p558
I01
sS'P52922'
p559
I01
sS'P09556'
p560
I01
sS'Q54YX3'
p561
I01
sS'Q557E0'
p562
I01
sS'Q55FK2'
p563
I01
sS'Q55FK4'
p564
I01
sS'Q4W6B5'
p565
I01
sS'Q54KC6'
p566
I01
sS'Q86KC1'
p567
I01
sS'Q86H79'
p568
I01
sS'Q54FY1'
p569
I01
sS'Q54IS5'
p570
I01
sS'Q6TU48'
p571
I01
sS'P18613'
p572
I01
sS'Q54FY3'
p573
I01
sS'Q54IS9'
p574
I01
sS'Q559H0'
p575
I01
sS'Q559H1'
p576
I01
sS'P26310'
p577
I01
sS'P14196'
p578
I01
sS'Q9NH03'
p579
I01
sS'Q9U641'
p580
I01
sS'Q6UK63'
p581
I01
sS'Q54W21'
p582
I01
sS'Q54W20'
p583
I01
sS'Q54X97'
p584
I01
sS'Q54RV9'
p585
I01
sS'B0G117'
p586
I01
sS'P27685'
p587
I01
sS'Q86IK2'
p588
I01
sS'Q54EK0'
p589
I01
sS'B0G119'
p590
I01
sS'Q54LF1'
p591
I01
sS'Q54QQ8'
p592
I01
sS'Q54XG4'
p593
I01
sS'Q54SJ2'
p594
I01
sS'Q54XG0'
p595
I01
sS'Q54QQ0'
p596
I01
sS'Q55DY8'
p597
I01
sS'Q55FN8'
p598
I01
sS'O15692'
p599
I01
sS'Q54P96'
p600
I01
sS'Q54P95'
p601
I01
sS'Q55DY7'
p602
I01
sS'Q54P71'
p603
I01
sS'Q54P70'
p604
I01
sS'Q54BA2'
p605
I01
sS'Q54QC1'
p606
I01
sS'Q55BZ5'
p607
I01
sS'Q55BZ4'
p608
I01
sS'P0DJ26'
p609
I01
sS'Q54M22'
p610
I01
sS'Q54WK0'
p611
I01
sS'Q54S81'
p612
I01
sS'Q553S7'
p613
I01
sS'Q7KWQ2'
p614
I01
sS'Q86JC9'
p615
I01
sS'Q54T71'
p616
I01
sS'Q54T73'
p617
I01
sS'Q54FY2'
p618
I01
sS'Q54T77'
p619
I01
sS'Q95US4'
p620
I01
sS'Q54VQ1'
p621
I01
sS'Q54VQ7'
p622
I01
sS'Q1ZXN5'
p623
I01
sS'Q75JY8'
p624
I01
sS'Q86JM7'
p625
I01
sS'Q86JM5'
p626
I01
sS'Q86JM3'
p627
I01
sS'Q54L10'
p628
I01
sS'Q54HT3'
p629
I01
sS'Q54HT4'
p630
I01
sS'Q555Z2'
p631
I01
sS'Q54L19'
p632
I01
sS'Q54L18'
p633
I01
sS'Q8T2A6'
p634
I01
sS'Q54ZI6'
p635
I01
sS'Q54SS0'
p636
I01
sS'Q86A88'
p637
I01
sS'Q54R72'
p638
I01
sS'Q54R74'
p639
I01
sS'Q54GG6'
p640
I01
sS'Q54LT5'
p641
I01
sS'Q54LT0'
p642
I01
sS'Q54LT2'
p643
I01
sS'Q54NR5'
p644
I01
sS'Q54F59'
p645
I01
sS'Q54NR1'
p646
I01
sS'Q54NR3'
p647
I01
sS'Q54F53'
p648
I01
sS'Q54F52'
p649
I01
sS'Q54SA0'
p650
I01
sS'Q54SA1'
p651
I01
sS'Q54JS1'
p652
I01
sS'Q55G29'
p653
I01
sS'Q54LZ3'
p654
I01
sS'Q54J51'
p655
I01
sS'Q54J50'
p656
I01
sS'Q54J53'
p657
I01
sS'Q54G21'
p658
I01
sS'Q54Y63'
p659
I01
sS'Q54H97'
p660
I01
sS'Q54G24'
p661
I01
sS'Q551V0'
p662
I01
sS'Q54BS2'
p663
I01
sS'Q54IN9'
p664
I01
sS'Q54D71'
p665
I01
sS'Q54IN0'
p666
I01
sS'Q54IN6'
p667
I01
sS'P25323'
p668
I01
sS'Q55BF5'
p669
I01
sS'Q86AQ3'
p670
I01
sS'Q553T0'
p671
I01
sS'Q86AQ7'
p672
I01
sS'Q54MN6'
p673
I01
sS'Q54PS3'
p674
I01
sS'Q54MN4'
p675
I01
sS'Q54PS7'
p676
I01
sS'Q54HB2'
p677
I01
sS'Q55GW4'
p678
I01
sS'Q54VC9'
p679
I01
sS'Q54CE0'
p680
I01
sS'Q54XU9'
p681
I01
sS'Q54N76'
p682
I01
sS'Q54N75'
p683
I01
sS'Q54N74'
p684
I01
sS'Q8MML5'
p685
I01
sS'Q54PA2'
p686
I01
sS'Q54PD6'
p687
I01
sS'Q8I0H7'
p688
I01
sS'Q54PA9'
p689
I01
sS'Q54DH7'
p690
I01
sS'Q86AC9'
p691
I01
sS'Q54VM6'
p692
I01
sS'Q54VM2'
p693
I01
sS'Q54MX5'
p694
I01
sS'Q54MX6'
p695
I01
sS'Q8SSN5'
p696
I01
sS'Q86KP5'
p697
I01
sS'Q552L5'
p698
I01
sS'Q555X4'
p699
I01
sS'Q555X3'
p700
I01
sS'P13021'
p701
I01
sS'P13022'
p702
I01
sS'P13023'
p703
I01
sS'Q54EX5'
p704
I01
sS'Q54EX7'
p705
I01
sS'Q54EX6'
p706
I01
sS'Q86IZ2'
p707
I01
sS'Q54K81'
p708
I01
sS'Q86KR5'
p709
I01
sS'Q9NI62'
p710
I01
sS'Q86H83'
p711
I01
sS'Q86H82'
p712
I01
sS'Q555C6'
p713
I01
sS'Q869Y3'
p714
I01
sS'Q869Y7'
p715
I01
sS'Q54JQ8'
p716
I01
sS'Q54UN6'
p717
I01
sS'Q54KB8'
p718
I01
sS'Q55DZ3'
p719
I01
sS'Q54KB7'
p720
I01
sS'Q55FJ2'
p721
I01
sS'Q54KB3'
p722
I01
sS'Q55FJ0'
p723
I01
sS'P34124'
p724
I01
sS'P34123'
p725
I01
sS'P34120'
p726
I01
sS'Q54IR8'
p727
I01
sS'Q54IR0'
p728
I01
sS'P20790'
p729
I01
sS'Q86L05'
p730
I01
sS'Q86L04'
p731
I01
sS'Q559I6'
p732
I01
sS'Q86JP3'
p733
I01
sS'Q54FH7'
p734
I01
sS'Q54FH4'
p735
I01
sS'Q55CB6'
p736
I01
sS'Q54Z69'
p737
I01
sS'Q54W18'
p738
I01
sS'Q54W19'
p739
I01
sS'Q54X66'
p740
I01
sS'Q54X65'
p741
I01
sS'Q54X63'
p742
I01
sS'B0G160'
p743
I01
sS'B0G167'
p744
I01
sS'Q9NHF6'
p745
I01
sS'Q55DJ0'
p746
I01
sS'Q54LG3'
p747
I01
sS'Q8T2R4'
p748
I01
sS'Q54XD8'
p749
I01
sS'Q55DX6'
p750
I01
sS'Q54ED0'
p751
I01
sS'Q86IF6'
p752
I01
sS'Q54QP6'
p753
I01
sS'Q54QP2'
p754
I01
sS'P30815'
p755
I01
sS'Q54V68'
p756
I01
sS'Q54V61'
p757
I01
sS'Q54P42'
p758
I01
sS'Q54P46'
p759
I01
sS'Q86A97'
p760
I01
sS'Q54WJ9'
p761
I01
sS'P46793'
p762
I01
sS'Q54WJ1'
p763
I01
sS'Q6UUW6'
p764
I01
sS'Q55GH8'
p765
I01
sS'Q54FZ2'
p766
I01
sS'Q54FZ3'
p767
I01
sS'Q86HR3'
p768
I01
sS'Q55GH1'
p769
I01
sS'Q55AD9'
p770
I01
sS'Q86JB6'
p771
I01
sS'Q86JB5'
p772
I01
sS'Q86JB4'
p773
I01
sS'Q54VR8'
p774
I01
sS'Q54VR9'
p775
I01
sS'Q9UA41'
p776
I01
sS'Q54VR1'
p777
I01
sS'Q54VR2'
p778
I01
sS'Q76P15'
p779
I01
sS'P16051'
p780
I01
sS'Q54SR7'
p781
I01
sS'Q54NA0'
p782
I01
sS'Q54XR4'
p783
I01
sS'Q54R89'
p784
I01
sS'Q55A19'
p785
I01
sS'Q54LU2'
p786
I01
sS'Q54GF3'
p787
I01
sS'Q54NS3'
p788
I01
sS'Q54NS1'
p789
I01
sS'Q54NS7'
p790
I01
sS'Q54NS5'
p791
I01
sS'Q54NS9'
p792
I01
sS'Q54F66'
p793
I01
sS'Q54GT6'
p794
I01
sS'Q55G30'
p795
I01
sS'Q54GT9'
p796
I01
sS'Q54J68'
p797
I01
sS'Q54J69'
p798
I01
sS'O96552'
p799
I01
sS'Q54J66'
p800
I01
sS'Q55CR1'
p801
I01
sS'Q551W8'
p802
I01
sS'Q55EF7'
p803
I01
sS'Q54H66'
p804
I01
sS'Q54BT0'
p805
I01
sS'Q54BT5'
p806
I01
sS'Q03409'
p807
I01
sS'O60950'
p808
I01
sS'Q551A1'
p809
I01
sS'Q55BA8'
p810
I01
sS'Q55BA9'
p811
I01
sS'Q54PP1'
p812
I01
sS'Q55BA2'
p813
I01
sS'Q8T1F9'
p814
I01
sS'Q75JF3'
p815
I01
sS'Q553U5'
p816
I01
sS'Q55EX9'
p817
I01
sS'Q55GT0'
p818
I01
sS'P15064'
p819
I01
sS'Q54HC2'
p820
I01
sS'Q54CD7'
p821
I01
sS'Q55GT5'
p822
I01
sS'Q75JN6'
p823
I01
sS'Q75JN8'
p824
I01
sS'Q54N06'
p825
I01
sS'Q8STF9'
p826
I01
sS'Q559X6'
p827
I01
sS'Q86K69'
p828
I01
sS'Q54B82'
p829
I01
sS'Q54JM8'
p830
I01
sS'Q54VN3'
p831
I01
sS'O77229'
p832
I01
sS'Q54VN6'
p833
I01
sS'Q86AQ5'
p834
I01
sS'Q54JM3'
p835
I01
sS'Q556P6'
p836
I01
sS'Q54CZ8'
p837
I01
sS'O15744'
p838
I01
sS'Q54I12'
p839
I01
sS'Q54I10'
p840
I01
sS'P54641'
p841
I01
sS'B0M0Q0'
p842
I01
sS'B0M0Q3'
p843
I01
sS'Q552Y0'
p844
I01
sS'Q9U9A3'
p845
I01
sS'Q54KS1'
p846
I01
sS'Q54CE4'
p847
I01
sS'Q54IC2'
p848
I01
sS'Q54YZ4'
p849
I01
sS'Q54YZ0'
p850
I01
sS'Q58A40'
p851
I01
sS'Q54NM0'
p852
I01
sS'Q54DI6'
p853
I01
sS'Q54DI4'
p854
I01
sS'Q869Z4'
p855
I01
sS'Q869Z5'
p856
I01
sS'Q54RN6'
p857
I01
sS'P29447'
p858
I01
sS'Q54RN1'
p859
I01
sS'Q557C7'
p860
I01
sS'Q54DI8'
p861
I01
sS'Q54UI0'
p862
I01
sS'Q86H55'
p863
I01
sS'Q55FM2'
p864
I01
sS'Q55FM0'
p865
I01
sS'Q54KA3'
p866
I01
sS'Q55FM7'
p867
I01
sS'Q55FM5'
p868
I01
sS'Q54YL3'
p869
I01
sS'P34136'
p870
I01
sS'Q86JG4'
p871
I01
sS'Q869T1'
p872
I01
sS'Q55D81'
p873
I01
sS'Q54IU0'
p874
I01
sS'Q54IU1'
p875
I01
sS'P34139'
p876
I01
sS'Q54Y17'
p877
I01
sS'Q54Y14'
p878
I01
sS'Q86I87'
p879
I01
sS'Q8MXM8'
p880
I01
sS'Q54F47'
p881
I01
sS'Q556Q0'
p882
I01
sS'Q55FW9'
p883
I01
sS'Q54SV2'
p884
I01
sS'Q95UC5'
p885
I01
sS'Q54Z79'
p886
I01
sS'Q55CC2'
p887
I01
sS'Q54Z72'
p888
I01
sS'Q55CC8'
p889
I01
sS'Q54EU4'
p890
I01
sS'Q55FW7'
p891
I01
sS'Q54EU0'
p892
I01
sS'Q54X77'
p893
I01
sS'Q54EU8'
p894
I01
sS'Q55DR6'
p895
I01
sS'Q86KA1'
p896
I01
sS'Q55DI2'
p897
I01
sS'Q54XE7'
p898
I01
sS'Q54XE6'
p899
I01
sS'Q54LD5'
p900
I01
sS'Q54LD6'
p901
I01
sS'Q54LD2'
p902
I01
sS'Q54EG0'
p903
I01
sS'Q54EG3'
p904
I01
sS'Q54QS3'
p905
I01
sS'Q54V77'
p906
I01
sS'Q54V76'
p907
I01
sS'Q54V71'
p908
I01
sS'P28178'
p909
I01
sS'Q54P59'
p910
I01
sS'Q54BC6'
p911
I01
sS'Q54WI8'
p912
I01
sS'Q54BC2'
p913
I01
sS'Q54UU2'
p914
I01
sS'Q54UU3'
p915
I01
sS'Q54UU1'
p916
I01
sS'Q54UU8'
p917
I01
sS'Q54T59'
p918
I01
sS'Q54IS1'
p919
I01
sS'P54697'
p920
I01
sS'Q54MB2'
p921
I01
sS'Q54HR1'
p922
I01
sS'Q54HR7'
p923
I01
sS'Q55GG3'
p924
I01
sS'P36410'
p925
I01
sS'P36411'
p926
I01
sS'P36412'
p927
I01
sS'P36413'
p928
I01
sS'Q55F34'
p929
I01
sS'P36415'
p930
I01
sS'Q55EC2'
p931
I01
sS'Q54NB4'
p932
I01
sS'Q54NB5'
p933
I01
sS'Q54NB6'
p934
I01
sS'Q54NB2'
p935
I01
sS'Q55AW9'
p936
I01
sS'Q54TK2'
p937
I01
sS'Q54SQ0'
p938
I01
sS'Q55BS6'
p939
I01
sS'Q54QE2'
p940
I01
sS'Q54QE3'
p941
I01
sS'Q54XS2'
p942
I01
sS'P26200'
p943
I01
sS'Q54QE7'
p944
I01
sS'Q54QE4'
p945
I01
sS'Q54GE1'
p946
I01
sS'Q54GE3'
p947
I01
sS'Q54R90'
p948
I01
sS'Q54GE6'
p949
I01
sS'Q54GE7'
p950
I01
sS'Q55G04'
p951
I01
sS'Q55BS3'
p952
I01
sS'Q54SG2'
p953
I01
sS'Q54SG3'
p954
I01
sS'Q54GS8'
p955
I01
sS'Q54XB5'
p956
I01
sS'Q54J75'
p957
I01
sS'Q55BS9'
p958
I01
sS'Q54G09'
p959
I01
sS'Q54BU3'
p960
I01
sS'Q1ZXH9'
p961
I01
sS'Q54BU4'
p962
I01
sS'Q54H73'
p963
I01
sS'Q54J97'
p964
I01
sS'Q94490'
p965
I01
sS'Q54QH6'
p966
I01
sS'Q86I19'
p967
I01
sS'Q54QR9'
p968
I01
sS'Q54PQ5'
p969
I01
sS'Q55D17'
p970
I01
sS'Q551B5'
p971
I01
sS'Q54DX3'
p972
I01
sS'Q54MH8'
p973
I01
sS'Q54TY5'
p974
I01
sS'Q54F74'
p975
I01
sS'Q54K42'
p976
I01
sS'Q54CK6'
p977
I01
sS'Q54CK4'
p978
I01
sS'Q54JC8'
p979
I01
sS'Q55GU3'
p980
I01
sS'Q76P24'
p981
I01
sS'Q54N17'
p982
I01
sS'Q54F78'
p983
I01
sS'Q54MZ2'
p984
I01
sS'Q54MZ1'
p985
I01
sS'Q54MZ5'
p986
I01
sS'Q54MZ4'
p987
I01
sS'Q9TVK6'
p988
I01
sS'Q54HN1'
p989
I01
sS'P10733'
p990
I01
sS'Q54CY9'
p991
I01
sS'O15757'
p992
I01
sS'Q54CY6'
p993
I01
sS'Q54LV1'
p994
I01
sS'P83401'
p995
I01
sS'Q03380'
p996
I01
sS'P34036'
p997
I01
sS'Q555L5'
p998
I01
sS'Q54KR6'
p999
I01
sS'Q54KR1'
p1000
I01
sS'Q54ZW1'
p1001
I01
sS'Q54DN0'
p1002
I01
sS'Q54UH9'
p1003
I01
sS'Q54UH8'
p1004
I01
sS'P25870'
p1005
I01
sS'Q55FL5'
p1006
I01
sS'Q55FL6'
p1007
I01
sS'Q869U7'
p1008
I01
sS'Q869U6'
p1009
I01
sS'Q54RA2'
p1010
I01
sS'Q54IT3'
p1011
I01
sS'Q54RA8'
p1012
I01
sS'Q55CR6'
p1013
I01
sS'Q55CR0'
p1014
I01
sS'Q54Y02'
p1015
I01
sS'Q54PF9'
p1016
I01
sS'Q54TU9'
p1017
I01
sS'Q75JI3'
p1018
I01
sS'Q6IMN8'
p1019
I01
sS'Q86B08'
p1020
I01
sS'Q86B07'
p1021
I01
sS'Q54X49'
p1022
I01
sS'Q54ET7'
p1023
I01
sS'Q54ET6'
p1024
I01
sS'Q86IV4'
p1025
I01
sS'Q86IV5'
p1026
I01
sS'Q86A92'
p1027
I01
sS'Q55DH9'
p1028
I01
sS'B0G145'
p1029
I01
sS'B0G141'
p1030
I01
sS'B0G142'
p1031
I01
sS'Q86AD5'
p1032
I01
sS'Q54QR3'
p1033
I01
sS'Q54QR2'
p1034
I01
sS'Q54QR0'
p1035
I01
sS'Q54LE3'
p1036
I01
sS'Q54LE5'
p1037
I01
sS'Q54QR8'
p1038
I01
sS'Q54U91'
p1039
I01
sS'Q54U95'
p1040
I01
sS'P14132'
p1041
I01
sS'Q54EF1'
p1042
I01
sS'P21900'
p1043
I01
sS'Q54WZ3'
p1044
I01
sS'Q54WZ2'
p1045
I01
sS'Q54WZ5'
p1046
I01
sS'Q54WZ6'
p1047
I01
sS'Q54YA6'
p1048
I01
sS'P09402'
p1049
I01
sS'Q54YA2'
p1050
I01
sS'Q54YA0'
p1051
I01
sS'Q7KWU6'
p1052
I01
sS'Q54FJ8'
p1053
I01
sS'Q54WH2'
p1054
I01
sS'Q54WH0'
p1055
I01
sS'Q8MYF0'
p1056
I01
sS'Q8MYF2'
p1057
I01
sS'Q54P23'
p1058
I01
sS'Q54P24'
p1059
I01
sS'Q55FH3'
p1060
I01
sS'P07830'
p1061
I01
sS'Q75JR3'
p1062
I01
sS'Q54FT8'
p1063
I01
sS'Q54FT2'
p1064
I01
sS'P54680'
p1065
I01
sS'Q8T158'
p1066
I01
sS'Q55GD7'
p1067
I01
sS'Q54HS9'
p1068
I01
sS'Q54S39'
p1069
I01
sS'Q54TH8'
p1070
I01
sS'Q54TH9'
p1071
I01
sS'Q54NC1'
p1072
I01
sS'Q54NC8'
p1073
I01
sS'Q54TH4'
p1074
I01
sS'Q86H60'
p1075
I01
sS'Q54LK1'
p1076
I01
sS'Q86H62'
p1077
I01
sS'Q54GD8'
p1078
I01
sS'Q54XP9'
p1079
I01
sS'Q54QD9'
p1080
I01
sS'Q54XP6'
p1081
I01
sS'Q55FJ5'
p1082
I01
sS'Q54XP2'
p1083
I01
sS'Q55BS7'
p1084
I01
sS'Q55F28'
p1085
I01
sS'Q54LY8'
p1086
I01
sS'Q54GR9'
p1087
I01
sS'Q54GR8'
p1088
I01
sS'Q54SF2'
p1089
I01
sS'Q54LY3'
p1090
I01
sS'Q54SF7'
p1091
I01
sS'Q55BQ8'
p1092
I01
sS'Q8T1V6'
p1093
I01
sS'Q8T1V4'
p1094
I01
sS'Q55BQ2'
p1095
I01
sS'Q54K32'
p1096
I01
sS'Q8T1V8'
p1097
I01
sS'Q55BQ6'
p1098
I01
sS'Q55C99'
p1099
I01
sS'Q55BJ6'
p1100
I01
sS'Q1ZXI0'
p1101
I01
sS'Q55F21'
p1102
I01
sS'Q54H42'
p1103
I01
sS'Q54M91'
p1104
I01
sS'Q55EH2'
p1105
I01
sS'Q54H46'
p1106
I01
sS'Q54H47'
p1107
I01
sS'Q54DY7'
p1108
I01
sS'Q55BC7'
p1109
I01
sS'Q54DY3'
p1110
I01
sS'Q54DY1'
p1111
I01
sS'Q94469'
p1112
I01
sS'Q94464'
p1113
I01
sS'P34121'
p1114
I01
sS'Q55BC8'
p1115
I01
sS'Q54DY8'
p1116
I01
sS'Q54MK4'
p1117
I01
sS'P13833'
p1118
I01
sS'Q54MK8'
p1119
I01
sS'Q54MK9'
p1120
I01
sS'Q54E92'
p1121
I01
sS'P22685'
p1122
I01
sS'Q54N27'
p1123
I01
sS'P22683'
p1124
I01
sS'Q55EZ6'
p1125
I01
sS'Q86AX2'
p1126
I01
sS'Q75JL8'
p1127
I01
sS'Q54CJ9'
p1128
I01
sS'Q54F07'
p1129
I01
sS'Q54F04'
p1130
I01
sS'Q54CJ5'
p1131
I01
sS'Q54F09'
p1132
I01
sS'Q75JL7'
p1133
I01
sS'Q54CJ2'
p1134
I01
sS'Q54PL9'
p1135
I01
sS'O77203'
p1136
I01
sS'Q54MU8'
p1137
I01
sS'Q559Z4'
p1138
I01
sS'Q54PL1'
p1139
I01
sS'Q54PL2'
p1140
I01
sS'Q559Z0'
p1141
I01
sS'Q54MU3'
p1142
I01
sS'Q75JB5'
p1143
I01
sS'Q54CX6'
p1144
I01
sS'P13723'
p1145
I01
sS'Q54RY8'
p1146
I01
sS'Q86KQ6'
p1147
I01
sS'Q54C37'
p1148
I01
sS'Q54C34'
p1149
I01
sS'Q9BI24'
p1150
I01
sS'Q54RY6'
p1151
I01
sS'Q54RP2'
p1152
I01
sS'Q6TMJ9'
p1153
I01
sS'Q86J14'
p1154
I01
sS'Q6TMJ4'
p1155
I01
sS'Q54IE5'
p1156
I01
sS'Q86H36'
p1157
I01
sS'Q54UK2'
p1158
I01
sS'Q869V1'
p1159
I01
sS'Q54RB6'
p1160
I01
sS'P34118'
p1161
I01
sS'Q54YN3'
p1162
I01
sS'Q54YN2'
p1163
I01
sS'P34115'
p1164
I01
sS'Q8T154'
p1165
I01
sS'P34113'
p1166
I01
sS'P34112'
p1167
I01
sS'Q55CS1'
p1168
I01
sS'Q55CS3'
p1169
I01
sS'Q55CS9'
p1170
I01
sS'Q86AH6'
p1171
I01
sS'Q556S5'
p1172
I01
sS'Q86K21'
p1173
I01
sS'Q556E3'
p1174
I01
sS'Q54G78'
p1175
I01
sS'P08799'
p1176
I01
sS'Q54X53'
p1177
I01
sS'Q54X51'
p1178
I01
sS'Q55CA0'
p1179
I01
sS'Q54EW1'
p1180
I01
sS'Q54EW2'
p1181
I01
sS'Q54EW3'
p1182
I01
sS'Q86IW8'
p1183
I01
sS'Q54EW8'
p1184
I01
sS'Q550I8'
p1185
I01
sS'Q54E21'
p1186
I01
sS'Q54KG3'
p1187
I01
sS'Q54VA2'
p1188
I01
sS'Q55E94'
p1189
I01
sS'Q54XC4'
p1190
I01
sS'Q54XC9'
p1191
I01
sS'Q54QU8'
p1192
I01
sS'Q54QU9'
p1193
I01
sS'Q55EU1'
p1194
I01
sS'Q86IA3'
p1195
I01
sS'Q54WY8'
p1196
I01
sS'Q55FU2'
p1197
I01
sS'Q55FQ9'
p1198
I01
sS'Q76NU1'
p1199
I01
sS'Q54FK8'
p1200
I01
sS'Q8MYE6'
p1201
I01
sS'Q8MYE7'
p1202
I01
sS'Q54WG6'
p1203
I01
sS'Q54WG1'
p1204
I01
sS'C7G056'
p1205
I01
sS'Q54UW5'
p1206
I01
sS'P26355'
p1207
I01
sS'Q54FU1'
p1208
I01
sS'Q54FU0'
p1209
I01
sS'Q54Q05'
p1210
I01
sS'Q554G3'
p1211
I01
sS'Q55D79'
p1212
I01
sS'Q95YL5'
p1213
I01
sS'Q54S23'
p1214
I01
sS'Q55GE2'
p1215
I01
sS'Q54HP3'
p1216
I01
sS'Q54XP4'
p1217
I01
sS'P54654'
p1218
I01
sS'Q54L58'
p1219
I01
sS'Q7KWK5'
p1220
I01
sS'P54651'
p1221
I01
sS'Q55AQ9'
p1222
I01
sS'Q54NL4'
p1223
I01
sS'P54659'
p1224
I01
sS'Q54LH7'
p1225
I01
sS'Q54ZM4'
p1226
I01
sS'Q54QG4'
p1227
I01
sS'Q54XQ5'
p1228
I01
sS'Q54SE2'
p1229
I01
sS'Q553B4'
p1230
I01
sS'Q54W11'
p1231
I01
sS'Q54GQ6'
p1232
I01
sS'Q54GQ7'
p1233
I01
sS'O15819'
p1234
I01
sS'Q54BW3'
p1235
I01
sS'Q54H53'
p1236
I01
sS'Q54H52'
p1237
I01
sS'Q55BP2'
p1238
I01
sS'Q55BP5'
p1239
I01
sS'Q55D91'
p1240
I01
sS'Q55EI7'
p1241
I01
sS'Q54M82'
p1242
I01
sS'Q1ZXJ0'
p1243
I01
sS'Q54M86'
p1244
I01
sS'Q55C66'
p1245
I01
sS'Q1ZXD4'
p1246
I01
sS'Q550R2'
p1247
I01
sS'Q54MJ6'
p1248
I01
sS'Q54MJ5'
p1249
I01
sS'Q55D72'
p1250
I01
sS'Q55D70'
p1251
I01
sS'Q964D8'
p1252
I01
sS'Q54RR5'
p1253
I01
sS'Q54N33'
p1254
I01
sS'Q75JS7'
p1255
I01
sS'Q54E85'
p1256
I01
sS'Q54N35'
p1257
I01
sS'Q554U9'
p1258
I01
sS'Q54F10'
p1259
I01
sS'P11022'
p1260
I01
sS'Q54F16'
p1261
I01
sS'Q54CI4'
p1262
I01
sS'Q55GS7'
p1263
I01
sS'Q54CU8'
p1264
I01
sS'O00780'
p1265
I01
sS'Q54MT0'
p1266
I01
sS'Q54MT3'
p1267
I01
sS'Q54MT2'
p1268
I01
sS'Q54HL0'
p1269
I01
sS'Q5XM24'
p1270
I01
sS'Q54VI3'
p1271
I01
sS'Q54VI2'
p1272
I01
sS'Q54VI4'
p1273
I01
sS'Q54VI6'
p1274
I01
sS'Q54LY4'
p1275
I01
sS'Q552H9'
p1276
I01
sS'Q54I26'
p1277
I01
sS'Q7M438'
p1278
I01
sS'Q54I22'
p1279
I01
sS'Q54I20'
p1280
I01
sS'Q94504'
p1281
I01
sS'Q54KP3'
p1282
I01
sS'Q94503'
p1283
I01
sS'Q94502'
p1284
I01
sS'Q54C24'
p1285
I01
sS'Q54C27'
p1286
I01
sS'Q555N6'
p1287
I01
sS'Q552Z0'
p1288
I01
sS'Q54C29'
p1289
I01
sS'Q54C28'
p1290
I01
sS'Q54RQ1'
p1291
I01
sS'Q6TMK3'
p1292
I01
sS'Q54ID0'
p1293
I01
sS'Q54ND1'
p1294
I01
sS'Q54ID5'
p1295
I01
sS'Q54DL5'
p1296
I01
sS'Q86LA2'
p1297
I01
sS'Q54DL0'
p1298
I01
sS'Q5V9F0'
p1299
I01
sS'Q54PM8'
p1300
I01
sS'Q54UJ3'
p1301
I01
sS'Q54UJ0'
p1302
I01
sS'Q54YQ8'
p1303
I01
sS'Q54YQ9'
p1304
I01
sS'Q869W9'
p1305
I01
sS'Q54DB1'
p1306
I01
sS'P0C7B6'
p1307
I01
sS'Q869W6'
p1308
I01
sS'Q54RC3'
p1309
I01
sS'Q54RC0'
p1310
I01
sS'Q54Y26'
p1311
I01
sS'Q54Y20'
p1312
I01
sS'Q86K39'
p1313
I01
sS'Q86L41'
p1314
I01
sS'Q86L45'
p1315
I01
sS'Q86K32'
p1316
I01
sS'Q01501'
p1317
I01
sS'Q86B20'
p1318
I01
sS'Q55CF8'
p1319
I01
sS'Q556D4'
p1320
I01
sS'O76329'
p1321
I01
sS'Q55CF6'
p1322
I01
sS'Q550H7'
p1323
I01
sS'Q550H6'
p1324
I01
sS'Q55DN6'
p1325
I01
sS'Q54EV7'
p1326
I01
sS'P42530'
p1327
I01
sS'Q55FN1'
p1328
I01
sS'Q55FN7'
p1329
I01
sS'P36409'
p1330
I01
sS'Q55FN4'
p1331
I01
sS'P36408'
p1332
I01
sS'Q86KD1'
p1333
I01
sS'Q86IB4'
p1334
I01
sS'Q9GRX6'
p1335
I01
sS'B0G180'
p1336
I01
sS'B0G182'
p1337
I01
sS'B0G185'
p1338
I01
sS'Q55E61'
p1339
I01
sS'Q54UD1'
p1340
I01
sS'Q54UD0'
p1341
I01
sS'Q55FP4'
p1342
I01
sS'Q55FP7'
p1343
I01
sS'Q55FP0'
p1344
I01
sS'Q54YC0'
p1345
I01
sS'Q54FD7'
p1346
I01
sS'Q94465'
p1347
I01
sS'Q54WF8'
p1348
I01
sS'Q54UV2'
p1349
I01
sS'Q54UV0'
p1350
I01
sS'Q54T80'
p1351
I01
sS'Q54T81'
p1352
I01
sS'Q55C75'
p1353
I01
sS'Q54FV5'
p1354
I01
sS'Q54FV6'
p1355
I01
sS'Q54T87'
p1356
I01
sS'Q54Q30'
p1357
I01
sS'Q54Q31'
p1358
I01
sS'Q54Q32'
p1359
I01
sS'Q54S12'
p1360
I01
sS'Q54TN9'
p1361
I01
sS'P54644'
p1362
I01
sS'P54647'
p1363
I01
sS'Q54NM9'
p1364
I01
sS'P54640'
p1365
I01
sS'Q54ZN2'
p1366
I01
sS'P54642'
p1367
I01
sS'P54648'
p1368
I01
sS'Q55AR3'
p1369
I01
sS'Q54GB3'
p1370
I01
sS'Q54XN5'
p1371
I01
sS'Q54LI8'
p1372
I01
sS'Q54F95'
p1373
I01
sS'Q54LI4'
p1374
I01
sS'Q557D2'
p1375
I01
sS'Q54SV6'
p1376
I01
sS'Q54P04'
p1377
I01
sS'Q54BF6'
p1378
I01
sS'Q54P07'
p1379
I01
sS'Q54QF3'
p1380
I01
sS'Q54BF9'
p1381
I01
sS'P22684'
p1382
I01
sS'Q54SD5'
p1383
I01
sS'Q54SD4'
p1384
I01
sS'Q54QH7'
p1385
I01
sS'Q54GP8'
p1386
I01
sS'Q54QH0'
p1387
I01
sS'Q54QH3'
p1388
I01
sS'Q54QH2'
p1389
I01
sS'Q54GP0'
p1390
I01
sS'Q55BS8'
p1391
I01
sS'Q54GP6'
p1392
I01
sS'Q54GY1'
p1393
I01
sS'Q54H23'
p1394
I01
sS'Q54BX7'
p1395
I01
sS'P15112'
p1396
I01
sS'Q54BX0'
p1397
I01
sS'Q55F42'
p1398
I01
sS'Q55EJ2'
p1399
I01
sS'Q55FH5'
p1400
I01
sS'Q55BM7'
p1401
I01
sS'Q55D68'
p1402
I01
sS'Q55D61'
p1403
I01
sS'Q1ZXE8'
p1404
I01
sS'Q55D66'
p1405
I01
sS'Q75JR4'
p1406
I01
sS'Q54CH4'
p1407
I01
sS'Q54CH2'
p1408
I01
sS'Q54CH1'
p1409
I01
sS'Q75JR2'
p1410
I01
sS'Q8T191'
p1411
I01
sS'Q54F29'
p1412
I01
sS'Q54F25'
p1413
I01
sS'Q54F26'
p1414
I01
sS'Q54K35'
p1415
I01
sS'Q54F20'
p1416
I01
sS'Q54K33'
p1417
I01
sS'Q54F23'
p1418
I01
sS'Q54M21'
p1419
I01
sS'Q54VJ0'
p1420
I01
sS'Q54JA5'
p1421
I01
sS'Q54JA0'
p1422
I01
sS'Q8T662'
p1423
I01
sS'O15706'
p1424
I01
sS'Q54TR3'
p1425
I01
sS'Q54TR1'
p1426
I01
sS'Q54HM5'
p1427
I01
sS'Q54HM2'
p1428
I01
sS'Q54TR8'
p1429
I01
sS'Q55GR1'
p1430
I01
sS'Q552K6'
p1431
I01
sS'Q54I58'
p1432
I01
sS'Q54I59'
p1433
I01
sS'Q54I50'
p1434
I01
sS'Q54KW1'
p1435
I01
sS'O77082'
p1436
I01
sS'Q556G4'
p1437
I01
sS'Q54C12'
p1438
I01
sS'Q54C16'
p1439
I01
sS'Q54RR3'
p1440
I01
sS'C7FZZ0'
p1441
I01
sS'Q8SSQ0'
p1442
I01
sS'Q5V9E9'
p1443
I01
sS'Q54DM9'
p1444
I01
sS'Q54PJ1'
p1445
I01
sS'Q54PJ5'
p1446
I01
sS'Q55CG6'
p1447
I01
sS'Q54YP4'
p1448
I01
sS'Q559Z1'
p1449
I01
sS'Q54RD5'
p1450
I01
sS'Q556U6'
p1451
I01
sS'Q55CQ7'
p1452
I01
sS'Q55CQ6'
p1453
I01
sS'P05095'
p1454
I01
sS'Q55DM5'
p1455
I01
sS'Q86K01'
p1456
I01
sS'Q55B06'
p1457
I01
sS'Q86I62'
p1458
I01
sS'P42520'
p1459
I01
sS'Q55DM1'
p1460
I01
sS'Q556G9'
p1461
I01
sS'Q54X39'
p1462
I01
sS'Q556G1'
p1463
I01
sS'Q556G3'
p1464
I01
sS'Q54EQ8'
p1465
I01
sS'P42528'
p1466
I01
sS'Q9GPM4'
p1467
I01
sS'P42522'
p1468
I01
sS'Q54EQ1'
p1469
I01
sS'Q54EQ6'
p1470
I01
sS'P42526'
p1471
I01
sS'P35084'
p1472
I01
sS'P35085'
p1473
I01
sS'Q54VS8'
p1474
I01
sS'Q54KE6'
p1475
I01
sS'Q55DV6'
p1476
I01
sS'Q55DC7'
p1477
I01
sS'Q86IC0'
p1478
I01
sS'Q86IC6'
p1479
I01
sS'Q55DC0'
p1480
I01
sS'Q54QW5'
p1481
I01
sS'Q86IC9'
p1482
I01
sS'Q54XA0'
p1483
I01
sS'Q54QW1'
p1484
I01
sS'B0G197'
p1485
I01
sS'Q54WW0'
p1486
I01
sS'Q86C65'
p1487
I01
sS'Q54UG4'
p1488
I01
sS'Q54FE8'
p1489
I01
sS'Q54YB5'
p1490
I01
sS'Q54FE6'
p1491
I01
sS'Q54YB2'
p1492
I01
sS'Q54FE3'
p1493
I01
sS'Q54WE9'
p1494
I01
sS'Q54WE3'
p1495
I01
sS'Q54T96'
p1496
I01
sS'Q54T94'
p1497
I01
sS'Q54FW2'
p1498
I01
sS'Q54UQ7'
p1499
I01
sS'Q54Q20'
p1500
I01
sS'Q54Q29'
p1501
I01
sS'Q556I6'
p1502
I01
sS'Q54VG4'
p1503
I01
sS'Q86IC8'
p1504
I01
sS'Q553P6'
p1505
I01
sS'Q55GC0'
p1506
I01
sS'Q54S04'
p1507
I01
sS'Q55GC5'
p1508
I01
sS'Q55GC4'
p1509
I01
sS'Q55GC7'
p1510
I01
sS'P54671'
p1511
I01
sS'P54672'
p1512
I01
sS'Q8ST07'
p1513
I01
sS'Q54SU2'
p1514
I01
sS'Q86AU4'
p1515
I01
sS'P54678'
p1516
I01
sS'P54679'
p1517
I01
sS'Q8T2K9'
p1518
I01
sS'Q86K94'
p1519
I01
sS'Q54QY8'
p1520
I01
sS'P51405'
p1521
I01
sS'Q54P13'
p1522
I01
sS'Q54U43'
p1523
I01
sS'Q54P14'
p1524
I01
sS'Q54SK8'
p1525
I01
sS'Q8T295'
p1526
I01
sS'Q8T293'
p1527
I01
sS'Q54QK0'
p1528
I01
sS'Q54QK4'
p1529
I01
sS'Q54BY8'
p1530
I01
sS'Q55F79'
p1531
I01
sS'Q55F77'
p1532
I01
sS'Q55F70'
p1533
I01
sS'Q55C26'
p1534
I01
sS'Q55C24'
p1535
I01
sS'Q55D50'
p1536
I01
sS'Q1ZXF1'
p1537
I01
sS'Q55F94'
p1538
I01
sS'Q55F90'
p1539
I01
sS'Q54JP5'
p1540
I01
sS'Q54MD1'
p1541
I01
sS'Q54X81'
p1542
I01
sS'Q75JQ1'
p1543
I01
sS'Q54PX1'
p1544
I01
sS'Q54X82'
p1545
I01
sS'Q55GQ5'
p1546
I01
sS'Q76NW7'
p1547
I01
sS'Q86AG5'
p1548
I01
sS'Q54NX3'
p1549
I01
sS'Q54L98'
p1550
I01
sS'Q54K22'
p1551
I01
sS'Q54JB8'
p1552
I01
sS'O00909'
p1553
I01
sS'Q54E41'
p1554
I01
sS'Q54E42'
p1555
I01
sS'O77257'
p1556
I01
sS'Q54E49'
p1557
I01
sS'Q54JB6'
p1558
I01
sS'Q54TS5'
p1559
I01
sS'Q54TS4'
p1560
I01
sS'O96759'
p1561
I01
sS'Q54HJ0'
p1562
I01
sS'Q552J0'
p1563
I01
sS'Q54I41'
p1564
I01
sS'Q54I40'
p1565
I01
sS'P13466'
p1566
I01
sS'Q552D1'
p1567
I01
sS'Q5TJ65'
p1568
I01
sS'Q552D9'
p1569
I01
sS'Q54IF0'
p1570
I01
sS'Q54IF7'
p1571
I01
sS'Q23858'
p1572
I01
sS'Q54IF9'
p1573
I01
sS'Q54FE7'
p1574
I01
sS'Q54DR0'
p1575
I01
sS'Q54DR1'
p1576
I01
sS'Q86J23'
p1577
I01
sS'O96621'
p1578
I01
sS'O96622'
p1579
I01
sS'O96623'
p1580
I01
sS'O96624'
p1581
I01
sS'Q54RS2'
p1582
I01
sS'O96626'
p1583
I01
sS'Q86IJ1'
p1584
I01
sS'Q54MV7'
p1585
I01
sS'Q54PK4'
p1586
I01
sS'Q54PK6'
p1587
I01
sS'Q551H6'
p1588
I01
sS'B0G0Y7'
p1589
I01
sS'Q551H5'
p1590
I01
sS'P34144'
p1591
I01
sS'P34140'
p1592
I01
sS'P34142'
p1593
I01
sS'P34143'
p1594
I01
sS'Q54YS8'
p1595
I01
sS'Q54IX6'
p1596
I01
sS'P34148'
p1597
I01
sS'P34149'
p1598
I01
sS'Q54RE9'
p1599
I01
sS'Q869Q8'
p1600
I01
sS'Q869Q3'
p1601
I01
sS'Q8T5Z7'
p1602
I01
sS'Q54RE6'
p1603
I01
sS'Q556T3'
p1604
I01
sS'Q556T4'
p1605
I01
sS'Q556T7'
p1606
I01
sS'Q54Y41'
p1607
I01
sS'Q55CV0'
p1608
I01
sS'Q55CV4'
p1609
I01
sS'Q55CV5'
p1610
I01
sS'Q54CS6'
p1611
I01
sS'Q55CD5'
p1612
I01
sS'Q86I71'
p1613
I01
sS'Q54HH9'
p1614
I01
sS'Q54X04'
p1615
I01
sS'Q556F0'
p1616
I01
sS'Q54X02'
p1617
I01
sS'Q54X03'
p1618
I01
sS'Q86KZ5'
p1619
I01
sS'Q55DL6'
p1620
I01
sS'Q54EP7'
p1621
I01
sS'Q54EP6'
p1622
I01
sS'Q54KD9'
p1623
I01
sS'Q54KD3'
p1624
I01
sS'Q54KD1'
p1625
I01
sS'Q54KD5'
p1626
I01
sS'Q86D86'
p1627
I01
sS'Q54QV8'
p1628
I01
sS'Q55DB1'
p1629
I01
sS'Q86IL9'
p1630
I01
sS'Q54TC9'
p1631
I01
sS'Q54QV0'
p1632
I01
sS'Q55DB9'
p1633
I01
sS'Q54QV4'
p1634
I01
sS'Q54KJ7'
p1635
I01
sS'Q9GRF8'
p1636
I01
sS'Q54WV6'
p1637
I01
sS'Q54KJ9'
p1638
I01
sS'Q55FR9'
p1639
I01
sS'Q55FR8'
p1640
I01
sS'P14326'
p1641
I01
sS'Q54UF7'
p1642
I01
sS'Q54UF6'
p1643
I01
sS'Q54UF3'
p1644
I01
sS'P14329'
p1645
I01
sS'Q8T869'
p1646
I01
sS'Q8WSV6'
p1647
I01
sS'Q54BN8'
p1648
I01
sS'Q54UP4'
p1649
I01
sS'Q54Q51'
p1650
I01
sS'Q55AB5'
p1651
I01
sS'Q554D9'
p1652
I01
sS'Q55AA6'
p1653
I01
sS'Q9XYS8'
p1654
I01
sS'Q54W90'
p1655
I01
sS'Q556H9'
p1656
I01
sS'Q54TL8'
p1657
I01
sS'P34119'
p1658
I01
sS'Q86JJ5'
p1659
I01
sS'Q54RB7'
p1660
I01
sS'Q54TL0'
p1661
I01
sS'Q54ST3'
p1662
I01
sS'P34117'
p1663
I01
sS'Q54ST0'
p1664
I01
sS'Q8T2J5'
p1665
I01
sS'Q54ST6'
p1666
I01
sS'Q54RB9'
p1667
I01
sS'P54661'
p1668
I01
sS'O60952'
p1669
I01
sS'P20609'
p1670
I01
sS'Q54QX3'
p1671
I01
sS'Q6DN52'
p1672
I01
sS'Q54WD2'
p1673
I01
sS'Q54WD1'
p1674
I01
sS'Q55DP8'
p1675
I01
sS'Q54BH6'
p1676
I01
sS'P14197'
p1677
I01
sS'Q54WD8'
p1678
I01
sS'Q54R04'
p1679
I01
sS'Q54SJ8'
p1680
I01
sS'Q8T282'
p1681
I01
sS'Q54ZR7'
p1682
I01
sS'Q54QJ9'
p1683
I01
sS'Q54QJ8'
p1684
I01
sS'Q54XZ0'
p1685
I01
sS'Q553I0'
p1686
I01
sS'Q54M57'
p1687
I01
sS'Q54H06'
p1688
I01
sS'Q54H07'
p1689
I01
sS'Q54PZ2'
p1690
I01
sS'Q54VZ4'
p1691
I01
sS'Q54VZ1'
p1692
I01
sS'Q54VZ3'
p1693
I01
sS'Q1ZXG6'
p1694
I01
sS'Q1ZXG4'
p1695
I01
sS'Q54TB6'
p1696
I01
sS'Q54CN7'
p1697
I01
sS'Q54CN9'
p1698
I01
sS'Q54MA5'
p1699
I01
sS'Q54K19'
p1700
I01
sS'Q54NY6'
p1701
I01
sS'Q54K12'
p1702
I01
sS'Q54E73'
p1703
I01
sS'O00910'
p1704
I01
sS'Q55E35'
p1705
I01
sS'Q55E34'
p1706
I01
sS'Q55E32'
p1707
I01
sS'Q55E31'
p1708
I01
sS'Q7YXD4'
p1709
I01
sS'Q54I76'
p1710
I01
sS'Q54I73'
p1711
I01
sS'Q95VZ3'
p1712
I01
sS'Q86L51'
p1713
I01
sS'Q555Q9'
p1714
I01
sS'Q86KU6'
p1715
I01
sS'Q86KU5'
p1716
I01
sS'Q54M34'
p1717
I01
sS'Q556N5'
p1718
I01
sS'Q54C73'
p1719
I01
sS'Q54C70'
p1720
I01
sS'Q23862'
p1721
I01
sS'Q54II1'
p1722
I01
sS'P13651'
p1723
I01
sS'Q54DS3'
p1724
I01
sS'Q54DS8'
p1725
I01
sS'Q55GT3'
p1726
I01
sS'Q54PH8'
p1727
I01
sS'Q54JC2'
p1728
I01
sS'Q54PH5'
p1729
I01
sS'Q551I4'
p1730
I01
sS'Q54PH3'
p1731
I01
sS'Q54RF5'
p1732
I01
sS'Q54RF6'
p1733
I01
sS'Q54YR8'
p1734
I01
sS'Q54YR4'
p1735
I01
sS'Q869R8'
p1736
I01
sS'Q54PF3'
p1737
I01
sS'Q8T674'
p1738
I01
sS'Q54DA8'
p1739
I01
sS'Q54DA7'
p1740
I01
sS'Q54DA0'
p1741
I01
sS'Q86K61'
p1742
I01
sS'Q86K67'
p1743
I01
sS'Q55CW0'
p1744
I01
sS'Q556W7'
p1745
I01
sS'Q55CW5'
p1746
I01
sS'Q556W2'
p1747
I01
sS'Q54CR4'
p1748
I01
sS'Q54X54'
p1749
I01
sS'P08800'
p1750
I01
sS'Q550W4'
p1751
I01
sS'Q54CR8'
p1752
I01
sS'Q55CE3'
p1753
I01
sS'Q556Y4'
p1754
I01
sS'Q556Y3'
p1755
I01
sS'Q556Y0'
p1756
I01
sS'Q54ES4'
p1757
I01
sS'Q54ES6'
p1758
I01
sS'Q54LN4'
p1759
I01
sS'Q54X13'
p1760
I01
sS'Q54X10'
p1761
I01
sS'Q54ES8'
p1762
I01
sS'Q54ES9'
p1763
I01
sS'Q86A67'
p1764
I01
sS'Q555C8'
p1765
I01
sS'Q552Q3'
p1766
I01
sS'Q552Q7'
p1767
I01
sS'Q55DA4'
p1768
I01
sS'Q9Y1W0'
p1769
I01
sS'Q54EM7'
p1770
I01
sS'Q54KI0'
p1771
I01
sS'Q54WU1'
p1772
I01
sS'Q55FU9'
p1773
I01
sS'Q86KI1'
p1774
I01
sS'Q54T61'
p1775
I01
sS'P14330'
p1776
I01
sS'Q54YD8'
p1777
I01
sS'Q554U7'
p1778
I01
sS'Q554U0'
p1779
I01
sS'Q54YD2'
p1780
I01
sS'Q54YD4'
p1781
I01
sS'Q54IX9'
p1782
I01
sS'Q54Q46'
p1783
I01
sS'Q7KWY3'
p1784
I01
sS'Q7KWY0'
p1785
I01
sS'Q7KWY5'
p1786
I01
sS'P54872'
p1787
I01
sS'Q55FV8'
p1788
I01
sS'Q556K7'
p1789
I01
sS'Q54W88'
p1790
I01
sS'Q7KWW4'
p1791
I01
sS'Q9NKW1'
p1792
I01
sS'Q7KWW3'
p1793
I01
sS'Q54TM2'
p1794
I01
sS'Q55AM9'
p1795
I01
sS'Q7KWW8'
p1796
I01
sS'Q869Z0'
p1797
I01
sS'Q54LL8'
p1798
I01
sS'Q54XM9'
p1799
I01
sS'Q54XM7'
p1800
I01
sS'Q54XM6'
p1801
I01
sS'Q9XYL0'
p1802
I01
sS'Q54BI8'
p1803
I01
sS'Q55BR7'
p1804
I01
sS'Q54U61'
p1805
I01
sS'Q55DW5'
p1806
I01
sS'Q54R17'
p1807
I01
sS'Q54LR4'
p1808
I01
sS'Q54SI3'
p1809
I01
sS'Q54SI5'
p1810
I01
sS'Q54QM8'
p1811
I01
sS'Q553N3'
p1812
I01
sS'Q54H18'
p1813
I01
sS'Q553N9'
p1814
I01
sS'Q553R4'
p1815
I01
sS'Q54M42'
p1816
I01
sS'Q55GP7'
p1817
I01
sS'Q54G81'
p1818
I01
sS'Q86HX0'
p1819
I01
sS'Q54MF3'
p1820
I01
sS'Q54G86'
p1821
I01
sS'Q54MF0'
p1822
I01
sS'Q55C09'
p1823
I01
sS'Q54G88'
p1824
I01
sS'Q551X7'
p1825
I01
sS'Q54JR2'
p1826
I01
sS'Q55EK2'
p1827
I01
sS'Q54TC4'
p1828
I01
sS'Q54K02'
p1829
I01
sS'Q54HZ2'
p1830
I01
sS'Q54CM0'
p1831
I01
sS'Q54CM2'
p1832
I01
sS'Q54NZ0'
p1833
I01
sS'Q8T2G9'
p1834
I01
sS'Q54CC5'
p1835
I01
sS'Q54E67'
p1836
I01
sS'Q54E62'
p1837
I01
sS'Q54VE2'
p1838
I01
sS'Q54NT2'
p1839
I01
sS'Q7KWN0'
p1840
I01
sS'Q54TQ9'
p1841
I01
sS'Q55E41'
p1842
I01
sS'Q54I61'
p1843
I01
sS'Q55E09'
p1844
I01
sS'Q55BN7'
p1845
I01
sS'Q55BN9'
p1846
I01
sS'Q54KT3'
p1847
I01
sS'Q54C69'
p1848
I01
sS'Q54C68'
p1849
I01
sS'Q557J6'
p1850
I01
sS'Q557J7'
p1851
I01
sS'Q54C61'
p1852
I01
sS'P33519'
p1853
I01
sS'Q54DP1'
p1854
I01
sS'Q551J1'
p1855
I01
sS'Q54JD2'
p1856
I01
sS'Q54JD0'
p1857
I01
sS'Q54MP2'
p1858
I01
sS'Q55EQ1'
p1859
I01
sS'Q54JD4'
p1860
I01
sS'Q54JD9'
p1861
I01
sS'Q55EQ8'
p1862
I01
sS'Q55CT1'
p1863
I01
sS'Q55GW5'
p1864
I01
sS'Q869S7'
p1865
I01
sS'Q54PG5'
p1866
I01
sS'Q55CT5'
p1867
I01
sS'Q54PG7'
p1868
I01
sS'Q55CT7'
p1869
I01
sS'Q8T665'
p1870
I01
sS'Q54B10'
p1871
I01
sS'Q54B13'
p1872
I01
sS'Q54DF1'
p1873
I01
sS'Q54DF7'
p1874
I01
sS'Q54DF4'
p1875
I01
sS'Q86K74'
p1876
I01
sS'Q556V1'
p1877
I01
sS'Q556V7'
p1878
I01
sS'Q556V6'
p1879
I01
sS'Q55CT9'
p1880
I01
sS'P34093'
p1881
I01
sS'Q54CQ7'
p1882
I01
sS'Q54CQ9'
p1883
I01
sS'P34098'
p1884
I01
sS'Q55E97'
p1885
I01
sS'Q86A77'
p1886
I01
sS'Q86A72'
p1887
I01
sS'Q55CJ9'
p1888
I01
sS'Q55E91'
p1889
I01
sS'Q55CJ5'
p1890
I01
sS'Q55CJ3'
p1891
I01
sS'Q86I17'
p1892
I01
sS'Q54KZ4'
p1893
I01
sS'Q54KZ1'
p1894
I01
sS'Q86KX8'
p1895
I01
sS'Q86KX9'
p1896
I01
sS'Q54KZ8'
p1897
I01
sS'Q55FB8'
p1898
I01
sS'Q23892'
p1899
I01
sS'Q54IZ9'
p1900
I01
sS'P32252'
p1901
I01
sS'P32253'
p1902
I01
sS'P32256'
p1903
I01
sS'P32254'
p1904
I01
sS'P32255'
p1905
I01
sS'Q559Q5'
p1906
I01
sS'Q54EL2'
p1907
I01
sS'Q54KH9'
p1908
I01
sS'Q54KH8'
p1909
I01
sS'Q58A42'
p1910
I01
sS'Q54YG5'
p1911
I01
sS'Q54UR0'
p1912
I01
sS'Q9NKX1'
p1913
I01
sS'Q8SSU2'
p1914
I01
sS'Q55GQ6'
p1915
I01
sS'Q8T6J5'
p1916
I01
sS'Q5FXM5'
p1917
I01
sS'Q8T6J1'
p1918
I01
sS'Q54Z09'
p1919
I01
sS'Q54Q75'
p1920
I01
sS'Q554J3'
p1921
I01
sS'Q556J9'
p1922
I01
sS'Q556J8'
p1923
I01
sS'Q556J3'
p1924
I01
sS'Q556J2'
p1925
I01
sS'Q556J0'
p1926
I01
sS'Q54Q97'
p1927
I01
sS'Q54Q95'
p1928
I01
sS'Q54NI6'
p1929
I01
sS'Q86JD4'
p1930
I01
sS'Q54LM1'
p1931
I01
sS'Q54LM9'
p1932
I01
sS'Q8T2H0'
p1933
I01
sS'Q54XJ8'
p1934
I01
sS'Q54XJ9'
p1935
I01
sS'P32073'
p1936
I01
sS'Q54QZ5'
p1937
I01
sS'Q54BR2'
p1938
I01
sS'Q55DV9'
p1939
I01
sS'Q54WB6'
p1940
I01
sS'Q9GPR7'
p1941
I01
sS'Q54WB8'
p1942
I01
sS'Q54BJ5'
p1943
I01
sS'Q54U15'
p1944
I01
sS'Q54XX1'
p1945
I01
sS'Q54XX2'
p1946
I01
sS'Q54XX3'
p1947
I01
sS'P10819'
p1948
I01
sS'P16168'
p1949
I01
sS'Q86I14'
p1950
I01
sS'P02886'
p1951
I01
sS'Q54M70'
p1952
I01
sS'P02889'
p1953
I01
sS'Q55EN7'
p1954
I01
sS'Q76NT6'
p1955
I01
sS'Q54M75'
p1956
I01
sS'Q54M76'
p1957
I01
sS'Q55EN3'
p1958
I01
sS'Q54S52'
p1959
I01
sS'Q55GN9'
p1960
I01
sS'Q55GN3'
p1961
I01
sS'Q54T29'
p1962
I01
sS'Q54JS5'
p1963
I01
sS'Q54MA6'
p1964
I01
sS'Q54PX9'
p1965
I01
sS'Q54MA4'
p1966
I01
sS'Q54JS0'
p1967
I01
sS'Q55C17'
p1968
I01
sS'Q54G77'
p1969
I01
sS'Q54PX7'
p1970
I01
sS'Q54G73'
p1971
I01
sS'Q54G71'
p1972
I01
sS'Q54N83'
p1973
I01
sS'Q54N80'
p1974
I01
sS'Q86HF6'
p1975
I01
sS'Q54VT5'
p1976
I01
sS'Q1ZXA6'
p1977
I01
sS'Q54K74'
p1978
I01
sS'Q75JE7'
p1979
I01
sS'Q54CL2'
p1980
I01
sS'Q54VK4'
p1981
I01
sS'Q54SH0'
p1982
I01
sS'Q54CB5'
p1983
I01
sS'Q54CB7'
p1984
I01
sS'Q54E19'
p1985
I01
sS'Q54HI5'
p1986
I01
sS'C7FZY2'
p1987
I01
sS'Q54NU2'
p1988
I01
sS'Q55FB3'
p1989
I01
sS'Q54TV4'
p1990
I01
sS'C7FZW3'
p1991
I01
sS'C7FZW5'
p1992
I01
sS'Q54I98'
p1993
I01
sS'Q54I93'
p1994
I01
sS'Q54I90'
p1995
I01
sS'Q55BI2'
p1996
I01
sS'Q95YL4'
p1997
I01
sS'Q54GZ0'
p1998
I01
sS'Q54D27'
p1999
I01
sS'Q55BY3'
p2000
I01
sS'P13231'
p2001
I01
sS'Q54RV6'
p2002
I01
sS'Q54IK1'
p2003
I01
sS'Q54IK3'
p2004
I01
sS'Q54RZ2'
p2005
I01
sS'B0G0Z1'
p2006
I01
sS'B0G0Z7'
p2007
I01
sS'B0G0Z6'
p2008
I01
sS'B0G0Z5'
p2009
I01
sS'Q54PV8'
p2010
I01
sS'Q54JE3'
p2011
I01
sS'Q54JE4'
p2012
I01
sS'Q86AT8'
p2013
I01
sS'Q55ER7'
p2014
I01
sS'Q54JE8'
p2015
I01
sS'O76173'
p2016
I01
sS'Q54GJ2'
p2017
I01
sS'P15808'
p2018
I01
sS'Q8I8U2'
p2019
I01
sS'Q54YT4'
p2020
I01
sS'Q9NCL7'
p2021
I01
sS'Q54PD3'
p2022
I01
sS'Q54PD4'
p2023
I01
sS'Q54PD5'
p2024
I01
sS'Q54Y98'
p2025
I01
sS'Q54DG1'
p2026
I01
sS'Q54Y95'
p2027
I01
sS'Q54DG5'
p2028
I01
sS'Q8MMR8'
p2029
I01
sS'Q54M12'
p2030
I01
sS'Q86K48'
p2031
I01
sS'P54657'
p2032
I01
sS'Q550U9'
p2033
I01
sS'Q86JI9'
p2034
I01
sS'Q54CP2'
p2035
I01
sS'Q55CK8'
p2036
I01
sS'Q86A08'
p2037
I01
sS'Q55CK0'
p2038
I01
sS'Q55CK3'
p2039
I01
sS'Q550C4'
p2040
I01
sS'Q55G38'
p2041
I01
sS'Q55FE3'
p2042
I01
sS'Q55FE0'
p2043
I01
sS'Q552S7'
p2044
I01
sS'Q552S0'
p2045
I01
sS'Q552S1'
p2046
I01
sS'Q54KY9'
p2047
I01
sS'Q55FE8'
p2048
I01
sS'Q55FE9'
p2049
I01
sS'Q552S8'
p2050
I01
sS'Q555E8'
p2051
I01
sS'Q54HE3'
p2052
I01
sS'Q555E5'
p2053
I01
sS'Q55DG8'
p2054
I01
sS'Q55DG0'
p2055
I01
sS'Q54UC1'
p2056
I01
sS'Q54WT8'
p2057
I01
sS'Q54YF7'
p2058
I01
sS'Q54YF6'
p2059
I01
sS'Q54YF5'
p2060
I01
sS'Q54FA9'
p2061
I01
sS'Q54YF9'
p2062
I01
sS'Q86I20'
p2063
I01
sS'Q86I22'
p2064
I01
sS'Q75JH8'
p2065
I01
sS'P27133'
p2066
I01
sS'Q27563'
p2067
I01
sS'Q8T8M2'
p2068
I01
sS'Q54Q68'
p2069
I01
sS'Q54Z13'
p2070
I01
sS'Q86KT5'
p2071
I01
sS'Q556M2'
p2072
I01
sS'P20054'
p2073
I01
sS'Q556M4'
p2074
I01
sS'Q556M5'
p2075
I01
sS'Q54Q84'
p2076
I01
sS'Q54NJ8'
p2077
I01
sS'P54632'
p2078
I01
sS'Q54B68'
p2079
I01
sS'Q86JG3'
p2080
I01
sS'P54638'
p2081
I01
sS'P54639'
p2082
I01
sS'Q86JG6'
p2083
I01
sS'Q54LB8'
p2084
I01
sS'Q54LB9'
p2085
I01
sS'Q55GL2'
p2086
I01
sS'Q54XK9'
p2087
I01
sS'Q54BK2'
p2088
I01
sS'Q558Z2'
p2089
I01
sS'Q54XK2'
p2090
I01
sS'Q55FY1'
p2091
I01
sS'Q54WA4'
p2092
I01
sS'Q54U07'
p2093
I01
sS'Q54LP8'
p2094
I01
sS'Q54XY5'
p2095
I01
sS'Q54LP3'
p2096
I01
sS'Q54GK6'
p2097
I01
sS'Q54X73'
p2098
I01
sS'P46800'
p2099
I01
sS'Q86HW7'
p2100
I01
sS'Q86HW2'
p2101
I01
sS'Q553L4'
p2102
I01
sS'Q1ZXP3'
p2103
I01
sS'Q76NU3'
p2104
I01
sS'P26199'
p2105
I01
sS'Q769F9'
p2106
I01
sS'Q769F7'
p2107
I01
sS'Q769F6'
p2108
I01
sS'Q553B6'
p2109
I01
sS'Q54JT0'
p2110
I01
sS'Q54JT6'
p2111
I01
sS'Q54JT7'
p2112
I01
sS'Q55D90'
p2113
I01
sS'Q54G54'
p2114
I01
sS'Q54PY7'
p2115
I01
sS'Q55D96'
p2116
I01
sS'Q54VU3'
p2117
I01
sS'P36967'
p2118
I01
sS'Q54ND5'
p2119
I01
sS'P48160'
p2120
I01
sS'Q54ND0'
p2121
I01
sS'Q54TA8'
p2122
I01
sS'Q54TA1'
p2123
I01
sS'Q55E67'
p2124
I01
sS'Q55E60'
p2125
I01
sS'Q54CA5'
p2126
I01
sS'Q54CA6'
p2127
I01
sS'Q75JK6'
p2128
I01
sS'Q54E04'
p2129
I01
sS'O96625'
p2130
I01
sS'Q54RS1'
p2131
I01
sS'Q54NV9'
p2132
I01
sS'Q54F93'
p2133
I01
sS'Q54TW5'
p2134
I01
sS'Q54F94'
p2135
I01
sS'Q54I88'
p2136
I01
sS'Q8T131'
p2137
I01
sS'Q54GY8'
p2138
I01
sS'Q95ZG4'
p2139
I01
sS'Q55BH2'
p2140
I01
sS'Q55BH7'
p2141
I01
sS'Q95ZG8'
p2142
I01
sS'Q55BP9'
p2143
I01
sS'C7FZZ5'
p2144
I01
sS'Q54C47'
p2145
I01
sS'Q54IJ2'
p2146
I01
sS'Q54IJ1'
p2147
I01
sS'Q54C49'
p2148
I01
sS'C7FZZ8'
p2149
I01
sS'C7FZZ9'
p2150
I01
sS'Q54NE6'
p2151
I01
sS'Q03479'
p2152
I01
sS'Q8MXQ2'
p2153
I01
sS'Q557H6'
p2154
I01
sS'Q557H1'
p2155
I01
sS'Q557H3'
p2156
I01
sS'Q54PW3'
p2157
I01
sS'Q54DV3'
p2158
I01
sS'Q54VG5'
p2159
I01
sS'Q54MR8'
p2160
I01
sS'Q553P4'
p2161
I01
sS'Q553P5'
p2162
I01
sS'Q54VG1'
p2163
I01
sS'Q54VG0'
p2164
I01
sS'Q54JF5'
p2165
I01
sS'Q54MR6'
p2166
I01
sS'Q54RI8'
p2167
I01
sS'Q54DD3'
p2168
I01
sS'Q54RI2'
p2169
I01
sS'Q54JH4'
p2170
I01
sS'Q54JH2'
p2171
I01
sS'Q54PE8'
p2172
I01
sS'Q54YS4'
p2173
I01
sS'Q54Y83'
p2174
I01
sS'Q86K57'
p2175
I01
sS'Q54CW1'
p2176
I01
sS'Q86A17'
p2177
I01
sS'Q55CH0'
p2178
I01
sS'Q86A18'
p2179
I01
sS'Q55CH3'
p2180
I01
sS'Q556Z3'
p2181
I01
sS'Q556Z1'
p2182
I01
sS'Q556Z0'
p2183
I01
sS'P16894'
p2184
I01
sS'Q54RN0'
p2185
I01
sS'Q552R6'
p2186
I01
sS'Q557F3'
p2187
I01
sS'Q557F0'
p2188
I01
sS'Q54YW3'
p2189
I01
sS'Q1ZXJ3'
p2190
I01
sS'Q54YW8'
p2191
I01
sS'Q54WR3'
p2192
I01
sS'Q54WR2'
p2193
I01
sS'B0G128'
p2194
I01
sS'Q54WR9'
p2195
I01
sS'B0G127'
p2196
I01
sS'Q8TA03'
p2197
I01
sS'Q55FV9'
p2198
I01
sS'Q54UB0'
p2199
I01
sS'Q54UB7'
p2200
I01
sS'Q54UB6'
p2201
I01
sS'Q54UB5'
p2202
I01
sS'Q55E77'
p2203
I01
sS'Q54KN7'
p2204
I01
sS'Q55E76'
p2205
I01
sS'Q54FB6'
p2206
I01
sS'Q869Q6'
p2207
I01
sS'Q9NIV0'
p2208
I01
sS'Q54FL2'
p2209
I01
sS'P24639'
p2210
I01
sS'C7G028'
p2211
I01
sS'Q554H5'
p2212
I01
sS'Q54Z22'
p2213
I01
sS'Q8T6H3'
p2214
I01
sS'Q54Z26'
p2215
I01
sS'Q86IH2'
p2216
I01
sS'Q54EN4'
p2217
I01
sS'Q556L1'
p2218
I01
sS'Q556L2'
p2219
I01
sS'Q1ZXD3'
p2220
I01
sS'Q54SX7'
p2221
I01
sS'Q7KWR8'
p2222
I01
sS'Q54ZD1'
p2223
I01
sS'Q54ZD6'
p2224
I01
sS'Q1ZXB1'
p2225
I01
sS'Q7KWR6'
p2226
I01
sS'Q55AH5'
p2227
I01
sS'Q55AN3'
p2228
I01
sS'P14797'
p2229
I01
sS'Q54LC0'
p2230
I01
sS'P14794'
p2231
I01
sS'Q54U34'
p2232
I01
sS'Q54BL8'
p2233
I01
sS'Q55DT8'
p2234
I01
sS'Q54U38'
p2235
I01
sS'Q86AV5'
p2236
I01
sS'Q54QN2'
p2237
I01
sS'Q54QN1'
p2238
I01
sS'Q55BY1'
p2239
I01
sS'Q54QN4'
p2240
I01
sS'Q54R41'
p2241
I01
sS'Q54R47'
p2242
I01
sS'Q54XV0'
p2243
I01
sS'Q54R45'
p2244
I01
sS'Q54WN5'
p2245
I01
sS'Q76NV5'
p2246
I01
sS'Q9U9R7'
p2247
I01
sS'Q54WN0'
p2248
I01
sS'Q54M18'
p2249
I01
sS'Q54WN8'
p2250
I01
sS'Q86HV4'
p2251
I01
sS'Q553M7'
p2252
I01
sS'Q1ZXQ4'
p2253
I01
sS'Q54T02'
p2254
I01
sS'P90529'
p2255
I01
sS'Q54T06'
p2256
I01
sS'P90526'
p2257
I01
sS'P90521'
p2258
I01
sS'Q54G58'
p2259
I01
sS'Q54JU2'
p2260
I01
sS'Q55C71'
p2261
I01
sS'Q55C70'
p2262
I01
sS'Q55C73'
p2263
I01
sS'Q54G53'
p2264
I01
sS'Q54MC0'
p2265
I01
sS'Q54G56'
p2266
I01
sS'Q75JT7'
p2267
I01
sS'Q75JT6'
p2268
I01
sS'Q54HY5'
p2269
I01
sS'Q54VV1'
p2270
I01
sS'Q8T137'
p2271
I01
sS'Q86HD3'
p2272
I01
sS'Q54NE5'
p2273
I01
sS'Q54TF9'
p2274
I01
sS'Q54K50'
p2275
I01
sS'Q55FK8'
p2276
I01
sS'Q55G99'
p2277
I01
sS'Q54SN5'
p2278
I01
sS'Q54SN4'
p2279
I01
sS'Q55G90'
p2280
I01
sS'P05817'
p2281
I01
sS'Q75K07'
p2282
I01
sS'Q54HG9'
p2283
I01
sS'Q54HG8'
p2284
I01
sS'Q54HG2'
p2285
I01
sS'Q55G75'
p2286
I01
sS'Q55G70'
p2287
I01
sS'Q54NW9'
p2288
I01
sS'Q54NW7'
p2289
I01
sS'Q54YJ6'
p2290
I01
sS'Q55BK1'
p2291
I01
sS'Q55D85'
p2292
I01
sS'Q55D84'
p2293
I01
sS'Q54BP0'
p2294
I01
sS'O97101'
p2295
I01
sS'Q54J23'
p2296
I01
sS'Q55BK0'
p2297
I01
sS'Q54XJ0'
p2298
I01
sS'Q54J26'
p2299
I01
stbaa(lp2300
S'GO:0046069'
p2301
ag5
(g6
g7
NtRp2302
((dp2303
S'Q8MM62'
p2304
I01
sS'B0G0Y8'
p2305
I01
sS'Q54HY0'
p2306
I01
sS'Q8MLZ3'
p2307
I01
sS'P12019'
p2308
I01
stbaa(lp2309
S'GO:0006972'
p2310
ag5
(g6
g7
NtRp2311
((dp2312
S'B0G108'
p2313
I01
sS'Q54BC6'
p2314
I01
sS'P27133'
p2315
I01
sS'P0DJ26'
p2316
I01
sS'P34123'
p2317
I01
sS'Q54UB5'
p2318
I01
sS'Q869Q3'
p2319
I01
sS'O61125'
p2320
I01
sS'Q55FE0'
p2321
I01
sS'O00899'
p2322
I01
sS'Q6TMJ3'
p2323
I01
sS'Q54W87'
p2324
I01
sS'Q55FW3'
p2325
I01
sS'Q54BU4'
p2326
I01
sS'P13466'
p2327
I01
sS'Q86JP5'
p2328
I01
sS'Q9TW28'
p2329
I01
sS'Q75J86'
p2330
I01
sS'Q54BD4'
p2331
I01
sS'Q86B08'
p2332
I01
sS'Q54ZC9'
p2333
I01
sS'Q6TMK2'
p2334
I01
sS'P18613'
p2335
I01
sS'P07830'
p2336
I01
sS'Q55E30'
p2337
I01
sS'Q54I98'
p2338
I01
sS'Q5R1U3'
p2339
I01
sS'O96621'
p2340
I01
sS'P54681'
p2341
I01
sS'Q9XYL0'
p2342
I01
sS'P26200'
p2343
I01
sS'O61122'
p2344
I01
sS'P04988'
p2345
I01
sS'Q8T673'
p2346
I01
stbaa(lp2347
S'GO:0009617'
p2348
ag5
(g6
g7
NtRp2349
((dp2350
S'Q54S78'
p2351
I01
sS'P32256'
p2352
I01
sS'Q54PX9'
p2353
I01
sS'Q54F55'
p2354
I01
sS'P15112'
p2355
I01
sS'P27133'
p2356
I01
sS'P22887'
p2357
I01
sS'P0DJ26'
p2358
I01
sS'P0DJ27'
p2359
I01
sS'P54647'
p2360
I01
sS'Q54X53'
p2361
I01
sS'P34121'
p2362
I01
sS'Q9GRF8'
p2363
I01
sS'Q54F93'
p2364
I01
sS'Q55GQ5'
p2365
I01
sS'Q95UQ1'
p2366
I01
sS'P42528'
p2367
I01
sS'P24639'
p2368
I01
sS'Q76NU1'
p2369
I01
sS'Q54NA3'
p2370
I01
sS'Q54WZ2'
p2371
I01
sS'Q23921'
p2372
I01
sS'Q55E54'
p2373
I01
sS'Q55FX5'
p2374
I01
sS'P34093'
p2375
I01
sS'Q54VA2'
p2376
I01
sS'Q9GPR7'
p2377
I01
sS'P90532'
p2378
I01
sS'Q54PA9'
p2379
I01
sS'Q557E0'
p2380
I01
sS'P13021'
p2381
I01
sS'P13022'
p2382
I01
sS'Q55BY1'
p2383
I01
sS'P54632'
p2384
I01
sS'Q6IMN8'
p2385
I01
sS'P29505'
p2386
I01
sS'Q54HG2'
p2387
I01
sS'Q869V1'
p2388
I01
sS'P54673'
p2389
I01
sS'P54674'
p2390
I01
sS'P54675'
p2391
I01
sS'P34118'
p2392
I01
sS'B0G196'
p2393
I01
sS'Q65YR8'
p2394
I01
sS'Q54UM3'
p2395
I01
sS'Q75JQ1'
p2396
I01
sS'Q54I98'
p2397
I01
sS'P02886'
p2398
I01
sS'Q54WR9'
p2399
I01
sS'P42530'
p2400
I01
sS'Q54EN4'
p2401
I01
sS'Q86IC8'
p2402
I01
sS'Q553K4'
p2403
I01
sS'Q554U9'
p2404
I01
stbaa(lp2405
S'GO:0006289'
p2406
ag5
(g6
g7
NtRp2407
((dp2408
S'Q86KS1'
p2409
I01
sS'Q55G81'
p2410
I01
sS'B0M0P5'
p2411
I01
sS'O00835'
p2412
I01
stbaa(lp2413
S'GO:0006974'
p2414
ag5
(g6
g7
NtRp2415
((dp2416
S'Q54UC0'
p2417
I01
sS'Q5FXM5'
p2418
I01
sS'Q86CR8'
p2419
I01
sS'Q54WG5'
p2420
I01
sS'B0M0P5'
p2421
I01
sS'Q55AZ3'
p2422
I01
sS'Q8T145'
p2423
I01
sS'Q54PN5'
p2424
I01
sS'Q558X5'
p2425
I01
sS'O00835'
p2426
I01
sS'Q54YJ7'
p2427
I01
sS'Q55AX2'
p2428
I01
sS'Q54F00'
p2429
I01
sS'Q54BR4'
p2430
I01
sS'Q54CR0'
p2431
I01
sS'Q55G81'
p2432
I01
sS'P16643'
p2433
I01
sS'P16642'
p2434
I01
sS'Q54LY5'
p2435
I01
sS'Q55F81'
p2436
I01
sS'P54661'
p2437
I01
stbaa(lp2438
S'GO:0030587'
p2439
ag5
(g6
g7
NtRp2440
((dp2441
S'Q55BM4'
p2442
I01
sS'Q54FI4'
p2443
I01
sS'Q54SK0'
p2444
I01
sS'Q55CK2'
p2445
I01
sS'Q55CC5'
p2446
I01
sS'P0DJ27'
p2447
I01
sS'Q86H13'
p2448
I01
sS'O60999'
p2449
I01
sS'Q54RA9'
p2450
I01
sS'Q54PE1'
p2451
I01
sS'P54660'
p2452
I01
sS'Q86G47'
p2453
I01
sS'Q8T191'
p2454
I01
sS'Q54LW0'
p2455
I01
sS'O76765'
p2456
I01
sS'Q550K3'
p2457
I01
sS'Q54K32'
p2458
I01
sS'Q55C49'
p2459
I01
sS'Q551S0'
p2460
I01
sS'Q75K28'
p2461
I01
sS'Q54F44'
p2462
I01
sS'P52285'
p2463
I01
sS'Q55CL6'
p2464
I01
sS'Q8T6J0'
p2465
I01
sS'Q8T6J2'
p2466
I01
sS'Q55FD8'
p2467
I01
sS'Q86GL4'
p2468
I01
sS'Q55DH8'
p2469
I01
sS'Q55F68'
p2470
I01
sS'Q54YW1'
p2471
I01
sS'Q54DL1'
p2472
I01
sS'Q54E42'
p2473
I01
sS'Q54K81'
p2474
I01
sS'P34043'
p2475
I01
sS'Q54TS2'
p2476
I01
sS'Q76P07'
p2477
I01
sS'Q54RC0'
p2478
I01
sS'Q54QV3'
p2479
I01
sS'Q550R2'
p2480
I01
sS'P15649'
p2481
I01
sS'Q23925'
p2482
I01
sS'Q55AV3'
p2483
I01
sS'Q54JL7'
p2484
I01
sS'Q54YA6'
p2485
I01
sS'Q55GV1'
p2486
I01
sS'Q54VB6'
p2487
I01
sS'Q54R82'
p2488
I01
sS'P13466'
p2489
I01
sS'Q54G37'
p2490
I01
sS'Q54NS0'
p2491
I01
sS'P24639'
p2492
I01
sS'O00910'
p2493
I01
sS'P36417'
p2494
I01
sS'P18160'
p2495
I01
sS'Q54TP5'
p2496
I01
sS'Q54U87'
p2497
I01
sS'Q9GV71'
p2498
I01
sS'Q54C04'
p2499
I01
sS'Q54GT9'
p2500
I01
sS'Q54IQ9'
p2501
I01
sS'Q02158'
p2502
I01
sS'Q54LJ3'
p2503
I01
sS'Q23917'
p2504
I01
sS'P54681'
p2505
I01
sS'P54683'
p2506
I01
sS'P26200'
p2507
I01
sS'Q54T23'
p2508
I01
sS'Q86CR8'
p2509
I01
sS'Q86CR9'
p2510
I01
sS'Q54XY4'
p2511
I01
sS'Q54DH4'
p2512
I01
sS'Q94489'
p2513
I01
sS'Q551Y7'
p2514
I01
sS'Q55AP1'
p2515
I01
sS'O15736'
p2516
I01
sS'Q869Q6'
p2517
I01
sS'Q556T3'
p2518
I01
sS'P0CE94'
p2519
I01
sS'P35401'
p2520
I01
sS'Q55BV5'
p2521
I01
sS'Q55FP0'
p2522
I01
sS'P42525'
p2523
I01
sS'Q54SH6'
p2524
I01
sS'Q55BN0'
p2525
I01
sS'Q557E7'
p2526
I01
sS'Q1ZXH8'
p2527
I01
sS'Q557E4'
p2528
I01
sS'Q95YL4'
p2529
I01
sS'Q86CS2'
p2530
I01
sS'Q54HP0'
p2531
I01
sS'Q557J7'
p2532
I01
sS'Q54PQ4'
p2533
I01
sS'Q54LY5'
p2534
I01
sS'Q54DX3'
p2535
I01
sS'Q555X4'
p2536
I01
sS'Q54NL0'
p2537
I01
sS'Q86AS3'
p2538
I01
sS'Q54V32'
p2539
I01
sS'Q55BI3'
p2540
I01
sS'P09402'
p2541
I01
sS'Q86AC8'
p2542
I01
sS'Q86D86'
p2543
I01
sS'Q54JN7'
p2544
I01
sS'Q54C50'
p2545
I01
sS'Q54CA8'
p2546
I01
sS'Q75JT4'
p2547
I01
sS'P13833'
p2548
I01
sS'Q54B10'
p2549
I01
sS'P54642'
p2550
I01
sS'Q02465'
p2551
I01
sS'Q867X6'
p2552
I01
sS'Q54RV9'
p2553
I01
sS'Q9XYS3'
p2554
I01
sS'P26199'
p2555
I01
sS'Q54XN8'
p2556
I01
sS'Q54RN4'
p2557
I01
sS'P34098'
p2558
I01
sS'Q9BLG4'
p2559
I01
sS'Q1ZXJ0'
p2560
I01
sS'P05817'
p2561
I01
sS'Q86I19'
p2562
I01
sS'O77203'
p2563
I01
sS'B0M0P8'
p2564
I01
sS'Q86A78'
p2565
I01
sS'Q1ZXD6'
p2566
I01
sS'Q54KI3'
p2567
I01
sS'Q54DG1'
p2568
I01
sS'Q54XG7'
p2569
I01
sS'Q86M88'
p2570
I01
sS'Q54BX4'
p2571
I01
sS'Q54BX5'
p2572
I01
sS'Q54RR8'
p2573
I01
sS'Q54EJ9'
p2574
I01
sS'Q55GS3'
p2575
I01
sS'Q54ZW0'
p2576
I01
sS'Q54SM3'
p2577
I01
stbaa(lp2578
S'GO:0043052'
p2579
ag5
(g6
g7
NtRp2580
((dp2581
S'Q54S83'
p2582
I01
sS'B0M0P8'
p2583
I01
sS'Q8IS18'
p2584
I01
sS'Q7YXU4'
p2585
I01
sS'P03967'
p2586
I01
sS'P13466'
p2587
I01
stbaa(lp2588
S'GO:0046956'
p2589
ag5
(g6
g7
NtRp2590
((dp2591
S'Q54EW0'
p2592
I01
sS'Q54YF2'
p2593
I01
sS'Q54J97'
p2594
I01
sS'B0M0P8'
p2595
I01
sS'Q8IS18'
p2596
I01
sS'Q7YXU4'
p2597
I01
sS'Q9U3X4'
p2598
I01
sS'Q869Q3'
p2599
I01
sS'Q54RV9'
p2600
I01
stbaa(lp2601
S'GO:0006909'
p2602
ag5
(g6
g7
NtRp2603
((dp2604
S'Q8T133'
p2605
I01
sS'Q9U1M9'
p2606
I01
sS'Q9U1M8'
p2607
I01
sS'P27133'
p2608
I01
sS'Q75JI3'
p2609
I01
sS'Q8MQU6'
p2610
I01
sS'Q55FP0'
p2611
I01
sS'P07829'
p2612
I01
sS'Q54TA1'
p2613
I01
sS'Q54UU8'
p2614
I01
sS'Q9GPS0'
p2615
I01
sS'Q94464'
p2616
I01
sS'P42528'
p2617
I01
sS'Q54S83'
p2618
I01
sS'P0CE94'
p2619
I01
sS'P42522'
p2620
I01
sS'Q54NA3'
p2621
I01
sS'Q55DM1'
p2622
I01
sS'Q8IS21'
p2623
I01
sS'P34092'
p2624
I01
sS'Q8I7T3'
p2625
I01
sS'Q9GPR7'
p2626
I01
sS'Q86KG9'
p2627
I01
sS'Q553U6'
p2628
I01
sS'P25870'
p2629
I01
sS'Q55D99'
p2630
I01
sS'C7FZZ0'
p2631
I01
sS'Q54JA5'
p2632
I01
sS'P36411'
p2633
I01
sS'P54686'
p2634
I01
sS'Q869V1'
p2635
I01
sS'Q03479'
p2636
I01
sS'Q8T1G4'
p2637
I01
sS'Q54RB7'
p2638
I01
sS'P34117'
p2639
I01
sS'P07830'
p2640
I01
sS'Q55E54'
p2641
I01
sS'Q54QQ1'
p2642
I01
sS'Q54GX7'
p2643
I01
sS'Q54BM7'
p2644
I01
sS'Q54NF8'
p2645
I01
sS'O96621'
p2646
I01
sS'O96622'
p2647
I01
sS'O96623'
p2648
I01
sS'O96624'
p2649
I01
sS'O96625'
p2650
I01
sS'O96626'
p2651
I01
sS'Q7YTA6'
p2652
I01
sS'Q86JF2'
p2653
I01
sS'Q54KF7'
p2654
I01
sS'O97101'
p2655
I01
sS'Q54ZW0'
p2656
I01
stbaa(lp2657
S'GO:0031150'
p2658
ag5
(g6
g7
NtRp2659
((dp2660
S'Q54I71'
p2661
I01
sS'C7FZZ0'
p2662
I01
sS'Q54MH2'
p2663
I01
sS'Q54ET8'
p2664
I01
sS'Q54U87'
p2665
I01
sS'Q9U720'
p2666
I01
sS'Q6XHB2'
p2667
I01
stbaa(lp2668
S'GO:0072583'
p2669
ag5
(g6
g7
NtRp2670
((dp2671
S'P25870'
p2672
I01
sS'C7FZZ0'
p2673
I01
stbaa(lp2674
S'GO:0046847'
p2675
ag5
(g6
g7
NtRp2676
((dp2677
S'Q86I44'
p2678
I01
sS'C7FZZ0'
p2679
I01
sS'P34142'
p2680
I01
sS'Q54CA8'
p2681
I01
sS'Q5TJ65'
p2682
I01
sS'Q9GPS0'
p2683
I01
sS'Q54NF8'
p2684
I01
sS'P08799'
p2685
I01
sS'Q55BN3'
p2686
I01
sS'Q9U1M8'
p2687
I01
sS'Q54N00'
p2688
I01
sS'Q869Q3'
p2689
I01
sS'Q55GV9'
p2690
I01
stbaa(lp2691
S'GO:0006366'
p2692
ag5
(g6
g7
NtRp2693
((dp2694
S'Q54DD4'
p2695
I01
sS'Q54VV8'
p2696
I01
sS'Q54XB0'
p2697
I01
sS'Q54FL3'
p2698
I01
sS'Q54X75'
p2699
I01
sS'Q54KY8'
p2700
I01
sS'Q54B97'
p2701
I01
sS'Q54S04'
p2702
I01
sS'O00835'
p2703
I01
sS'Q54P04'
p2704
I01
sS'Q54T71'
p2705
I01
sS'Q54HN4'
p2706
I01
sS'Q55DQ5'
p2707
I01
sS'Q55G81'
p2708
I01
sS'Q54MR3'
p2709
I01
sS'Q54PD9'
p2710
I01
sS'Q54B46'
p2711
I01
sS'Q54GE5'
p2712
I01
sS'Q55BA4'
p2713
I01
stbaa(lp2714
S'GO:0009650'
p2715
ag5
(g6
g7
NtRp2716
((dp2717
S'O00835'
p2718
I01
stbaa(lp2719
S'GO:0007275'
p2720
ag5
(g6
g7
NtRp2721
((dp2722
S'Q54WR4'
p2723
I01
sS'Q54HS9'
p2724
I01
sS'Q54YU6'
p2725
I01
sS'O00841'
p2726
I01
sS'Q54N80'
p2727
I01
sS'Q54N81'
p2728
I01
sS'P54661'
p2729
I01
sS'Q8IS21'
p2730
I01
sS'Q8T7K0'
p2731
I01
sS'P03967'
p2732
I01
sS'Q54HC6'
p2733
I01
sS'Q86L04'
p2734
I01
sS'P51136'
p2735
I01
sS'Q9Y1W0'
p2736
I01
sS'Q54BD4'
p2737
I01
sS'P36417'
p2738
I01
sS'Q7Z203'
p2739
I01
sS'O76329'
p2740
I01
sS'Q86IV5'
p2741
I01
sS'Q86HV8'
p2742
I01
sS'Q23917'
p2743
I01
sS'P54683'
p2744
I01
sS'Q54XQ2'
p2745
I01
stbaa(lp2746
S'GO:0030154'
p2747
ag5
(g6
g7
NtRp2748
((dp2749
S'Q556R7'
p2750
I01
sS'Q8ST66'
p2751
I01
sS'Q556N5'
p2752
I01
sS'P51136'
p2753
I01
sS'Q76P24'
p2754
I01
sS'Q9NGP5'
p2755
I01
sS'O15743'
p2756
I01
sS'O00841'
p2757
I01
sS'Q552C6'
p2758
I01
sS'Q86L04'
p2759
I01
sS'Q23868'
p2760
I01
sS'P16894'
p2761
I01
sS'Q550K3'
p2762
I01
sS'O60999'
p2763
I01
sS'Q54VB6'
p2764
I01
stbaa(lp2765
S'GO:0031154'
p2766
ag5
(g6
g7
NtRp2767
((dp2768
S'Q54TN2'
p2769
I01
sS'Q54TY7'
p2770
I01
sS'Q551S0'
p2771
I01
sS'Q9Y0T2'
p2772
I01
sS'Q8T6H3'
p2773
I01
sS'Q54JW0'
p2774
I01
sS'Q54FI4'
p2775
I01
sS'O00841'
p2776
I01
sS'Q54JH6'
p2777
I01
sS'P54644'
p2778
I01
sS'P08799'
p2779
I01
sS'Q54T92'
p2780
I01
sS'Q54T91'
p2781
I01
sS'Q8T137'
p2782
I01
sS'O15736'
p2783
I01
sS'Q54UU8'
p2784
I01
sS'P54681'
p2785
I01
sS'Q54J35'
p2786
I01
sS'Q8T9W2'
p2787
I01
sS'Q54S83'
p2788
I01
sS'P15648'
p2789
I01
sS'P15649'
p2790
I01
sS'Q54MI3'
p2791
I01
sS'Q54KF1'
p2792
I01
sS'Q55FG3'
p2793
I01
sS'Q54K32'
p2794
I01
sS'Q54BU4'
p2795
I01
sS'P34907'
p2796
I01
sS'Q94491'
p2797
I01
sS'Q54VJ0'
p2798
I01
sS'Q54P13'
p2799
I01
sS'P51136'
p2800
I01
sS'Q9TX43'
p2801
I01
sS'O00910'
p2802
I01
sS'Q54V86'
p2803
I01
sS'Q94489'
p2804
I01
sS'Q8MPQ7'
p2805
I01
sS'Q7YXU4'
p2806
I01
sS'Q54GP8'
p2807
I01
sS'O96042'
p2808
I01
sS'Q86KR9'
p2809
I01
sS'Q54TV2'
p2810
I01
sS'Q55FE6'
p2811
I01
sS'Q54JR2'
p2812
I01
sS'Q54NW4'
p2813
I01
sS'Q86M88'
p2814
I01
sS'Q54HM0'
p2815
I01
sS'Q54T47'
p2816
I01
sS'Q8T638'
p2817
I01
sS'Q54W34'
p2818
I01
sS'Q8MXY0'
p2819
I01
sS'Q54V32'
p2820
I01
sS'Q54MH2'
p2821
I01
sS'Q86CZ2'
p2822
I01
sS'Q54AX5'
p2823
I01
sS'Q54T02'
p2824
I01
sS'Q86JF2'
p2825
I01
sS'Q8MML5'
p2826
I01
sS'Q54Y53'
p2827
I01
sS'Q8MN58'
p2828
I01
sS'Q54D84'
p2829
I01
sS'Q54Q13'
p2830
I01
sS'Q8T6B8'
p2831
I01
stbaa(lp2832
S'GO:0006979'
p2833
ag5
(g6
g7
NtRp2834
((dp2835
S'Q54RQ1'
p2836
I01
sS'O00899'
p2837
I01
sS'Q55GQ5'
p2838
I01
sS'Q6IMN8'
p2839
I01
sS'Q54QV3'
p2840
I01
sS'Q94465'
p2841
I01
sS'Q86A17'
p2842
I01
sS'Q54BD4'
p2843
I01
sS'P54681'
p2844
I01
sS'Q1ZXI0'
p2845
I01
sS'Q54GP8'
p2846
I01
sS'O77229'
p2847
I01
sS'Q86AD8'
p2848
I01
sS'Q54GP3'
p2849
I01
sS'Q54WJ0'
p2850
I01
sS'Q86KE7'
p2851
I01
sS'Q54RN1'
p2852
I01
stbaa(lp2853
S'GO:0019953'
p2854
ag5
(g6
g7
NtRp2855
((dp2856
S'P34145'
p2857
I01
sS'P34146'
p2858
I01
sS'Q869W9'
p2859
I01
sS'P32254'
p2860
I01
sS'Q54GM7'
p2861
I01
sS'Q54BC0'
p2862
I01
sS'Q55CA9'
p2863
I01
sS'Q54WK1'
p2864
I01
sS'Q23862'
p2865
I01
sS'Q54ME1'
p2866
I01
sS'Q54GD5'
p2867
I01
sS'Q54EU5'
p2868
I01
sS'O00899'
p2869
I01
sS'Q557G4'
p2870
I01
sS'Q54X71'
p2871
I01
sS'Q8IS21'
p2872
I01
sS'P26199'
p2873
I01
sS'Q9GPS3'
p2874
I01
sS'Q54C82'
p2875
I01
sS'Q86HI2'
p2876
I01
sS'Q54TI1'
p2877
I01
sS'O96390'
p2878
I01
sS'Q55BT7'
p2879
I01
sS'Q54P69'
p2880
I01
sS'Q55CG7'
p2881
I01
sS'Q55BT6'
p2882
I01
sS'Q54HG2'
p2883
I01
sS'Q54W35'
p2884
I01
sS'Q9GPS0'
p2885
I01
sS'P54680'
p2886
I01
sS'Q54RK5'
p2887
I01
sS'Q54EN4'
p2888
I01
sS'Q9GPQ8'
p2889
I01
sS'Q9GPQ9'
p2890
I01
stbaa(lp2891
S'GO:0032956'
p2892
ag5
(g6
g7
NtRp2893
((dp2894
S'Q54RQ1'
p2895
I01
sS'O00899'
p2896
I01
sS'O61122'
p2897
I01
stbaa(lp2898
S'GO:0051259'
p2899
ag5
(g6
g7
NtRp2900
((dp2901
S'O00899'
p2902
I01
stbaa(lp2903
S'GO:0000281'
p2904
ag5
(g6
g7
NtRp2905
((dp2906
S'P32252'
p2907
I01
sS'P34145'
p2908
I01
sS'O00909'
p2909
I01
sS'Q54WI0'
p2910
I01
sS'Q8MY12'
p2911
I01
sS'Q54CA8'
p2912
I01
sS'P25870'
p2913
I01
sS'Q55GF9'
p2914
I01
sS'Q8T9S7'
p2915
I01
sS'Q55DM1'
p2916
I01
sS'P54644'
p2917
I01
sS'P08799'
p2918
I01
sS'P13833'
p2919
I01
sS'Q55FT9'
p2920
I01
sS'Q869N2'
p2921
I01
sS'O15818'
p2922
I01
sS'Q550R2'
p2923
I01
sS'P0CE94'
p2924
I01
sS'Q54MI3'
p2925
I01
sS'Q54X77'
p2926
I01
sS'P42527'
p2927
I01
sS'O76765'
p2928
I01
sS'Q8IS21'
p2929
I01
sS'Q95UQ1'
p2930
I01
sS'P26199'
p2931
I01
sS'P15064'
p2932
I01
sS'P03967'
p2933
I01
sS'Q23862'
p2934
I01
sS'Q86AT8'
p2935
I01
sS'Q9GPR7'
p2936
I01
sS'Q55AX0'
p2937
I01
sS'Q54K32'
p2938
I01
sS'P27133'
p2939
I01
sS'Q75JH9'
p2940
I01
sS'Q55GV3'
p2941
I01
sS'Q55D99'
p2942
I01
sS'O77203'
p2943
I01
sS'Q8MML5'
p2944
I01
sS'P51136'
p2945
I01
sS'Q54MH8'
p2946
I01
sS'Q8WQ86'
p2947
I01
sS'P90648'
p2948
I01
sS'P02599'
p2949
I01
sS'P25323'
p2950
I01
sS'Q55F94'
p2951
I01
sS'Q54RQ1'
p2952
I01
sS'P07830'
p2953
I01
sS'Q54HG2'
p2954
I01
sS'Q54QQ1'
p2955
I01
sS'Q1ZXQ8'
p2956
I01
sS'Q54GX7'
p2957
I01
sS'Q55E58'
p2958
I01
sS'Q54NF8'
p2959
I01
sS'Q54MH2'
p2960
I01
sS'Q8I7T3'
p2961
I01
sS'Q7YXU4'
p2962
I01
sS'Q54T86'
p2963
I01
sS'Q54EH1'
p2964
I01
sS'P09402'
p2965
I01
sS'P26200'
p2966
I01
sS'Q6B9X6'
p2967
I01
sS'Q9NHF6'
p2968
I01
sS'Q8MN58'
p2969
I01
sS'Q55BV5'
p2970
I01
stbaa(lp2971
S'GO:0051489'
p2972
ag5
(g6
g7
NtRp2973
((dp2974
S'O00909'
p2975
I01
sS'Q54WI0'
p2976
I01
sS'Q54QQ1'
p2977
I01
stbaa(lp2978
S'GO:0010468'
p2979
ag5
(g6
g7
NtRp2980
((dp2981
S'Q54JS2'
p2982
I01
sS'O00910'
p2983
I01
sS'Q55F37'
p2984
I01
sS'Q552C6'
p2985
I01
sS'Q550K3'
p2986
I01
sS'Q54S20'
p2987
I01
stbaa(lp2988
S'GO:0010628'
p2989
ag5
(g6
g7
NtRp2990
((dp2991
S'Q550R2'
p2992
I01
sS'Q86AD8'
p2993
I01
sS'Q54LW0'
p2994
I01
sS'O00910'
p2995
I01
sS'Q54PQ4'
p2996
I01
sS'Q54HG2'
p2997
I01
sS'Q03100'
p2998
I01
sS'Q54DU0'
p2999
I01
sS'Q54TP5'
p3000
I01
sS'O97101'
p3001
I01
sS'Q54FX2'
p3002
I01
sS'Q54ER9'
p3003
I01
stbaa(lp3004
S'GO:0031149'
p3005
ag5
(g6
g7
NtRp3006
((dp3007
S'Q55E72'
p3008
I01
sS'Q8T638'
p3009
I01
sS'O00910'
p3010
I01
sS'Q54FI3'
p3011
I01
sS'Q75JZ1'
p3012
I01
sS'Q54R09'
p3013
I01
sS'Q54LW0'
p3014
I01
sS'Q7YXU4'
p3015
I01
sS'Q54ER9'
p3016
I01
sS'Q555X5'
p3017
I01
sS'Q54K32'
p3018
I01
sS'Q54XG7'
p3019
I01
sS'Q86L44'
p3020
I01
stbaa(lp3021
S'GO:0045892'
p3022
ag5
(g6
g7
NtRp3023
((dp3024
S'O00910'
p3025
I01
sS'Q54BD4'
p3026
I01
sS'Q70GP4'
p3027
I01
stbaa(lp3028
S'GO:0006470'
p3029
ag5
(g6
g7
NtRp3030
((dp3031
S'Q55CS7'
p3032
I01
sS'Q7YSW8'
p3033
I01
sS'O15743'
p3034
I01
sS'Q55E58'
p3035
I01
sS'Q55G87'
p3036
I01
sS'Q54QM6'
p3037
I01
sS'P34138'
p3038
I01
stbaa(lp3039
S'GO:0009653'
p3040
ag5
(g6
g7
NtRp3041
((dp3042
S'Q94490'
p3043
I01
sS'Q23925'
p3044
I01
sS'O15743'
p3045
I01
sS'Q8T7K0'
p3046
I01
sS'Q54F46'
p3047
I01
sS'P34125'
p3048
I01
sS'P18160'
p3049
I01
sS'Q54R82'
p3050
I01
stbaa(lp3051
S'GO:0000266'
p3052
ag5
(g6
g7
NtRp3053
((dp3054
S'O15818'
p3055
I01
stbaa(lp3056
S'GO:0008053'
p3057
ag5
(g6
g7
NtRp3058
((dp3059
S'O15818'
p3060
I01
stbaa(lp3061
S'GO:0048312'
p3062
ag5
(g6
g7
NtRp3063
((dp3064
S'Q94464'
p3065
I01
sS'O15818'
p3066
I01
stbaa(lp3067
S'GO:0000082'
p3068
ag5
(g6
g7
NtRp3069
((dp3070
S'O60999'
p3071
I01
stbaa(lp3072
S'GO:0006935'
p3073
ag5
(g6
g7
NtRp3074
((dp3075
S'P34145'
p3076
I01
sS'Q54S78'
p3077
I01
sS'Q54QV3'
p3078
I01
sS'Q54RB7'
p3079
I01
sS'P34148'
p3080
I01
sS'P34149'
p3081
I01
sS'Q553Y7'
p3082
I01
sS'P54644'
p3083
I01
sS'P08799'
p3084
I01
sS'P35352'
p3085
I01
sS'P13773'
p3086
I01
sS'P34042'
p3087
I01
sS'O60999'
p3088
I01
sS'Q8T8P2'
p3089
I01
sS'Q54RV9'
p3090
I01
sS'P16051'
p3091
I01
sS'Q54YZ6'
p3092
I01
sS'Q54XG7'
p3093
I01
sS'P35401'
p3094
I01
sS'Q23925'
p3095
I01
sS'Q8IS21'
p3096
I01
sS'Q551V8'
p3097
I01
sS'P03967'
p3098
I01
sS'Q86AT8'
p3099
I01
sS'Q869Q3'
p3100
I01
sS'Q95ZG8'
p3101
I01
sS'Q54BU4'
p3102
I01
sS'Q54CF9'
p3103
I01
sS'Q55D99'
p3104
I01
sS'O77203'
p3105
I01
sS'Q54S20'
p3106
I01
sS'Q55DA7'
p3107
I01
sS'Q54TM2'
p3108
I01
sS'Q55FX5'
p3109
I01
sS'Q54KA7'
p3110
I01
sS'Q8T9S7'
p3111
I01
sS'P54673'
p3112
I01
sS'P54674'
p3113
I01
sS'P54675'
p3114
I01
sS'Q54PQ4'
p3115
I01
sS'P18613'
p3116
I01
sS'P07830'
p3117
I01
sS'Q54NW4'
p3118
I01
sS'Q54QQ1'
p3119
I01
sS'Q54GX7'
p3120
I01
sS'Q86KX8'
p3121
I01
sS'P54686'
p3122
I01
stbaa(lp3123
S'GO:0006468'
p3124
ag5
(g6
g7
NtRp3125
((dp3126
S'Q54U87'
p3127
I01
sS'Q8MY12'
p3128
I01
sS'Q54QV3'
p3129
I01
sS'Q75JK0'
p3130
I01
sS'P54644'
p3131
I01
sS'Q869N2'
p3132
I01
sS'Q558U1'
p3133
I01
sS'P42527'
p3134
I01
sS'P42525'
p3135
I01
sS'Q95YH0'
p3136
I01
sS'Q55CL6'
p3137
I01
sS'Q55BN8'
p3138
I01
sS'Q6B9X6'
p3139
I01
sS'P51136'
p3140
I01
sS'Q54DK4'
p3141
I01
sS'O61122'
p3142
I01
sS'Q54SF9'
p3143
I01
sS'Q54UC0'
p3144
I01
sS'Q02720'
p3145
I01
sS'Q54ER4'
p3146
I01
sS'P34117'
p3147
I01
sS'P34112'
p3148
I01
sS'Q54QQ1'
p3149
I01
sS'Q54TA1'
p3150
I01
sS'O61125'
p3151
I01
sS'Q552C6'
p3152
I01
sS'Q54I36'
p3153
I01
sS'Q550L8'
p3154
I01
sS'Q54XQ2'
p3155
I01
sS'P28178'
p3156
I01
stbaa(lp3157
S'GO:0010590'
p3158
ag5
(g6
g7
NtRp3159
((dp3160
S'O61122'
p3161
I01
stbaa(lp3162
S'GO:0031156'
p3163
ag5
(g6
g7
NtRp3164
((dp3165
S'Q55D99'
p3166
I01
sS'Q6B9X6'
p3167
I01
sS'Q556N5'
p3168
I01
sS'Q7YSW8'
p3169
I01
sS'Q76P24'
p3170
I01
sS'Q54I36'
p3171
I01
sS'O61122'
p3172
I01
sS'Q55AX2'
p3173
I01
sS'Q9Y0B7'
p3174
I01
sS'Q54QQ1'
p3175
I01
stbaa(lp3176
S'GO:0046777'
p3177
ag5
(g6
g7
NtRp3178
((dp3179
S'Q86CS2'
p3180
I01
sS'P42527'
p3181
I01
sS'P90648'
p3182
I01
sS'Q75JK0'
p3183
I01
sS'O61125'
p3184
I01
sS'P25323'
p3185
I01
sS'Q552C6'
p3186
I01
sS'P34125'
p3187
I01
sS'Q54I36'
p3188
I01
sS'O61122'
p3189
I01
sS'Q54WJ0'
p3190
I01
stbaa(lp3191
S'GO:0051781'
p3192
ag5
(g6
g7
NtRp3193
((dp3194
S'O61122'
p3195
I01
stbaa(lp3196
S'GO:0007165'
p3197
ag5
(g6
g7
NtRp3198
((dp3199
S'Q556R7'
p3200
I01
sS'P32253'
p3201
I01
sS'Q86IV5'
p3202
I01
sS'P51136'
p3203
I01
sS'Q86D86'
p3204
I01
sS'Q54QV3'
p3205
I01
sS'Q75JK0'
p3206
I01
sS'O61125'
p3207
I01
sS'Q8MLZ3'
p3208
I01
sS'Q54I18'
p3209
I01
sS'P16894'
p3210
I01
sS'P54661'
p3211
I01
sS'Q86HE5'
p3212
I01
stbaa(lp3213
S'GO:0045762'
p3214
ag5
(g6
g7
NtRp3215
((dp3216
S'P32253'
p3217
I01
sS'P35401'
p3218
I01
sS'Q8IS21'
p3219
I01
sS'Q8SSQ3'
p3220
I01
sS'O61125'
p3221
I01
sS'P16051'
p3222
I01
stbaa(lp3223
S'GO:0007163'
p3224
ag5
(g6
g7
NtRp3225
((dp3226
S'P32253'
p3227
I01
sS'Q54RQ1'
p3228
I01
sS'Q55D99'
p3229
I01
sS'O76187'
p3230
I01
sS'P10819'
p3231
I01
sS'Q94464'
p3232
I01
sS'Q54AX5'
p3233
I01
sS'P54644'
p3234
I01
sS'O76765'
p3235
I01
sS'Q54S40'
p3236
I01
sS'Q55GV3'
p3237
I01
sS'Q8MVR1'
p3238
I01
sS'Q75J96'
p3239
I01
stbaa(lp3240
S'GO:0016477'
p3241
ag5
(g6
g7
NtRp3242
((dp3243
S'O76187'
p3244
I01
sS'Q54TM2'
p3245
I01
sS'P34149'
p3246
I01
sS'Q54F87'
p3247
I01
sS'P09402'
p3248
I01
sS'Q54TP5'
p3249
I01
sS'Q8MML5'
p3250
I01
sS'P05817'
p3251
I01
sS'Q8T133'
p3252
I01
stbaa(lp3253
S'GO:0051056'
p3254
ag5
(g6
g7
NtRp3255
((dp3256
S'O76187'
p3257
I01
stbaa(lp3258
S'GO:0009847'
p3259
ag5
(g6
g7
NtRp3260
((dp3261
S'Q54C46'
p3262
I01
sS'Q9U1M8'
p3263
I01
sS'Q03101'
p3264
I01
sS'O76329'
p3265
I01
sS'Q95PI2'
p3266
I01
sS'Q1ZXE9'
p3267
I01
stbaa(lp3268
S'GO:0016337'
p3269
ag5
(g6
g7
NtRp3270
((dp3271
S'Q556R7'
p3272
I01
sS'Q558U1'
p3273
I01
sS'P0CE94'
p3274
I01
sS'P42523'
p3275
I01
sS'Q8WSR7'
p3276
I01
sS'Q54AX5'
p3277
I01
sS'Q9U1M9'
p3278
I01
sS'Q55CT4'
p3279
I01
sS'Q9GPS3'
p3280
I01
sS'Q54TP5'
p3281
I01
sS'O76329'
p3282
I01
sS'Q550L8'
p3283
I01
sS'Q869Q3'
p3284
I01
sS'P08796'
p3285
I01
sS'P05817'
p3286
I01
sS'Q86HE5'
p3287
I01
stbaa(lp3288
S'GO:0030041'
p3289
ag5
(g6
g7
NtRp3290
((dp3291
S'Q54S78'
p3292
I01
sS'P13231'
p3293
I01
sS'P34148'
p3294
I01
sS'Q86AC8'
p3295
I01
sS'Q54IR8'
p3296
I01
sS'Q9GRF8'
p3297
I01
sS'P42528'
p3298
I01
sS'Q552S0'
p3299
I01
sS'Q55FX5'
p3300
I01
sS'O76765'
p3301
I01
sS'Q55BN3'
p3302
I01
sS'P05817'
p3303
I01
sS'Q54WH5'
p3304
I01
sS'Q5TJ65'
p3305
I01
sS'P54686'
p3306
I01
sS'Q55FU3'
p3307
I01
sS'Q8T9S7'
p3308
I01
sS'P54673'
p3309
I01
sS'P54674'
p3310
I01
sS'P54675'
p3311
I01
sS'Q86IV5'
p3312
I01
sS'O96621'
p3313
I01
sS'O96622'
p3314
I01
sS'O96623'
p3315
I01
sS'O96624'
p3316
I01
sS'O96625'
p3317
I01
sS'O96626'
p3318
I01
sS'Q54R74'
p3319
I01
stbaa(lp3320
S'GO:0031269'
p3321
ag5
(g6
g7
NtRp3322
((dp3323
S'Q54NF8'
p3324
I01
sS'Q55BN3'
p3325
I01
sS'O76765'
p3326
I01
sS'Q557J6'
p3327
I01
stbaa(lp3328
S'GO:0007190'
p3329
ag5
(g6
g7
NtRp3330
((dp3331
S'P32253'
p3332
I01
sS'O77203'
p3333
I01
sS'Q54D08'
p3334
I01
sS'P15064'
p3335
I01
sS'P13773'
p3336
I01
sS'P35352'
p3337
I01
sS'Q54QB1'
p3338
I01
sS'Q54PQ4'
p3339
I01
sS'Q9Y0C9'
p3340
I01
sS'P36408'
p3341
I01
stbaa(lp3342
S'GO:0030010'
p3343
ag5
(g6
g7
NtRp3344
((dp3345
S'Q55D99'
p3346
I01
sS'Q552S0'
p3347
I01
sS'P54644'
p3348
I01
sS'Q8T9S7'
p3349
I01
sS'Q86AC8'
p3350
I01
sS'Q55FT4'
p3351
I01
sS'P54686'
p3352
I01
sS'O77203'
p3353
I01
sS'Q558K8'
p3354
I01
sS'Q557I6'
p3355
I01
stbaa(lp3356
S'GO:0032148'
p3357
ag5
(g6
g7
NtRp3358
((dp3359
S'Q54D08'
p3360
I01
sS'P13773'
p3361
I01
sS'O77203'
p3362
I01
sS'Q9Y0C9'
p3363
I01
stbaa(lp3364
S'GO:0043327'
p3365
ag5
(g6
g7
NtRp3366
((dp3367
S'P32253'
p3368
I01
sS'Q54WR4'
p3369
I01
sS'Q54CA8'
p3370
I01
sS'P27133'
p3371
I01
sS'P54644'
p3372
I01
sS'Q86AC8'
p3373
I01
sS'Q55FT4'
p3374
I01
sS'Q8T8M2'
p3375
I01
sS'Q557I6'
p3376
I01
sS'Q8T133'
p3377
I01
sS'Q54RC0'
p3378
I01
sS'Q552S0'
p3379
I01
sS'Q9GPK9'
p3380
I01
sS'P42525'
p3381
I01
sS'Q8SSQ3'
p3382
I01
sS'Q54D08'
p3383
I01
sS'P15064'
p3384
I01
sS'Q55BN3'
p3385
I01
sS'Q55CL6'
p3386
I01
sS'Q55D99'
p3387
I01
sS'O77203'
p3388
I01
sS'Q54WH5'
p3389
I01
sS'Q71A39'
p3390
I01
sS'Q8T9S7'
p3391
I01
sS'P54673'
p3392
I01
sS'P54674'
p3393
I01
sS'P16894'
p3394
I01
sS'P54677'
p3395
I01
sS'Q55CS7'
p3396
I01
sS'Q54ET0'
p3397
I01
sS'Q54NF8'
p3398
I01
sS'O96621'
p3399
I01
sS'Q76P24'
p3400
I01
sS'Q54AX5'
p3401
I01
sS'Q8MML5'
p3402
I01
sS'P54686'
p3403
I01
sS'Q9Y0C9'
p3404
I01
sS'P28178'
p3405
I01
sS'Q54I18'
p3406
I01
sS'P36408'
p3407
I01
stbaa(lp3408
S'GO:0043520'
p3409
ag5
(g6
g7
NtRp3410
((dp3411
S'Q550R2'
p3412
I01
sS'O77203'
p3413
I01
sS'Q86G47'
p3414
I01
sS'Q54D08'
p3415
I01
sS'Q76P24'
p3416
I01
sS'Q54HG2'
p3417
I01
sS'P18613'
p3418
I01
sS'Q9Y0C9'
p3419
I01
sS'Q75J96'
p3420
I01
stbaa(lp3421
S'GO:0050765'
p3422
ag5
(g6
g7
NtRp3423
((dp3424
S'O77203'
p3425
I01
sS'P26199'
p3426
I01
sS'Q54D08'
p3427
I01
sS'P22887'
p3428
I01
sS'P54644'
p3429
I01
sS'P26200'
p3430
I01
sS'Q8MML5'
p3431
I01
sS'Q557J6'
p3432
I01
sS'Q9Y0C9'
p3433
I01
sS'Q550Q4'
p3434
I01
sS'Q55GV9'
p3435
I01
stbaa(lp3436
S'GO:0051897'
p3437
ag5
(g6
g7
NtRp3438
((dp3439
S'P32253'
p3440
I01
sS'P15064'
p3441
I01
sS'O77203'
p3442
I01
sS'Q8IS21'
p3443
I01
sS'Q54PQ4'
p3444
I01
stbaa(lp3445
S'GO:0071902'
p3446
ag5
(g6
g7
NtRp3447
((dp3448
S'Q54WJ0'
p3449
I01
sS'O77203'
p3450
I01
stbaa(lp3451
S'GO:0033986'
p3452
ag5
(g6
g7
NtRp3453
((dp3454
S'O77229'
p3455
I01
stbaa(lp3456
S'GO:0042744'
p3457
ag5
(g6
g7
NtRp3458
((dp3459
S'O77229'
p3460
I01
sS'Q55DH8'
p3461
I01
stbaa(lp3462
S'GO:0046689'
p3463
ag5
(g6
g7
NtRp3464
((dp3465
S'Q54D04'
p3466
I01
sS'Q54PX9'
p3467
I01
sS'Q86K89'
p3468
I01
sS'Q54Z13'
p3469
I01
sS'Q54KN7'
p3470
I01
sS'Q556G3'
p3471
I01
sS'Q86HW7'
p3472
I01
sS'Q54NE6'
p3473
I01
sS'Q23921'
p3474
I01
sS'Q54X73'
p3475
I01
sS'P54872'
p3476
I01
sS'Q54F07'
p3477
I01
sS'Q54YA0'
p3478
I01
sS'P83401'
p3479
I01
sS'Q54P64'
p3480
I01
sS'P29505'
p3481
I01
sS'Q55GC5'
p3482
I01
sS'Q55FM7'
p3483
I01
sS'P54654'
p3484
I01
sS'O77229'
p3485
I01
sS'Q54DA8'
p3486
I01
sS'Q65YR8'
p3487
I01
sS'Q54JK3'
p3488
I01
sS'Q964D8'
p3489
I01
sS'Q23919'
p3490
I01
sS'Q55GQ5'
p3491
I01
sS'P42530'
p3492
I01
sS'Q54JD9'
p3493
I01
stbaa(lp3494
S'GO:0019933'
p3495
ag5
(g6
g7
NtRp3496
((dp3497
S'Q558U1'
p3498
I01
sS'Q54U87'
p3499
I01
sS'Q86AD8'
p3500
I01
sS'Q03100'
p3501
I01
sS'Q54QV3'
p3502
I01
sS'Q8I0F4'
p3503
I01
sS'Q550F6'
p3504
I01
sS'Q86CZ2'
p3505
I01
sS'Q54RQ8'
p3506
I01
sS'O96042'
p3507
I01
sS'P25323'
p3508
I01
sS'Q75JK0'
p3509
I01
sS'Q54QB1'
p3510
I01
sS'Q54RY6'
p3511
I01
sS'Q54B33'
p3512
I01
sS'Q54HV0'
p3513
I01
sS'P36408'
p3514
I01
stbaa(lp3515
S'GO:0006636'
p3516
ag5
(g6
g7
NtRp3517
((dp3518
S'O96099'
p3519
I01
sS'Q9Y1W0'
p3520
I01
stbaa(lp3521
S'GO:0016579'
p3522
ag5
(g6
g7
NtRp3523
((dp3524
S'O96612'
p3525
I01
stbaa(lp3526
S'GO:0006887'
p3527
ag5
(g6
g7
NtRp3528
((dp3529
S'Q552E2'
p3530
I01
sS'Q9NGP5'
p3531
I01
sS'Q55CK2'
p3532
I01
sS'Q55E26'
p3533
I01
sS'Q54IR8'
p3534
I01
sS'P42528'
p3535
I01
sS'Q54GD0'
p3536
I01
sS'Q54WZ2'
p3537
I01
sS'P34092'
p3538
I01
sS'Q9GPR7'
p3539
I01
sS'Q54CK9'
p3540
I01
sS'Q55FU3'
p3541
I01
sS'Q54NL4'
p3542
I01
sS'Q8ST66'
p3543
I01
sS'Q54NF8'
p3544
I01
sS'O96621'
p3545
I01
sS'O96622'
p3546
I01
sS'O96623'
p3547
I01
sS'O96624'
p3548
I01
sS'O96625'
p3549
I01
sS'O96626'
p3550
I01
sS'P54681'
p3551
I01
sS'Q86JF2'
p3552
I01
sS'Q54R74'
p3553
I01
stbaa(lp3554
S'GO:0006928'
p3555
ag5
(g6
g7
NtRp3556
((dp3557
S'Q54FQ2'
p3558
I01
sS'P32253'
p3559
I01
sS'Q54S78'
p3560
I01
sS'Q54WR4'
p3561
I01
sS'P32254'
p3562
I01
sS'P27133'
p3563
I01
sS'Q75JI3'
p3564
I01
sS'Q869S5'
p3565
I01
sS'P0DJ26'
p3566
I01
sS'P08799'
p3567
I01
sS'Q557Q0'
p3568
I01
sS'Q869Q3'
p3569
I01
sS'Q54RV9'
p3570
I01
sS'Q6UK63'
p3571
I01
sS'Q556R7'
p3572
I01
sS'Q55FX5'
p3573
I01
sS'P42529'
p3574
I01
sS'P42528'
p3575
I01
sS'Q54V07'
p3576
I01
sS'Q54UT6'
p3577
I01
sS'Q54RL3'
p3578
I01
sS'Q8IS21'
p3579
I01
sS'P34092'
p3580
I01
sS'P26199'
p3581
I01
sS'P03967'
p3582
I01
sS'Q54QC8'
p3583
I01
sS'Q86AT9'
p3584
I01
sS'Q553P4'
p3585
I01
sS'Q54N00'
p3586
I01
sS'Q86IV5'
p3587
I01
sS'Q55DA0'
p3588
I01
sS'Q54P41'
p3589
I01
sS'Q54S20'
p3590
I01
sS'Q6IMN8'
p3591
I01
sS'Q54Z78'
p3592
I01
sS'Q55B61'
p3593
I01
sS'Q8T9S7'
p3594
I01
sS'P54673'
p3595
I01
sS'P54674'
p3596
I01
sS'P54675'
p3597
I01
sS'Q557G6'
p3598
I01
sS'Q54PQ4'
p3599
I01
sS'Q54HV7'
p3600
I01
sS'P07830'
p3601
I01
sS'Q54DT8'
p3602
I01
sS'Q54QQ1'
p3603
I01
sS'Q54CT1'
p3604
I01
sS'Q54GX7'
p3605
I01
sS'Q54I71'
p3606
I01
sS'P02886'
p3607
I01
sS'O96621'
p3608
I01
sS'O96622'
p3609
I01
sS'O96623'
p3610
I01
sS'O96624'
p3611
I01
sS'O96625'
p3612
I01
sS'O96626'
p3613
I01
sS'Q9GPS0'
p3614
I01
sS'P09402'
p3615
I01
sS'P26200'
p3616
I01
sS'Q557J6'
p3617
I01
sS'Q556S4'
p3618
I01
sS'Q86HE5'
p3619
I01
stbaa(lp3620
S'GO:0032060'
p3621
ag5
(g6
g7
NtRp3622
((dp3623
S'O96621'
p3624
I01
sS'P08799'
p3625
I01
stbaa(lp3626
S'GO:0045010'
p3627
ag5
(g6
g7
NtRp3628
((dp3629
S'P42528'
p3630
I01
sS'Q95VZ3'
p3631
I01
sS'Q5TJ65'
p3632
I01
sS'O96621'
p3633
I01
sS'O96622'
p3634
I01
sS'O96623'
p3635
I01
sS'O96624'
p3636
I01
sS'O96625'
p3637
I01
sS'O96626'
p3638
I01
sS'P26199'
p3639
I01
sS'P26200'
p3640
I01
sS'Q54CK9'
p3641
I01
sS'Q54N00'
p3642
I01
sS'Q8T8M2'
p3643
I01
sS'P54660'
p3644
I01
stbaa(lp3645
S'GO:0030042'
p3646
ag5
(g6
g7
NtRp3647
((dp3648
S'P0DJ26'
p3649
I01
sS'Q966T6'
p3650
I01
sS'O96623'
p3651
I01
sS'P54686'
p3652
I01
stbaa(lp3653
S'GO:0008611'
p3654
ag5
(g6
g7
NtRp3655
((dp3656
S'O96759'
p3657
I01
stbaa(lp3658
S'GO:0006971'
p3659
ag5
(g6
g7
NtRp3660
((dp3661
S'Q76P24'
p3662
I01
sS'Q54J33'
p3663
I01
sS'Q9TW28'
p3664
I01
sS'Q54HS9'
p3665
I01
sS'Q54Y50'
p3666
I01
sS'Q7YXU4'
p3667
I01
sS'Q86JM7'
p3668
I01
sS'Q54JH4'
p3669
I01
sS'Q553Y1'
p3670
I01
sS'Q553Y0'
p3671
I01
sS'Q54NL4'
p3672
I01
sS'Q54UM5'
p3673
I01
sS'O96904'
p3674
I01
sS'Q86KI1'
p3675
I01
stbaa(lp3676
S'GO:0033298'
p3677
ag5
(g6
g7
NtRp3678
((dp3679
S'Q9GPM2'
p3680
I01
sS'P20790'
p3681
I01
sS'Q54GD0'
p3682
I01
sS'Q54Y50'
p3683
I01
sS'Q55AV3'
p3684
I01
sS'Q55DM1'
p3685
I01
sS'Q55CK2'
p3686
I01
sS'Q54NL4'
p3687
I01
sS'Q54UM5'
p3688
I01
sS'O96904'
p3689
I01
stbaa(lp3690
S'GO:0042331'
p3691
ag5
(g6
g7
NtRp3692
((dp3693
S'O96923'
p3694
I01
sS'Q556T3'
p3695
I01
sS'Q54GX7'
p3696
I01
sS'Q54GD0'
p3697
I01
sS'Q54JW0'
p3698
I01
sS'Q55CK2'
p3699
I01
sS'P03967'
p3700
I01
sS'Q86KG9'
p3701
I01
sS'Q54S83'
p3702
I01
sS'P07830'
p3703
I01
sS'Q555X5'
p3704
I01
sS'P13466'
p3705
I01
stbaa(lp3706
S'GO:0006907'
p3707
ag5
(g6
g7
NtRp3708
((dp3709
S'Q86I44'
p3710
I01
sS'P34142'
p3711
I01
sS'P25870'
p3712
I01
sS'Q55GV9'
p3713
I01
sS'Q8MQU6'
p3714
I01
sS'Q869N2'
p3715
I01
sS'Q54S83'
p3716
I01
sS'P32254'
p3717
I01
sS'Q55DM1'
p3718
I01
sS'Q95UQ1'
p3719
I01
sS'P26199'
p3720
I01
sS'Q9GPR7'
p3721
I01
sS'Q94464'
p3722
I01
sS'Q95US4'
p3723
I01
sS'O97101'
p3724
I01
sS'P34117'
p3725
I01
sS'Q54NL4'
p3726
I01
sS'Q54NF8'
p3727
I01
sS'Q9GPF1'
p3728
I01
sS'P26200'
p3729
I01
sS'Q86JF2'
p3730
I01
sS'P54686'
p3731
I01
sS'Q8MN58'
p3732
I01
stbaa(lp3733
S'GO:0010629'
p3734
ag5
(g6
g7
NtRp3735
((dp3736
S'Q555X5'
p3737
I01
sS'Q54ET8'
p3738
I01
sS'O97101'
p3739
I01
sS'Q54T71'
p3740
I01
sS'Q54WJ0'
p3741
I01
sS'Q54ER9'
p3742
I01
sS'P34099'
p3743
I01
stbaa(lp3744
S'GO:0015866'
p3745
ag5
(g6
g7
NtRp3746
((dp3747
S'O97470'
p3748
I01
stbaa(lp3749
S'GO:0015867'
p3750
ag5
(g6
g7
NtRp3751
((dp3752
S'O97470'
p3753
I01
stbaa(lp3754
S'GO:0008285'
p3755
ag5
(g6
g7
NtRp3756
((dp3757
S'Q5XM24'
p3758
I01
sS'Q8SSS9'
p3759
I01
sS'Q54TR1'
p3760
I01
sS'Q54LU5'
p3761
I01
sS'P02599'
p3762
I01
stbaa(lp3763
S'GO:0032781'
p3764
ag5
(g6
g7
NtRp3765
((dp3766
S'P02599'
p3767
I01
stbaa(lp3768
S'GO:0043549'
p3769
ag5
(g6
g7
NtRp3770
((dp3771
S'P02599'
p3772
I01
stbaa(lp3773
S'GO:0045861'
p3774
ag5
(g6
g7
NtRp3775
((dp3776
S'Q556R7'
p3777
I01
sS'P02599'
p3778
I01
stbaa(lp3779
S'GO:0051343'
p3780
ag5
(g6
g7
NtRp3781
((dp3782
S'P02599'
p3783
I01
stbaa(lp3784
S'GO:0061122'
p3785
ag5
(g6
g7
NtRp3786
((dp3787
S'Q54DU0'
p3788
I01
sS'P02599'
p3789
I01
stbaa(lp3790
S'GO:0072666'
p3791
ag5
(g6
g7
NtRp3792
((dp3793
S'P02599'
p3794
I01
stbaa(lp3795
S'GO:0007010'
p3796
ag5
(g6
g7
NtRp3797
((dp3798
S'P02886'
p3799
I01
stbaa(lp3800
S'GO:1902168'
p3801
ag5
(g6
g7
NtRp3802
((dp3803
S'P12729'
p3804
I01
sS'P02886'
p3805
I01
sS'P42523'
p3806
I01
sS'Q54YG2'
p3807
I01
sS'P36417'
p3808
I01
sS'Q03100'
p3809
I01
sS'P13773'
p3810
I01
sS'P12019'
p3811
I01
stbaa(lp3812
S'GO:0007265'
p3813
ag5
(g6
g7
NtRp3814
((dp3815
S'P32252'
p3816
I01
sS'P32253'
p3817
I01
sS'P32254'
p3818
I01
sS'Q86G47'
p3819
I01
sS'Q8SSQ0'
p3820
I01
sS'Q8IS21'
p3821
I01
sS'Q55CB7'
p3822
I01
sS'P15064'
p3823
I01
sS'P03967'
p3824
I01
sS'Q55CA9'
p3825
I01
sS'Q54PQ4'
p3826
I01
sS'Q55CB8'
p3827
I01
stbaa(lp3828
S'GO:0051017'
p3829
ag5
(g6
g7
NtRp3830
((dp3831
S'Q54HG2'
p3832
I01
sS'Q5TJ65'
p3833
I01
sS'Q54MH2'
p3834
I01
sS'P42527'
p3835
I01
sS'P05095'
p3836
I01
sS'P0DJ26'
p3837
I01
sS'P54680'
p3838
I01
sS'P24005'
p3839
I01
sS'Q8T135'
p3840
I01
sS'Q03380'
p3841
I01
stbaa(lp3842
S'GO:0051764'
p3843
ag5
(g6
g7
NtRp3844
((dp3845
S'P42527'
p3846
I01
sS'P24005'
p3847
I01
sS'Q55E26'
p3848
I01
sS'P05095'
p3849
I01
stbaa(lp3850
S'GO:0007155'
p3851
ag5
(g6
g7
NtRp3852
((dp3853
S'Q54NW4'
p3854
I01
sS'P05817'
p3855
I01
sS'Q55DM1'
p3856
I01
sS'P12729'
p3857
I01
stbaa(lp3858
S'GO:0007389'
p3859
ag5
(g6
g7
NtRp3860
((dp3861
S'P05817'
p3862
I01
stbaa(lp3863
S'GO:0031589'
p3864
ag5
(g6
g7
NtRp3865
((dp3866
S'Q9U1M9'
p3867
I01
sS'Q9U1M8'
p3868
I01
sS'Q54K81'
p3869
I01
sS'Q869Q3'
p3870
I01
sS'Q8I7T3'
p3871
I01
sS'Q558U1'
p3872
I01
sS'P0CE94'
p3873
I01
sS'Q55FP0'
p3874
I01
sS'P15064'
p3875
I01
sS'Q54S40'
p3876
I01
sS'Q54N00'
p3877
I01
sS'P05817'
p3878
I01
sS'Q75JH9'
p3879
I01
sS'Q54KF7'
p3880
I01
sS'Q5TJ65'
p3881
I01
sS'Q54KA7'
p3882
I01
sS'Q8MVR1'
p3883
I01
sS'Q55E54'
p3884
I01
sS'Q54QQ1'
p3885
I01
sS'Q54NF8'
p3886
I01
sS'Q54AX5'
p3887
I01
sS'Q8MML5'
p3888
I01
sS'Q550L8'
p3889
I01
sS'Q54ZW0'
p3890
I01
sS'Q75J96'
p3891
I01
stbaa(lp3892
S'GO:0043326'
p3893
ag5
(g6
g7
NtRp3894
((dp3895
S'P32253'
p3896
I01
sS'Q54WR4'
p3897
I01
sS'P34145'
p3898
I01
sS'Q71A39'
p3899
I01
sS'Q55AA6'
p3900
I01
sS'Q55FT4'
p3901
I01
sS'Q54AX5'
p3902
I01
sS'P15064'
p3903
I01
sS'Q54DU0'
p3904
I01
sS'Q54TP5'
p3905
I01
sS'Q8MML5'
p3906
I01
sS'P34042'
p3907
I01
sS'Q55FT9'
p3908
I01
sS'Q54RC0'
p3909
I01
sS'P05817'
p3910
I01
sS'P36408'
p3911
I01
stbaa(lp3912
S'GO:0030817'
p3913
ag5
(g6
g7
NtRp3914
((dp3915
S'P05987'
p3916
I01
stbaa(lp3917
S'GO:0030819'
p3918
ag5
(g6
g7
NtRp3919
((dp3920
S'P32253'
p3921
I01
sS'Q54QB1'
p3922
I01
sS'P05987'
p3923
I01
stbaa(lp3924
S'GO:0031285'
p3925
ag5
(g6
g7
NtRp3926
((dp3927
S'Q54PT9'
p3928
I01
sS'P34099'
p3929
I01
sS'Q55F37'
p3930
I01
sS'P05987'
p3931
I01
stbaa(lp3932
S'GO:0006207'
p3933
ag5
(g6
g7
NtRp3934
((dp3935
S'P07670'
p3936
I01
stbaa(lp3937
S'GO:0000902'
p3938
ag5
(g6
g7
NtRp3939
((dp3940
S'Q95UQ1'
p3941
I01
sS'Q550R2'
p3942
I01
sS'Q54GX7'
p3943
I01
sS'P0CE94'
p3944
I01
sS'P32254'
p3945
I01
sS'Q9U1M8'
p3946
I01
sS'P07829'
p3947
I01
sS'P15064'
p3948
I01
sS'Q8I7T3'
p3949
I01
sS'P07830'
p3950
I01
sS'Q553U6'
p3951
I01
sS'Q54N00'
p3952
I01
sS'Q6UK63'
p3953
I01
sS'Q54QQ1'
p3954
I01
stbaa(lp3955
S'GO:0006897'
p3956
ag5
(g6
g7
NtRp3957
((dp3958
S'Q8ST66'
p3959
I01
sS'P34145'
p3960
I01
sS'Q54GX7'
p3961
I01
sS'Q54TM2'
p3962
I01
sS'P27133'
p3963
I01
sS'Q75JI3'
p3964
I01
sS'Q9NGP5'
p3965
I01
sS'Q8MQU6'
p3966
I01
sS'Q8MML5'
p3967
I01
sS'P07830'
p3968
I01
sS'Q8MN58'
p3969
I01
stbaa(lp3970
S'GO:0016192'
p3971
ag5
(g6
g7
NtRp3972
((dp3973
S'Q54JY7'
p3974
I01
sS'Q54GX7'
p3975
I01
sS'Q54I79'
p3976
I01
sS'Q54NW7'
p3977
I01
sS'Q54CK6'
p3978
I01
sS'P07830'
p3979
I01
sS'Q54X86'
p3980
I01
stbaa(lp3981
S'GO:0030866'
p3982
ag5
(g6
g7
NtRp3983
((dp3984
S'Q550R2'
p3985
I01
sS'P32254'
p3986
I01
sS'P34142'
p3987
I01
sS'Q8IS21'
p3988
I01
sS'Q54HG2'
p3989
I01
sS'P08799'
p3990
I01
sS'Q9NHF6'
p3991
I01
sS'P08796'
p3992
I01
sS'Q55E54'
p3993
I01
stbaa(lp3994
S'GO:0051260'
p3995
ag5
(g6
g7
NtRp3996
((dp3997
S'P42527'
p3998
I01
sS'P08796'
p3999
I01
sS'Q54RQ4'
p4000
I01
stbaa(lp4001
S'GO:0009988'
p4002
ag5
(g6
g7
NtRp4003
((dp4004
S'P42523'
p4005
I01
sS'P54657'
p4006
I01
sS'P08796'
p4007
I01
sS'Q54V07'
p4008
I01
sS'Q9U8Q1'
p4009
I01
stbaa(lp4010
S'GO:0008104'
p4011
ag5
(g6
g7
NtRp4012
((dp4013
S'Q555I8'
p4014
I01
sS'P54632'
p4015
I01
sS'Q8WQ86'
p4016
I01
sS'Q55GF9'
p4017
I01
sS'P08799'
p4018
I01
sS'Q9GPR7'
p4019
I01
stbaa(lp4020
S'GO:0030038'
p4021
ag5
(g6
g7
NtRp4022
((dp4023
S'P08799'
p4024
I01
stbaa(lp4025
S'GO:0030837'
p4026
ag5
(g6
g7
NtRp4027
((dp4028
S'P26199'
p4029
I01
sS'P08799'
p4030
I01
sS'P26200'
p4031
I01
sS'Q54YW1'
p4032
I01
sS'Q8T8M2'
p4033
I01
sS'Q75J96'
p4034
I01
sS'Q55FT4'
p4035
I01
stbaa(lp4036
S'GO:0031034'
p4037
ag5
(g6
g7
NtRp4038
((dp4039
S'P08799'
p4040
I01
sS'Q9XZE5'
p4041
I01
sS'Q54QR9'
p4042
I01
sS'Q54Q99'
p4043
I01
stbaa(lp4044
S'GO:0031270'
p4045
ag5
(g6
g7
NtRp4046
((dp4047
S'P08799'
p4048
I01
stbaa(lp4049
S'GO:0033275'
p4050
ag5
(g6
g7
NtRp4051
((dp4052
S'P34092'
p4053
I01
sS'P08799'
p4054
I01
sS'P54697'
p4055
I01
stbaa(lp4056
S'GO:0034461'
p4057
ag5
(g6
g7
NtRp4058
((dp4059
S'P08799'
p4060
I01
stbaa(lp4061
S'GO:0060328'
p4062
ag5
(g6
g7
NtRp4063
((dp4064
S'P08799'
p4065
I01
stbaa(lp4066
S'GO:0019856'
p4067
ag5
(g6
g7
NtRp4068
((dp4069
S'P09556'
p4070
I01
stbaa(lp4071
S'GO:0006367'
p4072
ag5
(g6
g7
NtRp4073
((dp4074
S'Q54D00'
p4075
I01
sS'Q54S20'
p4076
I01
sS'Q55BX7'
p4077
I01
sS'Q54WH4'
p4078
I01
sS'Q54SI1'
p4079
I01
sS'Q54GV0'
p4080
I01
sS'Q552X2'
p4081
I01
sS'P0CB66'
p4082
I01
sS'Q54U49'
p4083
I01
stbaa(lp4084
S'GO:0000302'
p4085
ag5
(g6
g7
NtRp4086
((dp4087
S'Q94469'
p4088
I01
sS'P46794'
p4089
I01
sS'Q75JR3'
p4090
I01
sS'Q54D21'
p4091
I01
sS'Q8TA03'
p4092
I01
sS'Q54DK1'
p4093
I01
sS'Q95UQ1'
p4094
I01
sS'Q55D61'
p4095
I01
sS'P0CT32'
p4096
I01
sS'Q556P4'
p4097
I01
sS'Q553V1'
p4098
I01
sS'Q557E0'
p4099
I01
stbaa(lp4100
S'GO:0051014'
p4101
ag5
(g6
g7
NtRp4102
((dp4103
S'P0DJ26'
p4104
I01
sS'P10733'
p4105
I01
stbaa(lp4106
S'GO:0031159'
p4107
ag5
(g6
g7
NtRp4108
((dp4109
S'Q9BLG4'
p4110
I01
sS'P54661'
p4111
I01
sS'P0DJ29'
p4112
I01
stbaa(lp4113
S'GO:0043950'
p4114
ag5
(g6
g7
NtRp4115
((dp4116
S'P0DJ29'
p4117
I01
stbaa(lp4118
S'GO:0030043'
p4119
ag5
(g6
g7
NtRp4120
((dp4121
S'P10733'
p4122
I01
stbaa(lp4123
S'GO:0006004'
p4124
ag5
(g6
g7
NtRp4125
((dp4126
S'P10901'
p4127
I01
stbaa(lp4128
S'GO:0030198'
p4129
ag5
(g6
g7
NtRp4130
((dp4131
S'Q54LG5'
p4132
I01
sS'Q54YG2'
p4133
I01
sS'P11976'
p4134
I01
sS'Q54LF5'
p4135
I01
stbaa(lp4136
S'GO:0006198'
p4137
ag5
(g6
g7
NtRp4138
((dp4139
S'Q86H13'
p4140
I01
sS'Q8MM62'
p4141
I01
sS'Q23917'
p4142
I01
sS'Q54HY0'
p4143
I01
sS'P12019'
p4144
I01
stbaa(lp4145
S'GO:0030036'
p4146
ag5
(g6
g7
NtRp4147
((dp4148
S'Q54EW0'
p4149
I01
sS'P32253'
p4150
I01
sS'P20790'
p4151
I01
sS'P22887'
p4152
I01
sS'Q95UQ1'
p4153
I01
sS'Q86AT8'
p4154
I01
sS'Q54RB7'
p4155
I01
sS'Q54WI0'
p4156
I01
sS'Q54K32'
p4157
I01
sS'Q54RV9'
p4158
I01
sS'P13466'
p4159
I01
stbaa(lp4160
S'GO:0002029'
p4161
ag5
(g6
g7
NtRp4162
((dp4163
S'P13773'
p4164
I01
stbaa(lp4165
S'GO:0008277'
p4166
ag5
(g6
g7
NtRp4167
((dp4168
S'Q94465'
p4169
I01
sS'Q558K8'
p4170
I01
sS'P13773'
p4171
I01
sS'Q71A39'
p4172
I01
stbaa(lp4173
S'GO:0032861'
p4174
ag5
(g6
g7
NtRp4175
((dp4176
S'P15064'
p4177
I01
sS'P13773'
p4178
I01
sS'P35352'
p4179
I01
sS'Q75J96'
p4180
I01
sS'P16051'
p4181
I01
stbaa(lp4182
S'GO:0045860'
p4183
ag5
(g6
g7
NtRp4184
((dp4185
S'Q54VB6'
p4186
I01
sS'P13773'
p4187
I01
sS'Q552C6'
p4188
I01
sS'Q8MVR1'
p4189
I01
stbaa(lp4190
S'GO:0046578'
p4191
ag5
(g6
g7
NtRp4192
((dp4193
S'P13773'
p4194
I01
sS'P35352'
p4195
I01
sS'P18613'
p4196
I01
sS'Q55AR6'
p4197
I01
sS'P16051'
p4198
I01
sS'P36408'
p4199
I01
stbaa(lp4200
S'GO:0050764'
p4201
ag5
(g6
g7
NtRp4202
((dp4203
S'P13773'
p4204
I01
sS'Q54YW1'
p4205
I01
stbaa(lp4206
S'GO:0001932'
p4207
ag5
(g6
g7
NtRp4208
((dp4209
S'P15064'
p4210
I01
stbaa(lp4211
S'GO:0007188'
p4212
ag5
(g6
g7
NtRp4213
((dp4214
S'P32253'
p4215
I01
sS'P35401'
p4216
I01
sS'Q8T9S7'
p4217
I01
sS'P15064'
p4218
I01
sS'P16051'
p4219
I01
sS'P36408'
p4220
I01
stbaa(lp4221
S'GO:0008283'
p4222
ag5
(g6
g7
NtRp4223
((dp4224
S'P32253'
p4225
I01
sS'Q8I7P3'
p4226
I01
sS'Q8MQU6'
p4227
I01
sS'P54642'
p4228
I01
sS'Q54RC0'
p4229
I01
sS'Q54NA3'
p4230
I01
sS'Q55FP0'
p4231
I01
sS'Q55EK9'
p4232
I01
sS'P15064'
p4233
I01
sS'Q550K3'
p4234
I01
sS'Q9BLG4'
p4235
I01
sS'Q54RN0'
p4236
I01
sS'Q54J97'
p4237
I01
sS'Q54RQ4'
p4238
I01
sS'Q71A38'
p4239
I01
sS'Q54VL5'
p4240
I01
sS'Q54PF3'
p4241
I01
sS'P34117'
p4242
I01
sS'Q54HT1'
p4243
I01
sS'Q54NL4'
p4244
I01
sS'Q54YF2'
p4245
I01
sS'Q86AD8'
p4246
I01
sS'Q54XS1'
p4247
I01
sS'Q54JI6'
p4248
I01
sS'P54686'
p4249
I01
sS'Q9NHF6'
p4250
I01
sS'Q54ZW0'
p4251
I01
stbaa(lp4252
S'GO:0008284'
p4253
ag5
(g6
g7
NtRp4254
((dp4255
S'P15064'
p4256
I01
sS'Q86KF9'
p4257
I01
sS'Q55BR7'
p4258
I01
sS'Q6B516'
p4259
I01
stbaa(lp4260
S'GO:0030828'
p4261
ag5
(g6
g7
NtRp4262
((dp4263
S'P32253'
p4264
I01
sS'P15064'
p4265
I01
stbaa(lp4266
S'GO:0031284'
p4267
ag5
(g6
g7
NtRp4268
((dp4269
S'P32253'
p4270
I01
sS'P15064'
p4271
I01
sS'Q54PQ4'
p4272
I01
sS'P18613'
p4273
I01
sS'Q9Y0C9'
p4274
I01
sS'P16051'
p4275
I01
stbaa(lp4276
S'GO:0043552'
p4277
ag5
(g6
g7
NtRp4278
((dp4279
S'P15064'
p4280
I01
stbaa(lp4281
S'GO:0046586'
p4282
ag5
(g6
g7
NtRp4283
((dp4284
S'P15064'
p4285
I01
stbaa(lp4286
S'GO:0050927'
p4287
ag5
(g6
g7
NtRp4288
((dp4289
S'P15064'
p4290
I01
stbaa(lp4291
S'GO:0031153'
p4292
ag5
(g6
g7
NtRp4293
((dp4294
S'Q553M8'
p4295
I01
sS'P15648'
p4296
I01
sS'P15649'
p4297
I01
sS'Q54NA3'
p4298
I01
sS'Q54FI4'
p4299
I01
sS'Q54FJ6'
p4300
I01
sS'Q75JT4'
p4301
I01
sS'Q6XHB2'
p4302
I01
sS'Q54NL1'
p4303
I01
stbaa(lp4304
S'GO:0006231'
p4305
ag5
(g6
g7
NtRp4306
((dp4307
S'P15808'
p4308
I01
stbaa(lp4309
S'GO:0007189'
p4310
ag5
(g6
g7
NtRp4311
((dp4312
S'Q54XQ2'
p4313
I01
sS'P16051'
p4314
I01
stbaa(lp4315
S'GO:0006184'
p4316
ag5
(g6
g7
NtRp4317
((dp4318
S'Q94464'
p4319
I01
sS'P16894'
p4320
I01
stbaa(lp4321
S'GO:0007186'
p4322
ag5
(g6
g7
NtRp4323
((dp4324
S'Q86D86'
p4325
I01
sS'P22887'
p4326
I01
sS'Q54DU0'
p4327
I01
sS'P54674'
p4328
I01
sS'P16894'
p4329
I01
sS'Q95ZG8'
p4330
I01
sS'P54673'
p4331
I01
stbaa(lp4332
S'GO:0018108'
p4333
ag5
(g6
g7
NtRp4334
((dp4335
S'Q75JK0'
p4336
I01
sS'Q552C6'
p4337
I01
sS'P18160'
p4338
I01
sS'Q54TA1'
p4339
I01
sS'Q54I36'
p4340
I01
sS'Q54RB7'
p4341
I01
stbaa(lp4342
S'GO:0007260'
p4343
ag5
(g6
g7
NtRp4344
((dp4345
S'P18161'
p4346
I01
stbaa(lp4347
S'GO:2000366'
p4348
ag5
(g6
g7
NtRp4349
((dp4350
S'P18161'
p4351
I01
stbaa(lp4352
S'GO:0009409'
p4353
ag5
(g6
g7
NtRp4354
((dp4355
S'P18613'
p4356
I01
stbaa(lp4357
S'GO:0030833'
p4358
ag5
(g6
g7
NtRp4359
((dp4360
S'P34145'
p4361
I01
sS'Q54AX5'
p4362
I01
sS'P34121'
p4363
I01
sS'Q9GPR7'
p4364
I01
sS'P18613'
p4365
I01
sS'Q55AR6'
p4366
I01
sS'Q54RV9'
p4367
I01
stbaa(lp4368
S'GO:0030838'
p4369
ag5
(g6
g7
NtRp4370
((dp4371
S'P34144'
p4372
I01
sS'P34145'
p4373
I01
sS'P42528'
p4374
I01
sS'Q552S0'
p4375
I01
sS'Q54D08'
p4376
I01
sS'P34149'
p4377
I01
sS'Q9GPS0'
p4378
I01
sS'Q54NF8'
p4379
I01
sS'Q9GSG9'
p4380
I01
sS'P18613'
p4381
I01
sS'Q54N00'
p4382
I01
sS'Q869Q3'
p4383
I01
stbaa(lp4384
S'GO:0031289'
p4385
ag5
(g6
g7
NtRp4386
((dp4387
S'Q54TY7'
p4388
I01
sS'P18613'
p4389
I01
stbaa(lp4390
S'GO:0006541'
p4391
ag5
(g6
g7
NtRp4392
((dp4393
S'P20054'
p4394
I01
stbaa(lp4395
S'GO:0006225'
p4396
ag5
(g6
g7
NtRp4397
((dp4398
S'P20425'
p4399
I01
stbaa(lp4400
S'GO:0043100'
p4401
ag5
(g6
g7
NtRp4402
((dp4403
S'P20425'
p4404
I01
stbaa(lp4405
S'GO:0043173'
p4406
ag5
(g6
g7
NtRp4407
((dp4408
S'P20425'
p4409
I01
stbaa(lp4410
S'GO:0046705'
p4411
ag5
(g6
g7
NtRp4412
((dp4413
S'P20425'
p4414
I01
stbaa(lp4415
S'GO:0016339'
p4416
ag5
(g6
g7
NtRp4417
((dp4418
S'P54657'
p4419
I01
sS'Q76P24'
p4420
I01
sS'P20790'
p4421
I01
sS'P20791'
p4422
I01
sS'Q8MML5'
p4423
I01
stbaa(lp4424
S'GO:0031157'
p4425
ag5
(g6
g7
NtRp4426
((dp4427
S'P20790'
p4428
I01
sS'P20791'
p4429
I01
sS'Q54R41'
p4430
I01
sS'Q7YXU4'
p4431
I01
sS'Q5XM24'
p4432
I01
sS'P34117'
p4433
I01
stbaa(lp4434
S'GO:0050708'
p4435
ag5
(g6
g7
NtRp4436
((dp4437
S'P20790'
p4438
I01
sS'P54661'
p4439
I01
stbaa(lp4440
S'GO:0006164'
p4441
ag5
(g6
g7
NtRp4442
((dp4443
S'P21900'
p4444
I01
stbaa(lp4445
S'GO:0046086'
p4446
ag5
(g6
g7
NtRp4447
((dp4448
S'P21900'
p4449
I01
stbaa(lp4450
S'GO:0051707'
p4451
ag5
(g6
g7
NtRp4452
((dp4453
S'Q8WQ85'
p4454
I01
sS'Q03380'
p4455
I01
sS'P27133'
p4456
I01
sS'P34092'
p4457
I01
sS'Q23858'
p4458
I01
sS'P22467'
p4459
I01
stbaa(lp4460
S'GO:0006186'
p4461
ag5
(g6
g7
NtRp4462
((dp4463
S'P22887'
p4464
I01
stbaa(lp4465
S'GO:0006187'
p4466
ag5
(g6
g7
NtRp4467
((dp4468
S'P22887'
p4469
I01
stbaa(lp4470
S'GO:0006414'
p4471
ag5
(g6
g7
NtRp4472
((dp4473
S'Q9GRF8'
p4474
I01
sS'P22887'
p4475
I01
stbaa(lp4476
S'GO:0009142'
p4477
ag5
(g6
g7
NtRp4478
((dp4479
S'P34093'
p4480
I01
sS'P22887'
p4481
I01
sS'Q54CW7'
p4482
I01
stbaa(lp4483
S'GO:0016049'
p4484
ag5
(g6
g7
NtRp4485
((dp4486
S'Q556N5'
p4487
I01
sS'Q54NF8'
p4488
I01
sS'Q8SSS9'
p4489
I01
sS'P22887'
p4490
I01
sS'Q9U1M9'
p4491
I01
sS'Q5XM24'
p4492
I01
sS'Q54G01'
p4493
I01
sS'Q54K32'
p4494
I01
stbaa(lp4495
S'GO:0045920'
p4496
ag5
(g6
g7
NtRp4497
((dp4498
S'P22887'
p4499
I01
stbaa(lp4500
S'GO:0048550'
p4501
ag5
(g6
g7
NtRp4502
((dp4503
S'P22887'
p4504
I01
stbaa(lp4505
S'GO:0006874'
p4506
ag5
(g6
g7
NtRp4507
((dp4508
S'P54681'
p4509
I01
sS'Q54EY0'
p4510
I01
sS'Q54RV9'
p4511
I01
sS'P24639'
p4512
I01
sS'Q55DM1'
p4513
I01
stbaa(lp4514
S'GO:0019934'
p4515
ag5
(g6
g7
NtRp4516
((dp4517
S'P25323'
p4518
I01
sS'Q8MLZ3'
p4519
I01
sS'Q8MVR1'
p4520
I01
stbaa(lp4521
S'GO:0050920'
p4522
ag5
(g6
g7
NtRp4523
((dp4524
S'Q03100'
p4525
I01
sS'P25323'
p4526
I01
sS'Q54S40'
p4527
I01
sS'Q9Y0B7'
p4528
I01
sS'Q55AR6'
p4529
I01
sS'Q8MVR1'
p4530
I01
stbaa(lp4531
S'GO:0000915'
p4532
ag5
(g6
g7
NtRp4533
((dp4534
S'P25870'
p4535
I01
sS'Q55DM1'
p4536
I01
stbaa(lp4537
S'GO:0006898'
p4538
ag5
(g6
g7
NtRp4539
((dp4540
S'P25870'
p4541
I01
sS'Q8MN58'
p4542
I01
stbaa(lp4543
S'GO:0006970'
p4544
ag5
(g6
g7
NtRp4545
((dp4546
S'Q9GPM2'
p4547
I01
sS'Q03101'
p4548
I01
sS'P54637'
p4549
I01
sS'Q9NIV0'
p4550
I01
sS'P25870'
p4551
I01
sS'Q54BD4'
p4552
I01
sS'Q23917'
p4553
I01
sS'P54681'
p4554
I01
sS'Q86JF2'
p4555
I01
sS'Q86AT8'
p4556
I01
sS'Q54WJ0'
p4557
I01
stbaa(lp4558
S'GO:0007033'
p4559
ag5
(g6
g7
NtRp4560
((dp4561
S'P25870'
p4562
I01
stbaa(lp4563
S'GO:0007041'
p4564
ag5
(g6
g7
NtRp4565
((dp4566
S'Q54HS9'
p4567
I01
sS'P25870'
p4568
I01
sS'Q55DM1'
p4569
I01
sS'Q86JF2'
p4570
I01
stbaa(lp4571
S'GO:0048268'
p4572
ag5
(g6
g7
NtRp4573
((dp4574
S'P25870'
p4575
I01
sS'Q8MN58'
p4576
I01
stbaa(lp4577
S'GO:0042989'
p4578
ag5
(g6
g7
NtRp4579
((dp4580
S'P26199'
p4581
I01
sS'P26200'
p4582
I01
stbaa(lp4583
S'GO:0006383'
p4584
ag5
(g6
g7
NtRp4585
((dp4586
S'Q54U85'
p4587
I01
sS'P26355'
p4588
I01
stbaa(lp4589
S'GO:0007015'
p4590
ag5
(g6
g7
NtRp4591
((dp4592
S'Q86I44'
p4593
I01
sS'P32254'
p4594
I01
sS'Q5TJ65'
p4595
I01
sS'P27133'
p4596
I01
sS'Q54T86'
p4597
I01
sS'Q03100'
p4598
I01
sS'Q8T9S7'
p4599
I01
sS'Q8IS21'
p4600
I01
sS'Q9NHF6'
p4601
I01
sS'Q94464'
p4602
I01
sS'Q8I7T3'
p4603
I01
sS'Q54QQ1'
p4604
I01
stbaa(lp4605
S'GO:0051126'
p4606
ag5
(g6
g7
NtRp4607
((dp4608
S'P27133'
p4609
I01
stbaa(lp4610
S'GO:0006177'
p4611
ag5
(g6
g7
NtRp4612
((dp4613
S'P32073'
p4614
I01
stbaa(lp4615
S'GO:0042127'
p4616
ag5
(g6
g7
NtRp4617
((dp4618
S'P32252'
p4619
I01
sS'Q70GP4'
p4620
I01
sS'P32254'
p4621
I01
stbaa(lp4622
S'GO:0045806'
p4623
ag5
(g6
g7
NtRp4624
((dp4625
S'P32252'
p4626
I01
stbaa(lp4627
S'GO:0051270'
p4628
ag5
(g6
g7
NtRp4629
((dp4630
S'P32252'
p4631
I01
sS'Q55CS7'
p4632
I01
sS'Q55CK2'
p4633
I01
sS'Q75J96'
p4634
I01
sS'Q54GD0'
p4635
I01
stbaa(lp4636
S'GO:0051726'
p4637
ag5
(g6
g7
NtRp4638
((dp4639
S'P32252'
p4640
I01
sS'P54681'
p4641
I01
sS'Q55AX2'
p4642
I01
stbaa(lp4643
S'GO:0001558'
p4644
ag5
(g6
g7
NtRp4645
((dp4646
S'P32253'
p4647
I01
stbaa(lp4648
S'GO:0031276'
p4649
ag5
(g6
g7
NtRp4650
((dp4651
S'P32253'
p4652
I01
sS'Q54RV9'
p4653
I01
sS'Q551V8'
p4654
I01
sS'Q553Y7'
p4655
I01
sS'Q23917'
p4656
I01
sS'Q55E54'
p4657
I01
stbaa(lp4658
S'GO:0043406'
p4659
ag5
(g6
g7
NtRp4660
((dp4661
S'P32253'
p4662
I01
stbaa(lp4663
S'GO:0043491'
p4664
ag5
(g6
g7
NtRp4665
((dp4666
S'P32253'
p4667
I01
stbaa(lp4668
S'GO:0051491'
p4669
ag5
(g6
g7
NtRp4670
((dp4671
S'P32253'
p4672
I01
stbaa(lp4673
S'GO:0045807'
p4674
ag5
(g6
g7
NtRp4675
((dp4676
S'Q8IS21'
p4677
I01
sS'P32254'
p4678
I01
stbaa(lp4679
S'GO:0050766'
p4680
ag5
(g6
g7
NtRp4681
((dp4682
S'Q86D86'
p4683
I01
sS'Q86I44'
p4684
I01
sS'P32254'
p4685
I01
sS'P34142'
p4686
I01
sS'Q1ZXQ4'
p4687
I01
sS'Q8IS21'
p4688
I01
sS'Q8MQU6'
p4689
I01
sS'Q869N2'
p4690
I01
sS'Q9XXV8'
p4691
I01
sS'Q54VB2'
p4692
I01
stbaa(lp4693
S'GO:0051271'
p4694
ag5
(g6
g7
NtRp4695
((dp4696
S'Q8IS21'
p4697
I01
sS'P32254'
p4698
I01
stbaa(lp4699
S'GO:0007059'
p4700
ag5
(g6
g7
NtRp4701
((dp4702
S'Q55GF9'
p4703
I01
sS'P51136'
p4704
I01
sS'P32255'
p4705
I01
stbaa(lp4706
S'GO:0006200'
p4707
ag5
(g6
g7
NtRp4708
((dp4709
S'P34036'
p4710
I01
sS'P42527'
p4711
I01
sS'Q54UC9'
p4712
I01
sS'Q9TW28'
p4713
I01
stbaa(lp4714
S'GO:0031122'
p4715
ag5
(g6
g7
NtRp4716
((dp4717
S'Q6S002'
p4718
I01
sS'Q6S003'
p4719
I01
sS'P34036'
p4720
I01
stbaa(lp4721
S'GO:0090307'
p4722
ag5
(g6
g7
NtRp4723
((dp4724
S'P34036'
p4725
I01
sS'Q54NP8'
p4726
I01
sS'Q54G01'
p4727
I01
stbaa(lp4728
S'GO:0007214'
p4729
ag5
(g6
g7
NtRp4730
((dp4731
S'P34045'
p4732
I01
sS'Q54ET0'
p4733
I01
stbaa(lp4734
S'GO:0044655'
p4735
ag5
(g6
g7
NtRp4736
((dp4737
S'Q552E2'
p4738
I01
sS'Q54IR8'
p4739
I01
sS'P34092'
p4740
I01
sS'Q55FU3'
p4741
I01
sS'Q54CK9'
p4742
I01
sS'Q54R74'
p4743
I01
stbaa(lp4744
S'GO:0044656'
p4745
ag5
(g6
g7
NtRp4746
((dp4747
S'P34092'
p4748
I01
sS'Q94464'
p4749
I01
stbaa(lp4750
S'GO:0042173'
p4751
ag5
(g6
g7
NtRp4752
((dp4753
S'P34099'
p4754
I01
stbaa(lp4755
S'GO:0005980'
p4756
ag5
(g6
g7
NtRp4757
((dp4758
S'P34114'
p4759
I01
sS'Q00766'
p4760
I01
stbaa(lp4761
S'GO:0006508'
p4762
ag5
(g6
g7
NtRp4763
((dp4764
S'Q55G04'
p4765
I01
sS'Q54QR2'
p4766
I01
sS'Q54BC8'
p4767
I01
sS'Q9GTN7'
p4768
I01
sS'Q86A21'
p4769
I01
sS'Q27563'
p4770
I01
sS'Q27562'
p4771
I01
sS'Q23868'
p4772
I01
sS'P34120'
p4773
I01
sS'Q55D66'
p4774
I01
sS'Q54DM7'
p4775
I01
sS'Q86I79'
p4776
I01
sS'Q65YR7'
p4777
I01
sS'P34119'
p4778
I01
sS'Q54TR1'
p4779
I01
sS'Q65YR8'
p4780
I01
sS'Q55GJ6'
p4781
I01
sS'Q5R1U3'
p4782
I01
sS'Q54XM7'
p4783
I01
sS'Q86AS5'
p4784
I01
sS'Q55DY7'
p4785
I01
sS'P54683'
p4786
I01
sS'Q556Q0'
p4787
I01
stbaa(lp4788
S'GO:0007205'
p4789
ag5
(g6
g7
NtRp4790
((dp4791
S'P34125'
p4792
I01
stbaa(lp4793
S'GO:0035556'
p4794
ag5
(g6
g7
NtRp4795
((dp4796
S'Q557E7'
p4797
I01
sS'P34125'
p4798
I01
sS'Q869S5'
p4799
I01
sS'P54637'
p4800
I01
stbaa(lp4801
S'GO:0050926'
p4802
ag5
(g6
g7
NtRp4803
((dp4804
S'P34125'
p4805
I01
stbaa(lp4806
S'GO:0000122'
p4807
ag5
(g6
g7
NtRp4808
((dp4809
S'Q54FX2'
p4810
I01
sS'P34127'
p4811
I01
stbaa(lp4812
S'GO:0035335'
p4813
ag5
(g6
g7
NtRp4814
((dp4815
S'Q54QM6'
p4816
I01
sS'P34138'
p4817
I01
stbaa(lp4818
S'GO:0016601'
p4819
ag5
(g6
g7
NtRp4820
((dp4821
S'P34144'
p4822
I01
stbaa(lp4823
S'GO:0008360'
p4824
ag5
(g6
g7
NtRp4825
((dp4826
S'P34145'
p4827
I01
sS'Q03100'
p4828
I01
stbaa(lp4829
S'GO:0014065'
p4830
ag5
(g6
g7
NtRp4831
((dp4832
S'P34149'
p4833
I01
stbaa(lp4834
S'GO:0045184'
p4835
ag5
(g6
g7
NtRp4836
((dp4837
S'Q02158'
p4838
I01
sS'Q550R2'
p4839
I01
sS'P34149'
p4840
I01
sS'Q54HG2'
p4841
I01
sS'Q55FT9'
p4842
I01
sS'Q54ER9'
p4843
I01
stbaa(lp4844
S'GO:0008064'
p4845
ag5
(g6
g7
NtRp4846
((dp4847
S'Q54NF8'
p4848
I01
sS'Q55FT9'
p4849
I01
sS'Q869Q3'
p4850
I01
sS'Q54X65'
p4851
I01
sS'P35401'
p4852
I01
stbaa(lp4853
S'GO:0048015'
p4854
ag5
(g6
g7
NtRp4855
((dp4856
S'P54644'
p4857
I01
sS'Q8T9S7'
p4858
I01
sS'P54673'
p4859
I01
sS'P35401'
p4860
I01
stbaa(lp4861
S'GO:0030826'
p4862
ag5
(g6
g7
NtRp4863
((dp4864
S'P36408'
p4865
I01
stbaa(lp4866
S'GO:0032320'
p4867
ag5
(g6
g7
NtRp4868
((dp4869
S'Q54K32'
p4870
I01
sS'P36408'
p4871
I01
stbaa(lp4872
S'GO:0007231'
p4873
ag5
(g6
g7
NtRp4874
((dp4875
S'P36412'
p4876
I01
stbaa(lp4877
S'GO:0007264'
p4878
ag5
(g6
g7
NtRp4879
((dp4880
S'P36412'
p4881
I01
sS'Q8SSS9'
p4882
I01
stbaa(lp4883
S'GO:0034394'
p4884
ag5
(g6
g7
NtRp4885
((dp4886
S'P36412'
p4887
I01
sS'Q55FP0'
p4888
I01
sS'Q8I7T3'
p4889
I01
stbaa(lp4890
S'GO:0006357'
p4891
ag5
(g6
g7
NtRp4892
((dp4893
S'Q54TY7'
p4894
I01
sS'Q54NI7'
p4895
I01
sS'P36417'
p4896
I01
stbaa(lp4897
S'GO:0048102'
p4898
ag5
(g6
g7
NtRp4899
((dp4900
S'Q9GPM2'
p4901
I01
sS'Q9U720'
p4902
I01
sS'Q54SK5'
p4903
I01
sS'Q54K81'
p4904
I01
sS'P36417'
p4905
I01
sS'Q9NA13'
p4906
I01
sS'Q86CS2'
p4907
I01
stbaa(lp4908
S'GO:0006104'
p4909
ag5
(g6
g7
NtRp4910
((dp4911
S'P36967'
p4912
I01
stbaa(lp4913
S'GO:0006260'
p4914
ag5
(g6
g7
NtRp4915
((dp4916
S'P42521'
p4917
I01
stbaa(lp4918
S'GO:0000165'
p4919
ag5
(g6
g7
NtRp4920
((dp4921
S'Q55CL6'
p4922
I01
sS'Q54R82'
p4923
I01
sS'P42525'
p4924
I01
stbaa(lp4925
S'GO:0018107'
p4926
ag5
(g6
g7
NtRp4927
((dp4928
S'Q6B9X6'
p4929
I01
sS'Q8MY12'
p4930
I01
sS'P42527'
p4931
I01
sS'P90648'
p4932
I01
sS'P51136'
p4933
I01
stbaa(lp4934
S'GO:0031037'
p4935
ag5
(g6
g7
NtRp4936
((dp4937
S'Q551V8'
p4938
I01
sS'Q8MY12'
p4939
I01
sS'P42527'
p4940
I01
sS'P90648'
p4941
I01
sS'Q54SF9'
p4942
I01
sS'Q553Y7'
p4943
I01
stbaa(lp4944
S'GO:0006412'
p4945
ag5
(g6
g7
NtRp4946
((dp4947
S'Q54UG4'
p4948
I01
sS'P48160'
p4949
I01
sS'Q54JV1'
p4950
I01
stbaa(lp4951
S'GO:0030155'
p4952
ag5
(g6
g7
NtRp4953
((dp4954
S'P51136'
p4955
I01
stbaa(lp4956
S'GO:0046827'
p4957
ag5
(g6
g7
NtRp4958
((dp4959
S'P51136'
p4960
I01
stbaa(lp4961
S'GO:0051231'
p4962
ag5
(g6
g7
NtRp4963
((dp4964
S'Q6RZZ9'
p4965
I01
sS'P51136'
p4966
I01
stbaa(lp4967
S'GO:0060176'
p4968
ag5
(g6
g7
NtRp4969
((dp4970
S'P51136'
p4971
I01
sS'Q76P24'
p4972
I01
sS'Q75JK0'
p4973
I01
sS'Q55FT4'
p4974
I01
sS'Q95YH0'
p4975
I01
sS'Q558K8'
p4976
I01
sS'Q86KE7'
p4977
I01
stbaa(lp4978
S'GO:0061118'
p4979
ag5
(g6
g7
NtRp4980
((dp4981
S'Q552S0'
p4982
I01
sS'Q75JK0'
p4983
I01
sS'P51136'
p4984
I01
stbaa(lp4985
S'GO:0006284'
p4986
ag5
(g6
g7
NtRp4987
((dp4988
S'P51173'
p4989
I01
stbaa(lp4990
S'GO:0016567'
p4991
ag5
(g6
g7
NtRp4992
((dp4993
S'Q94490'
p4994
I01
sS'Q557E4'
p4995
I01
sS'Q557I6'
p4996
I01
sS'P52285'
p4997
I01
sS'Q9Y0T2'
p4998
I01
stbaa(lp4999
S'GO:0000226'
p5000
ag5
(g6
g7
NtRp5001
((dp5002
S'Q1ZXQ8'
p5003
I01
sS'Q54XP9'
p5004
I01
sS'P54632'
p5005
I01
stbaa(lp5006
S'GO:0030865'
p5007
ag5
(g6
g7
NtRp5008
((dp5009
S'Q23862'
p5010
I01
sS'P54632'
p5011
I01
stbaa(lp5012
S'GO:0032467'
p5013
ag5
(g6
g7
NtRp5014
((dp5015
S'Q55D99'
p5016
I01
sS'Q23862'
p5017
I01
sS'P54632'
p5018
I01
stbaa(lp5019
S'GO:0036090'
p5020
ag5
(g6
g7
NtRp5021
((dp5022
S'P54632'
p5023
I01
stbaa(lp5024
S'GO:0016311'
p5025
ag5
(g6
g7
NtRp5026
((dp5027
S'Q55CS7'
p5028
I01
sS'P54637'
p5029
I01
sS'Q54JL7'
p5030
I01
stbaa(lp5031
S'GO:0034504'
p5032
ag5
(g6
g7
NtRp5033
((dp5034
S'Q558K8'
p5035
I01
sS'P54637'
p5036
I01
stbaa(lp5037
S'GO:0042501'
p5038
ag5
(g6
g7
NtRp5039
((dp5040
S'P54637'
p5041
I01
stbaa(lp5042
S'GO:0006816'
p5043
ag5
(g6
g7
NtRp5044
((dp5045
S'P54678'
p5046
I01
sS'Q54WZ6'
p5047
I01
sS'Q9NA13'
p5048
I01
sS'P54642'
p5049
I01
stbaa(lp5050
S'GO:0031036'
p5051
ag5
(g6
g7
NtRp5052
((dp5053
S'P54644'
p5054
I01
stbaa(lp5055
S'GO:0045859'
p5056
ag5
(g6
g7
NtRp5057
((dp5058
S'Q03101'
p5059
I01
sS'P54644'
p5060
I01
stbaa(lp5061
S'GO:0007016'
p5062
ag5
(g6
g7
NtRp5063
((dp5064
S'P54660'
p5065
I01
stbaa(lp5066
S'GO:0032114'
p5067
ag5
(g6
g7
NtRp5068
((dp5069
S'Q86IV5'
p5070
I01
sS'P54661'
p5071
I01
stbaa(lp5072
S'GO:0042593'
p5073
ag5
(g6
g7
NtRp5074
((dp5075
S'Q556R7'
p5076
I01
sS'Q86IV5'
p5077
I01
sS'Q86HE5'
p5078
I01
sS'P54661'
p5079
I01
sS'Q6IMN8'
p5080
I01
stbaa(lp5081
S'GO:0022604'
p5082
ag5
(g6
g7
NtRp5083
((dp5084
S'Q8T9S7'
p5085
I01
sS'P54673'
p5086
I01
sS'P54674'
p5087
I01
stbaa(lp5088
S'GO:0045761'
p5089
ag5
(g6
g7
NtRp5090
((dp5091
S'Q8T9S7'
p5092
I01
sS'P54673'
p5093
I01
sS'P54674'
p5094
I01
stbaa(lp5095
S'GO:0050919'
p5096
ag5
(g6
g7
NtRp5097
((dp5098
S'Q8T9S7'
p5099
I01
sS'P54673'
p5100
I01
sS'P54674'
p5101
I01
stbaa(lp5102
S'GO:0051591'
p5103
ag5
(g6
g7
NtRp5104
((dp5105
S'P54673'
p5106
I01
sS'P54674'
p5107
I01
sS'Q86AD8'
p5108
I01
sS'Q75J96'
p5109
I01
stbaa(lp5110
S'GO:0036092'
p5111
ag5
(g6
g7
NtRp5112
((dp5113
S'P54675'
p5114
I01
stbaa(lp5115
S'GO:0015992'
p5116
ag5
(g6
g7
NtRp5117
((dp5118
S'P54679'
p5119
I01
stbaa(lp5120
S'GO:0006885'
p5121
ag5
(g6
g7
NtRp5122
((dp5123
S'P54681'
p5124
I01
stbaa(lp5125
S'GO:0006906'
p5126
ag5
(g6
g7
NtRp5127
((dp5128
S'Q54JY7'
p5129
I01
sS'Q86AQ7'
p5130
I01
sS'P54681'
p5131
I01
sS'Q54NW7'
p5132
I01
sS'Q553P5'
p5133
I01
sS'Q54CK6'
p5134
I01
stbaa(lp5135
S'GO:0045595'
p5136
ag5
(g6
g7
NtRp5137
((dp5138
S'Q9Y0T2'
p5139
I01
sS'Q8T638'
p5140
I01
sS'Q54F46'
p5141
I01
sS'Q550D5'
p5142
I01
sS'P54681'
p5143
I01
sS'Q9GTN7'
p5144
I01
sS'P54683'
p5145
I01
sS'Q54MY9'
p5146
I01
sS'Q54XG7'
p5147
I01
stbaa(lp5148
S'GO:0048388'
p5149
ag5
(g6
g7
NtRp5150
((dp5151
S'P54681'
p5152
I01
sS'Q8ST66'
p5153
I01
sS'Q9GPR7'
p5154
I01
sS'Q9NGP5'
p5155
I01
stbaa(lp5156
S'GO:0061025'
p5157
ag5
(g6
g7
NtRp5158
((dp5159
S'P54681'
p5160
I01
stbaa(lp5161
S'GO:0006810'
p5162
ag5
(g6
g7
NtRp5163
((dp5164
S'Q8T675'
p5165
I01
sS'Q8T690'
p5166
I01
sS'Q55BC0'
p5167
I01
sS'Q9GTN7'
p5168
I01
sS'Q9NGP5'
p5169
I01
sS'Q54CG0'
p5170
I01
sS'Q54R52'
p5171
I01
sS'Q54LE6'
p5172
I01
sS'Q8T9W1'
p5173
I01
sS'Q8T663'
p5174
I01
sS'Q8T662'
p5175
I01
sS'Q23868'
p5176
I01
sS'Q8T664'
p5177
I01
sS'Q86HQ2'
p5178
I01
sS'Q8T8P3'
p5179
I01
sS'Q8T5Z7'
p5180
I01
sS'Q54W20'
p5181
I01
sS'Q8T6B8'
p5182
I01
sS'Q8T9W2'
p5183
I01
sS'Q54W24'
p5184
I01
sS'Q8T665'
p5185
I01
sS'Q55DQ2'
p5186
I01
sS'Q8T6J0'
p5187
I01
sS'Q55DR1'
p5188
I01
sS'Q8T689'
p5189
I01
sS'Q8T686'
p5190
I01
sS'Q8T685'
p5191
I01
sS'Q54HM0'
p5192
I01
sS'Q8T683'
p5193
I01
sS'Q54BU4'
p5194
I01
sS'Q54EK2'
p5195
I01
sS'Q8T6J5'
p5196
I01
sS'Q54IX6'
p5197
I01
sS'Q54VJ0'
p5198
I01
sS'Q8ST87'
p5199
I01
sS'Q54V86'
p5200
I01
sS'Q8T673'
p5201
I01
sS'Q54DT1'
p5202
I01
sS'Q8T674'
p5203
I01
sS'Q54BT3'
p5204
I01
sS'Q54TV2'
p5205
I01
sS'Q8T6B4'
p5206
I01
sS'Q54JR2'
p5207
I01
sS'Q54TV1'
p5208
I01
sS'Q55GB1'
p5209
I01
sS'Q8T9W4'
p5210
I01
sS'Q86M88'
p5211
I01
sS'Q54NL1'
p5212
I01
sS'Q8ST66'
p5213
I01
sS'Q8T6J1'
p5214
I01
sS'Q54W19'
p5215
I01
sS'Q8T6H8'
p5216
I01
sS'Q8T6J2'
p5217
I01
sS'Q8T6H3'
p5218
I01
sS'Q556W2'
p5219
I01
sS'Q555Z5'
p5220
I01
sS'Q54P13'
p5221
I01
sS'Q54U44'
p5222
I01
sS'P54683'
p5223
I01
sS'Q553P5'
p5224
I01
sS'Q54K24'
p5225
I01
sS'Q552P3'
p5226
I01
sS'Q55DW4'
p5227
I01
sS'Q54BT5'
p5228
I01
stbaa(lp5229
S'GO:0006265'
p5230
ag5
(g6
g7
NtRp5231
((dp5232
S'P90520'
p5233
I01
stbaa(lp5234
S'GO:0006002'
p5235
ag5
(g6
g7
NtRp5236
((dp5237
S'P90521'
p5238
I01
stbaa(lp5239
S'GO:0006007'
p5240
ag5
(g6
g7
NtRp5241
((dp5242
S'Q54ND5'
p5243
I01
sS'P90521'
p5244
I01
stbaa(lp5245
S'GO:0031115'
p5246
ag5
(g6
g7
NtRp5247
((dp5248
S'P90521'
p5249
I01
stbaa(lp5250
S'GO:0034765'
p5251
ag5
(g6
g7
NtRp5252
((dp5253
S'Q01501'
p5254
I01
stbaa(lp5255
S'GO:0032959'
p5256
ag5
(g6
g7
NtRp5257
((dp5258
S'Q02158'
p5259
I01
stbaa(lp5260
S'GO:0050922'
p5261
ag5
(g6
g7
NtRp5262
((dp5263
S'Q02158'
p5264
I01
sS'Q5TJ65'
p5265
I01
stbaa(lp5266
S'GO:0006171'
p5267
ag5
(g6
g7
NtRp5268
((dp5269
S'Q03101'
p5270
I01
sS'Q03100'
p5271
I01
sS'Q55F68'
p5272
I01
stbaa(lp5273
S'GO:0031000'
p5274
ag5
(g6
g7
NtRp5275
((dp5276
S'Q03100'
p5277
I01
sS'Q54XY1'
p5278
I01
sS'Q86H13'
p5279
I01
stbaa(lp5280
S'GO:0031275'
p5281
ag5
(g6
g7
NtRp5282
((dp5283
S'Q03100'
p5284
I01
sS'Q54S40'
p5285
I01
stbaa(lp5286
S'GO:0051645'
p5287
ag5
(g6
g7
NtRp5288
((dp5289
S'Q54MH2'
p5290
I01
sS'Q8I0F4'
p5291
I01
sS'Q54G01'
p5292
I01
sS'Q03380'
p5293
I01
sS'Q54I71'
p5294
I01
stbaa(lp5295
S'GO:0042244'
p5296
ag5
(g6
g7
NtRp5297
((dp5298
S'Q54TY7'
p5299
I01
sS'Q9NAX4'
p5300
I01
sS'Q1ZXE9'
p5301
I01
sS'Q9U720'
p5302
I01
stbaa(lp5303
S'GO:0046656'
p5304
ag5
(g6
g7
NtRp5305
((dp5306
S'Q1ZXI0'
p5307
I01
stbaa(lp5308
S'GO:0001676'
p5309
ag5
(g6
g7
NtRp5310
((dp5311
S'Q55DR6'
p5312
I01
sS'Q1ZXQ4'
p5313
I01
stbaa(lp5314
S'GO:0006631'
p5315
ag5
(g6
g7
NtRp5316
((dp5317
S'Q55DR6'
p5318
I01
sS'Q1ZXQ4'
p5319
I01
stbaa(lp5320
S'GO:0007030'
p5321
ag5
(g6
g7
NtRp5322
((dp5323
S'Q1ZXQ8'
p5324
I01
sS'Q54NL4'
p5325
I01
stbaa(lp5326
S'GO:0046785'
p5327
ag5
(g6
g7
NtRp5328
((dp5329
S'Q1ZXQ8'
p5330
I01
stbaa(lp5331
S'GO:0051298'
p5332
ag5
(g6
g7
NtRp5333
((dp5334
S'Q1ZXQ8'
p5335
I01
stbaa(lp5336
S'GO:0006911'
p5337
ag5
(g6
g7
NtRp5338
((dp5339
S'Q23858'
p5340
I01
sS'Q55BA8'
p5341
I01
sS'Q9XXV8'
p5342
I01
sS'Q54E04'
p5343
I01
sS'Q8I7P3'
p5344
I01
stbaa(lp5345
S'GO:0072697'
p5346
ag5
(g6
g7
NtRp5347
((dp5348
S'Q23862'
p5349
I01
stbaa(lp5350
S'GO:0046058'
p5351
ag5
(g6
g7
NtRp5352
((dp5353
S'Q23917'
p5354
I01
stbaa(lp5355
S'GO:0051279'
p5356
ag5
(g6
g7
NtRp5357
((dp5358
S'Q23917'
p5359
I01
stbaa(lp5360
S'GO:0051281'
p5361
ag5
(g6
g7
NtRp5362
((dp5363
S'Q23917'
p5364
I01
stbaa(lp5365
S'GO:0006139'
p5366
ag5
(g6
g7
NtRp5367
((dp5368
S'Q54YL2'
p5369
I01
sS'Q27564'
p5370
I01
stbaa(lp5371
S'GO:0008033'
p5372
ag5
(g6
g7
NtRp5373
((dp5374
S'Q54W23'
p5375
I01
sS'Q3ZE13'
p5376
I01
sS'Q54HY6'
p5377
I01
stbaa(lp5378
S'GO:0006627'
p5379
ag5
(g6
g7
NtRp5380
((dp5381
S'Q4W6B5'
p5382
I01
sS'Q86A84'
p5383
I01
stbaa(lp5384
S'GO:0031930'
p5385
ag5
(g6
g7
NtRp5386
((dp5387
S'Q4W6B5'
p5388
I01
stbaa(lp5389
S'GO:0019438'
p5390
ag5
(g6
g7
NtRp5391
((dp5392
S'Q54B59'
p5393
I01
stbaa(lp5394
S'GO:0009408'
p5395
ag5
(g6
g7
NtRp5396
((dp5397
S'Q54J97'
p5398
I01
sS'Q54BD4'
p5399
I01
sS'Q9Y1W0'
p5400
I01
stbaa(lp5401
S'GO:0043157'
p5402
ag5
(g6
g7
NtRp5403
((dp5404
S'Q7Z1I0'
p5405
I01
sS'Q7YSW8'
p5406
I01
sS'Q54BD4'
p5407
I01
sS'Q54BF5'
p5408
I01
sS'Q7Z202'
p5409
I01
sS'Q7Z203'
p5410
I01
sS'Q7Z1Z9'
p5411
I01
sS'Q55FW5'
p5412
I01
sS'Q55G87'
p5413
I01
stbaa(lp5414
S'GO:0047484'
p5415
ag5
(g6
g7
NtRp5416
((dp5417
S'Q54BD4'
p5418
I01
stbaa(lp5419
S'GO:0006797'
p5420
ag5
(g6
g7
NtRp5421
((dp5422
S'Q54BM7'
p5423
I01
stbaa(lp5424
S'GO:0006799'
p5425
ag5
(g6
g7
NtRp5426
((dp5427
S'Q54BM7'
p5428
I01
stbaa(lp5429
S'GO:0007109'
p5430
ag5
(g6
g7
NtRp5431
((dp5432
S'Q76P24'
p5433
I01
sS'Q8MML5'
p5434
I01
sS'Q54BM7'
p5435
I01
stbaa(lp5436
S'GO:0006303'
p5437
ag5
(g6
g7
NtRp5438
((dp5439
S'Q54U78'
p5440
I01
sS'Q54LY5'
p5441
I01
sS'Q54MA9'
p5442
I01
sS'Q54BN2'
p5443
I01
sS'Q54CS9'
p5444
I01
stbaa(lp5445
S'GO:0009306'
p5446
ag5
(g6
g7
NtRp5447
((dp5448
S'Q75JI3'
p5449
I01
sS'Q54MH2'
p5450
I01
sS'Q54C46'
p5451
I01
sS'Q54I71'
p5452
I01
stbaa(lp5453
S'GO:0048870'
p5454
ag5
(g6
g7
NtRp5455
((dp5456
S'Q54EW0'
p5457
I01
sS'Q54WI0'
p5458
I01
sS'Q54CA8'
p5459
I01
sS'Q54K81'
p5460
I01
sS'Q54YW1'
p5461
I01
sS'Q8MML5'
p5462
I01
sS'Q86KG9'
p5463
I01
sS'Q54K32'
p5464
I01
stbaa(lp5465
S'GO:0034625'
p5466
ag5
(g6
g7
NtRp5467
((dp5468
S'Q54CJ4'
p5469
I01
stbaa(lp5470
S'GO:0000012'
p5471
ag5
(g6
g7
NtRp5472
((dp5473
S'Q54CR9'
p5474
I01
stbaa(lp5475
S'GO:0001709'
p5476
ag5
(g6
g7
NtRp5477
((dp5478
S'Q54D84'
p5479
I01
stbaa(lp5480
S'GO:0016338'
p5481
ag5
(g6
g7
NtRp5482
((dp5483
S'Q555X4'
p5484
I01
sS'Q54D84'
p5485
I01
stbaa(lp5486
S'GO:0045165'
p5487
ag5
(g6
g7
NtRp5488
((dp5489
S'Q54FX2'
p5490
I01
sS'Q54NU5'
p5491
I01
sS'Q54D84'
p5492
I01
stbaa(lp5493
S'GO:0046855'
p5494
ag5
(g6
g7
NtRp5495
((dp5496
S'Q54D97'
p5497
I01
sS'Q8I7P3'
p5498
I01
sS'Q54W40'
p5499
I01
sS'Q86IG3'
p5500
I01
sS'Q54PV1'
p5501
I01
stbaa(lp5502
S'GO:0046856'
p5503
ag5
(g6
g7
NtRp5504
((dp5505
S'Q54D97'
p5506
I01
sS'Q8I7P3'
p5507
I01
sS'Q8T9S7'
p5508
I01
sS'Q54PV1'
p5509
I01
stbaa(lp5510
S'GO:0009167'
p5511
ag5
(g6
g7
NtRp5512
((dp5513
S'Q54DD0'
p5514
I01
stbaa(lp5515
S'GO:0031684'
p5516
ag5
(g6
g7
NtRp5517
((dp5518
S'Q54DU0'
p5519
I01
stbaa(lp5520
S'GO:0046579'
p5521
ag5
(g6
g7
NtRp5522
((dp5523
S'Q54DU0'
p5524
I01
sS'Q8MVR1'
p5525
I01
stbaa(lp5526
S'GO:0061077'
p5527
ag5
(g6
g7
NtRp5528
((dp5529
S'Q54DU0'
p5530
I01
stbaa(lp5531
S'GO:0051453'
p5532
ag5
(g6
g7
NtRp5533
((dp5534
S'Q552S0'
p5535
I01
sS'Q54E04'
p5536
I01
stbaa(lp5537
S'GO:0035304'
p5538
ag5
(g6
g7
NtRp5539
((dp5540
S'Q54EH1'
p5541
I01
stbaa(lp5542
S'GO:0040011'
p5543
ag5
(g6
g7
NtRp5544
((dp5545
S'Q94491'
p5546
I01
sS'Q54QT7'
p5547
I01
sS'Q54NA3'
p5548
I01
sS'Q54K81'
p5549
I01
sS'Q54TY7'
p5550
I01
sS'Q8MML5'
p5551
I01
sS'Q54ER9'
p5552
I01
sS'Q54RV9'
p5553
I01
stbaa(lp5554
S'GO:0071285'
p5555
ag5
(g6
g7
NtRp5556
((dp5557
S'Q54ET8'
p5558
I01
stbaa(lp5559
S'GO:0010812'
p5560
ag5
(g6
g7
NtRp5561
((dp5562
S'Q54EW0'
p5563
I01
stbaa(lp5564
S'GO:0022408'
p5565
ag5
(g6
g7
NtRp5566
((dp5567
S'Q54EW0'
p5568
I01
stbaa(lp5569
S'GO:0006086'
p5570
ag5
(g6
g7
NtRp5571
((dp5572
S'Q54EW8'
p5573
I01
stbaa(lp5574
S'GO:0006546'
p5575
ag5
(g6
g7
NtRp5576
((dp5577
S'Q54EW8'
p5578
I01
stbaa(lp5579
S'GO:0006550'
p5580
ag5
(g6
g7
NtRp5581
((dp5582
S'Q54EW8'
p5583
I01
stbaa(lp5584
S'GO:0006552'
p5585
ag5
(g6
g7
NtRp5586
((dp5587
S'Q54EW8'
p5588
I01
stbaa(lp5589
S'GO:0006564'
p5590
ag5
(g6
g7
NtRp5591
((dp5592
S'Q54EW8'
p5593
I01
stbaa(lp5594
S'GO:0006574'
p5595
ag5
(g6
g7
NtRp5596
((dp5597
S'Q54EW8'
p5598
I01
stbaa(lp5599
S'GO:0001845'
p5600
ag5
(g6
g7
NtRp5601
((dp5602
S'Q54EY0'
p5603
I01
sS'Q86JF2'
p5604
I01
sS'Q54TA1'
p5605
I01
stbaa(lp5606
S'GO:0017157'
p5607
ag5
(g6
g7
NtRp5608
((dp5609
S'Q54EY0'
p5610
I01
stbaa(lp5611
S'GO:0006446'
p5612
ag5
(g6
g7
NtRp5613
((dp5614
S'Q54EY2'
p5615
I01
sS'Q558U1'
p5616
I01
sS'Q869N9'
p5617
I01
stbaa(lp5618
S'GO:0042554'
p5619
ag5
(g6
g7
NtRp5620
((dp5621
S'Q54F44'
p5622
I01
sS'Q9XYS3'
p5623
I01
sS'Q86GL4'
p5624
I01
stbaa(lp5625
S'GO:0030336'
p5626
ag5
(g6
g7
NtRp5627
((dp5628
S'Q54F87'
p5629
I01
stbaa(lp5630
S'GO:0033058'
p5631
ag5
(g6
g7
NtRp5632
((dp5633
S'Q54F87'
p5634
I01
stbaa(lp5635
S'GO:0030639'
p5636
ag5
(g6
g7
NtRp5637
((dp5638
S'Q55E72'
p5639
I01
sS'Q54FI3'
p5640
I01
stbaa(lp5641
S'GO:0031148'
p5642
ag5
(g6
g7
NtRp5643
((dp5644
S'Q54FI3'
p5645
I01
sS'Q54FI4'
p5646
I01
sS'Q8T638'
p5647
I01
stbaa(lp5648
S'GO:0010824'
p5649
ag5
(g6
g7
NtRp5650
((dp5651
S'Q54G01'
p5652
I01
sS'Q54X77'
p5653
I01
stbaa(lp5654
S'GO:0071988'
p5655
ag5
(g6
g7
NtRp5656
((dp5657
S'Q54G01'
p5658
I01
stbaa(lp5659
S'GO:0006355'
p5660
ag5
(g6
g7
NtRp5661
((dp5662
S'Q54TN2'
p5663
I01
sS'Q54PN9'
p5664
I01
sS'Q54G53'
p5665
I01
sS'Q550D5'
p5666
I01
sS'Q554C5'
p5667
I01
sS'Q55BN0'
p5668
I01
sS'Q54XG7'
p5669
I01
sS'Q54RY6'
p5670
I01
sS'Q86KE7'
p5671
I01
stbaa(lp5672
S'GO:0009396'
p5673
ag5
(g6
g7
NtRp5674
((dp5675
S'Q54G53'
p5676
I01
stbaa(lp5677
S'GO:0051490'
p5678
ag5
(g6
g7
NtRp5679
((dp5680
S'Q55CK2'
p5681
I01
sS'Q54GD0'
p5682
I01
stbaa(lp5683
S'GO:0006729'
p5684
ag5
(g6
g7
NtRp5685
((dp5686
S'Q54GP3'
p5687
I01
sS'Q94465'
p5688
I01
sS'Q86A17'
p5689
I01
sS'Q54LA0'
p5690
I01
stbaa(lp5691
S'GO:0042559'
p5692
ag5
(g6
g7
NtRp5693
((dp5694
S'Q54GP3'
p5695
I01
stbaa(lp5696
S'GO:0045454'
p5697
ag5
(g6
g7
NtRp5698
((dp5699
S'Q8T137'
p5700
I01
sS'Q54GP8'
p5701
I01
sS'Q54UU8'
p5702
I01
stbaa(lp5703
S'GO:0006995'
p5704
ag5
(g6
g7
NtRp5705
((dp5706
S'Q55CC5'
p5707
I01
sS'Q86CS2'
p5708
I01
sS'Q86CR8'
p5709
I01
sS'Q54GT9'
p5710
I01
sS'Q86CR9'
p5711
I01
stbaa(lp5712
S'GO:0016236'
p5713
ag5
(g6
g7
NtRp5714
((dp5715
S'Q86CR6'
p5716
I01
sS'Q54NA3'
p5717
I01
sS'Q55CC5'
p5718
I01
sS'Q54GT9'
p5719
I01
sS'Q86CS2'
p5720
I01
sS'Q86CR8'
p5721
I01
sS'Q86CR9'
p5722
I01
stbaa(lp5723
S'GO:0010586'
p5724
ag5
(g6
g7
NtRp5725
((dp5726
S'Q55FS1'
p5727
I01
sS'Q54UI6'
p5728
I01
sS'Q54H25'
p5729
I01
stbaa(lp5730
S'GO:0035194'
p5731
ag5
(g6
g7
NtRp5732
((dp5733
S'Q54H25'
p5734
I01
stbaa(lp5735
S'GO:0070918'
p5736
ag5
(g6
g7
NtRp5737
((dp5738
S'Q54H25'
p5739
I01
stbaa(lp5740
S'GO:0000916'
p5741
ag5
(g6
g7
NtRp5742
((dp5743
S'Q75JH9'
p5744
I01
sS'Q54HG2'
p5745
I01
stbaa(lp5746
S'GO:0001934'
p5747
ag5
(g6
g7
NtRp5748
((dp5749
S'Q550R2'
p5750
I01
sS'Q54HG2'
p5751
I01
stbaa(lp5752
S'GO:0003382'
p5753
ag5
(g6
g7
NtRp5754
((dp5755
S'Q54MH2'
p5756
I01
sS'Q54K32'
p5757
I01
sS'Q54I71'
p5758
I01
sS'Q54HG2'
p5759
I01
stbaa(lp5760
S'GO:0032317'
p5761
ag5
(g6
g7
NtRp5762
((dp5763
S'Q550R2'
p5764
I01
sS'Q54HG2'
p5765
I01
stbaa(lp5766
S'GO:0034613'
p5767
ag5
(g6
g7
NtRp5768
((dp5769
S'Q54MH2'
p5770
I01
sS'Q54K32'
p5771
I01
sS'Q54I71'
p5772
I01
sS'Q54HG2'
p5773
I01
stbaa(lp5774
S'GO:0036089'
p5775
ag5
(g6
g7
NtRp5776
((dp5777
S'Q54HG2'
p5778
I01
stbaa(lp5779
S'GO:0036360'
p5780
ag5
(g6
g7
NtRp5781
((dp5782
S'Q6XHA5'
p5783
I01
sS'Q54MH2'
p5784
I01
sS'Q54K32'
p5785
I01
sS'Q54I71'
p5786
I01
sS'Q54HG2'
p5787
I01
stbaa(lp5788
S'GO:0051495'
p5789
ag5
(g6
g7
NtRp5790
((dp5791
S'Q54MH2'
p5792
I01
sS'Q54K32'
p5793
I01
sS'Q54I71'
p5794
I01
sS'Q54HG2'
p5795
I01
stbaa(lp5796
S'GO:0051639'
p5797
ag5
(g6
g7
NtRp5798
((dp5799
S'Q54HG2'
p5800
I01
stbaa(lp5801
S'GO:0006563'
p5802
ag5
(g6
g7
NtRp5803
((dp5804
S'Q54HH2'
p5805
I01
stbaa(lp5806
S'GO:0018249'
p5807
ag5
(g6
g7
NtRp5808
((dp5809
S'Q54HH2'
p5810
I01
stbaa(lp5811
S'GO:0070179'
p5812
ag5
(g6
g7
NtRp5813
((dp5814
S'Q54HH2'
p5815
I01
stbaa(lp5816
S'GO:0010847'
p5817
ag5
(g6
g7
NtRp5818
((dp5819
S'Q54HI5'
p5820
I01
stbaa(lp5821
S'GO:0051297'
p5822
ag5
(g6
g7
NtRp5823
((dp5824
S'Q54X77'
p5825
I01
sS'Q558Z2'
p5826
I01
sS'Q555I8'
p5827
I01
sS'Q54HI5'
p5828
I01
stbaa(lp5829
S'GO:0051642'
p5830
ag5
(g6
g7
NtRp5831
((dp5832
S'Q8I0F4'
p5833
I01
sS'Q54MH2'
p5834
I01
sS'Q54I71'
p5835
I01
sS'Q54HI5'
p5836
I01
sS'Q558Z2'
p5837
I01
stbaa(lp5838
S'GO:0016571'
p5839
ag5
(g6
g7
NtRp5840
((dp5841
S'Q54HS3'
p5842
I01
stbaa(lp5843
S'GO:0040029'
p5844
ag5
(g6
g7
NtRp5845
((dp5846
S'Q54HS3'
p5847
I01
stbaa(lp5848
S'GO:0051568'
p5849
ag5
(g6
g7
NtRp5850
((dp5851
S'Q54HS3'
p5852
I01
stbaa(lp5853
S'GO:0007032'
p5854
ag5
(g6
g7
NtRp5855
((dp5856
S'Q54HS9'
p5857
I01
sS'Q9GPF1'
p5858
I01
sS'Q94464'
p5859
I01
sS'Q55DM1'
p5860
I01
stbaa(lp5861
S'GO:0006952'
p5862
ag5
(g6
g7
NtRp5863
((dp5864
S'Q54HT1'
p5865
I01
stbaa(lp5866
S'GO:0061245'
p5867
ag5
(g6
g7
NtRp5868
((dp5869
S'Q54MH2'
p5870
I01
sS'Q54I71'
p5871
I01
stbaa(lp5872
S'GO:0016125'
p5873
ag5
(g6
g7
NtRp5874
((dp5875
S'Q54IL5'
p5876
I01
stbaa(lp5877
S'GO:0000747'
p5878
ag5
(g6
g7
NtRp5879
((dp5880
S'Q54IT4'
p5881
I01
sS'Q54ME1'
p5882
I01
stbaa(lp5883
S'GO:0050848'
p5884
ag5
(g6
g7
NtRp5885
((dp5886
S'Q86JM7'
p5887
I01
sS'Q54JH4'
p5888
I01
sS'Q54J33'
p5889
I01
sS'Q553Y1'
p5890
I01
sS'Q553Y0'
p5891
I01
stbaa(lp5892
S'GO:0006811'
p5893
ag5
(g6
g7
NtRp5894
((dp5895
S'Q86JM7'
p5896
I01
sS'Q54JH4'
p5897
I01
sS'Q553Y1'
p5898
I01
stbaa(lp5899
S'GO:0006306'
p5900
ag5
(g6
g7
NtRp5901
((dp5902
S'Q54JH6'
p5903
I01
stbaa(lp5904
S'GO:0032776'
p5905
ag5
(g6
g7
NtRp5906
((dp5907
S'Q54JH6'
p5908
I01
stbaa(lp5909
S'GO:0090116'
p5910
ag5
(g6
g7
NtRp5911
((dp5912
S'Q54JH6'
p5913
I01
stbaa(lp5914
S'GO:0014066'
p5915
ag5
(g6
g7
NtRp5916
((dp5917
S'Q54JL7'
p5918
I01
stbaa(lp5919
S'GO:0030818'
p5920
ag5
(g6
g7
NtRp5921
((dp5922
S'Q54JL7'
p5923
I01
stbaa(lp5924
S'GO:0030835'
p5925
ag5
(g6
g7
NtRp5926
((dp5927
S'Q55F94'
p5928
I01
sS'Q54JL7'
p5929
I01
sS'Q6UK63'
p5930
I01
sS'Q55E54'
p5931
I01
stbaa(lp5932
S'GO:0010507'
p5933
ag5
(g6
g7
NtRp5934
((dp5935
S'Q54JW0'
p5936
I01
sS'Q54S83'
p5937
I01
stbaa(lp5938
S'GO:0032981'
p5939
ag5
(g6
g7
NtRp5940
((dp5941
S'Q54JW0'
p5942
I01
sS'Q54S83'
p5943
I01
stbaa(lp5944
S'GO:0008333'
p5945
ag5
(g6
g7
NtRp5946
((dp5947
S'Q54NW7'
p5948
I01
sS'Q54JY7'
p5949
I01
sS'Q86H98'
p5950
I01
sS'Q553P5'
p5951
I01
sS'Q86AQ7'
p5952
I01
stbaa(lp5953
S'GO:0006096'
p5954
ag5
(g6
g7
NtRp5955
((dp5956
S'Q9GPM4'
p5957
I01
sS'Q54K22'
p5958
I01
stbaa(lp5959
S'GO:0051156'
p5960
ag5
(g6
g7
NtRp5961
((dp5962
S'Q54K22'
p5963
I01
stbaa(lp5964
S'GO:0016042'
p5965
ag5
(g6
g7
NtRp5966
((dp5967
S'Q54K50'
p5968
I01
stbaa(lp5969
S'GO:0006310'
p5970
ag5
(g6
g7
NtRp5971
((dp5972
S'Q54YJ7'
p5973
I01
sS'Q54LY5'
p5974
I01
sS'Q54UC0'
p5975
I01
stbaa(lp5976
S'GO:0006352'
p5977
ag5
(g6
g7
NtRp5978
((dp5979
S'Q54M56'
p5980
I01
sS'Q55A48'
p5981
I01
stbaa(lp5982
S'GO:0031167'
p5983
ag5
(g6
g7
NtRp5984
((dp5985
S'Q54M56'
p5986
I01
stbaa(lp5987
S'GO:0006266'
p5988
ag5
(g6
g7
NtRp5989
((dp5990
S'Q54MA9'
p5991
I01
stbaa(lp5992
S'GO:0045893'
p5993
ag5
(g6
g7
NtRp5994
((dp5995
S'Q54PT9'
p5996
I01
sS'Q54MA9'
p5997
I01
sS'Q70GP4'
p5998
I01
stbaa(lp5999
S'GO:0000920'
p6000
ag5
(g6
g7
NtRp6001
((dp6002
S'Q54MH8'
p6003
I01
sS'Q55F94'
p6004
I01
sS'Q94464'
p6005
I01
stbaa(lp6006
S'GO:0006997'
p6007
ag5
(g6
g7
NtRp6008
((dp6009
S'Q54MH8'
p6010
I01
sS'Q558Z2'
p6011
I01
sS'Q54X77'
p6012
I01
sS'Q8SSS9'
p6013
I01
sS'Q55F94'
p6014
I01
sS'Q94464'
p6015
I01
stbaa(lp6016
S'GO:0018279'
p6017
ag5
(g6
g7
NtRp6018
((dp6019
S'Q54MP1'
p6020
I01
stbaa(lp6021
S'GO:0031268'
p6022
ag5
(g6
g7
NtRp6023
((dp6024
S'Q86KX8'
p6025
I01
sS'Q54TM2'
p6026
I01
sS'Q54N00'
p6027
I01
sS'Q9TW28'
p6028
I01
stbaa(lp6029
S'GO:0051638'
p6030
ag5
(g6
g7
NtRp6031
((dp6032
S'Q54N00'
p6033
I01
stbaa(lp6034
S'GO:0006021'
p6035
ag5
(g6
g7
NtRp6036
((dp6037
S'Q54N49'
p6038
I01
stbaa(lp6039
S'GO:0043148'
p6040
ag5
(g6
g7
NtRp6041
((dp6042
S'Q54NF8'
p6043
I01
stbaa(lp6044
S'GO:0007029'
p6045
ag5
(g6
g7
NtRp6046
((dp6047
S'Q54NL4'
p6048
I01
stbaa(lp6049
S'GO:0006750'
p6050
ag5
(g6
g7
NtRp6051
((dp6052
S'Q54PC2'
p6053
I01
stbaa(lp6054
S'GO:0007346'
p6055
ag5
(g6
g7
NtRp6056
((dp6057
S'Q54PC2'
p6058
I01
stbaa(lp6059
S'GO:0000724'
p6060
ag5
(g6
g7
NtRp6061
((dp6062
S'Q54PN5'
p6063
I01
stbaa(lp6064
S'GO:0006338'
p6065
ag5
(g6
g7
NtRp6066
((dp6067
S'Q54PN9'
p6068
I01
stbaa(lp6069
S'GO:0016570'
p6070
ag5
(g6
g7
NtRp6071
((dp6072
S'Q54PN9'
p6073
I01
stbaa(lp6074
S'GO:0031158'
p6075
ag5
(g6
g7
NtRp6076
((dp6077
S'Q556R7'
p6078
I01
sS'Q558U1'
p6079
I01
sS'Q54PR9'
p6080
I01
sS'Q86IV5'
p6081
I01
sS'Q6IMN8'
p6082
I01
sS'Q8SSS9'
p6083
I01
sS'Q54RV9'
p6084
I01
stbaa(lp6085
S'GO:0051344'
p6086
ag5
(g6
g7
NtRp6087
((dp6088
S'Q54U87'
p6089
I01
sS'Q54QB1'
p6090
I01
stbaa(lp6091
S'GO:0006486'
p6092
ag5
(g6
g7
NtRp6093
((dp6094
S'Q8T1C6'
p6095
I01
sS'Q54QG0'
p6096
I01
sS'Q54RP0'
p6097
I01
stbaa(lp6098
S'GO:0036065'
p6099
ag5
(g6
g7
NtRp6100
((dp6101
S'Q54QG0'
p6102
I01
stbaa(lp6103
S'GO:0031670'
p6104
ag5
(g6
g7
NtRp6105
((dp6106
S'Q556N5'
p6107
I01
sS'Q54QQ1'
p6108
I01
stbaa(lp6109
S'GO:0051409'
p6110
ag5
(g6
g7
NtRp6111
((dp6112
S'Q54QV3'
p6113
I01
sS'Q86AD8'
p6114
I01
stbaa(lp6115
S'GO:0043161'
p6116
ag5
(g6
g7
NtRp6117
((dp6118
S'Q54QX3'
p6119
I01
stbaa(lp6120
S'GO:0009190'
p6121
ag5
(g6
g7
NtRp6122
((dp6123
S'Q54R09'
p6124
I01
stbaa(lp6125
S'GO:0007194'
p6126
ag5
(g6
g7
NtRp6127
((dp6128
S'Q54R41'
p6129
I01
stbaa(lp6130
S'GO:0045744'
p6131
ag5
(g6
g7
NtRp6132
((dp6133
S'Q54R41'
p6134
I01
stbaa(lp6135
S'GO:0051093'
p6136
ag5
(g6
g7
NtRp6137
((dp6138
S'Q54XS3'
p6139
I01
sS'Q54R41'
p6140
I01
sS'Q55CZ1'
p6141
I01
stbaa(lp6142
S'GO:0061462'
p6143
ag5
(g6
g7
NtRp6144
((dp6145
S'Q55FP0'
p6146
I01
sS'Q54R74'
p6147
I01
stbaa(lp6148
S'GO:0000186'
p6149
ag5
(g6
g7
NtRp6150
((dp6151
S'Q54R82'
p6152
I01
stbaa(lp6153
S'GO:0009968'
p6154
ag5
(g6
g7
NtRp6155
((dp6156
S'Q54RB7'
p6157
I01
stbaa(lp6158
S'GO:0015810'
p6159
ag5
(g6
g7
NtRp6160
((dp6161
S'Q54RB9'
p6162
I01
stbaa(lp6163
S'GO:0015813'
p6164
ag5
(g6
g7
NtRp6165
((dp6166
S'Q54RB9'
p6167
I01
stbaa(lp6168
S'GO:0051276'
p6169
ag5
(g6
g7
NtRp6170
((dp6171
S'Q54WG6'
p6172
I01
sS'Q54RN0'
p6173
I01
stbaa(lp6174
S'GO:0032880'
p6175
ag5
(g6
g7
NtRp6176
((dp6177
S'Q54RQ1'
p6178
I01
stbaa(lp6179
S'GO:0001667'
p6180
ag5
(g6
g7
NtRp6181
((dp6182
S'Q54RV9'
p6183
I01
sS'Q55E54'
p6184
I01
stbaa(lp6185
S'GO:0006672'
p6186
ag5
(g6
g7
NtRp6187
((dp6188
S'Q54RV9'
p6189
I01
stbaa(lp6190
S'GO:0008219'
p6191
ag5
(g6
g7
NtRp6192
((dp6193
S'Q54RV9'
p6194
I01
stbaa(lp6195
S'GO:0030149'
p6196
ag5
(g6
g7
NtRp6197
((dp6198
S'Q54RV9'
p6199
I01
stbaa(lp6200
S'GO:0045040'
p6201
ag5
(g6
g7
NtRp6202
((dp6203
S'Q54RZ5'
p6204
I01
stbaa(lp6205
S'GO:0051272'
p6206
ag5
(g6
g7
NtRp6207
((dp6208
S'Q8T9S7'
p6209
I01
sS'Q54S40'
p6210
I01
sS'Q8MVR1'
p6211
I01
stbaa(lp6212
S'GO:0005977'
p6213
ag5
(g6
g7
NtRp6214
((dp6215
S'Q54S83'
p6216
I01
stbaa(lp6217
S'GO:0006536'
p6218
ag5
(g6
g7
NtRp6219
((dp6220
S'Q54S83'
p6221
I01
stbaa(lp6222
S'GO:0046034'
p6223
ag5
(g6
g7
NtRp6224
((dp6225
S'Q54S83'
p6226
I01
stbaa(lp6227
S'GO:0090141'
p6228
ag5
(g6
g7
NtRp6229
((dp6230
S'Q54S83'
p6231
I01
stbaa(lp6232
S'GO:0016573'
p6233
ag5
(g6
g7
NtRp6234
((dp6235
S'Q54T85'
p6236
I01
stbaa(lp6237
S'GO:0031247'
p6238
ag5
(g6
g7
NtRp6239
((dp6240
S'Q54TY7'
p6241
I01
stbaa(lp6242
S'GO:0030308'
p6243
ag5
(g6
g7
NtRp6244
((dp6245
S'Q54U75'
p6246
I01
stbaa(lp6247
S'GO:0006302'
p6248
ag5
(g6
g7
NtRp6249
((dp6250
S'Q54YJ7'
p6251
I01
sS'Q54UC0'
p6252
I01
stbaa(lp6253
S'GO:0006975'
p6254
ag5
(g6
g7
NtRp6255
((dp6256
S'Q54UC0'
p6257
I01
stbaa(lp6258
S'GO:0010587'
p6259
ag5
(g6
g7
NtRp6260
((dp6261
S'Q54UI6'
p6262
I01
stbaa(lp6263
S'GO:0030422'
p6264
ag5
(g6
g7
NtRp6265
((dp6266
S'Q55FS1'
p6267
I01
sS'Q54UI6'
p6268
I01
stbaa(lp6269
S'GO:0036453'
p6270
ag5
(g6
g7
NtRp6271
((dp6272
S'Q55FS1'
p6273
I01
sS'Q54UI6'
p6274
I01
stbaa(lp6275
S'GO:0032858'
p6276
ag5
(g6
g7
NtRp6277
((dp6278
S'Q54UM5'
p6279
I01
stbaa(lp6280
S'GO:0006180'
p6281
ag5
(g6
g7
NtRp6282
((dp6283
S'Q54UT2'
p6284
I01
stbaa(lp6285
S'GO:0015910'
p6286
ag5
(g6
g7
NtRp6287
((dp6288
S'Q54W20'
p6289
I01
sS'Q8T8P3'
p6290
I01
sS'Q54W19'
p6291
I01
stbaa(lp6292
S'GO:0006334'
p6293
ag5
(g6
g7
NtRp6294
((dp6295
S'Q54WG6'
p6296
I01
stbaa(lp6297
S'GO:0032850'
p6298
ag5
(g6
g7
NtRp6299
((dp6300
S'Q551Q8'
p6301
I01
sS'Q54WI0'
p6302
I01
stbaa(lp6303
S'GO:0043937'
p6304
ag5
(g6
g7
NtRp6305
((dp6306
S'Q551Q8'
p6307
I01
sS'Q54WI0'
p6308
I01
stbaa(lp6309
S'GO:0061098'
p6310
ag5
(g6
g7
NtRp6311
((dp6312
S'Q54WJ0'
p6313
I01
stbaa(lp6314
S'GO:1901263'
p6315
ag5
(g6
g7
NtRp6316
((dp6317
S'Q54WJ0'
p6318
I01
stbaa(lp6319
S'GO:0045921'
p6320
ag5
(g6
g7
NtRp6321
((dp6322
S'Q54WR4'
p6323
I01
sS'Q8MML5'
p6324
I01
stbaa(lp6325
S'GO:2000249'
p6326
ag5
(g6
g7
NtRp6327
((dp6328
S'Q54WR4'
p6329
I01
sS'Q8MML5'
p6330
I01
stbaa(lp6331
S'GO:0006488'
p6332
ag5
(g6
g7
NtRp6333
((dp6334
S'Q54WW9'
p6335
I01
stbaa(lp6336
S'GO:0070588'
p6337
ag5
(g6
g7
NtRp6338
((dp6339
S'Q54WZ6'
p6340
I01
stbaa(lp6341
S'GO:0032026'
p6342
ag5
(g6
g7
NtRp6343
((dp6344
S'Q54X63'
p6345
I01
stbaa(lp6346
S'GO:0042742'
p6347
ag5
(g6
g7
NtRp6348
((dp6349
S'Q9GPR7'
p6350
I01
sS'Q55GK8'
p6351
I01
sS'Q54X63'
p6352
I01
sS'Q55FP0'
p6353
I01
stbaa(lp6354
S'GO:1900756'
p6355
ag5
(g6
g7
NtRp6356
((dp6357
S'Q94464'
p6358
I01
sS'Q54X63'
p6359
I01
stbaa(lp6360
S'GO:0006998'
p6361
ag5
(g6
g7
NtRp6362
((dp6363
S'Q54X77'
p6364
I01
sS'Q558K8'
p6365
I01
stbaa(lp6366
S'GO:0007020'
p6367
ag5
(g6
g7
NtRp6368
((dp6369
S'Q54X77'
p6370
I01
stbaa(lp6371
S'GO:0012501'
p6372
ag5
(g6
g7
NtRp6373
((dp6374
S'Q54XG7'
p6375
I01
stbaa(lp6376
S'GO:0034508'
p6377
ag5
(g6
g7
NtRp6378
((dp6379
S'Q558Z2'
p6380
I01
sS'Q54XP9'
p6381
I01
stbaa(lp6382
S'GO:0007051'
p6383
ag5
(g6
g7
NtRp6384
((dp6385
S'Q54XP9'
p6386
I01
stbaa(lp6387
S'GO:0030953'
p6388
ag5
(g6
g7
NtRp6389
((dp6390
S'Q553N8'
p6391
I01
sS'Q54XP9'
p6392
I01
stbaa(lp6393
S'GO:0050921'
p6394
ag5
(g6
g7
NtRp6395
((dp6396
S'Q54XQ2'
p6397
I01
stbaa(lp6398
S'GO:0006559'
p6399
ag5
(g6
g7
NtRp6400
((dp6401
S'Q54XS1'
p6402
I01
stbaa(lp6403
S'GO:0006571'
p6404
ag5
(g6
g7
NtRp6405
((dp6406
S'Q54XS1'
p6407
I01
stbaa(lp6408
S'GO:0051262'
p6409
ag5
(g6
g7
NtRp6410
((dp6411
S'Q54XS1'
p6412
I01
stbaa(lp6413
S'GO:0019369'
p6414
ag5
(g6
g7
NtRp6415
((dp6416
S'Q54XY1'
p6417
I01
stbaa(lp6418
S'GO:0050918'
p6419
ag5
(g6
g7
NtRp6420
((dp6421
S'Q54XY1'
p6422
I01
stbaa(lp6423
S'GO:0060100'
p6424
ag5
(g6
g7
NtRp6425
((dp6426
S'Q54Y26'
p6427
I01
stbaa(lp6428
S'GO:0009992'
p6429
ag5
(g6
g7
NtRp6430
((dp6431
S'Q86JM7'
p6432
I01
sS'Q54Y50'
p6433
I01
sS'Q86KI1'
p6434
I01
sS'Q8MN58'
p6435
I01
stbaa(lp6436
S'GO:0006754'
p6437
ag5
(g6
g7
NtRp6438
((dp6439
S'Q54YF2'
p6440
I01
stbaa(lp6441
S'GO:0007005'
p6442
ag5
(g6
g7
NtRp6443
((dp6444
S'Q9GPZ7'
p6445
I01
sS'Q54YF2'
p6446
I01
sS'Q94464'
p6447
I01
sS'Q54Z54'
p6448
I01
stbaa(lp6449
S'GO:0006170'
p6450
ag5
(g6
g7
NtRp6451
((dp6452
S'Q54YL2'
p6453
I01
stbaa(lp6454
S'GO:0006351'
p6455
ag5
(g6
g7
NtRp6456
((dp6457
S'Q54YU6'
p6458
I01
stbaa(lp6459
S'GO:0010043'
p6460
ag5
(g6
g7
NtRp6461
((dp6462
S'Q54YU6'
p6463
I01
stbaa(lp6464
S'GO:0000045'
p6465
ag5
(g6
g7
NtRp6466
((dp6467
S'Q55GH4'
p6468
I01
sS'Q54YZ0'
p6469
I01
stbaa(lp6470
S'GO:0030244'
p6471
ag5
(g6
g7
NtRp6472
((dp6473
S'Q9NA13'
p6474
I01
sS'Q9U720'
p6475
I01
sS'Q54YZ0'
p6476
I01
stbaa(lp6477
S'GO:0035020'
p6478
ag5
(g6
g7
NtRp6479
((dp6480
S'Q54YZ6'
p6481
I01
sS'Q9TW28'
p6482
I01
stbaa(lp6483
S'GO:0006085'
p6484
ag5
(g6
g7
NtRp6485
((dp6486
S'Q557X0'
p6487
I01
sS'Q54Z60'
p6488
I01
stbaa(lp6489
S'GO:0033299'
p6490
ag5
(g6
g7
NtRp6491
((dp6492
S'Q54ZW0'
p6493
I01
sS'Q55FP0'
p6494
I01
stbaa(lp6495
S'GO:0072657'
p6496
ag5
(g6
g7
NtRp6497
((dp6498
S'Q86AC8'
p6499
I01
sS'Q54ZW0'
p6500
I01
sS'Q55FP0'
p6501
I01
stbaa(lp6502
S'GO:0001708'
p6503
ag5
(g6
g7
NtRp6504
((dp6505
S'Q550K3'
p6506
I01
sS'Q75JK0'
p6507
I01
stbaa(lp6508
S'GO:0009395'
p6509
ag5
(g6
g7
NtRp6510
((dp6511
S'Q550U9'
p6512
I01
stbaa(lp6513
S'GO:0031161'
p6514
ag5
(g6
g7
NtRp6515
((dp6516
S'Q550U9'
p6517
I01
stbaa(lp6518
S'GO:0046338'
p6519
ag5
(g6
g7
NtRp6520
((dp6521
S'Q550U9'
p6522
I01
stbaa(lp6523
S'GO:0042273'
p6524
ag5
(g6
g7
NtRp6525
((dp6526
S'Q551M2'
p6527
I01
stbaa(lp6528
S'GO:0006182'
p6529
ag5
(g6
g7
NtRp6530
((dp6531
S'Q551V8'
p6532
I01
sS'Q553Y7'
p6533
I01
stbaa(lp6534
S'GO:0031033'
p6535
ag5
(g6
g7
NtRp6536
((dp6537
S'Q551V8'
p6538
I01
sS'Q553Y7'
p6539
I01
stbaa(lp6540
S'GO:0042659'
p6541
ag5
(g6
g7
NtRp6542
((dp6543
S'Q552C6'
p6544
I01
sS'Q75JK0'
p6545
I01
stbaa(lp6546
S'GO:0003365'
p6547
ag5
(g6
g7
NtRp6548
((dp6549
S'Q552S0'
p6550
I01
stbaa(lp6551
S'GO:0036051'
p6552
ag5
(g6
g7
NtRp6553
((dp6554
S'Q8T9S7'
p6555
I01
sS'Q552S0'
p6556
I01
stbaa(lp6557
S'GO:0070650'
p6558
ag5
(g6
g7
NtRp6559
((dp6560
S'Q552S0'
p6561
I01
stbaa(lp6562
S'GO:0097230'
p6563
ag5
(g6
g7
NtRp6564
((dp6565
S'Q552S0'
p6566
I01
stbaa(lp6567
S'GO:0016259'
p6568
ag5
(g6
g7
NtRp6569
((dp6570
S'Q552Y2'
p6571
I01
sS'Q55FV9'
p6572
I01
sS'Q94497'
p6573
I01
sS'Q86KP5'
p6574
I01
stbaa(lp6575
S'GO:0055072'
p6576
ag5
(g6
g7
NtRp6577
((dp6578
S'Q553K4'
p6579
I01
stbaa(lp6580
S'GO:0035372'
p6581
ag5
(g6
g7
NtRp6582
((dp6583
S'Q553N8'
p6584
I01
stbaa(lp6585
S'GO:0072712'
p6586
ag5
(g6
g7
NtRp6587
((dp6588
S'Q553N8'
p6589
I01
stbaa(lp6590
S'GO:1901355'
p6591
ag5
(g6
g7
NtRp6592
((dp6593
S'Q554J2'
p6594
I01
stbaa(lp6595
S'GO:0000271'
p6596
ag5
(g6
g7
NtRp6597
((dp6598
S'Q86KM0'
p6599
I01
sS'Q555B5'
p6600
I01
sS'Q556A8'
p6601
I01
stbaa(lp6602
S'GO:0007019'
p6603
ag5
(g6
g7
NtRp6604
((dp6605
S'Q555I8'
p6606
I01
stbaa(lp6607
S'GO:0007067'
p6608
ag5
(g6
g7
NtRp6609
((dp6610
S'Q6S001'
p6611
I01
sS'Q555I8'
p6612
I01
sS'Q55GF9'
p6613
I01
stbaa(lp6614
S'GO:0051661'
p6615
ag5
(g6
g7
NtRp6616
((dp6617
S'Q555I8'
p6618
I01
stbaa(lp6619
S'GO:0006281'
p6620
ag5
(g6
g7
NtRp6621
((dp6622
S'Q75JL2'
p6623
I01
sS'Q556Y4'
p6624
I01
stbaa(lp6625
S'GO:0009253'
p6626
ag5
(g6
g7
NtRp6627
((dp6628
S'Q556Y7'
p6629
I01
sS'Q8T1G5'
p6630
I01
sS'Q8T1G4'
p6631
I01
sS'Q8T1G6'
p6632
I01
stbaa(lp6633
S'GO:0050830'
p6634
ag5
(g6
g7
NtRp6635
((dp6636
S'Q556Y7'
p6637
I01
sS'Q8T1G5'
p6638
I01
sS'Q8T1G4'
p6639
I01
sS'Q8T1G6'
p6640
I01
stbaa(lp6641
S'GO:0006914'
p6642
ag5
(g6
g7
NtRp6643
((dp6644
S'Q557H7'
p6645
I01
stbaa(lp6646
S'GO:0090382'
p6647
ag5
(g6
g7
NtRp6648
((dp6649
S'Q557J6'
p6650
I01
stbaa(lp6651
S'GO:0006481'
p6652
ag5
(g6
g7
NtRp6653
((dp6654
S'Q558K8'
p6655
I01
stbaa(lp6656
S'GO:0006417'
p6657
ag5
(g6
g7
NtRp6658
((dp6659
S'Q558U1'
p6660
I01
stbaa(lp6661
S'GO:0048255'
p6662
ag5
(g6
g7
NtRp6663
((dp6664
S'Q558U1'
p6665
I01
stbaa(lp6666
S'GO:0032970'
p6667
ag5
(g6
g7
NtRp6668
((dp6669
S'Q558Y7'
p6670
I01
stbaa(lp6671
S'GO:2000145'
p6672
ag5
(g6
g7
NtRp6673
((dp6674
S'Q558Y7'
p6675
I01
stbaa(lp6676
S'GO:0000070'
p6677
ag5
(g6
g7
NtRp6678
((dp6679
S'Q558Z2'
p6680
I01
stbaa(lp6681
S'GO:0051896'
p6682
ag5
(g6
g7
NtRp6683
((dp6684
S'Q55AR6'
p6685
I01
stbaa(lp6686
S'GO:0034729'
p6687
ag5
(g6
g7
NtRp6688
((dp6689
S'Q55AX2'
p6690
I01
stbaa(lp6691
S'GO:0007098'
p6692
ag5
(g6
g7
NtRp6693
((dp6694
S'Q55BN8'
p6695
I01
stbaa(lp6696
S'GO:0016575'
p6697
ag5
(g6
g7
NtRp6698
((dp6699
S'Q55BW2'
p6700
I01
stbaa(lp6701
S'GO:0000187'
p6702
ag5
(g6
g7
NtRp6703
((dp6704
S'Q55CL6'
p6705
I01
stbaa(lp6706
S'GO:0043407'
p6707
ag5
(g6
g7
NtRp6708
((dp6709
S'Q55CS7'
p6710
I01
stbaa(lp6711
S'GO:0006208'
p6712
ag5
(g6
g7
NtRp6713
((dp6714
S'Q55DL0'
p6715
I01
stbaa(lp6716
S'GO:0019505'
p6717
ag5
(g6
g7
NtRp6718
((dp6719
S'Q55E72'
p6720
I01
stbaa(lp6721
S'GO:0044671'
p6722
ag5
(g6
g7
NtRp6723
((dp6724
S'Q55E72'
p6725
I01
sS'Q55F68'
p6726
I01
stbaa(lp6727
S'GO:0042816'
p6728
ag5
(g6
g7
NtRp6729
((dp6730
S'Q55EK9'
p6731
I01
stbaa(lp6732
S'GO:1901261'
p6733
ag5
(g6
g7
NtRp6734
((dp6735
S'Q55F37'
p6736
I01
stbaa(lp6737
S'GO:0006517'
p6738
ag5
(g6
g7
NtRp6739
((dp6740
S'Q55FC8'
p6741
I01
stbaa(lp6742
S'GO:0045324'
p6743
ag5
(g6
g7
NtRp6744
((dp6745
S'Q86H98'
p6746
I01
sS'Q55FG3'
p6747
I01
stbaa(lp6748
S'GO:0007042'
p6749
ag5
(g6
g7
NtRp6750
((dp6751
S'Q55FP0'
p6752
I01
stbaa(lp6753
S'GO:0010467'
p6754
ag5
(g6
g7
NtRp6755
((dp6756
S'Q55FP0'
p6757
I01
stbaa(lp6758
S'GO:0050821'
p6759
ag5
(g6
g7
NtRp6760
((dp6761
S'Q95YH0'
p6762
I01
sS'Q55FP0'
p6763
I01
sS'Q8I7T3'
p6764
I01
stbaa(lp6765
S'GO:0031054'
p6766
ag5
(g6
g7
NtRp6767
((dp6768
S'Q55FS1'
p6769
I01
stbaa(lp6770
S'GO:0031272'
p6771
ag5
(g6
g7
NtRp6772
((dp6773
S'Q8T9S7'
p6774
I01
sS'Q55FT4'
p6775
I01
stbaa(lp6776
S'GO:0048311'
p6777
ag5
(g6
g7
NtRp6778
((dp6779
S'Q55G45'
p6780
I01
stbaa(lp6781
S'GO:0070584'
p6782
ag5
(g6
g7
NtRp6783
((dp6784
S'Q55G45'
p6785
I01
stbaa(lp6786
S'GO:0031287'
p6787
ag5
(g6
g7
NtRp6788
((dp6789
S'Q55G87'
p6790
I01
stbaa(lp6791
S'GO:0030472'
p6792
ag5
(g6
g7
NtRp6793
((dp6794
S'Q55GF9'
p6795
I01
stbaa(lp6796
S'GO:0005978'
p6797
ag5
(g6
g7
NtRp6798
((dp6799
S'Q55GH4'
p6800
I01
stbaa(lp6801
S'GO:0006477'
p6802
ag5
(g6
g7
NtRp6803
((dp6804
S'Q55GK8'
p6805
I01
stbaa(lp6806
S'GO:0006801'
p6807
ag5
(g6
g7
NtRp6808
((dp6809
S'Q867X6'
p6810
I01
sS'Q55GQ5'
p6811
I01
sS'Q867T7'
p6812
I01
stbaa(lp6813
S'GO:0031273'
p6814
ag5
(g6
g7
NtRp6815
((dp6816
S'Q55GV3'
p6817
I01
stbaa(lp6818
S'GO:0046999'
p6819
ag5
(g6
g7
NtRp6820
((dp6821
S'Q5FBC4'
p6822
I01
sS'Q5FBC3'
p6823
I01
stbaa(lp6824
S'GO:0006469'
p6825
ag5
(g6
g7
NtRp6826
((dp6827
S'Q5FXM5'
p6828
I01
stbaa(lp6829
S'GO:0006648'
p6830
ag5
(g6
g7
NtRp6831
((dp6832
S'Q86KF9'
p6833
I01
sS'Q6B516'
p6834
I01
stbaa(lp6835
S'GO:0018209'
p6836
ag5
(g6
g7
NtRp6837
((dp6838
S'Q6B9X6'
p6839
I01
stbaa(lp6840
S'GO:0031038'
p6841
ag5
(g6
g7
NtRp6842
((dp6843
S'Q6B9X6'
p6844
I01
stbaa(lp6845
S'GO:0006000'
p6846
ag5
(g6
g7
NtRp6847
((dp6848
S'Q6RYT0'
p6849
I01
stbaa(lp6850
S'GO:0006094'
p6851
ag5
(g6
g7
NtRp6852
((dp6853
S'Q6RYT0'
p6854
I01
sS'Q9GPM4'
p6855
I01
stbaa(lp6856
S'GO:0043146'
p6857
ag5
(g6
g7
NtRp6858
((dp6859
S'Q6RZZ9'
p6860
I01
stbaa(lp6861
S'GO:0000022'
p6862
ag5
(g6
g7
NtRp6863
((dp6864
S'Q6S000'
p6865
I01
sS'Q8WQ86'
p6866
I01
stbaa(lp6867
S'GO:0000280'
p6868
ag5
(g6
g7
NtRp6869
((dp6870
S'Q6S000'
p6871
I01
stbaa(lp6872
S'GO:0000912'
p6873
ag5
(g6
g7
NtRp6874
((dp6875
S'Q6S000'
p6876
I01
stbaa(lp6877
S'GO:0031399'
p6878
ag5
(g6
g7
NtRp6879
((dp6880
S'Q71A39'
p6881
I01
stbaa(lp6882
S'GO:0043497'
p6883
ag5
(g6
g7
NtRp6884
((dp6885
S'Q71A39'
p6886
I01
stbaa(lp6887
S'GO:0032854'
p6888
ag5
(g6
g7
NtRp6889
((dp6890
S'Q75J96'
p6891
I01
stbaa(lp6892
S'GO:0033674'
p6893
ag5
(g6
g7
NtRp6894
((dp6895
S'Q75JK0'
p6896
I01
stbaa(lp6897
S'GO:0009693'
p6898
ag5
(g6
g7
NtRp6899
((dp6900
S'Q76NT9'
p6901
I01
stbaa(lp6902
S'GO:0034047'
p6903
ag5
(g6
g7
NtRp6904
((dp6905
S'Q76P24'
p6906
I01
stbaa(lp6907
S'GO:0072507'
p6908
ag5
(g6
g7
NtRp6909
((dp6910
S'Q76P24'
p6911
I01
stbaa(lp6912
S'GO:0040040'
p6913
ag5
(g6
g7
NtRp6914
((dp6915
S'Q7YXU4'
p6916
I01
stbaa(lp6917
S'GO:0051592'
p6918
ag5
(g6
g7
NtRp6919
((dp6920
S'Q9GPK9'
p6921
I01
sS'Q7YXU4'
p6922
I01
stbaa(lp6923
S'GO:0060359'
p6924
ag5
(g6
g7
NtRp6925
((dp6926
S'Q7YXU4'
p6927
I01
stbaa(lp6928
S'GO:0000160'
p6929
ag5
(g6
g7
NtRp6930
((dp6931
S'Q869S5'
p6932
I01
stbaa(lp6933
S'GO:0007234'
p6934
ag5
(g6
g7
NtRp6935
((dp6936
S'Q869S5'
p6937
I01
stbaa(lp6938
S'GO:0023014'
p6939
ag5
(g6
g7
NtRp6940
((dp6941
S'Q869S5'
p6942
I01
stbaa(lp6943
S'GO:0006879'
p6944
ag5
(g6
g7
NtRp6945
((dp6946
S'Q869V1'
p6947
I01
stbaa(lp6948
S'GO:0034755'
p6949
ag5
(g6
g7
NtRp6950
((dp6951
S'Q869V1'
p6952
I01
stbaa(lp6953
S'GO:0046854'
p6954
ag5
(g6
g7
NtRp6955
((dp6956
S'Q86A02'
p6957
I01
stbaa(lp6958
S'GO:0009966'
p6959
ag5
(g6
g7
NtRp6960
((dp6961
S'Q86AS5'
p6962
I01
stbaa(lp6963
S'GO:0050793'
p6964
ag5
(g6
g7
NtRp6965
((dp6966
S'Q8MXY0'
p6967
I01
sS'Q86AT8'
p6968
I01
stbaa(lp6969
S'GO:0006097'
p6970
ag5
(g6
g7
NtRp6971
((dp6972
S'Q8MQU6'
p6973
I01
sS'Q86AV6'
p6974
I01
stbaa(lp6975
S'GO:0006099'
p6976
ag5
(g6
g7
NtRp6977
((dp6978
S'Q8MQU6'
p6979
I01
sS'Q86AV6'
p6980
I01
stbaa(lp6981
S'GO:0070265'
p6982
ag5
(g6
g7
NtRp6983
((dp6984
S'Q9GPM2'
p6985
I01
sS'Q86CS2'
p6986
I01
stbaa(lp6987
S'GO:0046488'
p6988
ag5
(g6
g7
NtRp6989
((dp6990
S'Q86D86'
p6991
I01
stbaa(lp6992
S'GO:1900426'
p6993
ag5
(g6
g7
NtRp6994
((dp6995
S'Q86D86'
p6996
I01
stbaa(lp6997
S'GO:0001919'
p6998
ag5
(g6
g7
NtRp6999
((dp7000
S'Q86H98'
p7001
I01
stbaa(lp7002
S'GO:0007040'
p7003
ag5
(g6
g7
NtRp7004
((dp7005
S'Q86H98'
p7006
I01
sS'Q86JF2'
p7007
I01
stbaa(lp7008
S'GO:0006457'
p7009
ag5
(g6
g7
NtRp7010
((dp7011
S'Q86IA3'
p7012
I01
stbaa(lp7013
S'GO:0006110'
p7014
ag5
(g6
g7
NtRp7015
((dp7016
S'Q86IV5'
p7017
I01
stbaa(lp7018
S'GO:0007162'
p7019
ag5
(g6
g7
NtRp7020
((dp7021
S'Q86IV5'
p7022
I01
stbaa(lp7023
S'GO:0030827'
p7024
ag5
(g6
g7
NtRp7025
((dp7026
S'Q86IV5'
p7027
I01
stbaa(lp7028
S'GO:0043666'
p7029
ag5
(g6
g7
NtRp7030
((dp7031
S'Q86IZ4'
p7032
I01
stbaa(lp7033
S'GO:0009267'
p7034
ag5
(g6
g7
NtRp7035
((dp7036
S'Q9GPF1'
p7037
I01
sS'Q86JF2'
p7038
I01
stbaa(lp7039
S'GO:0031318'
p7040
ag5
(g6
g7
NtRp7041
((dp7042
S'Q86K54'
p7043
I01
stbaa(lp7044
S'GO:0042466'
p7045
ag5
(g6
g7
NtRp7046
((dp7047
S'Q86K54'
p7048
I01
stbaa(lp7049
S'GO:0009691'
p7050
ag5
(g6
g7
NtRp7051
((dp7052
S'Q86K86'
p7053
I01
stbaa(lp7054
S'GO:0018401'
p7055
ag5
(g6
g7
NtRp7056
((dp7057
S'Q86KR9'
p7058
I01
stbaa(lp7059
S'GO:0072592'
p7060
ag5
(g6
g7
NtRp7061
((dp7062
S'Q86KR9'
p7063
I01
stbaa(lp7064
S'GO:0016070'
p7065
ag5
(g6
g7
NtRp7066
((dp7067
S'Q86KZ5'
p7068
I01
stbaa(lp7069
S'GO:1900370'
p7070
ag5
(g6
g7
NtRp7071
((dp7072
S'Q86L44'
p7073
I01
stbaa(lp7074
S'GO:0071539'
p7075
ag5
(g6
g7
NtRp7076
((dp7077
S'Q8I0F4'
p7078
I01
stbaa(lp7079
S'GO:0006895'
p7080
ag5
(g6
g7
NtRp7081
((dp7082
S'Q8I8U2'
p7083
I01
stbaa(lp7084
S'GO:0070291'
p7085
ag5
(g6
g7
NtRp7086
((dp7087
S'Q8MMR8'
p7088
I01
stbaa(lp7089
S'GO:0006869'
p7090
ag5
(g6
g7
NtRp7091
((dp7092
S'Q8MN58'
p7093
I01
stbaa(lp7094
S'GO:0006886'
p7095
ag5
(g6
g7
NtRp7096
((dp7097
S'Q9GPF1'
p7098
I01
sS'Q8MN58'
p7099
I01
stbaa(lp7100
S'GO:0008202'
p7101
ag5
(g6
g7
NtRp7102
((dp7103
S'Q8MPQ7'
p7104
I01
stbaa(lp7105
S'GO:0015696'
p7106
ag5
(g6
g7
NtRp7107
((dp7108
S'Q9BLG3'
p7109
I01
sS'Q8MXY0'
p7110
I01
sS'Q9BLG4'
p7111
I01
stbaa(lp7112
S'GO:0016925'
p7113
ag5
(g6
g7
NtRp7114
((dp7115
S'Q8N0B4'
p7116
I01
stbaa(lp7117
S'GO:0050850'
p7118
ag5
(g6
g7
NtRp7119
((dp7120
S'Q8SSQ3'
p7121
I01
stbaa(lp7122
S'GO:0048837'
p7123
ag5
(g6
g7
NtRp7124
((dp7125
S'Q8SSS9'
p7126
I01
stbaa(lp7127
S'GO:0031319'
p7128
ag5
(g6
g7
NtRp7129
((dp7130
S'Q8T133'
p7131
I01
stbaa(lp7132
S'GO:0006749'
p7133
ag5
(g6
g7
NtRp7134
((dp7135
S'Q8T137'
p7136
I01
stbaa(lp7137
S'GO:0006448'
p7138
ag5
(g6
g7
NtRp7139
((dp7140
S'Q8T6B4'
p7141
I01
sS'Q8T6B8'
p7142
I01
stbaa(lp7143
S'GO:0031286'
p7144
ag5
(g6
g7
NtRp7145
((dp7146
S'Q9XZJ3'
p7147
I01
sS'Q8T7K0'
p7148
I01
stbaa(lp7149
S'GO:0045881'
p7150
ag5
(g6
g7
NtRp7151
((dp7152
S'Q8T7K0'
p7153
I01
stbaa(lp7154
S'GO:0071901'
p7155
ag5
(g6
g7
NtRp7156
((dp7157
S'Q8T9S7'
p7158
I01
stbaa(lp7159
S'GO:0051225'
p7160
ag5
(g6
g7
NtRp7161
((dp7162
S'Q8WQ86'
p7163
I01
stbaa(lp7164
S'GO:0090383'
p7165
ag5
(g6
g7
NtRp7166
((dp7167
S'Q94464'
p7168
I01
stbaa(lp7169
S'GO:0006390'
p7170
ag5
(g6
g7
NtRp7171
((dp7172
S'Q95NZ8'
p7173
I01
stbaa(lp7174
S'GO:0035023'
p7175
ag5
(g6
g7
NtRp7176
((dp7177
S'Q95UQ1'
p7178
I01
sS'Q95UP9'
p7179
I01
stbaa(lp7180
S'GO:0043689'
p7181
ag5
(g6
g7
NtRp7182
((dp7183
S'Q95YH0'
p7184
I01
stbaa(lp7185
S'GO:0070816'
p7186
ag5
(g6
g7
NtRp7187
((dp7188
S'Q95YH0'
p7189
I01
stbaa(lp7190
S'GO:0043085'
p7191
ag5
(g6
g7
NtRp7192
((dp7193
S'Q95ZG8'
p7194
I01
stbaa(lp7195
S'GO:0030163'
p7196
ag5
(g6
g7
NtRp7197
((dp7198
S'Q967U1'
p7199
I01
stbaa(lp7200
S'GO:0045597'
p7201
ag5
(g6
g7
NtRp7202
((dp7203
S'Q968Z6'
p7204
I01
stbaa(lp7205
S'GO:0032314'
p7206
ag5
(g6
g7
NtRp7207
((dp7208
S'Q9GPS0'
p7209
I01
stbaa(lp7210
S'GO:0006308'
p7211
ag5
(g6
g7
NtRp7212
((dp7213
S'Q9GRX6'
p7214
I01
stbaa(lp7215
S'GO:0030261'
p7216
ag5
(g6
g7
NtRp7217
((dp7218
S'Q9GRX6'
p7219
I01
stbaa(lp7220
S'GO:0030950'
p7221
ag5
(g6
g7
NtRp7222
((dp7223
S'Q9GSG9'
p7224
I01
stbaa(lp7225
S'GO:0034670'
p7226
ag5
(g6
g7
NtRp7227
((dp7228
S'Q9NA13'
p7229
I01
stbaa(lp7230
S'GO:0048016'
p7231
ag5
(g6
g7
NtRp7232
((dp7233
S'Q9NA13'
p7234
I01
stbaa(lp7235
S'GO:0051209'
p7236
ag5
(g6
g7
NtRp7237
((dp7238
S'Q9NA13'
p7239
I01
stbaa(lp7240
S'GO:0042493'
p7241
ag5
(g6
g7
NtRp7242
((dp7243
S'Q9NH03'
p7244
I01
stbaa(lp7245
S'GO:0045337'
p7246
ag5
(g6
g7
NtRp7247
((dp7248
S'Q9NH03'
p7249
I01
stbaa(lp7250
S'GO:0000413'
p7251
ag5
(g6
g7
NtRp7252
((dp7253
S'Q9NI62'
p7254
I01
stbaa(lp7255
S'GO:0060151'
p7256
ag5
(g6
g7
NtRp7257
((dp7258
S'Q9U1M9'
p7259
I01
stbaa(lp7260
S'GO:0071476'
p7261
ag5
(g6
g7
NtRp7262
((dp7263
S'Q9U1M9'
p7264
I01
stbaa(lp7265
S'GO:0007088'
p7266
ag5
(g6
g7
NtRp7267
((dp7268
S'Q9U7C9'
p7269
I01
stbaa(lp7270
S'GO:0033109'
p7271
ag5
(g6
g7
NtRp7272
((dp7273
S'Q9XXV8'
p7274
I01
stbaa(lp7275
S'GO:2000147'
p7276
ag5
(g6
g7
NtRp7277
((dp7278
S'Q9XXV8'
p7279
I01
stbaa(lp7280
S'GO:0006511'
p7281
ag5
(g6
g7
NtRp7282
((dp7283
S'Q9Y0T2'
p7284
I01
stbaatRp7285
.