ccollections
OrderedDict
p1
((lp2
(lp3
S'GO:0005622'
p4
accopy_reg
_reconstructor
p5
(csets
Set
p6
c__builtin__
object
p7
NtRp8
((dp9
S'P32252'
p10
I01
sS'P32253'
p11
I01
sS'Q86I44'
p12
I01
sS'P34142'
p13
I01
sS'Q54FI3'
p14
I01
sS'Q5XM24'
p15
I01
sS'Q00766'
p16
I01
sS'Q55AR6'
p17
I01
sS'Q8T137'
p18
I01
sS'Q558U1'
p19
I01
sS'P20425'
p20
I01
sS'P32254'
p21
I01
sS'O76187'
p22
I01
sS'Q9GPK9'
p23
I01
sS'P15064'
p24
I01
sS'Q55E72'
p25
I01
sS'P02599'
p26
I01
sS'Q54GP8'
p27
I01
sS'Q6TU48'
p28
I01
sS'P34117'
p29
I01
sS'P34114'
p30
I01
sS'P34112'
p31
I01
sS'Q8T638'
p32
I01
sS'Q23917'
p33
I01
sS'Q54RR8'
p34
I01
sS'B0G0Y8'
p35
I01
sS'Q8MM62'
p36
I01
sS'Q550L8'
p37
I01
stbaa(lp38
S'GO:0045335'
p39
ag5
(g6
g7
NtRp40
((dp41
S'P32252'
p42
I01
sS'P32256'
p43
I01
sS'Q54XI5'
p44
I01
sS'P32255'
p45
I01
sS'Q54UH8'
p46
I01
sS'Q55BM4'
p47
I01
sS'Q54DA8'
p48
I01
sS'O00780'
p49
I01
sS'Q54MT0'
p50
I01
sS'Q55BZ4'
p51
I01
sS'P0DJ26'
p52
I01
sS'Q54B68'
p53
I01
sS'Q55EZ6'
p54
I01
sS'Q86IF6'
p55
I01
sS'B0G196'
p56
I01
sS'Q54D04'
p57
I01
sS'Q55D63'
p58
I01
sS'Q54QP6'
p59
I01
sS'Q54NP6'
p60
I01
sS'Q54RA8'
p61
I01
sS'P54661'
p62
I01
sS'Q54VI6'
p63
I01
sS'Q95UQ1'
p64
I01
sS'Q54S82'
p65
I01
sS'Q54CH1'
p66
I01
sS'Q54H38'
p67
I01
sS'Q7KWQ2'
p68
I01
sS'Q55BH2'
p69
I01
sS'Q9GRX6'
p70
I01
sS'Q54F26'
p71
I01
sS'P33519'
p72
I01
sS'Q54PX6'
p73
I01
sS'Q95US4'
p74
I01
sS'Q54VQ1'
p75
I01
sS'Q95VZ3'
p76
I01
sS'Q9UAG7'
p77
I01
sS'Q54YA0'
p78
I01
sS'Q86A17'
p79
I01
sS'Q55C21'
p80
I01
sS'Q75K18'
p81
I01
sS'Q75JY8'
p82
I01
sS'Q869V1'
p83
I01
sS'Q8T662'
p84
I01
sS'O15706'
p85
I01
sS'Q54S38'
p86
I01
sS'P34118'
p87
I01
sS'P34115'
p88
I01
sS'Q65YR8'
p89
I01
sS'Q54HB2'
p90
I01
sS'Q54LX0'
p91
I01
sS'Q54J47'
p92
I01
sS'Q54M58'
p93
I01
sS'Q6TMK3'
p94
I01
sS'Q54J48'
p95
I01
sS'Q554U9'
p96
I01
sS'Q55CS9'
p97
I01
sS'Q86A97'
p98
I01
sS'Q54VA2'
p99
I01
sS'Q54BI8'
p100
I01
sS'Q95YL5'
p101
I01
sS'Q54BI7'
p102
I01
sS'Q553V1'
p103
I01
sS'B0G141'
p104
I01
sS'Q54LT2'
p105
I01
sS'Q556J0'
p106
I01
sS'O00909'
p107
I01
sS'Q54QR3'
p108
I01
sS'Q54WR9'
p109
I01
sS'Q86K89'
p110
I01
sS'P27133'
p111
I01
sS'P22887'
p112
I01
sS'Q27562'
p113
I01
sS'Q54JJ5'
p114
I01
sS'P34042'
p115
I01
sS'Q1ZXG4'
p116
I01
sS'Q55GQ5'
p117
I01
sS'Q54RC0'
p118
I01
sS'Q555G2'
p119
I01
sS'Q550R2'
p120
I01
sS'P24639'
p121
I01
sS'Q54EW8'
p122
I01
sS'P32073'
p123
I01
sS'Q54WZ2'
p124
I01
sS'Q23921'
p125
I01
sS'Q54Z13'
p126
I01
sS'Q54TY4'
p127
I01
sS'Q54YA2'
p128
I01
sS'Q54XR4'
p129
I01
sS'P10819'
p130
I01
sS'Q9BKJ9'
p131
I01
sS'P16168'
p132
I01
sS'Q55GV9'
p133
I01
sS'Q54XC1'
p134
I01
sS'Q558Z0'
p135
I01
sS'Q01501'
p136
I01
sS'Q54HR9'
p137
I01
sS'Q552D1'
p138
I01
sS'P54632'
p139
I01
sS'P36410'
p140
I01
sS'P36411'
p141
I01
sS'P36412'
p142
I01
sS'P29505'
p143
I01
sS'P54638'
p144
I01
sS'P36415'
p145
I01
sS'Q54IF7'
p146
I01
sS'Q23858'
p147
I01
sS'P07830'
p148
I01
sS'Q54MB4'
p149
I01
sS'Q54UM3'
p150
I01
sS'Q8MML6'
p151
I01
sS'Q54D73'
p152
I01
sS'Q75JR3'
p153
I01
sS'P02886'
p154
I01
sS'P02887'
p155
I01
sS'P02888'
p156
I01
sS'O96621'
p157
I01
sS'O96622'
p158
I01
sS'O96623'
p159
I01
sS'P42530'
p160
I01
sS'O96625'
p161
I01
sS'O96626'
p162
I01
sS'Q86IJ1'
p163
I01
sS'Q54AX5'
p164
I01
sS'P54680'
p165
I01
sS'Q557D2'
p166
I01
sS'Q54EN4'
p167
I01
sS'Q54Q48'
p168
I01
sS'Q9U3X4'
p169
I01
sS'Q54N76'
p170
I01
sS'Q54GE3'
p171
I01
sS'Q76NU3'
p172
I01
sS'Q54F93'
p173
I01
sS'P34144'
p174
I01
sS'Q54KL2'
p175
I01
sS'Q54MA6'
p176
I01
sS'Q54PX9'
p177
I01
sS'Q55DR6'
p178
I01
sS'Q75JQ1'
p179
I01
sS'Q9U1M9'
p180
I01
sS'Q55GD9'
p181
I01
sS'Q54PA9'
p182
I01
sS'Q86L14'
p183
I01
sS'Q86JA1'
p184
I01
sS'Q54JS9'
p185
I01
sS'Q54FU0'
p186
I01
sS'P07829'
p187
I01
sS'B0G181'
p188
I01
sS'Q54NU2'
p189
I01
sS'Q54IP0'
p190
I01
sS'Q54NT1'
p191
I01
sS'Q54FW2'
p192
I01
sS'Q54C70'
p193
I01
sS'Q54UI0'
p194
I01
sS'Q964D8'
p195
I01
sS'Q86IA3'
p196
I01
sS'Q9GRF8'
p197
I01
sS'Q556G3'
p198
I01
sS'P46800'
p199
I01
sS'P13651'
p200
I01
sS'P42528'
p201
I01
sS'Q553U6'
p202
I01
sS'Q9GPM4'
p203
I01
sS'Q55EX9'
p204
I01
sS'Q76NU1'
p205
I01
sS'Q54SU8'
p206
I01
sS'Q55BV5'
p207
I01
sS'Q94469'
p208
I01
sS'Q54U38'
p209
I01
sS'P42526'
p210
I01
sS'Q55BN8'
p211
I01
sS'P15064'
p212
I01
sS'Q55GT3'
p213
I01
sS'P24005'
p214
I01
sS'P09556'
p215
I01
sS'Q557E0'
p216
I01
sS'P13021'
p217
I01
sS'P13022'
p218
I01
sS'Q55BY1'
p219
I01
sS'Q54XZ0'
p220
I01
sS'Q75JD5'
p221
I01
sS'Q55GN5'
p222
I01
sS'Q54PN7'
p223
I01
sS'Q86IC8'
p224
I01
sS'Q86AQ3'
p225
I01
sS'Q54TH8'
p226
I01
sS'Q54R45'
p227
I01
sS'Q54M12'
p228
I01
sS'P54657'
p229
I01
sS'Q9U9R7'
p230
I01
sS'O77229'
p231
I01
sS'Q54C92'
p232
I01
sS'P54651'
p233
I01
sS'P18613'
p234
I01
sS'Q556F7'
p235
I01
sS'P54659'
p236
I01
sS'Q54BM2'
p237
I01
sS'Q54X80'
p238
I01
sS'Q54I98'
p239
I01
sS'Q55DL5'
p240
I01
sS'Q54VG4'
p241
I01
sS'Q55FF3'
p242
I01
sS'Q54KD9'
p243
I01
sS'Q54F74'
p244
I01
sS'Q54WL7'
p245
I01
sS'P90529'
p246
I01
sS'Q54JD4'
p247
I01
sS'P90526'
p248
I01
sS'Q54JD9'
p249
I01
sS'Q554F5'
p250
I01
sS'Q54J66'
p251
I01
sS'P36408'
p252
I01
sS'Q54MZ3'
p253
I01
sS'Q54D21'
p254
I01
sS'P13231'
p255
I01
sS'O96624'
p256
I01
sS'Q54KB7'
p257
I01
sS'Q94465'
p258
I01
sS'Q54E04'
p259
I01
sS'P54647'
p260
I01
sS'Q54DF9'
p261
I01
sS'P54641'
p262
I01
sS'P34123'
p263
I01
sS'P34121'
p264
I01
sS'Q55FK4'
p265
I01
sS'P21900'
p266
I01
sS'Q54DF1'
p267
I01
sS'Q54ES8'
p268
I01
sS'Q54ES9'
p269
I01
sS'P10733'
p270
I01
sS'Q86A67'
p271
I01
sS'P14326'
p272
I01
sS'P22685'
p273
I01
sS'Q94464'
p274
I01
sS'Q54NE6'
p275
I01
sS'Q54UF7'
p276
I01
sS'Q8T131'
p277
I01
sS'Q6IMN8'
p278
I01
sS'Q58A41'
p279
I01
sS'Q9NIF3'
p280
I01
sS'Q54PV8'
p281
I01
sS'P34092'
p282
I01
sS'P34093'
p283
I01
sS'Q553S7'
p284
I01
sS'Q54LV1'
p285
I01
sS'Q54F07'
p286
I01
sS'Q8T869'
p287
I01
sS'Q86JF2'
p288
I01
sS'P90532'
p289
I01
sS'P83401'
p290
I01
sS'Q03380'
p291
I01
sS'Q75JL7'
p292
I01
sS'Q86A77'
p293
I01
sS'Q54P64'
p294
I01
sS'P15808'
p295
I01
sS'C7FZZ0'
p296
I01
sS'Q54MB5'
p297
I01
sS'Q54HG2'
p298
I01
sS'Q559R0'
p299
I01
sS'Q54QH0'
p300
I01
sS'Q54Y98'
p301
I01
sS'Q555L5'
p302
I01
sS'Q54NW7'
p303
I01
sS'Q86JE1'
p304
I01
sS'Q54KR1'
p305
I01
sS'Q54QQ0'
p306
I01
sS'Q54Z26'
p307
I01
sS'Q54PF9'
p308
I01
sS'Q54QE9'
p309
I01
sS'Q54GX7'
p310
I01
sS'Q76NV5'
p311
I01
sS'Q554D9'
p312
I01
sS'P15112'
p313
I01
sS'Q54K46'
p314
I01
sS'Q54TG6'
p315
I01
sS'Q86HU8'
p316
I01
sS'Q54FX9'
p317
I01
sS'Q557J6'
p318
I01
sS'Q55EU6'
p319
I01
sS'Q54MR6'
p320
I01
stbaa(lp321
S'GO:0005615'
p322
ag5
(g6
g7
NtRp323
((dp324
S'Q54LG3'
p325
I01
sS'Q54Z16'
p326
I01
sS'Q54LG5'
p327
I01
sS'Q7Z1I0'
p328
I01
sS'Q54EL4'
p329
I01
sS'Q54HD2'
p330
I01
sS'Q54FI2'
p331
I01
sS'Q55GD2'
p332
I01
sS'Q55BZ5'
p333
I01
sS'Q54EL2'
p334
I01
sS'Q8T137'
p335
I01
sS'Q55AQ9'
p336
I01
sS'Q54ED7'
p337
I01
sS'Q54ED6'
p338
I01
sS'Q54TD0'
p339
I01
sS'Q54HW8'
p340
I01
sS'Q8T2I5'
p341
I01
sS'Q557I0'
p342
I01
sS'P54661'
p343
I01
sS'Q54ME1'
p344
I01
sS'Q55EK7'
p345
I01
sS'Q55DV9'
p346
I01
sS'Q55EK4'
p347
I01
sS'Q86HB8'
p348
I01
sS'Q8MYE6'
p349
I01
sS'Q54NG9'
p350
I01
sS'Q54MM1'
p351
I01
sS'Q55CF8'
p352
I01
sS'Q54W02'
p353
I01
sS'Q76P36'
p354
I01
sS'Q54YG8'
p355
I01
sS'Q86L05'
p356
I01
sS'Q54EU8'
p357
I01
sS'Q54L07'
p358
I01
sS'Q54G47'
p359
I01
sS'Q86K73'
p360
I01
sS'Q54JG8'
p361
I01
sS'Q54WD2'
p362
I01
sS'Q95YH0'
p363
I01
sS'Q54K36'
p364
I01
sS'Q54T73'
p365
I01
sS'Q55F77'
p366
I01
sS'Q555E5'
p367
I01
sS'Q54BQ8'
p368
I01
sS'O76856'
p369
I01
sS'Q94504'
p370
I01
sS'Q54P42'
p371
I01
sS'Q54K94'
p372
I01
sS'Q54VJ1'
p373
I01
sS'Q94503'
p374
I01
sS'Q6IMN8'
p375
I01
sS'Q54JA5'
p376
I01
sS'Q54CF7'
p377
I01
sS'Q8T2R4'
p378
I01
sS'Q65YR7'
p379
I01
sS'Q86KU5'
p380
I01
sS'Q54TR1'
p381
I01
sS'P34116'
p382
I01
sS'Q55C09'
p383
I01
sS'Q54RI2'
p384
I01
sS'P34113'
p385
I01
sS'P83401'
p386
I01
sS'Q54L19'
p387
I01
sS'Q7KWU6'
p388
I01
sS'Q7KWP5'
p389
I01
sS'Q54J47'
p390
I01
sS'Q54P69'
p391
I01
sS'Q869Q8'
p392
I01
sS'Q75JQ8'
p393
I01
sS'Q54EK0'
p394
I01
sS'Q86HR3'
p395
I01
sS'Q54VC2'
p396
I01
sS'Q54FZ8'
p397
I01
sS'Q75JL8'
p398
I01
sS'Q54PM6'
p399
I01
sS'Q54VA2'
p400
I01
sS'Q86JL4'
p401
I01
sS'Q86KF4'
p402
I01
sS'Q54M57'
p403
I01
sS'Q76NV5'
p404
I01
sS'Q556J0'
p405
I01
sS'Q55DF9'
p406
I01
sS'Q86K81'
p407
I01
sS'Q54G96'
p408
I01
sS'Q55B99'
p409
I01
sS'Q75JX2'
p410
I01
sS'Q75JJ3'
p411
I01
sS'Q86IG4'
p412
I01
sS'Q553M7'
p413
I01
sS'Q54BC5'
p414
I01
sS'O77257'
p415
I01
sS'Q54C94'
p416
I01
sS'Q54UI0'
p417
I01
sS'O77082'
p418
I01
sS'Q54TS5'
p419
I01
sS'Q54SA1'
p420
I01
sS'Q54C12'
p421
I01
sS'Q54DU0'
p422
I01
sS'Q54UB6'
p423
I01
sS'P16643'
p424
I01
sS'Q95US4'
p425
I01
sS'P08796'
p426
I01
sS'Q55GQ5'
p427
I01
sS'Q55D50'
p428
I01
sS'Q54EW2'
p429
I01
sS'Q54PR9'
p430
I01
sS'Q55EM4'
p431
I01
sS'Q54QZ5'
p432
I01
sS'Q54R27'
p433
I01
sS'Q23921'
p434
I01
sS'Q86IW1'
p435
I01
sS'Q5VJL3'
p436
I01
sS'Q54HE7'
p437
I01
sS'Q54NY0'
p438
I01
sS'Q8MM62'
p439
I01
sS'Q55GV2'
p440
I01
sS'Q8I7T3'
p441
I01
sS'Q54NY7'
p442
I01
sS'P10819'
p443
I01
sS'Q86L42'
p444
I01
sS'Q54K12'
p445
I01
sS'Q54SC9'
p446
I01
sS'Q54BS2'
p447
I01
sS'Q54I47'
p448
I01
sS'Q55CY7'
p449
I01
sS'Q55EZ8'
p450
I01
sS'Q54VS8'
p451
I01
sS'Q75JK9'
p452
I01
sS'Q54JD4'
p453
I01
sS'P54632'
p454
I01
sS'Q54IY9'
p455
I01
sS'P36411'
p456
I01
sS'Q86IX8'
p457
I01
sS'Q86A30'
p458
I01
sS'P54638'
p459
I01
sS'P54639'
p460
I01
sS'P36415'
p461
I01
sS'Q554H5'
p462
I01
sS'Q55GP7'
p463
I01
sS'Q557J0'
p464
I01
sS'Q23858'
p465
I01
sS'P02599'
p466
I01
sS'Q55CF6'
p467
I01
sS'Q86L26'
p468
I01
sS'Q54TC4'
p469
I01
sS'Q6S001'
p470
I01
sS'Q54CM9'
p471
I01
sS'Q556U5'
p472
I01
sS'Q55BW8'
p473
I01
sS'Q86J22'
p474
I01
sS'Q557H9'
p475
I01
sS'P42530'
p476
I01
sS'Q553T9'
p477
I01
sS'Q86J25'
p478
I01
sS'Q54RK5'
p479
I01
sS'Q54EN4'
p480
I01
sS'Q86K01'
p481
I01
sS'Q54KF7'
p482
I01
sS'Q54S53'
p483
I01
sS'Q54GE1'
p484
I01
sS'Q556S7'
p485
I01
sS'Q54MV9'
p486
I01
sS'Q54KR8'
p487
I01
sS'Q54DY7'
p488
I01
sS'Q54G58'
p489
I01
sS'Q54V27'
p490
I01
sS'Q86II9'
p491
I01
sS'O60952'
p492
I01
sS'Q54MA4'
p493
I01
sS'Q54G77'
p494
I01
sS'Q555L5'
p495
I01
sS'Q54DH5'
p496
I01
sS'Q75JR3'
p497
I01
sS'Q5FXM5'
p498
I01
sS'Q54MX8'
p499
I01
sS'Q54TQ9'
p500
I01
sS'Q54JR1'
p501
I01
sS'Q55E60'
p502
I01
sS'Q8T5Z7'
p503
I01
sS'Q54MX7'
p504
I01
sS'Q556G3'
p505
I01
sS'Q8MUF9'
p506
I01
sS'Q553U1'
p507
I01
sS'P42523'
p508
I01
sS'Q54BL8'
p509
I01
sS'P42520'
p510
I01
sS'Q54EQ6'
p511
I01
sS'Q54FU0'
p512
I01
sS'Q55GT0'
p513
I01
sS'Q54RL3'
p514
I01
sS'Q95UC5'
p515
I01
sS'Q54WR3'
p516
I01
sS'Q54QD9'
p517
I01
sS'Q9GPK9'
p518
I01
sS'Q54BU3'
p519
I01
sS'Q55DL0'
p520
I01
sS'Q552L2'
p521
I01
sS'Q54RF4'
p522
I01
sS'Q54EX0'
p523
I01
sS'Q54CB7'
p524
I01
sS'P13023'
p525
I01
sS'Q86IC7'
p526
I01
sS'Q86I79'
p527
I01
sS'Q54E80'
p528
I01
sS'Q55FK8'
p529
I01
sS'Q54UJ7'
p530
I01
sS'Q55C60'
p531
I01
sS'Q86L41'
p532
I01
sS'Q86KC1'
p533
I01
sS'Q558X5'
p534
I01
sS'Q54VR1'
p535
I01
sS'P54657'
p536
I01
sS'P54654'
p537
I01
sS'Q54L58'
p538
I01
sS'Q557J6'
p539
I01
sS'Q76NV1'
p540
I01
sS'Q54ZD1'
p541
I01
sS'Q54Q99'
p542
I01
sS'Q8MP20'
p543
I01
sS'Q8SSW4'
p544
I01
sS'Q8T6B8'
p545
I01
sS'Q54BK2'
p546
I01
sS'Q557M8'
p547
I01
sS'P46793'
p548
I01
sS'Q54X80'
p549
I01
sS'Q54DP5'
p550
I01
sS'Q86HT1'
p551
I01
sS'Q76NW2'
p552
I01
sS'Q55B15'
p553
I01
sS'Q55F70'
p554
I01
sS'Q54N76'
p555
I01
sS'Q54I92'
p556
I01
sS'Q54FV5'
p557
I01
sS'Q55BJ6'
p558
I01
sS'Q8T1V4'
p559
I01
sS'Q555C6'
p560
I01
sS'Q9U7C7'
p561
I01
sS'Q54U91'
p562
I01
sS'Q54J08'
p563
I01
sS'Q55GU8'
p564
I01
sS'Q54T09'
p565
I01
sS'P90526'
p566
I01
sS'Q54WD8'
p567
I01
sS'Q54QG1'
p568
I01
sS'Q55D91'
p569
I01
sS'Q55D84'
p570
I01
sS'P0CG80'
p571
I01
sS'Q55DC6'
p572
I01
sS'Q55DB1'
p573
I01
sS'Q1ZXC5'
p574
I01
sS'O96070'
p575
I01
sS'Q55C74'
p576
I01
sS'Q54R55'
p577
I01
sS'Q54E04'
p578
I01
sS'Q556V7'
p579
I01
sS'Q7KWS9'
p580
I01
sS'Q54JJ8'
p581
I01
sS'Q557K3'
p582
I01
sS'Q54ZN0'
p583
I01
sS'P54640'
p584
I01
sS'Q94494'
p585
I01
sS'Q54KP3'
p586
I01
sS'Q551C1'
p587
I01
sS'Q55D04'
p588
I01
sS'Q86JH5'
p589
I01
sS'Q55CT9'
p590
I01
sS'Q54FW9'
p591
I01
sS'Q86A67'
p592
I01
sS'P14326'
p593
I01
sS'Q557E0'
p594
I01
sS'Q54X91'
p595
I01
sS'Q54DQ9'
p596
I01
sS'P22683'
p597
I01
sS'Q557I4'
p598
I01
sS'Q54K56'
p599
I01
sS'Q75K27'
p600
I01
sS'Q54K50'
p601
I01
sS'B0G160'
p602
I01
sS'Q54CY6'
p603
I01
sS'Q8T2U1'
p604
I01
sS'P34090'
p605
I01
sS'Q556I5'
p606
I01
sS'Q54Z69'
p607
I01
sS'Q54F07'
p608
I01
sS'Q8T869'
p609
I01
sS'Q54XV7'
p610
I01
sS'P90532'
p611
I01
sS'P34098'
p612
I01
sS'P29447'
p613
I01
sS'Q54RN1'
p614
I01
sS'Q557C7'
p615
I01
sS'Q54HA1'
p616
I01
sS'Q5XM24'
p617
I01
sS'Q54IJ6'
p618
I01
sS'Q54TT6'
p619
I01
sS'Q55E77'
p620
I01
sS'Q55FQ6'
p621
I01
sS'Q55EM3'
p622
I01
sS'Q23892'
p623
I01
sS'Q54J53'
p624
I01
sS'Q55GC7'
p625
I01
sS'Q54HG2'
p626
I01
sS'Q54UR7'
p627
I01
sS'Q86B07'
p628
I01
sS'Q54XG9'
p629
I01
sS'Q54JA3'
p630
I01
sS'Q1ZXD1'
p631
I01
sS'Q9GS21'
p632
I01
sS'Q55CU9'
p633
I01
sS'Q9GRF8'
p634
I01
sS'Q55GS3'
p635
I01
sS'Q54YZ9'
p636
I01
sS'Q54XG2'
p637
I01
sS'Q94469'
p638
I01
sS'Q54H23'
p639
I01
sS'Q54YD2'
p640
I01
sS'Q54KZ1'
p641
I01
sS'Q54XN0'
p642
I01
sS'Q54N35'
p643
I01
sS'Q54IS1'
p644
I01
sS'Q55AB5'
p645
I01
sS'Q54P96'
p646
I01
sS'Q54LN4'
p647
I01
sS'Q54DV5'
p648
I01
sS'Q55F41'
p649
I01
sS'Q550U9'
p650
I01
sS'Q54F13'
p651
I01
sS'Q54GI7'
p652
I01
sS'Q552M0'
p653
I01
sS'Q54F16'
p654
I01
sS'Q54YD1'
p655
I01
sS'Q55EJ2'
p656
I01
sS'Q54N70'
p657
I01
sS'Q86AU1'
p658
I01
sS'P51405'
p659
I01
sS'Q54ZW5'
p660
I01
sS'Q86AU2'
p661
I01
stbaa(lp662
S'GO:0005634'
p663
ag5
(g6
g7
NtRp664
((dp665
S'Q86A02'
p666
I01
sS'Q55G04'
p667
I01
sS'P52285'
p668
I01
sS'Q7Z1I0'
p669
I01
sS'P0DJ26'
p670
I01
sS'Q75JZ1'
p671
I01
sS'Q557I6'
p672
I01
sS'Q55D66'
p673
I01
sS'Q54X77'
p674
I01
sS'Q554C5'
p675
I01
sS'Q95YH0'
p676
I01
sS'Q551M2'
p677
I01
sS'Q54T71'
p678
I01
sS'Q550K3'
p679
I01
sS'Q9Y0B7'
p680
I01
sS'Q9NI62'
p681
I01
sS'P34119'
p682
I01
sS'P34117'
p683
I01
sS'Q55FW5'
p684
I01
sS'Q54JH6'
p685
I01
sS'Q54XM7'
p686
I01
sS'Q54ET8'
p687
I01
sS'Q86KF9'
p688
I01
sS'Q54QR2'
p689
I01
sS'Q54BC8'
p690
I01
sS'Q54LR3'
p691
I01
sS'Q54QR9'
p692
I01
sS'Q27563'
p693
I01
sS'Q27562'
p694
I01
sS'Q54QB1'
p695
I01
sS'O00910'
p696
I01
sS'Q54DM7'
p697
I01
sS'Q54LU5'
p698
I01
sS'Q86L44'
p699
I01
sS'P24639'
p700
I01
sS'P10819'
p701
I01
sS'Q54IY3'
p702
I01
sS'Q54BD4'
p703
I01
sS'P02599'
p704
I01
sS'Q54U85'
p705
I01
sS'Q54TP5'
p706
I01
sS'P36417'
p707
I01
sS'Q6S000'
p708
I01
sS'Q7Z1Z9'
p709
I01
sS'Q54MI3'
p710
I01
sS'Q7Z202'
p711
I01
sS'Q7Z203'
p712
I01
sS'Q54LP8'
p713
I01
sS'Q54HS3'
p714
I01
sS'Q9GRX6'
p715
I01
sS'Q54MA9'
p716
I01
sS'O00841'
p717
I01
sS'Q54ER9'
p718
I01
sS'Q86H98'
p719
I01
sS'P26355'
p720
I01
sS'Q70GP4'
p721
I01
sS'P42521'
p722
I01
sS'Q8N0B4'
p723
I01
sS'P35084'
p724
I01
sS'Q54CS2'
p725
I01
sS'Q55AX2'
p726
I01
sS'Q555X5'
p727
I01
sS'Q95YL4'
p728
I01
sS'Q54PN9'
p729
I01
sS'Q55BY9'
p730
I01
sS'Q55BW2'
p731
I01
sS'Q86A21'
p732
I01
sS'Q54LR0'
p733
I01
sS'Q54LY5'
p734
I01
sS'Q557E4'
p735
I01
sS'Q55FS1'
p736
I01
sS'Q54T85'
p737
I01
sS'Q54T86'
p738
I01
sS'Q54TY7'
p739
I01
sS'Q54CR9'
p740
I01
sS'Q54I18'
p741
I01
sS'Q54TN2'
p742
I01
sS'Q556Y4'
p743
I01
sS'Q55DB0'
p744
I01
sS'Q54R53'
p745
I01
sS'Q54G53'
p746
I01
sS'Q54YU6'
p747
I01
sS'O15816'
p748
I01
sS'P34127'
p749
I01
sS'Q54KJ1'
p750
I01
sS'P34120'
p751
I01
sS'Q55DY7'
p752
I01
sS'Q55BP0'
p753
I01
sS'Q55FC8'
p754
I01
sS'Q54BF5'
p755
I01
sS'Q55CL6'
p756
I01
sS'B0M0P5'
p757
I01
sS'Q54S04'
p758
I01
sS'Q550D5'
p759
I01
sS'Q55CU7'
p760
I01
sS'Q54XG7'
p761
I01
sS'Q967U1'
p762
I01
sS'Q55GJ6'
p763
I01
sS'Q86KX8'
p764
I01
sS'Q54K47'
p765
I01
sS'Q55FB8'
p766
I01
sS'O97101'
p767
I01
sS'Q556Q0'
p768
I01
stbaa(lp769
S'GO:0001891'
p770
ag5
(g6
g7
NtRp771
((dp772
S'P34144'
p773
I01
sS'Q54KF1'
p774
I01
sS'Q556T3'
p775
I01
sS'Q54GX7'
p776
I01
sS'Q553U6'
p777
I01
sS'C7FZZ0'
p778
I01
sS'Q9U1M8'
p779
I01
sS'P27133'
p780
I01
sS'Q86I44'
p781
I01
sS'P07829'
p782
I01
sS'P54680'
p783
I01
sS'Q03479'
p784
I01
sS'Q9XXV8'
p785
I01
sS'Q869N2'
p786
I01
sS'P54686'
p787
I01
sS'P07830'
p788
I01
sS'Q55E54'
p789
I01
sS'P13466'
p790
I01
sS'Q55GV9'
p791
I01
stbaa(lp792
S'GO:0005885'
p793
ag5
(g6
g7
NtRp794
((dp795
S'P42528'
p796
I01
sS'C7FZZ0'
p797
I01
sS'Q95VZ3'
p798
I01
sS'O96621'
p799
I01
sS'O96622'
p800
I01
sS'O96623'
p801
I01
sS'O96624'
p802
I01
sS'O96625'
p803
I01
sS'O96626'
p804
I01
sS'P27133'
p805
I01
stbaa(lp806
S'GO:0005905'
p807
ag5
(g6
g7
NtRp808
((dp809
S'Q9GSG9'
p810
I01
sS'P42528'
p811
I01
sS'C7FZZ0'
p812
I01
sS'O96621'
p813
I01
sS'O96622'
p814
I01
sS'O96623'
p815
I01
sS'O96624'
p816
I01
sS'O96625'
p817
I01
sS'O96626'
p818
I01
sS'Q54EH1'
p819
I01
sS'P54672'
p820
I01
stbaa(lp821
S'GO:0005675'
p822
ag5
(g6
g7
NtRp823
((dp824
S'Q55G81'
p825
I01
sS'O00835'
p826
I01
stbaa(lp827
S'GO:0005654'
p828
ag5
(g6
g7
NtRp829
((dp830
S'Q54RF4'
p831
I01
sS'Q558Z2'
p832
I01
sS'Q54X77'
p833
I01
sS'O00841'
p834
I01
sS'Q556Z0'
p835
I01
sS'Q55CT4'
p836
I01
sS'P34117'
p837
I01
sS'Q9U7C9'
p838
I01
stbaa(lp839
S'GO:0005829'
p840
ag5
(g6
g7
NtRp841
((dp842
S'Q54XY1'
p843
I01
sS'O00909'
p844
I01
sS'Q54WI0'
p845
I01
sS'Q54QT7'
p846
I01
sS'P13231'
p847
I01
sS'Q9NI62'
p848
I01
sS'Q54G53'
p849
I01
sS'Q6RYT0'
p850
I01
sS'Q8I7P3'
p851
I01
sS'Q54QR9'
p852
I01
sS'Q54Q99'
p853
I01
sS'P54644'
p854
I01
sS'Q54PQ4'
p855
I01
sS'P08799'
p856
I01
sS'Q86KF9'
p857
I01
sS'Q54KA7'
p858
I01
sS'Q8T6B4'
p859
I01
sS'Q9U1M8'
p860
I01
sS'Q54IJ3'
p861
I01
sS'P21900'
p862
I01
sS'Q55DH8'
p863
I01
sS'P54661'
p864
I01
sS'P16051'
p865
I01
sS'Q55FC8'
p866
I01
sS'Q551V8'
p867
I01
sS'Q54QV3'
p868
I01
sS'Q65YR8'
p869
I01
sS'O00899'
p870
I01
sS'P35401'
p871
I01
sS'Q555X5'
p872
I01
sS'Q55AV3'
p873
I01
sS'P42526'
p874
I01
sS'P42525'
p875
I01
sS'Q54VQ5'
p876
I01
sS'Q54CA8'
p877
I01
sS'O76765'
p878
I01
sS'Q8MLZ3'
p879
I01
sS'Q54QB1'
p880
I01
sS'Q5TJ65'
p881
I01
sS'Q557E7'
p882
I01
sS'Q55CL6'
p883
I01
sS'P34099'
p884
I01
sS'Q8T9S7'
p885
I01
sS'Q86AV6'
p886
I01
sS'Q55GV9'
p887
I01
sS'O77203'
p888
I01
sS'Q95YH0'
p889
I01
sS'Q6IMN8'
p890
I01
sS'O00910'
p891
I01
sS'Q54RJ2'
p892
I01
sS'Q867T7'
p893
I01
sS'Q71A39'
p894
I01
sS'Q54BD4'
p895
I01
sS'P36417'
p896
I01
sS'Q86KG9'
p897
I01
sS'Q7YXU4'
p898
I01
sS'P54673'
p899
I01
sS'P54674'
p900
I01
sS'Q8T6B8'
p901
I01
sS'P54651'
p902
I01
sS'P18613'
p903
I01
sS'Q54HG2'
p904
I01
sS'Q55E54'
p905
I01
sS'Q9NH03'
p906
I01
sS'Q54ND5'
p907
I01
sS'Q9XZE5'
p908
I01
sS'Q8N0B4'
p909
I01
sS'Q6XHB2'
p910
I01
sS'Q54NF8'
p911
I01
sS'Q95ZG8'
p912
I01
sS'Q54GD0'
p913
I01
sS'Q54K47'
p914
I01
sS'Q54ET8'
p915
I01
sS'Q86AS5'
p916
I01
sS'P05987'
p917
I01
sS'Q54DU0'
p918
I01
sS'Q556Q0'
p919
I01
sS'Q86CR9'
p920
I01
sS'Q65YR7'
p921
I01
sS'Q54R09'
p922
I01
sS'Q54K22'
p923
I01
sS'Q86G47'
p924
I01
sS'P90521'
p925
I01
sS'Q556J0'
p926
I01
sS'P36408'
p927
I01
stbaa(lp928
S'GO:0005938'
p929
ag5
(g6
g7
NtRp930
((dp931
S'P34144'
p932
I01
sS'Q54WI0'
p933
I01
sS'Q54WR4'
p934
I01
sS'Q54QT7'
p935
I01
sS'Q54CA8'
p936
I01
sS'P27133'
p937
I01
sS'Q54K81'
p938
I01
sS'Q5FXM5'
p939
I01
sS'P54644'
p940
I01
sS'P08799'
p941
I01
sS'Q55E26'
p942
I01
sS'Q9GRF8'
p943
I01
sS'Q8T8M2'
p944
I01
sS'Q8I7T3'
p945
I01
sS'Q54YZ6'
p946
I01
sS'Q8MY12'
p947
I01
sS'Q550R2'
p948
I01
sS'O00899'
p949
I01
sS'Q86G47'
p950
I01
sS'Q8MVR1'
p951
I01
sS'Q54F55'
p952
I01
sS'P42527'
p953
I01
sS'Q8N0B4'
p954
I01
sS'P42525'
p955
I01
sS'Q54BF5'
p956
I01
sS'O76765'
p957
I01
sS'Q86L04'
p958
I01
sS'Q9GPS0'
p959
I01
sS'Q5TJ65'
p960
I01
sS'Q1ZXH8'
p961
I01
sS'Q557E4'
p962
I01
sS'Q54K32'
p963
I01
sS'P13466'
p964
I01
sS'Q55GV9'
p965
I01
sS'P34036'
p966
I01
sS'P54632'
p967
I01
sS'P10819'
p968
I01
sS'Q7Z1I0'
p969
I01
sS'Q54HG2'
p970
I01
sS'P54657'
p971
I01
sS'P54654'
p972
I01
sS'Q54R82'
p973
I01
sS'P54674'
p974
I01
sS'Q7Z203'
p975
I01
sS'P52285'
p976
I01
sS'Q54RB7'
p977
I01
sS'Q55FW5'
p978
I01
sS'Q54NW4'
p979
I01
sS'Q55CL6'
p980
I01
sS'Q54QQ1'
p981
I01
sS'Q1ZXQ8'
p982
I01
sS'Q54NF8'
p983
I01
sS'O96621'
p984
I01
sS'Q54MH2'
p985
I01
sS'Q54T86'
p986
I01
sS'Q75JH9'
p987
I01
sS'O61125'
p988
I01
sS'Q7Z202'
p989
I01
sS'Q75J96'
p990
I01
sS'Q7Z1Z9'
p991
I01
sS'Q54XQ2'
p992
I01
sS'Q9NHF6'
p993
I01
sS'Q54I18'
p994
I01
stbaa(lp995
S'GO:0030175'
p996
ag5
(g6
g7
NtRp997
((dp998
S'P42528'
p999
I01
sS'Q54WI0'
p1000
I01
sS'O00899'
p1001
I01
sS'O96621'
p1002
I01
sS'O96622'
p1003
I01
sS'O96623'
p1004
I01
sS'O96624'
p1005
I01
sS'O96625'
p1006
I01
sS'O96626'
p1007
I01
sS'Q9GPS0'
p1008
I01
sS'Q8MML5'
p1009
I01
sS'Q5TJ65'
p1010
I01
sS'Q9U1M8'
p1011
I01
sS'Q54N00'
p1012
I01
sS'Q8T8M2'
p1013
I01
stbaa(lp1014
S'GO:0032154'
p1015
ag5
(g6
g7
NtRp1016
((dp1017
S'O00909'
p1018
I01
sS'Q54WI0'
p1019
I01
sS'O00899'
p1020
I01
sS'Q94464'
p1021
I01
sS'Q54WX4'
p1022
I01
sS'Q54HG2'
p1023
I01
sS'Q55F94'
p1024
I01
sS'P08799'
p1025
I01
sS'P24005'
p1026
I01
sS'O61122'
p1027
I01
sS'Q550R2'
p1028
I01
sS'Q55GF9'
p1029
I01
sS'Q54K32'
p1030
I01
stbaa(lp1031
S'GO:0005794'
p1032
ag5
(g6
g7
NtRp1033
((dp1034
S'O00909'
p1035
I01
sS'O60950'
p1036
I01
sS'Q23924'
p1037
I01
sS'Q54NA3'
p1038
I01
sS'Q9GPR7'
p1039
I01
sS'Q03380'
p1040
I01
sS'P05817'
p1041
I01
stbaa(lp1042
S'GO:0048471'
p1043
ag5
(g6
g7
NtRp1044
((dp1045
S'P34144'
p1046
I01
sS'O00909'
p1047
I01
sS'Q54PW0'
p1048
I01
sS'Q23924'
p1049
I01
sS'Q8MPQ7'
p1050
I01
sS'Q6B9X6'
p1051
I01
sS'Q769F7'
p1052
I01
stbaa(lp1053
S'GO:0005886'
p1054
ag5
(g6
g7
NtRp1055
((dp1056
S'O00909'
p1057
I01
sS'Q54WI0'
p1058
I01
sS'O60952'
p1059
I01
sS'P13231'
p1060
I01
sS'P27133'
p1061
I01
sS'Q75JT4'
p1062
I01
sS'P22887'
p1063
I01
sS'Q54WT8'
p1064
I01
sS'P54644'
p1065
I01
sS'Q55AP1'
p1066
I01
sS'P34042'
p1067
I01
sS'Q1ZXE9'
p1068
I01
sS'Q54M25'
p1069
I01
sS'P16051'
p1070
I01
sS'Q54WH5'
p1071
I01
sS'P35401'
p1072
I01
sS'Q54WZ2'
p1073
I01
sS'P42526'
p1074
I01
sS'Q9U1M9'
p1075
I01
sS'Q8I7T3'
p1076
I01
sS'Q86H13'
p1077
I01
sS'Q86KG9'
p1078
I01
sS'Q54K32'
p1079
I01
sS'P13466'
p1080
I01
sS'Q95US4'
p1081
I01
sS'Q9NIV0'
p1082
I01
sS'P24639'
p1083
I01
sS'Q9Y1W0'
p1084
I01
sS'Q54TM2'
p1085
I01
sS'Q54R41'
p1086
I01
sS'P54657'
p1087
I01
sS'Q7YXU4'
p1088
I01
sS'P54673'
p1089
I01
sS'Q54NW7'
p1090
I01
sS'Q54TP5'
p1091
I01
sS'P54678'
p1092
I01
sS'P18613'
p1093
I01
sS'Q8MVR1'
p1094
I01
sS'Q86KI1'
p1095
I01
sS'Q54QQ1'
p1096
I01
sS'Q54RQ1'
p1097
I01
sS'Q54PW0'
p1098
I01
sS'O96099'
p1099
I01
sS'Q95ZG8'
p1100
I01
sS'Q54Y50'
p1101
I01
sS'Q8T9S7'
p1102
I01
sS'Q54EH1'
p1103
I01
sS'Q54KF7'
p1104
I01
sS'Q86HH3'
p1105
I01
sS'Q9NHF6'
p1106
I01
sS'P28178'
p1107
I01
sS'P36408'
p1108
I01
stbaa(lp1109
S'GO:0005770'
p1110
ag5
(g6
g7
NtRp1111
((dp1112
S'Q7YXD4'
p1113
I01
sS'O15706'
p1114
I01
sS'Q55E26'
p1115
I01
stbaa(lp1116
S'GO:0005773'
p1117
ag5
(g6
g7
NtRp1118
((dp1119
S'Q54WR4'
p1120
I01
sS'Q54MI3'
p1121
I01
sS'Q54WZ2'
p1122
I01
sS'Q94489'
p1123
I01
sS'Q54WT8'
p1124
I01
sS'O15706'
p1125
I01
stbaa(lp1126
S'GO:0032010'
p1127
ag5
(g6
g7
NtRp1128
((dp1129
S'Q54EY0'
p1130
I01
sS'Q54GX7'
p1131
I01
sS'Q553U6'
p1132
I01
sS'Q9XYS8'
p1133
I01
sS'P36411'
p1134
I01
sS'Q54TA1'
p1135
I01
sS'P07829'
p1136
I01
sS'Q869V1'
p1137
I01
sS'O15706'
p1138
I01
sS'Q54CK6'
p1139
I01
sS'P07830'
p1140
I01
stbaa(lp1141
S'GO:0001726'
p1142
ag5
(g6
g7
NtRp1143
((dp1144
S'Q9XXV8'
p1145
I01
sS'Q54NF8'
p1146
I01
sS'Q54TM2'
p1147
I01
sS'O15743'
p1148
I01
sS'P0DJ26'
p1149
I01
sS'P54657'
p1150
I01
stbaa(lp1151
S'GO:0016020'
p1152
ag5
(g6
g7
NtRp1153
((dp1154
S'Q9U1M8'
p1155
I01
sS'Q75JI3'
p1156
I01
sS'P34125'
p1157
I01
sS'Q552S0'
p1158
I01
sS'Q8MMR8'
p1159
I01
sS'Q54WZ2'
p1160
I01
sS'Q03101'
p1161
I01
sS'O76765'
p1162
I01
sS'Q9GPR7'
p1163
I01
sS'Q1ZXH8'
p1164
I01
sS'P36967'
p1165
I01
sS'Q95YL4'
p1166
I01
sS'Q95YL5'
p1167
I01
sS'Q94465'
p1168
I01
sS'Q869V1'
p1169
I01
sS'P54674'
p1170
I01
sS'P54679'
p1171
I01
sS'Q55CL6'
p1172
I01
sS'P0CE94'
p1173
I01
sS'P12729'
p1174
I01
sS'Q54BM7'
p1175
I01
sS'Q86KX8'
p1176
I01
sS'Q9NGP5'
p1177
I01
sS'O15743'
p1178
I01
sS'Q95US4'
p1179
I01
stbaa(lp1180
S'GO:0005737'
p1181
ag5
(g6
g7
NtRp1182
((dp1183
S'P52285'
p1184
I01
sS'Q7Z1I0'
p1185
I01
sS'P0DJ26'
p1186
I01
sS'Q1ZXE9'
p1187
I01
sS'Q55D66'
p1188
I01
sS'Q552S0'
p1189
I01
sS'Q54RP0'
p1190
I01
sS'Q54X77'
p1191
I01
sS'Q8SSS9'
p1192
I01
sS'Q551M2'
p1193
I01
sS'Q9Y0B7'
p1194
I01
sS'Q556Z0'
p1195
I01
sS'P34119'
p1196
I01
sS'P34117'
p1197
I01
sS'Q55FW5'
p1198
I01
sS'Q54UC9'
p1199
I01
sS'Q54XM7'
p1200
I01
sS'Q8T1C6'
p1201
I01
sS'O61125'
p1202
I01
sS'Q54YW1'
p1203
I01
sS'Q6B9X6'
p1204
I01
sS'O61122'
p1205
I01
sS'Q54QR2'
p1206
I01
sS'Q54BC8'
p1207
I01
sS'Q54F55'
p1208
I01
sS'P22887'
p1209
I01
sS'Q54K81'
p1210
I01
sS'Q27563'
p1211
I01
sS'Q27562'
p1212
I01
sS'Q9GPS0'
p1213
I01
sS'P24639'
p1214
I01
sS'Q75JZ1'
p1215
I01
sS'Q7M3S9'
p1216
I01
sS'Q54DM7'
p1217
I01
sS'P13466'
p1218
I01
sS'Q54WH5'
p1219
I01
sS'P10819'
p1220
I01
sS'P02599'
p1221
I01
sS'P25323'
p1222
I01
sS'Q7Z202'
p1223
I01
sS'Q7Z203'
p1224
I01
sS'Q8MVR1'
p1225
I01
sS'Q54GT9'
p1226
I01
sS'Q6S000'
p1227
I01
sS'P54681'
p1228
I01
sS'Q7Z1Z9'
p1229
I01
sS'Q86CR8'
p1230
I01
sS'Q55G04'
p1231
I01
sS'Q9U1M9'
p1232
I01
sS'P34148'
p1233
I01
sS'Q94489'
p1234
I01
sS'Q54WX4'
p1235
I01
sS'Q54ER9'
p1236
I01
sS'Q556T3'
p1237
I01
sS'Q54MI3'
p1238
I01
sS'P42521'
p1239
I01
sS'P42527'
p1240
I01
sS'Q55DM1'
p1241
I01
sS'Q86CS2'
p1242
I01
sS'Q1ZXH8'
p1243
I01
sS'Q557E4'
p1244
I01
sS'Q95YL4'
p1245
I01
sS'Q55BN8'
p1246
I01
sS'Q54AX5'
p1247
I01
sS'Q86A21'
p1248
I01
sS'P54657'
p1249
I01
sS'P54654'
p1250
I01
sS'Q86KR9'
p1251
I01
sS'Q86KZ5'
p1252
I01
sS'Q9XXV8'
p1253
I01
sS'Q54XQ2'
p1254
I01
sS'Q95YL5'
p1255
I01
sS'Q54QG0'
p1256
I01
sS'Q75J96'
p1257
I01
sS'Q556Y4'
p1258
I01
sS'Q94464'
p1259
I01
sS'Q94465'
p1260
I01
sS'Q55CT4'
p1261
I01
sS'P34120'
p1262
I01
sS'Q8T135'
p1263
I01
sS'Q9GRF8'
p1264
I01
sS'O15818'
p1265
I01
sS'Q54KF1'
p1266
I01
sS'Q8T7K0'
p1267
I01
sS'Q54BF5'
p1268
I01
sS'Q55DR6'
p1269
I01
sS'Q54BF0'
p1270
I01
sS'Q86AT8'
p1271
I01
sS'Q8MN58'
p1272
I01
sS'P34036'
p1273
I01
sS'O77203'
p1274
I01
sS'Q54S04'
p1275
I01
sS'P90648'
p1276
I01
sS'Q55CU7'
p1277
I01
sS'Q54XG7'
p1278
I01
sS'Q55GJ6'
p1279
I01
sS'Q76P24'
p1280
I01
sS'Q55DY7'
p1281
I01
sS'Q9NHF6'
p1282
I01
sS'Q556Q0'
p1283
I01
stbaa(lp1284
S'GO:0000331'
p1285
ag5
(g6
g7
NtRp1286
((dp1287
S'O60950'
p1288
I01
sS'Q9U1M9'
p1289
I01
sS'Q54E04'
p1290
I01
sS'P54647'
p1291
I01
sS'Q06885'
p1292
I01
sS'Q1ZXE9'
p1293
I01
sS'P20790'
p1294
I01
sS'Q54GD0'
p1295
I01
sS'Q55AV3'
p1296
I01
sS'Q55DM1'
p1297
I01
sS'P54697'
p1298
I01
sS'Q9GPR7'
p1299
I01
sS'Q9NIV0'
p1300
I01
sS'P36412'
p1301
I01
sS'P02599'
p1302
I01
sS'P54657'
p1303
I01
sS'Q54NL4'
p1304
I01
sS'Q54UM5'
p1305
I01
sS'Q86KI1'
p1306
I01
sS'Q550H6'
p1307
I01
sS'Q86AQ7'
p1308
I01
sS'Q54Y50'
p1309
I01
sS'Q54Y02'
p1310
I01
sS'Q54EH1'
p1311
I01
sS'Q6B9X6'
p1312
I01
sS'Q54CK6'
p1313
I01
sS'O96904'
p1314
I01
stbaa(lp1315
S'GO:0005789'
p1316
ag5
(g6
g7
NtRp1317
((dp1318
S'Q86AQ7'
p1319
I01
sS'O60950'
p1320
I01
sS'Q55BA8'
p1321
I01
sS'Q55AP1'
p1322
I01
sS'O76329'
p1323
I01
sS'Q54NW7'
p1324
I01
sS'Q54NL4'
p1325
I01
stbaa(lp1326
S'GO:0010008'
p1327
ag5
(g6
g7
NtRp1328
((dp1329
S'Q54JY7'
p1330
I01
sS'P24639'
p1331
I01
sS'O60950'
p1332
I01
sS'Q54E04'
p1333
I01
sS'Q553P5'
p1334
I01
sS'Q54CK6'
p1335
I01
stbaa(lp1336
S'GO:0016021'
p1337
ag5
(g6
g7
NtRp1338
((dp1339
S'Q869S5'
p1340
I01
sS'O60950'
p1341
I01
sS'Q9GTN7'
p1342
I01
sS'Q553Y7'
p1343
I01
sS'Q8T9W1'
p1344
I01
sS'Q9NA13'
p1345
I01
sS'Q23868'
p1346
I01
sS'Q54T92'
p1347
I01
sS'P54642'
p1348
I01
sS'Q867X6'
p1349
I01
sS'Q54M25'
p1350
I01
sS'P54660'
p1351
I01
sS'Q9XYS3'
p1352
I01
sS'Q54K50'
p1353
I01
sS'Q54R67'
p1354
I01
sS'Q54U75'
p1355
I01
sS'Q9NIV0'
p1356
I01
sS'O77203'
p1357
I01
sS'Q54F44'
p1358
I01
sS'Q6UUW6'
p1359
I01
sS'Q8T6B8'
p1360
I01
sS'P54678'
p1361
I01
sS'Q8T6B4'
p1362
I01
sS'Q6UUW5'
p1363
I01
sS'Q54X86'
p1364
I01
sS'Q54ET0'
p1365
I01
sS'Q86GL4'
p1366
I01
sS'Q1ZXQ4'
p1367
I01
sS'P54683'
p1368
I01
stbaa(lp1369
S'GO:0030173'
p1370
ag5
(g6
g7
NtRp1371
((dp1372
S'O60950'
p1373
I01
stbaa(lp1374
S'GO:0030864'
p1375
ag5
(g6
g7
NtRp1376
((dp1377
S'Q556T3'
p1378
I01
sS'P42528'
p1379
I01
sS'O60952'
p1380
I01
sS'Q54WH5'
p1381
I01
sS'O96621'
p1382
I01
sS'O96622'
p1383
I01
sS'O96623'
p1384
I01
sS'O96624'
p1385
I01
sS'O96625'
p1386
I01
sS'O96626'
p1387
I01
sS'Q54KF1'
p1388
I01
sS'Q86L04'
p1389
I01
sS'Q557J6'
p1390
I01
sS'Q54YW1'
p1391
I01
sS'P54686'
p1392
I01
sS'Q8T135'
p1393
I01
sS'Q550F6'
p1394
I01
sS'Q55E54'
p1395
I01
sS'P13466'
p1396
I01
stbaa(lp1397
S'GO:0031143'
p1398
ag5
(g6
g7
NtRp1399
((dp1400
S'Q54X65'
p1401
I01
sS'O60952'
p1402
I01
sS'Q9U1M9'
p1403
I01
sS'Q558Y7'
p1404
I01
sS'P08799'
p1405
I01
sS'Q55FT9'
p1406
I01
sS'Q869Q3'
p1407
I01
sS'Q6UK63'
p1408
I01
sS'Q54WR4'
p1409
I01
sS'P42528'
p1410
I01
sS'P35401'
p1411
I01
sS'Q54HG2'
p1412
I01
sS'P54674'
p1413
I01
sS'P07830'
p1414
I01
sS'Q86KZ5'
p1415
I01
sS'Q54GX7'
p1416
I01
sS'Q54NF8'
p1417
I01
sS'O96621'
p1418
I01
sS'O96622'
p1419
I01
sS'O96623'
p1420
I01
sS'O96624'
p1421
I01
sS'O96625'
p1422
I01
sS'O96626'
p1423
I01
sS'Q8WQ86'
p1424
I01
sS'Q9NHF6'
p1425
I01
sS'Q86KF9'
p1426
I01
stbaa(lp1427
S'GO:0015629'
p1428
ag5
(g6
g7
NtRp1429
((dp1430
S'Q554S6'
p1431
I01
sS'O60952'
p1432
I01
sS'P13231'
p1433
I01
sS'P27133'
p1434
I01
sS'P22887'
p1435
I01
sS'P0DJ26'
p1436
I01
sS'P07828'
p1437
I01
sS'P34121'
p1438
I01
sS'Q8T8M2'
p1439
I01
sS'P10733'
p1440
I01
sS'Q54EW0'
p1441
I01
sS'Q550R2'
p1442
I01
sS'Q54SP2'
p1443
I01
sS'Q551V8'
p1444
I01
sS'P26199'
p1445
I01
sS'Q8I7T3'
p1446
I01
sS'Q86AT8'
p1447
I01
sS'Q54N00'
p1448
I01
sS'Q966T6'
p1449
I01
sS'P13466'
p1450
I01
sS'Q54WH2'
p1451
I01
sS'Q54HG2'
p1452
I01
sS'Q55F94'
p1453
I01
sS'P07830'
p1454
I01
sS'Q54T47'
p1455
I01
sS'Q54GX7'
p1456
I01
sS'Q54NF8'
p1457
I01
sS'Q9GSG9'
p1458
I01
sS'Q95VZ3'
p1459
I01
sS'P26200'
p1460
I01
sS'O61122'
p1461
I01
stbaa(lp1462
S'GO:0019005'
p1463
ag5
(g6
g7
NtRp1464
((dp1465
S'O60999'
p1466
I01
sS'Q557E4'
p1467
I01
sS'Q9Y0T2'
p1468
I01
sS'P52285'
p1469
I01
stbaa(lp1470
S'GO:0005813'
p1471
ag5
(g6
g7
NtRp1472
((dp1473
S'Q54EY3'
p1474
I01
sS'Q556Y4'
p1475
I01
sS'P32256'
p1476
I01
sS'P32255'
p1477
I01
sS'Q55C16'
p1478
I01
sS'Q86A08'
p1479
I01
sS'Q54QR9'
p1480
I01
sS'Q54Q99'
p1481
I01
sS'Q54IK9'
p1482
I01
sS'P54703'
p1483
I01
sS'Q54UL8'
p1484
I01
sS'Q54WX4'
p1485
I01
sS'Q54SG2'
p1486
I01
sS'Q55CA1'
p1487
I01
sS'Q55AR3'
p1488
I01
sS'Q54NE5'
p1489
I01
sS'Q76P38'
p1490
I01
sS'Q54Y26'
p1491
I01
sS'Q553N8'
p1492
I01
sS'Q54Y08'
p1493
I01
sS'Q558Z2'
p1494
I01
sS'Q95ZG4'
p1495
I01
sS'Q54XP9'
p1496
I01
sS'Q95ZG3'
p1497
I01
sS'Q54BH4'
p1498
I01
sS'P34099'
p1499
I01
sS'Q86HN7'
p1500
I01
sS'Q55BN8'
p1501
I01
sS'P34036'
p1502
I01
sS'Q54J96'
p1503
I01
sS'Q6S004'
p1504
I01
sS'Q54VD6'
p1505
I01
sS'O61122'
p1506
I01
sS'Q54IY3'
p1507
I01
sS'Q54RJ3'
p1508
I01
sS'Q55CU7'
p1509
I01
sS'Q55GF9'
p1510
I01
sS'Q54G01'
p1511
I01
sS'P33519'
p1512
I01
sS'Q1ZXQ8'
p1513
I01
sS'Q54I71'
p1514
I01
sS'Q54JX0'
p1515
I01
sS'Q54I79'
p1516
I01
sS'P05987'
p1517
I01
sS'Q8WQ86'
p1518
I01
sS'Q54N50'
p1519
I01
sS'Q54BP1'
p1520
I01
sS'Q54DL5'
p1521
I01
sS'Q55GS2'
p1522
I01
sS'Q9U7C9'
p1523
I01
sS'Q554U9'
p1524
I01
sS'Q55BD8'
p1525
I01
stbaa(lp1526
S'GO:0005635'
p1527
ag5
(g6
g7
NtRp1528
((dp1529
S'Q558Z2'
p1530
I01
sS'Q555I8'
p1531
I01
sS'Q54HI5'
p1532
I01
sS'Q54X77'
p1533
I01
sS'Q86CZ2'
p1534
I01
sS'Q55AP1'
p1535
I01
sS'Q54BF0'
p1536
I01
sS'O76329'
p1537
I01
sS'Q9U7C9'
p1538
I01
sS'Q55F68'
p1539
I01
stbaa(lp1540
S'GO:0042175'
p1541
ag5
(g6
g7
NtRp1542
((dp1543
S'Q55BA8'
p1544
I01
sS'Q86IA3'
p1545
I01
sS'O76329'
p1546
I01
stbaa(lp1547
S'GO:0005764'
p1548
ag5
(g6
g7
NtRp1549
((dp1550
S'P10901'
p1551
I01
sS'P36410'
p1552
I01
sS'P36411'
p1553
I01
sS'Q54E04'
p1554
I01
sS'Q54KA7'
p1555
I01
sS'Q9XYS8'
p1556
I01
sS'Q9GPF1'
p1557
I01
sS'Q86JF2'
p1558
I01
sS'Q9GPR7'
p1559
I01
sS'O76856'
p1560
I01
stbaa(lp1561
S'GO:0031932'
p1562
ag5
(g6
g7
NtRp1563
((dp1564
S'Q54D08'
p1565
I01
sS'Q9Y0C9'
p1566
I01
sS'O77203'
p1567
I01
sS'Q86C65'
p1568
I01
stbaa(lp1569
S'GO:0005777'
p1570
ag5
(g6
g7
NtRp1571
((dp1572
S'Q9NKW1'
p1573
I01
sS'Q1ZXQ4'
p1574
I01
sS'Q8MQU6'
p1575
I01
sS'Q55DH8'
p1576
I01
sS'O77229'
p1577
I01
sS'O96759'
p1578
I01
sS'Q9NH03'
p1579
I01
stbaa(lp1580
S'GO:0005783'
p1581
ag5
(g6
g7
NtRp1582
((dp1583
S'Q9NA13'
p1584
I01
sS'Q55BA8'
p1585
I01
sS'Q54PW9'
p1586
I01
sS'Q1ZXQ4'
p1587
I01
sS'O96042'
p1588
I01
sS'Q86K54'
p1589
I01
sS'Q9GPK9'
p1590
I01
sS'Q55A00'
p1591
I01
sS'Q55F68'
p1592
I01
sS'Q54CJ4'
p1593
I01
sS'Q9GPR7'
p1594
I01
sS'Q23858'
p1595
I01
sS'Q86IA3'
p1596
I01
sS'Q54UC9'
p1597
I01
stbaa(lp1598
S'GO:0030141'
p1599
ag5
(g6
g7
NtRp1600
((dp1601
S'P22887'
p1602
I01
sS'O96042'
p1603
I01
stbaa(lp1604
S'GO:0030670'
p1605
ag5
(g6
g7
NtRp1606
((dp1607
S'P42528'
p1608
I01
sS'O96621'
p1609
I01
sS'O96622'
p1610
I01
sS'O96623'
p1611
I01
sS'O96624'
p1612
I01
sS'O96625'
p1613
I01
sS'O96626'
p1614
I01
sS'Q54E04'
p1615
I01
sS'P34092'
p1616
I01
sS'Q54X63'
p1617
I01
sS'Q7YXU4'
p1618
I01
sS'Q54TA1'
p1619
I01
stbaa(lp1620
S'GO:0031252'
p1621
ag5
(g6
g7
NtRp1622
((dp1623
S'Q54X65'
p1624
I01
sS'Q9U1M8'
p1625
I01
sS'P34149'
p1626
I01
sS'Q8T135'
p1627
I01
sS'Q8WQ86'
p1628
I01
sS'Q55FT9'
p1629
I01
sS'P34109'
p1630
I01
sS'Q869N2'
p1631
I01
sS'Q869Q3'
p1632
I01
sS'Q6UK63'
p1633
I01
sS'Q551V8'
p1634
I01
sS'P42529'
p1635
I01
sS'P42528'
p1636
I01
sS'P35401'
p1637
I01
sS'Q557J6'
p1638
I01
sS'P42522'
p1639
I01
sS'P42525'
p1640
I01
sS'P34092'
p1641
I01
sS'Q55BN3'
p1642
I01
sS'Q550R2'
p1643
I01
sS'Q5TJ65'
p1644
I01
sS'Q55CL6'
p1645
I01
sS'Q54WH5'
p1646
I01
sS'P10819'
p1647
I01
sS'Q54HG2'
p1648
I01
sS'P54673'
p1649
I01
sS'P54674'
p1650
I01
sS'P07830'
p1651
I01
sS'Q55E54'
p1652
I01
sS'Q54QQ1'
p1653
I01
sS'Q54GX7'
p1654
I01
sS'Q9XXV8'
p1655
I01
sS'Q54NF8'
p1656
I01
sS'O96621'
p1657
I01
sS'O96622'
p1658
I01
sS'O96623'
p1659
I01
sS'O96624'
p1660
I01
sS'O96625'
p1661
I01
sS'O96626'
p1662
I01
sS'P54680'
p1663
I01
sS'P54686'
p1664
I01
sS'Q03479'
p1665
I01
sS'Q75J96'
p1666
I01
stbaa(lp1667
S'GO:0031982'
p1668
ag5
(g6
g7
NtRp1669
((dp1670
S'P32253'
p1671
I01
sS'Q5FXM5'
p1672
I01
sS'Q4W6B5'
p1673
I01
sS'Q54BM7'
p1674
I01
sS'P02887'
p1675
I01
sS'P27133'
p1676
I01
sS'O96623'
p1677
I01
sS'P42530'
p1678
I01
sS'O96625'
p1679
I01
sS'P36415'
p1680
I01
sS'Q54WR4'
p1681
I01
sS'P54657'
p1682
I01
sS'P15064'
p1683
I01
sS'Q65YR8'
p1684
I01
sS'P18613'
p1685
I01
sS'P14132'
p1686
I01
sS'Q9BKJ9'
p1687
I01
sS'P36408'
p1688
I01
sS'P54654'
p1689
I01
sS'Q54HG2'
p1690
I01
sS'P0DJ29'
p1691
I01
stbaa(lp1692
S'GO:0031164'
p1693
ag5
(g6
g7
NtRp1694
((dp1695
S'Q9GPM2'
p1696
I01
sS'Q54J33'
p1697
I01
sS'Q7YXU4'
p1698
I01
sS'P36412'
p1699
I01
sS'Q54E04'
p1700
I01
sS'Q55DM1'
p1701
I01
sS'Q86JM7'
p1702
I01
sS'Q54JH4'
p1703
I01
sS'Q553Y1'
p1704
I01
sS'Q553Y0'
p1705
I01
sS'P54678'
p1706
I01
sS'Q553K4'
p1707
I01
sS'Q54UM5'
p1708
I01
sS'O96904'
p1709
I01
stbaa(lp1710
S'GO:0031410'
p1711
ag5
(g6
g7
NtRp1712
((dp1713
S'O96923'
p1714
I01
sS'Q556Y7'
p1715
I01
sS'Q8T1G6'
p1716
I01
sS'Q8T1G5'
p1717
I01
sS'Q54LU5'
p1718
I01
sS'Q54TR1'
p1719
I01
sS'Q769F7'
p1720
I01
sS'Q54M25'
p1721
I01
sS'Q8T1G4'
p1722
I01
stbaa(lp1723
S'GO:0005743'
p1724
ag5
(g6
g7
NtRp1725
((dp1726
S'Q54RB9'
p1727
I01
sS'O97470'
p1728
I01
stbaa(lp1729
S'GO:0031012'
p1730
ag5
(g6
g7
NtRp1731
((dp1732
S'Q54LG5'
p1733
I01
sS'Q54YG2'
p1734
I01
sS'Q54LF5'
p1735
I01
sS'P02599'
p1736
I01
sS'Q9GPK9'
p1737
I01
sS'P11976'
p1738
I01
stbaa(lp1739
S'GO:0005884'
p1740
ag5
(g6
g7
NtRp1741
((dp1742
S'P07830'
p1743
I01
sS'Q54GX7'
p1744
I01
sS'P05095'
p1745
I01
stbaa(lp1746
S'GO:0005576'
p1747
ag5
(g6
g7
NtRp1748
((dp1749
S'Q55BZ9'
p1750
I01
sS'Q54JS4'
p1751
I01
sS'Q54JS3'
p1752
I01
sS'P10901'
p1753
I01
sS'Q86KB6'
p1754
I01
sS'Q54DJ4'
p1755
I01
sS'Q55BZ7'
p1756
I01
sS'Q54DJ3'
p1757
I01
sS'Q54DJ1'
p1758
I01
sS'Q5FXM5'
p1759
I01
sS'Q54VM7'
p1760
I01
sS'Q55BZ8'
p1761
I01
sS'Q7YSJ4'
p1762
I01
sS'P54661'
p1763
I01
sS'Q556R7'
p1764
I01
sS'Q54U76'
p1765
I01
sS'P12019'
p1766
I01
sS'P05817'
p1767
I01
sS'Q5XM24'
p1768
I01
sS'Q54EX0'
p1769
I01
sS'Q54DJ2'
p1770
I01
sS'Q86H13'
p1771
I01
sS'Q55BZ6'
p1772
I01
sS'Q86HE5'
p1773
I01
sS'Q54TR1'
p1774
I01
sS'Q55CS7'
p1775
I01
sS'Q54PW1'
p1776
I01
sS'Q86IV5'
p1777
I01
sS'Q86K68'
p1778
I01
sS'Q550U9'
p1779
I01
sS'Q54HY0'
p1780
I01
sS'Q55GS3'
p1781
I01
sS'Q968Z6'
p1782
I01
stbaa(lp1783
S'GO:0031988'
p1784
ag5
(g6
g7
NtRp1785
((dp1786
S'P05817'
p1787
I01
stbaa(lp1788
S'GO:0071944'
p1789
ag5
(g6
g7
NtRp1790
((dp1791
S'Q86KX8'
p1792
I01
sS'Q54TM2'
p1793
I01
sS'P05817'
p1794
I01
sS'Q8MPQ7'
p1795
I01
stbaa(lp1796
S'GO:0055037'
p1797
ag5
(g6
g7
NtRp1798
((dp1799
S'P05817'
p1800
I01
sS'Q54KF7'
p1801
I01
stbaa(lp1802
S'GO:0032009'
p1803
ag5
(g6
g7
NtRp1804
((dp1805
S'Q9GPS0'
p1806
I01
sS'Q54GX7'
p1807
I01
sS'Q553U6'
p1808
I01
sS'Q9XXV8'
p1809
I01
sS'P07829'
p1810
I01
sS'P26199'
p1811
I01
sS'P08799'
p1812
I01
sS'Q03479'
p1813
I01
sS'P07830'
p1814
I01
sS'Q1ZXH8'
p1815
I01
stbaa(lp1816
S'GO:0060187'
p1817
ag5
(g6
g7
NtRp1818
((dp1819
S'Q54GX7'
p1820
I01
sS'Q553U6'
p1821
I01
sS'Q54NF8'
p1822
I01
sS'P27133'
p1823
I01
sS'Q54X65'
p1824
I01
sS'P07829'
p1825
I01
sS'Q86KX8'
p1826
I01
sS'Q54TP5'
p1827
I01
sS'P54686'
p1828
I01
sS'P07830'
p1829
I01
stbaa(lp1830
S'GO:0009897'
p1831
ag5
(g6
g7
NtRp1832
((dp1833
S'P08796'
p1834
I01
sS'Q54U87'
p1835
I01
sS'Q54ME1'
p1836
I01
stbaa(lp1837
S'GO:0045121'
p1838
ag5
(g6
g7
NtRp1839
((dp1840
S'P08796'
p1841
I01
stbaa(lp1842
S'GO:0046658'
p1843
ag5
(g6
g7
NtRp1844
((dp1845
S'P08796'
p1846
I01
sS'P12729'
p1847
I01
stbaa(lp1848
S'GO:0001931'
p1849
ag5
(g6
g7
NtRp1850
((dp1851
S'P08799'
p1852
I01
stbaa(lp1853
S'GO:0005826'
p1854
ag5
(g6
g7
NtRp1855
((dp1856
S'P08799'
p1857
I01
sS'P90648'
p1858
I01
sS'Q8MY12'
p1859
I01
sS'Q54HG2'
p1860
I01
stbaa(lp1861
S'GO:0005856'
p1862
ag5
(g6
g7
NtRp1863
((dp1864
S'Q55D99'
p1865
I01
sS'Q1ZXH8'
p1866
I01
sS'P08799'
p1867
I01
sS'P22887'
p1868
I01
stbaa(lp1869
S'GO:0016460'
p1870
ag5
(g6
g7
NtRp1871
((dp1872
S'P08799'
p1873
I01
sS'P13833'
p1874
I01
sS'P09402'
p1875
I01
stbaa(lp1876
S'GO:0031254'
p1877
ag5
(g6
g7
NtRp1878
((dp1879
S'Q55D99'
p1880
I01
sS'P42529'
p1881
I01
sS'Q03100'
p1882
I01
sS'Q8T9S7'
p1883
I01
sS'P08799'
p1884
I01
sS'Q54K32'
p1885
I01
stbaa(lp1886
S'GO:0032982'
p1887
ag5
(g6
g7
NtRp1888
((dp1889
S'P08799'
p1890
I01
stbaa(lp1891
S'GO:0042641'
p1892
ag5
(g6
g7
NtRp1893
((dp1894
S'P34092'
p1895
I01
sS'Q55E58'
p1896
I01
sS'P08799'
p1897
I01
sS'P13833'
p1898
I01
sS'P54697'
p1899
I01
sS'P54686'
p1900
I01
sS'P09402'
p1901
I01
stbaa(lp1902
S'GO:0045179'
p1903
ag5
(g6
g7
NtRp1904
((dp1905
S'P08799'
p1906
I01
sS'Q9U720'
p1907
I01
stbaa(lp1908
S'GO:0016592'
p1909
ag5
(g6
g7
NtRp1910
((dp1911
S'Q54D00'
p1912
I01
sS'Q54DD4'
p1913
I01
sS'Q54XB0'
p1914
I01
sS'Q54NI7'
p1915
I01
sS'Q54SI1'
p1916
I01
sS'Q54B97'
p1917
I01
sS'Q54VV8'
p1918
I01
sS'Q54HN4'
p1919
I01
sS'Q55BA4'
p1920
I01
sS'Q54S20'
p1921
I01
sS'Q55BX7'
p1922
I01
sS'Q54KY8'
p1923
I01
sS'Q55DQ5'
p1924
I01
sS'Q54FL3'
p1925
I01
sS'Q54WH4'
p1926
I01
sS'Q54PN3'
p1927
I01
sS'Q552X2'
p1928
I01
sS'Q54PD9'
p1929
I01
sS'Q54B46'
p1930
I01
sS'Q54GV0'
p1931
I01
sS'Q54X75'
p1932
I01
sS'P0CB66'
p1933
I01
sS'Q54MR3'
p1934
I01
sS'Q54U49'
p1935
I01
sS'Q54GE5'
p1936
I01
stbaa(lp1937
S'GO:0032433'
p1938
ag5
(g6
g7
NtRp1939
((dp1940
S'P0CE94'
p1941
I01
sS'Q54NF8'
p1942
I01
sS'Q54X65'
p1943
I01
sS'Q8MML5'
p1944
I01
sS'Q55FT9'
p1945
I01
sS'Q869Q3'
p1946
I01
sS'Q6UK63'
p1947
I01
stbaa(lp1948
S'GO:0031002'
p1949
ag5
(g6
g7
NtRp1950
((dp1951
S'P10819'
p1952
I01
stbaa(lp1953
S'GO:0031941'
p1954
ag5
(g6
g7
NtRp1955
((dp1956
S'Q54WI0'
p1957
I01
sS'Q54WR4'
p1958
I01
sS'Q86KX8'
p1959
I01
sS'P10819'
p1960
I01
sS'Q54TP5'
p1961
I01
sS'Q8MML5'
p1962
I01
sS'Q54TM2'
p1963
I01
stbaa(lp1964
S'GO:0005887'
p1965
ag5
(g6
g7
NtRp1966
((dp1967
S'Q7YXD4'
p1968
I01
sS'P15270'
p1969
I01
sS'Q9TX43'
p1970
I01
sS'P42523'
p1971
I01
sS'Q54GU0'
p1972
I01
sS'Q54ZW0'
p1973
I01
sS'Q55FP0'
p1974
I01
sS'Q7YTA6'
p1975
I01
sS'Q03100'
p1976
I01
sS'P13773'
p1977
I01
sS'P35352'
p1978
I01
sS'Q54IX6'
p1979
I01
sS'Q9U8Q1'
p1980
I01
sS'P34907'
p1981
I01
sS'P54660'
p1982
I01
stbaa(lp1983
S'GO:0009986'
p1984
ag5
(g6
g7
NtRp1985
((dp1986
S'Q6TU47'
p1987
I01
sS'P13773'
p1988
I01
sS'Q54KF7'
p1989
I01
sS'Q7YXD4'
p1990
I01
stbaa(lp1991
S'GO:0031160'
p1992
ag5
(g6
g7
NtRp1993
((dp1994
S'Q9NAX4'
p1995
I01
sS'Q86L04'
p1996
I01
sS'P54704'
p1997
I01
sS'P14328'
p1998
I01
sS'Q04503'
p1999
I01
stbaa(lp2000
S'GO:0005834'
p2001
ag5
(g6
g7
NtRp2002
((dp2003
S'Q54R41'
p2004
I01
sS'P36408'
p2005
I01
sS'Q95ZG8'
p2006
I01
sS'P16894'
p2007
I01
sS'P16051'
p2008
I01
stbaa(lp2009
S'GO:0005623'
p2010
ag5
(g6
g7
NtRp2011
((dp2012
S'P18613'
p2013
I01
stbaa(lp2014
S'GO:0031256'
p2015
ag5
(g6
g7
NtRp2016
((dp2017
S'P18613'
p2018
I01
sS'Q552S0'
p2019
I01
sS'P35401'
p2020
I01
stbaa(lp2021
S'GO:0005840'
p2022
ag5
(g6
g7
NtRp2023
((dp2024
S'P22887'
p2025
I01
sS'P48160'
p2026
I01
stbaa(lp2027
S'GO:0030863'
p2028
ag5
(g6
g7
NtRp2029
((dp2030
S'Q55GV9'
p2031
I01
sS'P27133'
p2032
I01
sS'Q54HC6'
p2033
I01
sS'P24005'
p2034
I01
sS'P54686'
p2035
I01
stbaa(lp2036
S'GO:0030118'
p2037
ag5
(g6
g7
NtRp2038
((dp2039
S'P25870'
p2040
I01
sS'Q1ZXE9'
p2041
I01
stbaa(lp2042
S'GO:0071439'
p2043
ag5
(g6
g7
NtRp2044
((dp2045
S'P25870'
p2046
I01
sS'Q54Y50'
p2047
I01
stbaa(lp2048
S'GO:0000126'
p2049
ag5
(g6
g7
NtRp2050
((dp2051
S'Q54R53'
p2052
I01
sS'Q54U85'
p2053
I01
sS'P26355'
p2054
I01
stbaa(lp2055
S'GO:0042995'
p2056
ag5
(g6
g7
NtRp2057
((dp2058
S'P27133'
p2059
I01
sS'Q9TW28'
p2060
I01
stbaa(lp2061
S'GO:0051286'
p2062
ag5
(g6
g7
NtRp2063
((dp2064
S'P27133'
p2065
I01
stbaa(lp2066
S'GO:0016363'
p2067
ag5
(g6
g7
NtRp2068
((dp2069
S'P32252'
p2070
I01
stbaa(lp2071
S'GO:0005874'
p2072
ag5
(g6
g7
NtRp2073
((dp2074
S'Q1ZXQ8'
p2075
I01
sS'P34036'
p2076
I01
sS'P32255'
p2077
I01
sS'Q54NA3'
p2078
I01
sS'Q550F6'
p2079
I01
sS'Q55CT4'
p2080
I01
sS'Q8WQ86'
p2081
I01
stbaa(lp2082
S'GO:0005868'
p2083
ag5
(g6
g7
NtRp2084
((dp2085
S'P34036'
p2086
I01
stbaa(lp2087
S'GO:0030139'
p2088
ag5
(g6
g7
NtRp2089
((dp2090
S'Q1ZXQ8'
p2091
I01
sS'P34036'
p2092
I01
stbaa(lp2093
S'GO:0016461'
p2094
ag5
(g6
g7
NtRp2095
((dp2096
S'P34092'
p2097
I01
sS'Q9TW28'
p2098
I01
stbaa(lp2099
S'GO:0097203'
p2100
ag5
(g6
g7
NtRp2101
((dp2102
S'P34092'
p2103
I01
sS'P42522'
p2104
I01
sS'P42528'
p2105
I01
sS'Q557J6'
p2106
I01
sS'Q9XXV8'
p2107
I01
stbaa(lp2108
S'GO:0005739'
p2109
ag5
(g6
g7
NtRp2110
((dp2111
S'Q54J97'
p2112
I01
sS'Q54S83'
p2113
I01
sS'Q54W24'
p2114
I01
sS'Q55FI1'
p2115
I01
sS'Q54M56'
p2116
I01
sS'Q86L04'
p2117
I01
sS'Q54JW0'
p2118
I01
sS'Q86A84'
p2119
I01
sS'Q54UC9'
p2120
I01
sS'P34093'
p2121
I01
sS'Q54JI6'
p2122
I01
sS'Q54KR8'
p2123
I01
sS'Q9GRX6'
p2124
I01
sS'Q75JL2'
p2125
I01
sS'Q8T9W2'
p2126
I01
sS'Q54BU4'
p2127
I01
sS'Q8T133'
p2128
I01
stbaa(lp2129
S'GO:0072686'
p2130
ag5
(g6
g7
NtRp2131
((dp2132
S'P34117'
p2133
I01
sS'Q54Y26'
p2134
I01
sS'P51136'
p2135
I01
stbaa(lp2136
S'GO:0043229'
p2137
ag5
(g6
g7
NtRp2138
((dp2139
S'P34142'
p2140
I01
stbaa(lp2141
S'GO:0019897'
p2142
ag5
(g6
g7
NtRp2143
((dp2144
S'P35401'
p2145
I01
stbaa(lp2146
S'GO:0005971'
p2147
ag5
(g6
g7
NtRp2148
((dp2149
S'P42521'
p2150
I01
stbaa(lp2151
S'GO:0005774'
p2152
ag5
(g6
g7
NtRp2153
((dp2154
S'P54654'
p2155
I01
sS'Q9BLG4'
p2156
I01
stbaa(lp2157
S'GO:0005730'
p2158
ag5
(g6
g7
NtRp2159
((dp2160
S'Q54RF4'
p2161
I01
sS'Q556Z0'
p2162
I01
sS'Q86L04'
p2163
I01
sS'Q54BF0'
p2164
I01
sS'Q551M2'
p2165
I01
sS'Q9U7C9'
p2166
I01
sS'P54658'
p2167
I01
stbaa(lp2168
S'GO:0030122'
p2169
ag5
(g6
g7
NtRp2170
((dp2171
S'Q54X82'
p2172
I01
sS'Q54H39'
p2173
I01
sS'Q54EH1'
p2174
I01
sS'P54672'
p2175
I01
sS'Q54KI4'
p2176
I01
sS'Q86KI1'
p2177
I01
stbaa(lp2178
S'GO:0030132'
p2179
ag5
(g6
g7
NtRp2180
((dp2181
S'Q54H39'
p2182
I01
sS'P54672'
p2183
I01
sS'Q54KI4'
p2184
I01
sS'Q86KI1'
p2185
I01
sS'Q54X82'
p2186
I01
stbaa(lp2187
S'GO:0031201'
p2188
ag5
(g6
g7
NtRp2189
((dp2190
S'Q86AQ7'
p2191
I01
sS'Q9GPF1'
p2192
I01
sS'Q54NW7'
p2193
I01
sS'P54672'
p2194
I01
sS'Q553P5'
p2195
I01
sS'Q54CK6'
p2196
I01
stbaa(lp2197
S'GO:0044354'
p2198
ag5
(g6
g7
NtRp2199
((dp2200
S'P54674'
p2201
I01
sS'Q54WH5'
p2202
I01
sS'Q54CH1'
p2203
I01
stbaa(lp2204
S'GO:0030027'
p2205
ag5
(g6
g7
NtRp2206
((dp2207
S'P54680'
p2208
I01
stbaa(lp2209
S'GO:0005945'
p2210
ag5
(g6
g7
NtRp2211
((dp2212
S'P90521'
p2213
I01
stbaa(lp2214
S'GO:0005741'
p2215
ag5
(g6
g7
NtRp2216
((dp2217
S'Q9U1M9'
p2218
I01
sS'Q01501'
p2219
I01
sS'Q55G45'
p2220
I01
stbaa(lp2221
S'GO:0005768'
p2222
ag5
(g6
g7
NtRp2223
((dp2224
S'Q86D86'
p2225
I01
sS'Q54JY7'
p2226
I01
sS'Q86H98'
p2227
I01
sS'Q86AQ7'
p2228
I01
sS'Q9NIV0'
p2229
I01
sS'Q9NGP5'
p2230
I01
sS'Q54X86'
p2231
I01
sS'Q8T7K0'
p2232
I01
sS'Q54NW7'
p2233
I01
sS'Q9GPF1'
p2234
I01
sS'Q553P5'
p2235
I01
sS'Q54CK6'
p2236
I01
sS'Q03380'
p2237
I01
stbaa(lp2238
S'GO:0030660'
p2239
ag5
(g6
g7
NtRp2240
((dp2241
S'Q03380'
p2242
I01
stbaa(lp2243
S'GO:0030867'
p2244
ag5
(g6
g7
NtRp2245
((dp2246
S'Q03380'
p2247
I01
stbaa(lp2248
S'GO:0045160'
p2249
ag5
(g6
g7
NtRp2250
((dp2251
S'Q54GL7'
p2252
I01
sS'Q03479'
p2253
I01
stbaa(lp2254
S'GO:0030136'
p2255
ag5
(g6
g7
NtRp2256
((dp2257
S'Q54EH1'
p2258
I01
sS'Q54Y50'
p2259
I01
sS'Q1ZXE9'
p2260
I01
sS'Q86KI1'
p2261
I01
stbaa(lp2262
S'GO:0000776'
p2263
ag5
(g6
g7
NtRp2264
((dp2265
S'Q1ZXQ8'
p2266
I01
sS'Q54BH4'
p2267
I01
sS'Q8WQ86'
p2268
I01
sS'Q553N8'
p2269
I01
sS'Q54JX0'
p2270
I01
stbaa(lp2271
S'GO:0000922'
p2272
ag5
(g6
g7
NtRp2273
((dp2274
S'Q54NE5'
p2275
I01
sS'Q1ZXQ8'
p2276
I01
sS'Q553N8'
p2277
I01
sS'Q55GF9'
p2278
I01
sS'Q8WQ86'
p2279
I01
sS'Q54WX4'
p2280
I01
sS'Q86HN7'
p2281
I01
stbaa(lp2282
S'GO:0005788'
p2283
ag5
(g6
g7
NtRp2284
((dp2285
S'Q23858'
p2286
I01
stbaa(lp2287
S'GO:0005655'
p2288
ag5
(g6
g7
NtRp2289
((dp2290
S'Q3ZE13'
p2291
I01
stbaa(lp2292
S'GO:0005759'
p2293
ag5
(g6
g7
NtRp2294
((dp2295
S'Q54EW8'
p2296
I01
sS'Q9GPZ7'
p2297
I01
sS'Q4W6B5'
p2298
I01
sS'Q86A84'
p2299
I01
sS'Q54Z54'
p2300
I01
stbaa(lp2301
S'GO:0031966'
p2302
ag5
(g6
g7
NtRp2303
((dp2304
S'Q4W6B5'
p2305
I01
stbaa(lp2306
S'GO:0008180'
p2307
ag5
(g6
g7
NtRp2308
((dp2309
S'Q75K24'
p2310
I01
sS'Q54E53'
p2311
I01
sS'Q54QX3'
p2312
I01
sS'Q54C92'
p2313
I01
sS'Q54B82'
p2314
I01
sS'Q55BD5'
p2315
I01
sS'Q54PF3'
p2316
I01
sS'Q54HL6'
p2317
I01
stbaa(lp2318
S'GO:0043190'
p2319
ag5
(g6
g7
NtRp2320
((dp2321
S'Q54W20'
p2322
I01
sS'Q54W24'
p2323
I01
sS'Q8T8P3'
p2324
I01
sS'Q8T674'
p2325
I01
sS'Q8T685'
p2326
I01
sS'Q8T663'
p2327
I01
sS'Q8T689'
p2328
I01
sS'Q8T665'
p2329
I01
sS'Q8T664'
p2330
I01
sS'Q86HQ2'
p2331
I01
sS'Q8T686'
p2332
I01
sS'Q552P3'
p2333
I01
sS'Q8T9W2'
p2334
I01
sS'Q54BU4'
p2335
I01
sS'Q55DW4'
p2336
I01
sS'Q54W19'
p2337
I01
stbaa(lp2338
S'GO:0005765'
p2339
ag5
(g6
g7
NtRp2340
((dp2341
S'Q54NW7'
p2342
I01
sS'Q86AQ7'
p2343
I01
sS'Q54CB3'
p2344
I01
stbaa(lp2345
S'GO:0071203'
p2346
ag5
(g6
g7
NtRp2347
((dp2348
S'Q54R74'
p2349
I01
sS'Q55FU3'
p2350
I01
sS'Q54IR8'
p2351
I01
sS'Q552E2'
p2352
I01
sS'Q54CK9'
p2353
I01
stbaa(lp2354
S'GO:0061474'
p2355
ag5
(g6
g7
NtRp2356
((dp2357
S'Q86D86'
p2358
I01
sS'Q552E2'
p2359
I01
sS'Q76NU1'
p2360
I01
sS'Q54IR8'
p2361
I01
sS'Q55FU3'
p2362
I01
sS'Q54CK9'
p2363
I01
sS'Q54R74'
p2364
I01
stbaa(lp2365
S'GO:0005958'
p2366
ag5
(g6
g7
NtRp2367
((dp2368
S'Q54MA9'
p2369
I01
sS'Q54YJ7'
p2370
I01
sS'Q54UC0'
p2371
I01
sS'Q54U78'
p2372
I01
sS'Q54LY5'
p2373
I01
sS'Q54CR9'
p2374
I01
stbaa(lp2375
S'GO:0005967'
p2376
ag5
(g6
g7
NtRp2377
((dp2378
S'Q54EW8'
p2379
I01
stbaa(lp2380
S'GO:0043020'
p2381
ag5
(g6
g7
NtRp2382
((dp2383
S'Q54F44'
p2384
I01
sS'Q9XYS3'
p2385
I01
sS'Q86GL4'
p2386
I01
sS'Q867X6'
p2387
I01
stbaa(lp2388
S'GO:0000815'
p2389
ag5
(g6
g7
NtRp2390
((dp2391
S'Q54KZ4'
p2392
I01
sS'Q54GK9'
p2393
I01
sS'Q86H98'
p2394
I01
sS'Q54P63'
p2395
I01
stbaa(lp2396
S'GO:0045180'
p2397
ag5
(g6
g7
NtRp2398
((dp2399
S'Q54MH2'
p2400
I01
sS'Q54K32'
p2401
I01
sS'Q54I71'
p2402
I01
sS'Q54HG2'
p2403
I01
stbaa(lp2404
S'GO:0005637'
p2405
ag5
(g6
g7
NtRp2406
((dp2407
S'Q558Z2'
p2408
I01
sS'Q54HI5'
p2409
I01
stbaa(lp2410
S'GO:0030121'
p2411
ag5
(g6
g7
NtRp2412
((dp2413
S'Q54HS9'
p2414
I01
sS'Q8I8U2'
p2415
I01
stbaa(lp2416
S'GO:0030130'
p2417
ag5
(g6
g7
NtRp2418
((dp2419
S'Q54HS9'
p2420
I01
sS'Q8I8U2'
p2421
I01
stbaa(lp2422
S'GO:0030677'
p2423
ag5
(g6
g7
NtRp2424
((dp2425
S'Q54W23'
p2426
I01
sS'Q54HY6'
p2427
I01
stbaa(lp2428
S'GO:0030289'
p2429
ag5
(g6
g7
NtRp2430
((dp2431
S'Q86IL5'
p2432
I01
sS'Q9Y0B7'
p2433
I01
sS'Q54I18'
p2434
I01
stbaa(lp2435
S'GO:0005911'
p2436
ag5
(g6
g7
NtRp2437
((dp2438
S'Q54X65'
p2439
I01
sS'Q54I71'
p2440
I01
sS'Q54NF8'
p2441
I01
sS'Q54MH2'
p2442
I01
sS'Q55FT9'
p2443
I01
sS'Q869Q3'
p2444
I01
sS'Q6UK63'
p2445
I01
stbaa(lp2446
S'GO:0030496'
p2447
ag5
(g6
g7
NtRp2448
((dp2449
S'Q6S000'
p2450
I01
sS'Q54JX0'
p2451
I01
stbaa(lp2452
S'GO:0030666'
p2453
ag5
(g6
g7
NtRp2454
((dp2455
S'Q54NW7'
p2456
I01
sS'Q7YXD4'
p2457
I01
sS'Q54JY7'
p2458
I01
sS'Q54QQ1'
p2459
I01
stbaa(lp2460
S'GO:0031255'
p2461
ag5
(g6
g7
NtRp2462
((dp2463
S'Q54K32'
p2464
I01
stbaa(lp2465
S'GO:0005694'
p2466
ag5
(g6
g7
NtRp2467
((dp2468
S'Q54K47'
p2469
I01
stbaa(lp2470
S'GO:0005769'
p2471
ag5
(g6
g7
NtRp2472
((dp2473
S'Q55DR6'
p2474
I01
sS'Q54KF7'
p2475
I01
stbaa(lp2476
S'GO:0000813'
p2477
ag5
(g6
g7
NtRp2478
((dp2479
S'Q54NF1'
p2480
I01
sS'Q54LJ3'
p2481
I01
sS'Q55DV8'
p2482
I01
stbaa(lp2483
S'GO:0005666'
p2484
ag5
(g6
g7
NtRp2485
((dp2486
S'Q54LP2'
p2487
I01
stbaa(lp2488
S'GO:0005815'
p2489
ag5
(g6
g7
NtRp2490
((dp2491
S'Q55CT4'
p2492
I01
sS'Q54NA3'
p2493
I01
sS'Q550F6'
p2494
I01
sS'Q55FT4'
p2495
I01
sS'Q86I66'
p2496
I01
stbaa(lp2497
S'GO:0031209'
p2498
ag5
(g6
g7
NtRp2499
((dp2500
S'Q54NF8'
p2501
I01
sS'Q55FT9'
p2502
I01
sS'Q869Q3'
p2503
I01
sS'Q54X65'
p2504
I01
sS'Q6UK63'
p2505
I01
stbaa(lp2506
S'GO:0031902'
p2507
ag5
(g6
g7
NtRp2508
((dp2509
S'Q54NW7'
p2510
I01
sS'Q7YXD4'
p2511
I01
sS'Q7YXU4'
p2512
I01
sS'Q86AQ7'
p2513
I01
sS'Q86D86'
p2514
I01
stbaa(lp2515
S'GO:0005767'
p2516
ag5
(g6
g7
NtRp2517
((dp2518
S'Q54NW7'
p2519
I01
stbaa(lp2520
S'GO:0016591'
p2521
ag5
(g6
g7
NtRp2522
((dp2523
S'Q54P04'
p2524
I01
sS'Q86KE7'
p2525
I01
sS'Q95YH0'
p2526
I01
stbaa(lp2527
S'GO:0043234'
p2528
ag5
(g6
g7
NtRp2529
((dp2530
S'Q967U1'
p2531
I01
sS'Q5XM24'
p2532
I01
sS'Q54WR4'
p2533
I01
sS'Q8MML5'
p2534
I01
sS'Q54PN9'
p2535
I01
stbaa(lp2536
S'GO:0000159'
p2537
ag5
(g6
g7
NtRp2538
((dp2539
S'Q54VB6'
p2540
I01
sS'Q9XZE5'
p2541
I01
sS'Q54QR9'
p2542
I01
sS'Q54Q99'
p2543
I01
stbaa(lp2544
S'GO:0000814'
p2545
ag5
(g6
g7
NtRp2546
((dp2547
S'Q55GD9'
p2548
I01
sS'Q54RC4'
p2549
I01
sS'Q54T18'
p2550
I01
stbaa(lp2551
S'GO:0016604'
p2552
ag5
(g6
g7
NtRp2553
((dp2554
S'Q54RN0'
p2555
I01
stbaa(lp2556
S'GO:0031618'
p2557
ag5
(g6
g7
NtRp2558
((dp2559
S'Q54RQ4'
p2560
I01
sS'Q54RN0'
p2561
I01
stbaa(lp2562
S'GO:0005742'
p2563
ag5
(g6
g7
NtRp2564
((dp2565
S'Q54RZ5'
p2566
I01
stbaa(lp2567
S'GO:0000125'
p2568
ag5
(g6
g7
NtRp2569
((dp2570
S'Q54T85'
p2571
I01
stbaa(lp2572
S'GO:0035267'
p2573
ag5
(g6
g7
NtRp2574
((dp2575
S'Q54T85'
p2576
I01
stbaa(lp2577
S'GO:0005779'
p2578
ag5
(g6
g7
NtRp2579
((dp2580
S'Q54W20'
p2581
I01
sS'Q8T8P3'
p2582
I01
sS'Q54W19'
p2583
I01
stbaa(lp2584
S'GO:0000786'
p2585
ag5
(g6
g7
NtRp2586
((dp2587
S'Q54WG6'
p2588
I01
stbaa(lp2589
S'GO:0000242'
p2590
ag5
(g6
g7
NtRp2591
((dp2592
S'Q54WI0'
p2593
I01
stbaa(lp2594
S'GO:0030123'
p2595
ag5
(g6
g7
NtRp2596
((dp2597
S'Q9GPF1'
p2598
I01
sS'Q54WN0'
p2599
I01
sS'Q556J8'
p2600
I01
stbaa(lp2601
S'GO:0032133'
p2602
ag5
(g6
g7
NtRp2603
((dp2604
S'Q55GF9'
p2605
I01
sS'Q54WX4'
p2606
I01
stbaa(lp2607
S'GO:0051233'
p2608
ag5
(g6
g7
NtRp2609
((dp2610
S'Q55GF9'
p2611
I01
sS'Q54WX4'
p2612
I01
stbaa(lp2613
S'GO:0031592'
p2614
ag5
(g6
g7
NtRp2615
((dp2616
S'Q8I0F4'
p2617
I01
sS'Q553N8'
p2618
I01
sS'Q8WQ86'
p2619
I01
sS'Q54XP9'
p2620
I01
stbaa(lp2621
S'GO:0030131'
p2622
ag5
(g6
g7
NtRp2623
((dp2624
S'Q54Y50'
p2625
I01
stbaa(lp2626
S'GO:0000792'
p2627
ag5
(g6
g7
NtRp2628
((dp2629
S'Q550K3'
p2630
I01
stbaa(lp2631
S'GO:0035371'
p2632
ag5
(g6
g7
NtRp2633
((dp2634
S'Q553N8'
p2635
I01
sS'Q6S001'
p2636
I01
stbaa(lp2637
S'GO:0000235'
p2638
ag5
(g6
g7
NtRp2639
((dp2640
S'Q553N8'
p2641
I01
sS'Q8WQ86'
p2642
I01
stbaa(lp2643
S'GO:0031983'
p2644
ag5
(g6
g7
NtRp2645
((dp2646
S'Q556Y7'
p2647
I01
sS'Q8T1G5'
p2648
I01
sS'Q8T1G4'
p2649
I01
sS'Q8T1G6'
p2650
I01
stbaa(lp2651
S'GO:0005640'
p2652
ag5
(g6
g7
NtRp2653
((dp2654
S'Q558Z2'
p2655
I01
stbaa(lp2656
S'GO:0005667'
p2657
ag5
(g6
g7
NtRp2658
((dp2659
S'Q55BN0'
p2660
I01
stbaa(lp2661
S'GO:0010009'
p2662
ag5
(g6
g7
NtRp2663
((dp2664
S'Q55DR6'
p2665
I01
stbaa(lp2666
S'GO:0005881'
p2667
ag5
(g6
g7
NtRp2668
((dp2669
S'Q55FT4'
p2670
I01
stbaa(lp2671
S'GO:0005955'
p2672
ag5
(g6
g7
NtRp2673
((dp2674
S'Q55G87'
p2675
I01
sS'Q7YSW8'
p2676
I01
stbaa(lp2677
S'GO:0000793'
p2678
ag5
(g6
g7
NtRp2679
((dp2680
S'Q55GF9'
p2681
I01
stbaa(lp2682
S'GO:0005871'
p2683
ag5
(g6
g7
NtRp2684
((dp2685
S'Q6S000'
p2686
I01
stbaa(lp2687
S'GO:0005819'
p2688
ag5
(g6
g7
NtRp2689
((dp2690
S'Q6S000'
p2691
I01
sS'Q8WQ86'
p2692
I01
stbaa(lp2693
S'GO:0031616'
p2694
ag5
(g6
g7
NtRp2695
((dp2696
S'Q6S000'
p2697
I01
stbaa(lp2698
S'GO:0005876'
p2699
ag5
(g6
g7
NtRp2700
((dp2701
S'Q6S001'
p2702
I01
stbaa(lp2703
S'GO:0030479'
p2704
ag5
(g6
g7
NtRp2705
((dp2706
S'Q75J96'
p2707
I01
stbaa(lp2708
S'GO:0031090'
p2709
ag5
(g6
g7
NtRp2710
((dp2711
S'Q75JT4'
p2712
I01
stbaa(lp2713
S'GO:0031901'
p2714
ag5
(g6
g7
NtRp2715
((dp2716
S'Q7YXU4'
p2717
I01
stbaa(lp2718
S'GO:0005844'
p2719
ag5
(g6
g7
NtRp2720
((dp2721
S'Q869N9'
p2722
I01
stbaa(lp2723
S'GO:0005850'
p2724
ag5
(g6
g7
NtRp2725
((dp2726
S'Q869N9'
p2727
I01
stbaa(lp2728
S'GO:0005802'
p2729
ag5
(g6
g7
NtRp2730
((dp2731
S'Q869V1'
p2732
I01
stbaa(lp2733
S'GO:0012506'
p2734
ag5
(g6
g7
NtRp2735
((dp2736
S'Q9GSB0'
p2737
I01
sS'Q869V1'
p2738
I01
stbaa(lp2739
S'GO:0005776'
p2740
ag5
(g6
g7
NtRp2741
((dp2742
S'Q86CR8'
p2743
I01
stbaa(lp2744
S'GO:0000139'
p2745
ag5
(g6
g7
NtRp2746
((dp2747
S'Q86IG3'
p2748
I01
stbaa(lp2749
S'GO:0015630'
p2750
ag5
(g6
g7
NtRp2751
((dp2752
S'Q8I0F4'
p2753
I01
stbaa(lp2754
S'GO:0005925'
p2755
ag5
(g6
g7
NtRp2756
((dp2757
S'Q8MML5'
p2758
I01
stbaa(lp2759
S'GO:0030125'
p2760
ag5
(g6
g7
NtRp2761
((dp2762
S'Q8MN58'
p2763
I01
stbaa(lp2764
S'GO:0016023'
p2765
ag5
(g6
g7
NtRp2766
((dp2767
S'Q9NAX4'
p2768
I01
sS'Q8T1G4'
p2769
I01
stbaa(lp2770
S'GO:0019898'
p2771
ag5
(g6
g7
NtRp2772
((dp2773
S'Q8T662'
p2774
I01
stbaa(lp2775
S'GO:0051285'
p2776
ag5
(g6
g7
NtRp2777
((dp2778
S'Q8T9S7'
p2779
I01
stbaa(lp2780
S'GO:0097204'
p2781
ag5
(g6
g7
NtRp2782
((dp2783
S'Q94464'
p2784
I01
stbaa(lp2785
S'GO:0032195'
p2786
ag5
(g6
g7
NtRp2787
((dp2788
S'Q94464'
p2789
I01
stbaa(lp2790
S'GO:0008290'
p2791
ag5
(g6
g7
NtRp2792
((dp2793
S'Q95VZ3'
p2794
I01
stbaa(lp2795
S'GO:0000421'
p2796
ag5
(g6
g7
NtRp2797
((dp2798
S'Q9BLG4'
p2799
I01
stbaa(lp2800
S'GO:0030124'
p2801
ag5
(g6
g7
NtRp2802
((dp2803
S'Q9GPF0'
p2804
I01
stbaa(lp2805
S'GO:0005853'
p2806
ag5
(g6
g7
NtRp2807
((dp2808
S'Q9GRF8'
p2809
I01
stbaa(lp2810
S'GO:0005798'
p2811
ag5
(g6
g7
NtRp2812
((dp2813
S'Q9NKX1'
p2814
I01
stbaa(lp2815
S'GO:0070685'
p2816
ag5
(g6
g7
NtRp2817
((dp2818
S'Q9XXV8'
p2819
I01
stbaatRp2820
.