ccollections
OrderedDict
p1
((lp2
(lp3
S'15473840'
p4
accopy_reg
_reconstructor
p5
(csets
Set
p6
c__builtin__
object
p7
NtRp8
((dp9
S'Q9TX43'
p10
I01
sS'Q54QV3'
p11
I01
sS'Q8MM62'
p12
I01
sS'Q8T9S7'
p13
I01
sS'Q553Y7'
p14
I01
sS'P54644'
p15
I01
sS'B0G0Y8'
p16
I01
sS'Q8MLZ3'
p17
I01
sS'P12019'
p18
I01
sS'P34099'
p19
I01
sS'P34907'
p20
I01
stbaa(lp21
S'8710499'
p22
ag5
(g6
g7
NtRp23
((dp24
S'B0M0P5'
p25
I01
stbaa(lp26
S'21193547'
p27
ag5
(g6
g7
NtRp28
((dp29
S'Q550K3'
p30
I01
sS'B0M0P5'
p31
I01
stbaa(lp32
S'9171087'
p33
ag5
(g6
g7
NtRp34
((dp35
S'Q55G81'
p36
I01
sS'O00835'
p37
I01
stbaa(lp38
S'18701541'
p39
ag5
(g6
g7
NtRp40
((dp41
S'Q55BY9'
p42
I01
sS'Q54KJ1'
p43
I01
sS'Q54LR0'
p44
I01
sS'O00841'
p45
I01
sS'Q54LR3'
p46
I01
stbaa(lp47
S'21085675'
p48
ag5
(g6
g7
NtRp49
((dp50
S'P34144'
p51
I01
sS'O00899'
p52
I01
sS'P13466'
p53
I01
sS'Q54HG2'
p54
I01
stbaa(lp55
S'15193148'
p56
ag5
(g6
g7
NtRp57
((dp58
S'Q550U9'
p59
I01
sS'O00909'
p60
I01
stbaa(lp61
S'18634783'
p62
ag5
(g6
g7
NtRp63
((dp64
S'P25870'
p65
I01
sS'O00909'
p66
I01
sS'Q9GPF1'
p67
I01
sS'Q8MN58'
p68
I01
stbaa(lp69
S'20071332'
p70
ag5
(g6
g7
NtRp71
((dp72
S'O00909'
p73
I01
sS'Q55E54'
p74
I01
stbaa(lp75
S'15053873'
p76
ag5
(g6
g7
NtRp77
((dp78
S'O00910'
p79
I01
stbaa(lp80
S'9200609'
p81
ag5
(g6
g7
NtRp82
((dp83
S'O00910'
p84
I01
stbaa(lp85
S'16750281'
p86
ag5
(g6
g7
NtRp87
((dp88
S'Q54WZ2'
p89
I01
sS'O15706'
p90
I01
stbaa(lp91
S'9585512'
p92
ag5
(g6
g7
NtRp93
((dp94
S'O15743'
p95
I01
stbaa(lp96
S'9620859'
p97
ag5
(g6
g7
NtRp98
((dp99
S'O15816'
p100
I01
stbaa(lp101
S'11390363'
p102
ag5
(g6
g7
NtRp103
((dp104
S'O60999'
p105
I01
stbaa(lp106
S'9582328'
p107
ag5
(g6
g7
NtRp108
((dp109
S'O61122'
p110
I01
stbaa(lp111
S'16842885'
p112
ag5
(g6
g7
NtRp113
((dp114
S'O61125'
p115
I01
stbaa(lp116
S'9802899'
p117
ag5
(g6
g7
NtRp118
((dp119
S'O76187'
p120
I01
sS'P34149'
p121
I01
sS'Q23862'
p122
I01
stbaa(lp123
S'9700162'
p124
ag5
(g6
g7
NtRp125
((dp126
S'O76329'
p127
I01
stbaa(lp128
S'7916591'
p129
ag5
(g6
g7
NtRp130
((dp131
S'P51405'
p132
I01
sS'O77082'
p133
I01
stbaa(lp134
S'16079174'
p135
ag5
(g6
g7
NtRp136
((dp137
S'O77203'
p138
I01
sS'P54632'
p139
I01
sS'Q54D08'
p140
I01
sS'P36415'
p141
I01
sS'P54651'
p142
I01
sS'Q9Y0C9'
p143
I01
sS'Q86C65'
p144
I01
stbaa(lp145
S'9389653'
p146
ag5
(g6
g7
NtRp147
((dp148
S'O77203'
p149
I01
stbaa(lp150
S'11004503'
p151
ag5
(g6
g7
NtRp152
((dp153
S'O77229'
p154
I01
sS'Q55DH8'
p155
I01
stbaa(lp156
S'2921242'
p157
ag5
(g6
g7
NtRp158
((dp159
S'O77229'
p160
I01
stbaa(lp161
S'10712614'
p162
ag5
(g6
g7
NtRp163
((dp164
S'O96099'
p165
I01
stbaa(lp166
S'15509655'
p167
ag5
(g6
g7
NtRp168
((dp169
S'P34144'
p170
I01
sS'P34145'
p171
I01
sS'P34146'
p172
I01
sS'P34147'
p173
I01
sS'P34143'
p174
I01
sS'O96390'
p175
I01
sS'P34149'
p176
I01
sS'Q9GPS3'
p177
I01
sS'Q869N2'
p178
I01
stbaa(lp179
S'15496465'
p180
ag5
(g6
g7
NtRp181
((dp182
S'Q54HE7'
p183
I01
sS'O96621'
p184
I01
sS'Q54I79'
p185
I01
stbaa(lp186
S'15726806'
p187
ag5
(g6
g7
NtRp188
((dp189
S'P42528'
p190
I01
sS'Q95VZ3'
p191
I01
sS'O96621'
p192
I01
sS'O96622'
p193
I01
sS'O96623'
p194
I01
sS'O96624'
p195
I01
sS'O96625'
p196
I01
sS'O96626'
p197
I01
sS'Q95UQ1'
p198
I01
sS'P26199'
p199
I01
sS'Q9GSG9'
p200
I01
sS'P26200'
p201
I01
sS'Q95UP9'
p202
I01
sS'Q8T8M2'
p203
I01
stbaa(lp204
S'22366457'
p205
ag5
(g6
g7
NtRp206
((dp207
S'P34144'
p208
I01
sS'P13021'
p209
I01
sS'P13022'
p210
I01
sS'P32256'
p211
I01
sS'Q54WH2'
p212
I01
sS'P32255'
p213
I01
sS'Q54CA8'
p214
I01
sS'O96622'
p215
I01
sS'O96623'
p216
I01
sS'P10733'
p217
I01
stbaa(lp218
S'17562315'
p219
ag5
(g6
g7
NtRp220
((dp221
S'O96759'
p222
I01
stbaa(lp223
S'9837757'
p224
ag5
(g6
g7
NtRp225
((dp226
S'O96759'
p227
I01
stbaa(lp228
S'17606910'
p229
ag5
(g6
g7
NtRp230
((dp231
S'O96759'
p232
I01
stbaa(lp233
S'18636095'
p234
ag5
(g6
g7
NtRp235
((dp236
S'P36410'
p237
I01
sS'P36412'
p238
I01
sS'Q54UM5'
p239
I01
sS'P20790'
p240
I01
sS'O96904'
p241
I01
stbaa(lp242
S'16735078'
p243
ag5
(g6
g7
NtRp244
((dp245
S'O96923'
p246
I01
sS'P54644'
p247
I01
sS'P03967'
p248
I01
sS'Q54QB1'
p249
I01
sS'P13466'
p250
I01
stbaa(lp251
S'10491202'
p252
ag5
(g6
g7
NtRp253
((dp254
S'O97101'
p255
I01
stbaa(lp256
S'16607013'
p257
ag5
(g6
g7
NtRp258
((dp259
S'O97101'
p260
I01
stbaa(lp261
S'10092866'
p262
ag5
(g6
g7
NtRp263
((dp264
S'O97470'
p265
I01
stbaa(lp266
S'12175335'
p267
ag5
(g6
g7
NtRp268
((dp269
S'Q54JY7'
p270
I01
sS'Q54Y50'
p271
I01
sS'Q75JI3'
p272
I01
sS'O97470'
p273
I01
sS'Q54NW7'
p274
I01
sS'Q553P5'
p275
I01
sS'Q54CK6'
p276
I01
sS'Q54NP6'
p277
I01
sS'Q9U9R7'
p278
I01
stbaa(lp279
S'15606490'
p280
ag5
(g6
g7
NtRp281
((dp282
S'Q54RF4'
p283
I01
sS'P42529'
p284
I01
sS'Q86IV7'
p285
I01
sS'Q55C62'
p286
I01
sS'P02599'
p287
I01
sS'Q54LX0'
p288
I01
sS'Q75K28'
p289
I01
sS'Q6DN52'
p290
I01
stbaa(lp291
S'6243626'
p292
ag5
(g6
g7
NtRp293
((dp294
S'P02599'
p295
I01
stbaa(lp296
S'6667031'
p297
ag5
(g6
g7
NtRp298
((dp299
S'P02599'
p300
I01
stbaa(lp301
S'11919178'
p302
ag5
(g6
g7
NtRp303
((dp304
S'Q9U7C9'
p305
I01
sS'P02599'
p306
I01
stbaa(lp307
S'15883042'
p308
ag5
(g6
g7
NtRp309
((dp310
S'Q27564'
p311
I01
sS'P02599'
p312
I01
stbaa(lp313
S'15896312'
p314
ag5
(g6
g7
NtRp315
((dp316
S'Q9U7C9'
p317
I01
sS'P02599'
p318
I01
stbaa(lp319
S'21402150'
p320
ag5
(g6
g7
NtRp321
((dp322
S'Q9GPK9'
p323
I01
sS'P02599'
p324
I01
stbaa(lp325
S'22391412'
p326
ag5
(g6
g7
NtRp327
((dp328
S'Q9GPK9'
p329
I01
sS'P02599'
p330
I01
stbaa(lp331
S'23441816'
p332
ag5
(g6
g7
NtRp333
((dp334
S'P54657'
p335
I01
sS'P02599'
p336
I01
stbaa(lp337
S'23063531'
p338
ag5
(g6
g7
NtRp339
((dp340
S'P34117'
p341
I01
sS'Q55CT4'
p342
I01
sS'P02599'
p343
I01
stbaa(lp344
S'6259174'
p345
ag5
(g6
g7
NtRp346
((dp347
S'P02599'
p348
I01
stbaa(lp349
S'15947191'
p350
ag5
(g6
g7
NtRp351
((dp352
S'P02886'
p353
I01
stbaa(lp354
S'20580724'
p355
ag5
(g6
g7
NtRp356
((dp357
S'P42530'
p358
I01
sS'P02886'
p359
I01
stbaa(lp360
S'11257439'
p361
ag5
(g6
g7
NtRp362
((dp363
S'P32252'
p364
I01
sS'P32254'
p365
I01
sS'Q55CB7'
p366
I01
sS'P03967'
p367
I01
sS'Q55CA9'
p368
I01
sS'Q55CB8'
p369
I01
stbaa(lp370
S'6746725'
p371
ag5
(g6
g7
NtRp372
((dp373
S'P05095'
p374
I01
stbaa(lp375
S'8486739'
p376
ag5
(g6
g7
NtRp377
((dp378
S'P05095'
p379
I01
stbaa(lp380
S'1312226'
p381
ag5
(g6
g7
NtRp382
((dp383
S'P05987'
p384
I01
stbaa(lp385
S'2996629'
p386
ag5
(g6
g7
NtRp387
((dp388
S'P07670'
p389
I01
stbaa(lp390
S'3003365'
p391
ag5
(g6
g7
NtRp392
((dp393
S'P07828'
p394
I01
stbaa(lp395
S'6707016'
p396
ag5
(g6
g7
NtRp397
((dp398
S'P07829'
p399
I01
sS'P07830'
p400
I01
sS'Q54GX7'
p401
I01
sS'P24005'
p402
I01
sS'Q553U6'
p403
I01
stbaa(lp404
S'1057168'
p405
ag5
(g6
g7
NtRp406
((dp407
S'P07830'
p408
I01
sS'Q54GX7'
p409
I01
stbaa(lp410
S'15843041'
p411
ag5
(g6
g7
NtRp412
((dp413
S'P07830'
p414
I01
sS'Q54QT7'
p415
I01
stbaa(lp416
S'15366765'
p417
ag5
(g6
g7
NtRp418
((dp419
S'P54657'
p420
I01
sS'P08796'
p421
I01
stbaa(lp422
S'16982629'
p423
ag5
(g6
g7
NtRp424
((dp425
S'P08799'
p426
I01
stbaa(lp427
S'19955408'
p428
ag5
(g6
g7
NtRp429
((dp430
S'P08799'
p431
I01
stbaa(lp432
S'15910751'
p433
ag5
(g6
g7
NtRp434
((dp435
S'P08799'
p436
I01
stbaa(lp437
S'11106661'
p438
ag5
(g6
g7
NtRp439
((dp440
S'P08799'
p441
I01
sS'P42527'
p442
I01
sS'P90648'
p443
I01
stbaa(lp444
S'18504297'
p445
ag5
(g6
g7
NtRp446
((dp447
S'P08799'
p448
I01
sS'P42527'
p449
I01
sS'Q86G47'
p450
I01
stbaa(lp451
S'18854143'
p452
ag5
(g6
g7
NtRp453
((dp454
S'P08799'
p455
I01
sS'Q54YW1'
p456
I01
stbaa(lp457
S'4278009'
p458
ag5
(g6
g7
NtRp459
((dp460
S'P08799'
p461
I01
sS'P13833'
p462
I01
sS'P09402'
p463
I01
stbaa(lp464
S'14620745'
p465
ag5
(g6
g7
NtRp466
((dp467
S'P08799'
p468
I01
stbaa(lp469
S'18067324'
p470
ag5
(g6
g7
NtRp471
((dp472
S'P08799'
p473
I01
stbaa(lp474
S'2745547'
p475
ag5
(g6
g7
NtRp476
((dp477
S'P08799'
p478
I01
stbaa(lp479
S'20951045'
p480
ag5
(g6
g7
NtRp481
((dp482
S'P08799'
p483
I01
sS'P54632'
p484
I01
stbaa(lp485
S'2451126'
p486
ag5
(g6
g7
NtRp487
((dp488
S'P09402'
p489
I01
stbaa(lp490
S'1535025'
p491
ag5
(g6
g7
NtRp492
((dp493
S'P09402'
p494
I01
stbaa(lp495
S'2835631'
p496
ag5
(g6
g7
NtRp497
((dp498
S'P09556'
p499
I01
stbaa(lp500
S'8500761'
p501
ag5
(g6
g7
NtRp502
((dp503
S'P09556'
p504
I01
stbaa(lp505
S'2017144'
p506
ag5
(g6
g7
NtRp507
((dp508
S'P09556'
p509
I01
stbaa(lp510
S'15826949'
p511
ag5
(g6
g7
NtRp512
((dp513
S'Q9U1M8'
p514
I01
sS'P0CE94'
p515
I01
stbaa(lp516
S'16699495'
p517
ag5
(g6
g7
NtRp518
((dp519
S'P0CE94'
p520
I01
sS'Q54JA5'
p521
I01
sS'Q54JA4'
p522
I01
sS'Q54JA3'
p523
I01
sS'Q54JE1'
p524
I01
sS'Q54KF7'
p525
I01
stbaa(lp526
S'17671169'
p527
ag5
(g6
g7
NtRp528
((dp529
S'Q9U1M8'
p530
I01
sS'P0CE94'
p531
I01
stbaa(lp532
S'9118250'
p533
ag5
(g6
g7
NtRp534
((dp535
S'P0DJ26'
p536
I01
stbaa(lp537
S'2191567'
p538
ag5
(g6
g7
NtRp539
((dp540
S'P10733'
p541
I01
stbaa(lp542
S'15060630'
p543
ag5
(g6
g7
NtRp544
((dp545
S'P10733'
p546
I01
stbaa(lp547
S'3139100'
p548
ag5
(g6
g7
NtRp549
((dp550
S'P10819'
p551
I01
stbaa(lp552
S'3288206'
p553
ag5
(g6
g7
NtRp554
((dp555
S'P10819'
p556
I01
stbaa(lp557
S'6299402'
p558
ag5
(g6
g7
NtRp559
((dp560
S'P10819'
p561
I01
stbaa(lp562
S'1310316'
p563
ag5
(g6
g7
NtRp564
((dp565
S'P10901'
p566
I01
stbaa(lp567
S'8016318'
p568
ag5
(g6
g7
NtRp569
((dp570
S'Q54YG2'
p571
I01
sS'P11976'
p572
I01
stbaa(lp573
S'17040207'
p574
ag5
(g6
g7
NtRp575
((dp576
S'Q54HY0'
p577
I01
sS'P12019'
p578
I01
stbaa(lp579
S'2049870'
p580
ag5
(g6
g7
NtRp581
((dp582
S'P12019'
p583
I01
stbaa(lp584
S'23369714'
p585
ag5
(g6
g7
NtRp586
((dp587
S'P13021'
p588
I01
sS'Q552E2'
p589
I01
stbaa(lp590
S'2914932'
p591
ag5
(g6
g7
NtRp592
((dp593
S'P13231'
p594
I01
stbaa(lp595
S'7822284'
p596
ag5
(g6
g7
NtRp597
((dp598
S'P13231'
p599
I01
sS'P42526'
p600
I01
stbaa(lp601
S'15383615'
p602
ag5
(g6
g7
NtRp603
((dp604
S'Q556T3'
p605
I01
sS'P13466'
p606
I01
stbaa(lp607
S'16781869'
p608
ag5
(g6
g7
NtRp609
((dp610
S'P13466'
p611
I01
stbaa(lp612
S'14711408'
p613
ag5
(g6
g7
NtRp614
((dp615
S'P13466'
p616
I01
stbaa(lp617
S'9670017'
p618
ag5
(g6
g7
NtRp619
((dp620
S'P13773'
p621
I01
stbaa(lp622
S'9578623'
p623
ag5
(g6
g7
NtRp624
((dp625
S'P13773'
p626
I01
sS'P35352'
p627
I01
stbaa(lp628
S'15507682'
p629
ag5
(g6
g7
NtRp630
((dp631
S'Q03100'
p632
I01
sS'P13773'
p633
I01
stbaa(lp634
S'17630977'
p635
ag5
(g6
g7
NtRp636
((dp637
S'P13773'
p638
I01
stbaa(lp639
S'17380187'
p640
ag5
(g6
g7
NtRp641
((dp642
S'P32253'
p643
I01
sS'P15064'
p644
I01
sS'Q8SSQ0'
p645
I01
sS'Q54PQ4'
p646
I01
stbaa(lp647
S'23132928'
p648
ag5
(g6
g7
NtRp649
((dp650
S'P32253'
p651
I01
sS'P15064'
p652
I01
stbaa(lp653
S'10473630'
p654
ag5
(g6
g7
NtRp655
((dp656
S'P15064'
p657
I01
sS'P54673'
p658
I01
sS'Q9Y0C9'
p659
I01
sS'Q54PQ4'
p660
I01
stbaa(lp661
S'15194808'
p662
ag5
(g6
g7
NtRp663
((dp664
S'P18613'
p665
I01
sS'P15064'
p666
I01
sS'P32254'
p667
I01
sS'Q54QQ1'
p668
I01
stbaa(lp669
S'15143344'
p670
ag5
(g6
g7
NtRp671
((dp672
S'P32253'
p673
I01
sS'P15064'
p674
I01
stbaa(lp675
S'2813371'
p676
ag5
(g6
g7
NtRp677
((dp678
S'P15808'
p679
I01
stbaa(lp680
S'11264536'
p681
ag5
(g6
g7
NtRp682
((dp683
S'P16051'
p684
I01
stbaa(lp685
S'8280098'
p686
ag5
(g6
g7
NtRp687
((dp688
S'P16894'
p689
I01
sS'P16051'
p690
I01
stbaa(lp691
S'15563608'
p692
ag5
(g6
g7
NtRp693
((dp694
S'P36408'
p695
I01
sS'Q95ZG8'
p696
I01
sS'P16051'
p697
I01
stbaa(lp698
S'23576747'
p699
ag5
(g6
g7
NtRp700
((dp701
S'P34042'
p702
I01
sS'Q54DU0'
p703
I01
sS'P16894'
p704
I01
sS'P16051'
p705
I01
stbaa(lp706
S'7821221'
p707
ag5
(g6
g7
NtRp708
((dp709
S'P16894'
p710
I01
stbaa(lp711
S'8898241'
p712
ag5
(g6
g7
NtRp713
((dp714
S'P18160'
p715
I01
stbaa(lp716
S'1972546'
p717
ag5
(g6
g7
NtRp718
((dp719
S'P18160'
p720
I01
sS'P18161'
p721
I01
stbaa(lp722
S'22699506'
p723
ag5
(g6
g7
NtRp724
((dp725
S'P18161'
p726
I01
sS'Q54BD4'
p727
I01
stbaa(lp728
S'17371831'
p729
ag5
(g6
g7
NtRp730
((dp731
S'P18613'
p732
I01
stbaa(lp733
S'22644079'
p734
ag5
(g6
g7
NtRp735
((dp736
S'P18613'
p737
I01
sS'Q54YZ6'
p738
I01
stbaa(lp739
S'12186953'
p740
ag5
(g6
g7
NtRp741
((dp742
S'P18613'
p743
I01
stbaa(lp744
S'2568162'
p745
ag5
(g6
g7
NtRp746
((dp747
S'P20054'
p748
I01
stbaa(lp749
S'8703943'
p750
ag5
(g6
g7
NtRp751
((dp752
S'P20425'
p753
I01
stbaa(lp754
S'2156849'
p755
ag5
(g6
g7
NtRp756
((dp757
S'P20425'
p758
I01
stbaa(lp759
S'15289548'
p760
ag5
(g6
g7
NtRp761
((dp762
S'P20790'
p763
I01
sS'P20791'
p764
I01
stbaa(lp765
S'1989999'
p766
ag5
(g6
g7
NtRp767
((dp768
S'P21900'
p769
I01
stbaa(lp770
S'15653432'
p771
ag5
(g6
g7
NtRp772
((dp773
S'P22685'
p774
I01
sS'Q75K16'
p775
I01
sS'Q54CN9'
p776
I01
sS'Q54Q71'
p777
I01
sS'P90526'
p778
I01
sS'Q54N17'
p779
I01
stbaa(lp780
S'2161830'
p781
ag5
(g6
g7
NtRp782
((dp783
S'P22887'
p784
I01
stbaa(lp785
S'1832674'
p786
ag5
(g6
g7
NtRp787
((dp788
S'P24639'
p789
I01
stbaa(lp790
S'16762449'
p791
ag5
(g6
g7
NtRp792
((dp793
S'Q95YL4'
p794
I01
sS'P54653'
p795
I01
sS'P24639'
p796
I01
sS'Q54PW0'
p797
I01
stbaa(lp798
S'1824843'
p799
ag5
(g6
g7
NtRp800
((dp801
S'P24639'
p802
I01
stbaa(lp803
S'3029131'
p804
ag5
(g6
g7
NtRp805
((dp806
S'P25323'
p807
I01
stbaa(lp808
S'16546177'
p809
ag5
(g6
g7
NtRp810
((dp811
S'P25323'
p812
I01
stbaa(lp813
S'3032987'
p814
ag5
(g6
g7
NtRp815
((dp816
S'P25323'
p817
I01
stbaa(lp818
S'1651931'
p819
ag5
(g6
g7
NtRp820
((dp821
S'P25323'
p822
I01
stbaa(lp823
S'12802059'
p824
ag5
(g6
g7
NtRp825
((dp826
S'Q54HS9'
p827
I01
sS'P25870'
p828
I01
sS'Q8I8U2'
p829
I01
stbaa(lp830
S'20200225'
p831
ag5
(g6
g7
NtRp832
((dp833
S'Q9XXV8'
p834
I01
sS'Q94464'
p835
I01
sS'P26199'
p836
I01
sS'Q557J6'
p837
I01
sS'P26200'
p838
I01
sS'Q869N2'
p839
I01
stbaa(lp840
S'15908944'
p841
ag5
(g6
g7
NtRp842
((dp843
S'P34144'
p844
I01
sS'Q54K32'
p845
I01
sS'Q54N00'
p846
I01
sS'P26200'
p847
I01
stbaa(lp848
S'23915312'
p849
ag5
(g6
g7
NtRp850
((dp851
S'Q86KG9'
p852
I01
sS'P27133'
p853
I01
sS'P34119'
p854
I01
stbaa(lp855
S'1661669'
p856
ag5
(g6
g7
NtRp857
((dp858
S'P27133'
p859
I01
stbaa(lp860
S'10873800'
p861
ag5
(g6
g7
NtRp862
((dp863
S'P54644'
p864
I01
sS'P28178'
p865
I01
stbaa(lp866
S'1885577'
p867
ag5
(g6
g7
NtRp868
((dp869
S'P32073'
p870
I01
stbaa(lp871
S'14597204'
p872
ag5
(g6
g7
NtRp873
((dp874
S'P32252'
p875
I01
sS'P54632'
p876
I01
sS'Q54HC6'
p877
I01
stbaa(lp878
S'8455930'
p879
ag5
(g6
g7
NtRp880
((dp881
S'P32252'
p882
I01
stbaa(lp883
S'11500376'
p884
ag5
(g6
g7
NtRp885
((dp886
S'P32253'
p887
I01
stbaa(lp888
S'8290260'
p889
ag5
(g6
g7
NtRp890
((dp891
S'P32253'
p892
I01
sS'P32254'
p893
I01
stbaa(lp894
S'15800059'
p895
ag5
(g6
g7
NtRp896
((dp897
S'P34144'
p898
I01
sS'Q1ZXQ8'
p899
I01
sS'P34036'
p900
I01
sS'Q8I0F4'
p901
I01
sS'P32255'
p902
I01
stbaa(lp903
S'8816999'
p904
ag5
(g6
g7
NtRp905
((dp906
S'P34036'
p907
I01
sS'P32255'
p908
I01
stbaa(lp909
S'15366936'
p910
ag5
(g6
g7
NtRp911
((dp912
S'P34036'
p913
I01
stbaa(lp914
S'17761194'
p915
ag5
(g6
g7
NtRp916
((dp917
S'P34036'
p918
I01
stbaa(lp919
S'17548361'
p920
ag5
(g6
g7
NtRp921
((dp922
S'P34036'
p923
I01
stbaa(lp924
S'19765570'
p925
ag5
(g6
g7
NtRp926
((dp927
S'Q54QB1'
p928
I01
sS'P34042'
p929
I01
stbaa(lp930
S'19176583'
p931
ag5
(g6
g7
NtRp932
((dp933
S'P34045'
p934
I01
stbaa(lp935
S'18089562'
p936
ag5
(g6
g7
NtRp937
((dp938
S'P34092'
p939
I01
stbaa(lp940
S'16415352'
p941
ag5
(g6
g7
NtRp942
((dp943
S'P34092'
p944
I01
sS'Q54GL7'
p945
I01
stbaa(lp946
S'2163458'
p947
ag5
(g6
g7
NtRp948
((dp949
S'P34093'
p950
I01
stbaa(lp951
S'10102987'
p952
ag5
(g6
g7
NtRp953
((dp954
S'P34117'
p955
I01
sS'P34112'
p956
I01
stbaa(lp957
S'12074548'
p958
ag5
(g6
g7
NtRp959
((dp960
S'P34112'
p961
I01
stbaa(lp962
S'3110159'
p963
ag5
(g6
g7
NtRp964
((dp965
S'P34114'
p966
I01
sS'Q00766'
p967
I01
stbaa(lp968
S'21766205'
p969
ag5
(g6
g7
NtRp970
((dp971
S'P34117'
p972
I01
sS'Q55CT4'
p973
I01
stbaa(lp974
S'8130037'
p975
ag5
(g6
g7
NtRp976
((dp977
S'Q55G04'
p978
I01
sS'Q55GJ6'
p979
I01
sS'P34119'
p980
I01
sS'Q54BC8'
p981
I01
sS'Q54XM7'
p982
I01
sS'Q86A21'
p983
I01
sS'Q55DY7'
p984
I01
sS'Q27563'
p985
I01
sS'Q27562'
p986
I01
sS'P34120'
p987
I01
sS'Q55D66'
p988
I01
sS'Q54DM7'
p989
I01
sS'Q556Q0'
p990
I01
sS'Q54QR2'
p991
I01
stbaa(lp992
S'8293475'
p993
ag5
(g6
g7
NtRp994
((dp995
S'P34121'
p996
I01
stbaa(lp997
S'16042397'
p998
ag5
(g6
g7
NtRp999
((dp1000
S'P34125'
p1001
I01
stbaa(lp1002
S'12952069'
p1003
ag5
(g6
g7
NtRp1004
((dp1005
S'Q54SF9'
p1006
I01
sS'P34125'
p1007
I01
stbaa(lp1008
S'16854454'
p1009
ag5
(g6
g7
NtRp1010
((dp1011
S'P34125'
p1012
I01
stbaa(lp1013
S'8769416'
p1014
ag5
(g6
g7
NtRp1015
((dp1016
S'P34125'
p1017
I01
stbaa(lp1018
S'1549373'
p1019
ag5
(g6
g7
NtRp1020
((dp1021
S'P34127'
p1022
I01
stbaa(lp1023
S'8226777'
p1024
ag5
(g6
g7
NtRp1025
((dp1026
S'P34138'
p1027
I01
stbaa(lp1028
S'15962002'
p1029
ag5
(g6
g7
NtRp1030
((dp1031
S'Q86I44'
p1032
I01
sS'P34142'
p1033
I01
sS'Q55GV9'
p1034
I01
stbaa(lp1035
S'11447112'
p1036
ag5
(g6
g7
NtRp1037
((dp1038
S'P34144'
p1039
I01
sS'Q550R2'
p1040
I01
sS'Q54K32'
p1041
I01
sS'Q54HG2'
p1042
I01
stbaa(lp1043
S'9739079'
p1044
ag5
(g6
g7
NtRp1045
((dp1046
S'P34144'
p1047
I01
sS'Q54K32'
p1048
I01
sS'Q23862'
p1049
I01
stbaa(lp1050
S'16968699'
p1051
ag5
(g6
g7
NtRp1052
((dp1053
S'P34145'
p1054
I01
sS'Q9GSG9'
p1055
I01
sS'P34149'
p1056
I01
stbaa(lp1057
S'15470506'
p1058
ag5
(g6
g7
NtRp1059
((dp1060
S'Q54YZ6'
p1061
I01
sS'P34148'
p1062
I01
sS'Q55GV3'
p1063
I01
stbaa(lp1064
S'22264729'
p1065
ag5
(g6
g7
NtRp1066
((dp1067
S'Q54DW1'
p1068
I01
sS'P34148'
p1069
I01
sS'Q86I66'
p1070
I01
sS'Q54WH5'
p1071
I01
sS'P36408'
p1072
I01
stbaa(lp1073
S'16781008'
p1074
ag5
(g6
g7
NtRp1075
((dp1076
S'Q75K24'
p1077
I01
sS'Q54E53'
p1078
I01
sS'Q54QX3'
p1079
I01
sS'Q54C92'
p1080
I01
sS'Q54B82'
p1081
I01
sS'Q55BD5'
p1082
I01
sS'P35352'
p1083
I01
sS'Q54PF3'
p1084
I01
sS'Q54HL6'
p1085
I01
stbaa(lp1086
S'15668169'
p1087
ag5
(g6
g7
NtRp1088
((dp1089
S'P35401'
p1090
I01
stbaa(lp1091
S'8089184'
p1092
ag5
(g6
g7
NtRp1093
((dp1094
S'P35401'
p1095
I01
stbaa(lp1096
S'11686306'
p1097
ag5
(g6
g7
NtRp1098
((dp1099
S'P36412'
p1100
I01
stbaa(lp1101
S'8065317'
p1102
ag5
(g6
g7
NtRp1103
((dp1104
S'P36417'
p1105
I01
stbaa(lp1106
S'8125261'
p1107
ag5
(g6
g7
NtRp1108
((dp1109
S'P36417'
p1110
I01
stbaa(lp1111
S'8448193'
p1112
ag5
(g6
g7
NtRp1113
((dp1114
S'P36967'
p1115
I01
stbaa(lp1116
S'8950185'
p1117
ag5
(g6
g7
NtRp1118
((dp1119
S'P42521'
p1120
I01
stbaa(lp1121
S'12062087'
p1122
ag5
(g6
g7
NtRp1123
((dp1124
S'Q55CL6'
p1125
I01
sS'Q557I6'
p1126
I01
sS'P42525'
p1127
I01
sS'Q8N0B4'
p1128
I01
stbaa(lp1129
S'20197546'
p1130
ag5
(g6
g7
NtRp1131
((dp1132
S'P42527'
p1133
I01
stbaa(lp1134
S'11278493'
p1135
ag5
(g6
g7
NtRp1136
((dp1137
S'P42527'
p1138
I01
sS'P90648'
p1139
I01
sS'Q8MY12'
p1140
I01
stbaa(lp1141
S'3027076'
p1142
ag5
(g6
g7
NtRp1143
((dp1144
S'P42527'
p1145
I01
stbaa(lp1146
S'7822274'
p1147
ag5
(g6
g7
NtRp1148
((dp1149
S'P42527'
p1150
I01
stbaa(lp1151
S'11959103'
p1152
ag5
(g6
g7
NtRp1153
((dp1154
S'P42527'
p1155
I01
stbaa(lp1156
S'15545285'
p1157
ag5
(g6
g7
NtRp1158
((dp1159
S'P42527'
p1160
I01
stbaa(lp1161
S'16372899'
p1162
ag5
(g6
g7
NtRp1163
((dp1164
S'P42527'
p1165
I01
stbaa(lp1166
S'7729526'
p1167
ag5
(g6
g7
NtRp1168
((dp1169
S'P42529'
p1170
I01
stbaa(lp1171
S'10771103'
p1172
ag5
(g6
g7
NtRp1173
((dp1174
S'Q54RF4'
p1175
I01
sS'Q9GYD9'
p1176
I01
sS'P42529'
p1177
I01
stbaa(lp1178
S'10896781'
p1179
ag5
(g6
g7
NtRp1180
((dp1181
S'Q54RF4'
p1182
I01
sS'P42529'
p1183
I01
stbaa(lp1184
S'18384150'
p1185
ag5
(g6
g7
NtRp1186
((dp1187
S'P42530'
p1188
I01
stbaa(lp1189
S'9836437'
p1190
ag5
(g6
g7
NtRp1191
((dp1192
S'Q54UG4'
p1193
I01
sS'P48160'
p1194
I01
stbaa(lp1195
S'11032815'
p1196
ag5
(g6
g7
NtRp1197
((dp1198
S'P51136'
p1199
I01
stbaa(lp1200
S'22020250'
p1201
ag5
(g6
g7
NtRp1202
((dp1203
S'Q54WJ0'
p1204
I01
sS'P51136'
p1205
I01
stbaa(lp1206
S'9784196'
p1207
ag5
(g6
g7
NtRp1208
((dp1209
S'P51136'
p1210
I01
stbaa(lp1211
S'2580557'
p1212
ag5
(g6
g7
NtRp1213
((dp1214
S'P51173'
p1215
I01
stbaa(lp1216
S'21247092'
p1217
ag5
(g6
g7
NtRp1218
((dp1219
S'Q8T1C6'
p1220
I01
sS'Q9Y0T2'
p1221
I01
sS'P52285'
p1222
I01
sS'Q86KR9'
p1223
I01
stbaa(lp1224
S'20457612'
p1225
ag5
(g6
g7
NtRp1226
((dp1227
S'Q54JS2'
p1228
I01
sS'P54632'
p1229
I01
sS'Q54XJ7'
p1230
I01
stbaa(lp1231
S'12220630'
p1232
ag5
(g6
g7
NtRp1233
((dp1234
S'P54637'
p1235
I01
sS'Q8MPQ7'
p1236
I01
sS'Q54BD4'
p1237
I01
stbaa(lp1238
S'18305004'
p1239
ag5
(g6
g7
NtRp1240
((dp1241
S'P54637'
p1242
I01
sS'Q54BD4'
p1243
I01
stbaa(lp1244
S'8838672'
p1245
ag5
(g6
g7
NtRp1246
((dp1247
S'P54642'
p1248
I01
stbaa(lp1249
S'10205164'
p1250
ag5
(g6
g7
NtRp1251
((dp1252
S'P54644'
p1253
I01
stbaa(lp1254
S'17635933'
p1255
ag5
(g6
g7
NtRp1256
((dp1257
S'P54644'
p1258
I01
stbaa(lp1259
S'9226449'
p1260
ag5
(g6
g7
NtRp1261
((dp1262
S'P54644'
p1263
I01
stbaa(lp1264
S'16138906'
p1265
ag5
(g6
g7
NtRp1266
((dp1267
S'P54647'
p1268
I01
sS'P54654'
p1269
I01
sS'Q8MML6'
p1270
I01
stbaa(lp1271
S'22073313'
p1272
ag5
(g6
g7
NtRp1273
((dp1274
S'Q86D86'
p1275
I01
sS'P54647'
p1276
I01
sS'Q54E04'
p1277
I01
stbaa(lp1278
S'14706075'
p1279
ag5
(g6
g7
NtRp1280
((dp1281
S'Q54QT7'
p1282
I01
sS'Q54QT9'
p1283
I01
sS'Q54QT8'
p1284
I01
sS'Q869S9'
p1285
I01
sS'Q966Q9'
p1286
I01
sS'P54653'
p1287
I01
sS'Q9GYD9'
p1288
I01
sS'Q966R0'
p1289
I01
stbaa(lp1290
S'17057715'
p1291
ag5
(g6
g7
NtRp1292
((dp1293
S'P54657'
p1294
I01
stbaa(lp1295
S'9639652'
p1296
ag5
(g6
g7
NtRp1297
((dp1298
S'P54658'
p1299
I01
stbaa(lp1300
S'3312238'
p1301
ag5
(g6
g7
NtRp1302
((dp1303
S'P54660'
p1304
I01
stbaa(lp1305
S'18522444'
p1306
ag5
(g6
g7
NtRp1307
((dp1308
S'P54660'
p1309
I01
stbaa(lp1310
S'2060029'
p1311
ag5
(g6
g7
NtRp1312
((dp1313
S'P54660'
p1314
I01
stbaa(lp1315
S'8432731'
p1316
ag5
(g6
g7
NtRp1317
((dp1318
S'P54660'
p1319
I01
stbaa(lp1320
S'17897809'
p1321
ag5
(g6
g7
NtRp1322
((dp1323
S'P54671'
p1324
I01
sS'Q54K32'
p1325
I01
stbaa(lp1326
S'22050483'
p1327
ag5
(g6
g7
NtRp1328
((dp1329
S'Q54HS9'
p1330
I01
sS'P54672'
p1331
I01
sS'Q54X82'
p1332
I01
stbaa(lp1333
S'22992464'
p1334
ag5
(g6
g7
NtRp1335
((dp1336
S'Q54H39'
p1337
I01
sS'P54672'
p1338
I01
sS'Q54KI4'
p1339
I01
sS'Q86KI1'
p1340
I01
sS'Q54X82'
p1341
I01
stbaa(lp1342
S'10878573'
p1343
ag5
(g6
g7
NtRp1344
((dp1345
S'P54675'
p1346
I01
stbaa(lp1347
S'7499325'
p1348
ag5
(g6
g7
NtRp1349
((dp1350
S'P54678'
p1351
I01
stbaa(lp1352
S'9885293'
p1353
ag5
(g6
g7
NtRp1354
((dp1355
S'P54678'
p1356
I01
stbaa(lp1357
S'9421912'
p1358
ag5
(g6
g7
NtRp1359
((dp1360
S'P54679'
p1361
I01
stbaa(lp1362
S'9017597'
p1363
ag5
(g6
g7
NtRp1364
((dp1365
S'P54680'
p1366
I01
stbaa(lp1367
S'11719559'
p1368
ag5
(g6
g7
NtRp1369
((dp1370
S'P54681'
p1371
I01
sS'Q8ST66'
p1372
I01
sS'Q9NGP5'
p1373
I01
stbaa(lp1374
S'10747962'
p1375
ag5
(g6
g7
NtRp1376
((dp1377
S'P54681'
p1378
I01
stbaa(lp1379
S'7744252'
p1380
ag5
(g6
g7
NtRp1381
((dp1382
S'P54683'
p1383
I01
stbaa(lp1384
S'20668166'
p1385
ag5
(g6
g7
NtRp1386
((dp1387
S'P54686'
p1388
I01
stbaa(lp1389
S'18650439'
p1390
ag5
(g6
g7
NtRp1391
((dp1392
S'P54697'
p1393
I01
stbaa(lp1394
S'10564654'
p1395
ag5
(g6
g7
NtRp1396
((dp1397
S'Q9NAX4'
p1398
I01
sS'P54704'
p1399
I01
stbaa(lp1400
S'17416892'
p1401
ag5
(g6
g7
NtRp1402
((dp1403
S'Q9NAX4'
p1404
I01
sS'P54704'
p1405
I01
stbaa(lp1406
S'11690648'
p1407
ag5
(g6
g7
NtRp1408
((dp1409
S'Q9NI62'
p1410
I01
sS'P54705'
p1411
I01
stbaa(lp1412
S'9177484'
p1413
ag5
(g6
g7
NtRp1414
((dp1415
S'P90520'
p1416
I01
stbaa(lp1417
S'4300706'
p1418
ag5
(g6
g7
NtRp1419
((dp1420
S'P90521'
p1421
I01
stbaa(lp1422
S'7589492'
p1423
ag5
(g6
g7
NtRp1424
((dp1425
S'P90521'
p1426
I01
stbaa(lp1427
S'7813455'
p1428
ag5
(g6
g7
NtRp1429
((dp1430
S'P90521'
p1431
I01
stbaa(lp1432
S'10026266'
p1433
ag5
(g6
g7
NtRp1434
((dp1435
S'P90521'
p1436
I01
stbaa(lp1437
S'9115238'
p1438
ag5
(g6
g7
NtRp1439
((dp1440
S'P90648'
p1441
I01
stbaa(lp1442
S'1328220'
p1443
ag5
(g6
g7
NtRp1444
((dp1445
S'Q01501'
p1446
I01
stbaa(lp1447
S'1326523'
p1448
ag5
(g6
g7
NtRp1449
((dp1450
S'Q02158'
p1451
I01
stbaa(lp1452
S'8156999'
p1453
ag5
(g6
g7
NtRp1454
((dp1455
S'Q02158'
p1456
I01
stbaa(lp1457
S'1448100'
p1458
ag5
(g6
g7
NtRp1459
((dp1460
S'Q02720'
p1461
I01
stbaa(lp1462
S'10556070'
p1463
ag5
(g6
g7
NtRp1464
((dp1465
S'Q03100'
p1466
I01
sS'Q55F68'
p1467
I01
stbaa(lp1468
S'8619862'
p1469
ag5
(g6
g7
NtRp1470
((dp1471
S'Q03100'
p1472
I01
stbaa(lp1473
S'14718564'
p1474
ag5
(g6
g7
NtRp1475
((dp1476
S'Q03101'
p1477
I01
stbaa(lp1478
S'3972891'
p1479
ag5
(g6
g7
NtRp1480
((dp1481
S'Q03380'
p1482
I01
stbaa(lp1483
S'8635456'
p1484
ag5
(g6
g7
NtRp1485
((dp1486
S'Q03380'
p1487
I01
stbaa(lp1488
S'8408201'
p1489
ag5
(g6
g7
NtRp1490
((dp1491
S'Q03380'
p1492
I01
stbaa(lp1493
S'16443752'
p1494
ag5
(g6
g7
NtRp1495
((dp1496
S'Q03479'
p1497
I01
stbaa(lp1498
S'12032065'
p1499
ag5
(g6
g7
NtRp1500
((dp1501
S'Q03479'
p1502
I01
stbaa(lp1503
S'17584488'
p1504
ag5
(g6
g7
NtRp1505
((dp1506
S'Q1ZXH8'
p1507
I01
stbaa(lp1508
S'8660315'
p1509
ag5
(g6
g7
NtRp1510
((dp1511
S'Q54GP3'
p1512
I01
sS'Q1ZXI0'
p1513
I01
sS'Q94465'
p1514
I01
stbaa(lp1515
S'15740615'
p1516
ag5
(g6
g7
NtRp1517
((dp1518
S'Q54WH2'
p1519
I01
sS'Q5TJ55'
p1520
I01
sS'Q5TJ57'
p1521
I01
sS'Q5TJ56'
p1522
I01
sS'Q54SP2'
p1523
I01
sS'Q54PI9'
p1524
I01
sS'Q54ER5'
p1525
I01
sS'Q1ZXK2'
p1526
I01
stbaa(lp1527
S'22647904'
p1528
ag5
(g6
g7
NtRp1529
((dp1530
S'Q1ZXQ4'
p1531
I01
stbaa(lp1532
S'12134070'
p1533
ag5
(g6
g7
NtRp1534
((dp1535
S'Q1ZXQ8'
p1536
I01
sS'Q8WQ86'
p1537
I01
stbaa(lp1538
S'15186508'
p1539
ag5
(g6
g7
NtRp1540
((dp1541
S'Q1ZXQ8'
p1542
I01
sS'Q54VS0'
p1543
I01
sS'Q8WQ86'
p1544
I01
stbaa(lp1545
S'11726513'
p1546
ag5
(g6
g7
NtRp1547
((dp1548
S'Q23858'
p1549
I01
sS'Q55BA8'
p1550
I01
stbaa(lp1551
S'15897458'
p1552
ag5
(g6
g7
NtRp1553
((dp1554
S'Q5FXM5'
p1555
I01
sS'Q23868'
p1556
I01
sS'Q54U87'
p1557
I01
stbaa(lp1558
S'8986798'
p1559
ag5
(g6
g7
NtRp1560
((dp1561
S'Q54MY9'
p1562
I01
sS'Q23868'
p1563
I01
stbaa(lp1564
S'15752425'
p1565
ag5
(g6
g7
NtRp1566
((dp1567
S'Q23917'
p1568
I01
stbaa(lp1569
S'9435289'
p1570
ag5
(g6
g7
NtRp1571
((dp1572
S'Q23917'
p1573
I01
stbaa(lp1574
S'17448496'
p1575
ag5
(g6
g7
NtRp1576
((dp1577
S'Q54YL2'
p1578
I01
sS'Q27564'
p1579
I01
sS'Q54UT2'
p1580
I01
stbaa(lp1581
S'23351158'
p1582
ag5
(g6
g7
NtRp1583
((dp1584
S'Q27564'
p1585
I01
stbaa(lp1586
S'17207566'
p1587
ag5
(g6
g7
NtRp1588
((dp1589
S'Q3ZE13'
p1590
I01
stbaa(lp1591
S'18603769'
p1592
ag5
(g6
g7
NtRp1593
((dp1594
S'Q4W6B5'
p1595
I01
stbaa(lp1596
S'18218133'
p1597
ag5
(g6
g7
NtRp1598
((dp1599
S'Q54B10'
p1600
I01
stbaa(lp1601
S'18252726'
p1602
ag5
(g6
g7
NtRp1603
((dp1604
S'Q54B59'
p1605
I01
stbaa(lp1606
S'22035794'
p1607
ag5
(g6
g7
NtRp1608
((dp1609
S'Q54B85'
p1610
I01
stbaa(lp1611
S'11336701'
p1612
ag5
(g6
g7
NtRp1613
((dp1614
S'Q54BD4'
p1615
I01
stbaa(lp1616
S'17940044'
p1617
ag5
(g6
g7
NtRp1618
((dp1619
S'Q54BM7'
p1620
I01
stbaa(lp1621
S'12456012'
p1622
ag5
(g6
g7
NtRp1623
((dp1624
S'Q8T675'
p1625
I01
sS'Q55BC0'
p1626
I01
sS'Q9GTN7'
p1627
I01
sS'Q9NGP5'
p1628
I01
sS'Q54CG0'
p1629
I01
sS'Q54R52'
p1630
I01
sS'Q54LE6'
p1631
I01
sS'Q8T9W1'
p1632
I01
sS'Q8T663'
p1633
I01
sS'Q8T662'
p1634
I01
sS'Q8T665'
p1635
I01
sS'Q8T664'
p1636
I01
sS'Q86HQ2'
p1637
I01
sS'Q8T8P3'
p1638
I01
sS'Q8T5Z7'
p1639
I01
sS'Q54W20'
p1640
I01
sS'Q8T9W2'
p1641
I01
sS'Q54W24'
p1642
I01
sS'Q54GU0'
p1643
I01
sS'Q8T690'
p1644
I01
sS'Q8T6J0'
p1645
I01
sS'Q55DR1'
p1646
I01
sS'Q8T689'
p1647
I01
sS'Q8T686'
p1648
I01
sS'Q8T685'
p1649
I01
sS'Q54HM0'
p1650
I01
sS'Q8T683'
p1651
I01
sS'Q54BU4'
p1652
I01
sS'Q54EK2'
p1653
I01
sS'Q8T6J5'
p1654
I01
sS'Q55GB1'
p1655
I01
sS'Q54VJ0'
p1656
I01
sS'Q8ST87'
p1657
I01
sS'Q54V86'
p1658
I01
sS'Q8T673'
p1659
I01
sS'Q54DT1'
p1660
I01
sS'Q8T674'
p1661
I01
sS'Q54BT3'
p1662
I01
sS'Q54TV2'
p1663
I01
sS'Q8T6B4'
p1664
I01
sS'Q54JR2'
p1665
I01
sS'Q54TV1'
p1666
I01
sS'Q8T9W4'
p1667
I01
sS'Q8T6B8'
p1668
I01
sS'Q54NL1'
p1669
I01
sS'Q8ST66'
p1670
I01
sS'Q8T6J1'
p1671
I01
sS'Q54W19'
p1672
I01
sS'Q8T6H8'
p1673
I01
sS'Q8T6J2'
p1674
I01
sS'Q8T6H3'
p1675
I01
sS'Q556W2'
p1676
I01
sS'Q555Z5'
p1677
I01
sS'Q54P13'
p1678
I01
sS'Q54U44'
p1679
I01
sS'Q55DQ2'
p1680
I01
sS'Q54K24'
p1681
I01
sS'Q552P3'
p1682
I01
sS'Q55DW4'
p1683
I01
sS'Q54BT5'
p1684
I01
stbaa(lp1685
S'18621026'
p1686
ag5
(g6
g7
NtRp1687
((dp1688
S'Q54CJ4'
p1689
I01
stbaa(lp1690
S'21606208'
p1691
ag5
(g6
g7
NtRp1692
((dp1693
S'Q54CK9'
p1694
I01
stbaa(lp1695
S'21134080'
p1696
ag5
(g6
g7
NtRp1697
((dp1698
S'Q769F7'
p1699
I01
sS'Q54Y26'
p1700
I01
sS'Q54XJ0'
p1701
I01
sS'Q54CR8'
p1702
I01
stbaa(lp1703
S'16112620'
p1704
ag5
(g6
g7
NtRp1705
((dp1706
S'Q54UC0'
p1707
I01
sS'Q54LY5'
p1708
I01
sS'Q54MA9'
p1709
I01
sS'Q54CR9'
p1710
I01
sS'Q86KS1'
p1711
I01
stbaa(lp1712
S'16368684'
p1713
ag5
(g6
g7
NtRp1714
((dp1715
S'Q54CW7'
p1716
I01
stbaa(lp1717
S'12464622'
p1718
ag5
(g6
g7
NtRp1719
((dp1720
S'Q54D97'
p1721
I01
sS'Q8I7P3'
p1722
I01
sS'Q54W40'
p1723
I01
sS'Q54PV1'
p1724
I01
stbaa(lp1725
S'11784104'
p1726
ag5
(g6
g7
NtRp1727
((dp1728
S'Q54DD0'
p1729
I01
stbaa(lp1730
S'18515835'
p1731
ag5
(g6
g7
NtRp1732
((dp1733
S'Q54DD4'
p1734
I01
sS'Q54NI7'
p1735
I01
stbaa(lp1736
S'12871696'
p1737
ag5
(g6
g7
NtRp1738
((dp1739
S'Q54DG1'
p1740
I01
sS'Q54T92'
p1741
I01
sS'Q86M88'
p1742
I01
stbaa(lp1743
S'11488929'
p1744
ag5
(g6
g7
NtRp1745
((dp1746
S'Q54LG5'
p1747
I01
sS'Q54DJ1'
p1748
I01
stbaa(lp1749
S'15309638'
p1750
ag5
(g6
g7
NtRp1751
((dp1752
S'Q54EX0'
p1753
I01
sS'Q55BZ9'
p1754
I01
sS'Q54JS4'
p1755
I01
sS'Q54JS3'
p1756
I01
sS'Q86KB6'
p1757
I01
sS'Q55BZ7'
p1758
I01
sS'Q54DJ4'
p1759
I01
sS'Q54DJ2'
p1760
I01
sS'Q54DJ3'
p1761
I01
sS'Q54DJ1'
p1762
I01
sS'Q54VM7'
p1763
I01
sS'Q55BZ8'
p1764
I01
sS'Q54U76'
p1765
I01
sS'Q54PW1'
p1766
I01
sS'Q55BZ6'
p1767
I01
sS'Q86K68'
p1768
I01
stbaa(lp1769
S'15987738'
p1770
ag5
(g6
g7
NtRp1771
((dp1772
S'Q54DK4'
p1773
I01
stbaa(lp1774
S'23938384'
p1775
ag5
(g6
g7
NtRp1776
((dp1777
S'Q9GPM2'
p1778
I01
sS'Q54E04'
p1779
I01
stbaa(lp1780
S'18827012'
p1781
ag5
(g6
g7
NtRp1782
((dp1783
S'Q54EH1'
p1784
I01
stbaa(lp1785
S'16243037'
p1786
ag5
(g6
g7
NtRp1787
((dp1788
S'Q54WG6'
p1789
I01
sS'Q54MA9'
p1790
I01
sS'Q54T85'
p1791
I01
sS'Q54UC0'
p1792
I01
sS'Q54ER4'
p1793
I01
sS'Q54LY5'
p1794
I01
stbaa(lp1795
S'21458438'
p1796
ag5
(g6
g7
NtRp1797
((dp1798
S'Q54ER9'
p1799
I01
stbaa(lp1800
S'16410410'
p1801
ag5
(g6
g7
NtRp1802
((dp1803
S'Q54ER9'
p1804
I01
sS'Q54XG7'
p1805
I01
stbaa(lp1806
S'16396914'
p1807
ag5
(g6
g7
NtRp1808
((dp1809
S'Q54ER9'
p1810
I01
stbaa(lp1811
S'22253818'
p1812
ag5
(g6
g7
NtRp1813
((dp1814
S'Q54ER9'
p1815
I01
stbaa(lp1816
S'16672332'
p1817
ag5
(g6
g7
NtRp1818
((dp1819
S'Q54ET0'
p1820
I01
stbaa(lp1821
S'15003488'
p1822
ag5
(g6
g7
NtRp1823
((dp1824
S'Q54EW8'
p1825
I01
stbaa(lp1826
S'16151245'
p1827
ag5
(g6
g7
NtRp1828
((dp1829
S'Q54EY0'
p1830
I01
sS'Q9NA13'
p1831
I01
sS'Q54HZ8'
p1832
I01
sS'Q558Y3'
p1833
I01
stbaa(lp1834
S'12697064'
p1835
ag5
(g6
g7
NtRp1836
((dp1837
S'Q54EY2'
p1838
I01
sS'Q558U1'
p1839
I01
sS'Q869N9'
p1840
I01
sS'Q550L8'
p1841
I01
stbaa(lp1842
S'15950752'
p1843
ag5
(g6
g7
NtRp1844
((dp1845
S'Q54F44'
p1846
I01
sS'Q9XYS3'
p1847
I01
sS'Q86GL4'
p1848
I01
sS'Q867X6'
p1849
I01
sS'Q867T7'
p1850
I01
stbaa(lp1851
S'20231486'
p1852
ag5
(g6
g7
NtRp1853
((dp1854
S'Q54FI4'
p1855
I01
stbaa(lp1856
S'15073273'
p1857
ag5
(g6
g7
NtRp1858
((dp1859
S'Q54U31'
p1860
I01
sS'Q55A48'
p1861
I01
sS'Q70GP4'
p1862
I01
sS'Q54Y55'
p1863
I01
sS'Q54IP4'
p1864
I01
sS'Q54G43'
p1865
I01
sS'Q54RB7'
p1866
I01
sS'Q86I20'
p1867
I01
stbaa(lp1868
S'16356468'
p1869
ag5
(g6
g7
NtRp1870
((dp1871
S'Q54G53'
p1872
I01
stbaa(lp1873
S'10987137'
p1874
ag5
(g6
g7
NtRp1875
((dp1876
S'Q54GP3'
p1877
I01
stbaa(lp1878
S'15896778'
p1879
ag5
(g6
g7
NtRp1880
((dp1881
S'Q54GP3'
p1882
I01
stbaa(lp1883
S'16678813'
p1884
ag5
(g6
g7
NtRp1885
((dp1886
S'Q8T137'
p1887
I01
sS'Q54GP8'
p1888
I01
stbaa(lp1889
S'18039932'
p1890
ag5
(g6
g7
NtRp1891
((dp1892
S'Q75J96'
p1893
I01
sS'Q54HG2'
p1894
I01
stbaa(lp1895
S'21441344'
p1896
ag5
(g6
g7
NtRp1897
((dp1898
S'Q8I7T3'
p1899
I01
sS'Q54HG2'
p1900
I01
stbaa(lp1901
S'22902739'
p1902
ag5
(g6
g7
NtRp1903
((dp1904
S'Q550R2'
p1905
I01
sS'Q54K32'
p1906
I01
sS'Q54HG2'
p1907
I01
stbaa(lp1908
S'15014435'
p1909
ag5
(g6
g7
NtRp1910
((dp1911
S'Q9NHF6'
p1912
I01
sS'Q54HG2'
p1913
I01
stbaa(lp1914
S'8752217'
p1915
ag5
(g6
g7
NtRp1916
((dp1917
S'Q550R2'
p1918
I01
sS'Q54HG2'
p1919
I01
stbaa(lp1920
S'22311068'
p1921
ag5
(g6
g7
NtRp1922
((dp1923
S'Q54HH2'
p1924
I01
stbaa(lp1925
S'23269477'
p1926
ag5
(g6
g7
NtRp1927
((dp1928
S'Q54HH2'
p1929
I01
stbaa(lp1930
S'22090348'
p1931
ag5
(g6
g7
NtRp1932
((dp1933
S'Q54HI5'
p1934
I01
stbaa(lp1935
S'16469305'
p1936
ag5
(g6
g7
NtRp1937
((dp1938
S'Q54HS3'
p1939
I01
stbaa(lp1940
S'16571632'
p1941
ag5
(g6
g7
NtRp1942
((dp1943
S'Q54YB7'
p1944
I01
sS'Q54Z40'
p1945
I01
sS'Q869R9'
p1946
I01
sS'Q54K19'
p1947
I01
sS'Q54HX6'
p1948
I01
sS'Q54T71'
p1949
I01
sS'Q54IF9'
p1950
I01
stbaa(lp1951
S'17611045'
p1952
ag5
(g6
g7
NtRp1953
((dp1954
S'Q54W23'
p1955
I01
sS'Q54HY6'
p1956
I01
stbaa(lp1957
S'17353263'
p1958
ag5
(g6
g7
NtRp1959
((dp1960
S'Q86IL5'
p1961
I01
sS'Q9Y0B7'
p1962
I01
sS'Q54I18'
p1963
I01
stbaa(lp1964
S'18657170'
p1965
ag5
(g6
g7
NtRp1966
((dp1967
S'Q54I36'
p1968
I01
stbaa(lp1969
S'8898113'
p1970
ag5
(g6
g7
NtRp1971
((dp1972
S'Q552C6'
p1973
I01
sS'Q54I36'
p1974
I01
stbaa(lp1975
S'21393547'
p1976
ag5
(g6
g7
NtRp1977
((dp1978
S'Q54MH2'
p1979
I01
sS'Q54I71'
p1980
I01
stbaa(lp1981
S'10224056'
p1982
ag5
(g6
g7
NtRp1983
((dp1984
S'Q54IL5'
p1985
I01
stbaa(lp1986
S'21087028'
p1987
ag5
(g6
g7
NtRp1988
((dp1989
S'Q54IT0'
p1990
I01
stbaa(lp1991
S'19833731'
p1992
ag5
(g6
g7
NtRp1993
((dp1994
S'Q86JM7'
p1995
I01
sS'Q54JH4'
p1996
I01
sS'Q54J33'
p1997
I01
sS'Q553Y1'
p1998
I01
sS'Q553Y0'
p1999
I01
stbaa(lp2000
S'16777069'
p2001
ag5
(g6
g7
NtRp2002
((dp2003
S'Q54JC0'
p2004
I01
stbaa(lp2005
S'15689527'
p2006
ag5
(g6
g7
NtRp2007
((dp2008
S'Q54JH6'
p2009
I01
stbaa(lp2010
S'16282589'
p2011
ag5
(g6
g7
NtRp2012
((dp2013
S'Q54JH6'
p2014
I01
stbaa(lp2015
S'16400165'
p2016
ag5
(g6
g7
NtRp2017
((dp2018
S'Q54JH6'
p2019
I01
stbaa(lp2020
S'18676953'
p2021
ag5
(g6
g7
NtRp2022
((dp2023
S'Q54JL7'
p2024
I01
stbaa(lp2025
S'10978342'
p2026
ag5
(g6
g7
NtRp2027
((dp2028
S'Q54JY7'
p2029
I01
sS'Q75JI3'
p2030
I01
stbaa(lp2031
S'15643062'
p2032
ag5
(g6
g7
NtRp2033
((dp2034
S'Q54K22'
p2035
I01
stbaa(lp2036
S'9056774'
p2037
ag5
(g6
g7
NtRp2038
((dp2039
S'Q54K32'
p2040
I01
stbaa(lp2041
S'9813063'
p2042
ag5
(g6
g7
NtRp2043
((dp2044
S'Q54K50'
p2045
I01
stbaa(lp2046
S'21871890'
p2047
ag5
(g6
g7
NtRp2048
((dp2049
S'Q86A17'
p2050
I01
sS'Q54LA0'
p2051
I01
stbaa(lp2052
S'7729573'
p2053
ag5
(g6
g7
NtRp2054
((dp2055
S'Q54LG5'
p2056
I01
sS'Q54LF5'
p2057
I01
stbaa(lp2058
S'18638468'
p2059
ag5
(g6
g7
NtRp2060
((dp2061
S'Q54LW0'
p2062
I01
stbaa(lp2063
S'12890554'
p2064
ag5
(g6
g7
NtRp2065
((dp2066
S'Q54M25'
p2067
I01
stbaa(lp2068
S'23923009'
p2069
ag5
(g6
g7
NtRp2070
((dp2071
S'Q54M56'
p2072
I01
stbaa(lp2073
S'12963116'
p2074
ag5
(g6
g7
NtRp2075
((dp2076
S'Q54ME1'
p2077
I01
stbaa(lp2078
S'20170636'
p2079
ag5
(g6
g7
NtRp2080
((dp2081
S'Q54MP1'
p2082
I01
stbaa(lp2083
S'16675552'
p2084
ag5
(g6
g7
NtRp2085
((dp2086
S'Q5TJ65'
p2087
I01
sS'Q54N00'
p2088
I01
stbaa(lp2089
S'16599905'
p2090
ag5
(g6
g7
NtRp2091
((dp2092
S'Q54N49'
p2093
I01
stbaa(lp2094
S'18413611'
p2095
ag5
(g6
g7
NtRp2096
((dp2097
S'Q54ND5'
p2098
I01
stbaa(lp2099
S'17314411'
p2100
ag5
(g6
g7
NtRp2101
((dp2102
S'Q54NF8'
p2103
I01
sS'Q55FT9'
p2104
I01
sS'Q54X65'
p2105
I01
sS'Q6UK63'
p2106
I01
stbaa(lp2107
S'18261908'
p2108
ag5
(g6
g7
NtRp2109
((dp2110
S'Q54NF8'
p2111
I01
sS'Q55FT9'
p2112
I01
stbaa(lp2113
S'10727946'
p2114
ag5
(g6
g7
NtRp2115
((dp2116
S'Q75JI3'
p2117
I01
sS'Q54NP6'
p2118
I01
sS'Q9U9R7'
p2119
I01
stbaa(lp2120
S'10749929'
p2121
ag5
(g6
g7
NtRp2122
((dp2123
S'Q54NW4'
p2124
I01
stbaa(lp2125
S'14704357'
p2126
ag5
(g6
g7
NtRp2127
((dp2128
S'Q54P04'
p2129
I01
stbaa(lp2130
S'15993406'
p2131
ag5
(g6
g7
NtRp2132
((dp2133
S'Q54PC2'
p2134
I01
stbaa(lp2135
S'16003496'
p2136
ag5
(g6
g7
NtRp2137
((dp2138
S'Q54PN9'
p2139
I01
stbaa(lp2140
S'16963635'
p2141
ag5
(g6
g7
NtRp2142
((dp2143
S'Q54PR9'
p2144
I01
stbaa(lp2145
S'22811266'
p2146
ag5
(g6
g7
NtRp2147
((dp2148
S'Q54PT9'
p2149
I01
stbaa(lp2150
S'10491107'
p2151
ag5
(g6
g7
NtRp2152
((dp2153
S'Q9XZE5'
p2154
I01
sS'Q54QR9'
p2155
I01
sS'Q54Q99'
p2156
I01
stbaa(lp2157
S'21562226'
p2158
ag5
(g6
g7
NtRp2159
((dp2160
S'Q9XZE5'
p2161
I01
sS'Q54QR9'
p2162
I01
sS'Q54Q99'
p2163
I01
stbaa(lp2164
S'8662604'
p2165
ag5
(g6
g7
NtRp2166
((dp2167
S'Q54QG0'
p2168
I01
stbaa(lp2169
S'12244067'
p2170
ag5
(g6
g7
NtRp2171
((dp2172
S'Q54QG0'
p2173
I01
stbaa(lp2174
S'11423539'
p2175
ag5
(g6
g7
NtRp2176
((dp2177
S'Q54QG0'
p2178
I01
stbaa(lp2179
S'15351882'
p2180
ag5
(g6
g7
NtRp2181
((dp2182
S'Q54QM6'
p2183
I01
stbaa(lp2184
S'16987957'
p2185
ag5
(g6
g7
NtRp2186
((dp2187
S'Q556N5'
p2188
I01
sS'Q54QQ1'
p2189
I01
stbaa(lp2190
S'16325504'
p2191
ag5
(g6
g7
NtRp2192
((dp2193
S'Q54QQ1'
p2194
I01
stbaa(lp2195
S'15769592'
p2196
ag5
(g6
g7
NtRp2197
((dp2198
S'Q54QT7'
p2199
I01
stbaa(lp2200
S'9883904'
p2201
ag5
(g6
g7
NtRp2202
((dp2203
S'Q54QT7'
p2204
I01
stbaa(lp2205
S'22864416'
p2206
ag5
(g6
g7
NtRp2207
((dp2208
S'Q54R09'
p2209
I01
stbaa(lp2210
S'9832508'
p2211
ag5
(g6
g7
NtRp2212
((dp2213
S'Q54R82'
p2214
I01
stbaa(lp2215
S'11274054'
p2216
ag5
(g6
g7
NtRp2217
((dp2218
S'Q54RB7'
p2219
I01
stbaa(lp2220
S'17442478'
p2221
ag5
(g6
g7
NtRp2222
((dp2223
S'Q54RB9'
p2224
I01
stbaa(lp2225
S'15325281'
p2226
ag5
(g6
g7
NtRp2227
((dp2228
S'Q54RF4'
p2229
I01
sS'Q9U7C9'
p2230
I01
stbaa(lp2231
S'17391056'
p2232
ag5
(g6
g7
NtRp2233
((dp2234
S'Q54RQ4'
p2235
I01
sS'Q54RN0'
p2236
I01
stbaa(lp2237
S'16524908'
p2238
ag5
(g6
g7
NtRp2239
((dp2240
S'Q54RQ4'
p2241
I01
sS'Q54RN0'
p2242
I01
stbaa(lp2243
S'16495217'
p2244
ag5
(g6
g7
NtRp2245
((dp2246
S'Q54RP0'
p2247
I01
stbaa(lp2248
S'18768936'
p2249
ag5
(g6
g7
NtRp2250
((dp2251
S'Q54RQ1'
p2252
I01
stbaa(lp2253
S'10974109'
p2254
ag5
(g6
g7
NtRp2255
((dp2256
S'Q54RV9'
p2257
I01
stbaa(lp2258
S'18339368'
p2259
ag5
(g6
g7
NtRp2260
((dp2261
S'Q54RY6'
p2262
I01
stbaa(lp2263
S'15155803'
p2264
ag5
(g6
g7
NtRp2265
((dp2266
S'Q54RZ5'
p2267
I01
stbaa(lp2268
S'18992223'
p2269
ag5
(g6
g7
NtRp2270
((dp2271
S'Q54S04'
p2272
I01
stbaa(lp2273
S'16769729'
p2274
ag5
(g6
g7
NtRp2275
((dp2276
S'Q54S40'
p2277
I01
stbaa(lp2278
S'15827084'
p2279
ag5
(g6
g7
NtRp2280
((dp2281
S'Q54S40'
p2282
I01
sS'Q8MVR1'
p2283
I01
stbaa(lp2284
S'20406883'
p2285
ag5
(g6
g7
NtRp2286
((dp2287
S'Q54S83'
p2288
I01
stbaa(lp2289
S'16741867'
p2290
ag5
(g6
g7
NtRp2291
((dp2292
S'Q54T47'
p2293
I01
stbaa(lp2294
S'17237363'
p2295
ag5
(g6
g7
NtRp2296
((dp2297
S'Q54T71'
p2298
I01
stbaa(lp2299
S'14595117'
p2300
ag5
(g6
g7
NtRp2301
((dp2302
S'Q54T86'
p2303
I01
stbaa(lp2304
S'17664333'
p2305
ag5
(g6
g7
NtRp2306
((dp2307
S'Q54TA1'
p2308
I01
stbaa(lp2309
S'10331990'
p2310
ag5
(g6
g7
NtRp2311
((dp2312
S'Q54TN2'
p2313
I01
stbaa(lp2314
S'18611962'
p2315
ag5
(g6
g7
NtRp2316
((dp2317
S'Q5XM24'
p2318
I01
sS'Q54TR1'
p2319
I01
stbaa(lp2320
S'9729488'
p2321
ag5
(g6
g7
NtRp2322
((dp2323
S'Q54TY7'
p2324
I01
stbaa(lp2325
S'14732403'
p2326
ag5
(g6
g7
NtRp2327
((dp2328
S'Q6UUW5'
p2329
I01
sS'Q6UUW6'
p2330
I01
sS'Q54U75'
p2331
I01
stbaa(lp2332
S'9191038'
p2333
ag5
(g6
g7
NtRp2334
((dp2335
S'Q54U87'
p2336
I01
stbaa(lp2337
S'18160177'
p2338
ag5
(g6
g7
NtRp2339
((dp2340
S'Q54UC9'
p2341
I01
stbaa(lp2342
S'16899077'
p2343
ag5
(g6
g7
NtRp2344
((dp2345
S'Q54UU8'
p2346
I01
stbaa(lp2347
S'18673380'
p2348
ag5
(g6
g7
NtRp2349
((dp2350
S'Q54VB6'
p2351
I01
stbaa(lp2352
S'15821735'
p2353
ag5
(g6
g7
NtRp2354
((dp2355
S'Q54WA6'
p2356
I01
stbaa(lp2357
S'20062541'
p2358
ag5
(g6
g7
NtRp2359
((dp2360
S'Q551Q8'
p2361
I01
sS'Q54WI0'
p2362
I01
stbaa(lp2363
S'15821129'
p2364
ag5
(g6
g7
NtRp2365
((dp2366
S'Q54WR4'
p2367
I01
stbaa(lp2368
S'16339076'
p2369
ag5
(g6
g7
NtRp2370
((dp2371
S'Q55GF9'
p2372
I01
sS'Q54WX4'
p2373
I01
stbaa(lp2374
S'18326585'
p2375
ag5
(g6
g7
NtRp2376
((dp2377
S'Q55GF9'
p2378
I01
sS'Q54WX4'
p2379
I01
stbaa(lp2380
S'17086450'
p2381
ag5
(g6
g7
NtRp2382
((dp2383
S'Q54WZ6'
p2384
I01
stbaa(lp2385
S'561722'
p2386
ag5
(g6
g7
NtRp2387
((dp2388
S'Q54XG2'
p2389
I01
stbaa(lp2390
S'14729573'
p2391
ag5
(g6
g7
NtRp2392
((dp2393
S'Q54XG7'
p2394
I01
stbaa(lp2395
S'12686622'
p2396
ag5
(g6
g7
NtRp2397
((dp2398
S'Q54XQ2'
p2399
I01
stbaa(lp2400
S'18835579'
p2401
ag5
(g6
g7
NtRp2402
((dp2403
S'Q54XS1'
p2404
I01
stbaa(lp2405
S'23017206'
p2406
ag5
(g6
g7
NtRp2407
((dp2408
S'Q54XS1'
p2409
I01
stbaa(lp2410
S'16265631'
p2411
ag5
(g6
g7
NtRp2412
((dp2413
S'Q54XX0'
p2414
I01
sS'Q75JH9'
p2415
I01
sS'Q55C43'
p2416
I01
stbaa(lp2417
S'17419997'
p2418
ag5
(g6
g7
NtRp2419
((dp2420
S'Q54XY1'
p2421
I01
stbaa(lp2422
S'12717731'
p2423
ag5
(g6
g7
NtRp2424
((dp2425
S'Q54Y02'
p2426
I01
stbaa(lp2427
S'6273404'
p2428
ag5
(g6
g7
NtRp2429
((dp2430
S'Q54Y02'
p2431
I01
stbaa(lp2432
S'19692567'
p2433
ag5
(g6
g7
NtRp2434
((dp2435
S'Q54Y50'
p2436
I01
sS'Q86AQ7'
p2437
I01
stbaa(lp2438
S'17050736'
p2439
ag5
(g6
g7
NtRp2440
((dp2441
S'Q54Y50'
p2442
I01
stbaa(lp2443
S'9716534'
p2444
ag5
(g6
g7
NtRp2445
((dp2446
S'Q54YU6'
p2447
I01
stbaa(lp2448
S'14665465'
p2449
ag5
(g6
g7
NtRp2450
((dp2451
S'Q9GPZ7'
p2452
I01
sS'Q54Z54'
p2453
I01
stbaa(lp2454
S'15733068'
p2455
ag5
(g6
g7
NtRp2456
((dp2457
S'Q557X0'
p2458
I01
sS'Q54Z60'
p2459
I01
stbaa(lp2460
S'15261655'
p2461
ag5
(g6
g7
NtRp2462
((dp2463
S'Q7YTA6'
p2464
I01
sS'Q54ZW0'
p2465
I01
sS'Q55FP0'
p2466
I01
stbaa(lp2467
S'8898200'
p2468
ag5
(g6
g7
NtRp2469
((dp2470
S'Q550D5'
p2471
I01
stbaa(lp2472
S'16814427'
p2473
ag5
(g6
g7
NtRp2474
((dp2475
S'Q551M2'
p2476
I01
stbaa(lp2477
S'16790492'
p2478
ag5
(g6
g7
NtRp2479
((dp2480
S'Q551V8'
p2481
I01
stbaa(lp2482
S'21205787'
p2483
ag5
(g6
g7
NtRp2484
((dp2485
S'Q552C6'
p2486
I01
stbaa(lp2487
S'15629062'
p2488
ag5
(g6
g7
NtRp2489
((dp2490
S'Q554C5'
p2491
I01
stbaa(lp2492
S'293714'
p2493
ag5
(g6
g7
NtRp2494
((dp2495
S'Q554S6'
p2496
I01
stbaa(lp2497
S'12117815'
p2498
ag5
(g6
g7
NtRp2499
((dp2500
S'Q556R7'
p2501
I01
stbaa(lp2502
S'10880352'
p2503
ag5
(g6
g7
NtRp2504
((dp2505
S'Q556Y4'
p2506
I01
stbaa(lp2507
S'15640146'
p2508
ag5
(g6
g7
NtRp2509
((dp2510
S'Q556Y7'
p2511
I01
sS'Q8T1G5'
p2512
I01
sS'Q8T1G4'
p2513
I01
sS'Q8T1G6'
p2514
I01
stbaa(lp2515
S'16449327'
p2516
ag5
(g6
g7
NtRp2517
((dp2518
S'Q557J6'
p2519
I01
stbaa(lp2520
S'17699599'
p2521
ag5
(g6
g7
NtRp2522
((dp2523
S'Q558K8'
p2524
I01
stbaa(lp2525
S'18266910'
p2526
ag5
(g6
g7
NtRp2527
((dp2528
S'Q558Z2'
p2529
I01
stbaa(lp2530
S'15059942'
p2531
ag5
(g6
g7
NtRp2532
((dp2533
S'Q55A00'
p2534
I01
stbaa(lp2535
S'18948008'
p2536
ag5
(g6
g7
NtRp2537
((dp2538
S'Q55AR6'
p2539
I01
stbaa(lp2540
S'21187070'
p2541
ag5
(g6
g7
NtRp2542
((dp2543
S'Q55AX2'
p2544
I01
stbaa(lp2545
S'16899512'
p2546
ag5
(g6
g7
NtRp2547
((dp2548
S'Q9GSG9'
p2549
I01
sS'Q55BN3'
p2550
I01
stbaa(lp2551
S'11956323'
p2552
ag5
(g6
g7
NtRp2553
((dp2554
S'Q55BN8'
p2555
I01
stbaa(lp2556
S'19576222'
p2557
ag5
(g6
g7
NtRp2558
((dp2559
S'Q55BW2'
p2560
I01
stbaa(lp2561
S'16962888'
p2562
ag5
(g6
g7
NtRp2563
((dp2564
S'Q55CL6'
p2565
I01
stbaa(lp2566
S'18408056'
p2567
ag5
(g6
g7
NtRp2568
((dp2569
S'Q55CS7'
p2570
I01
stbaa(lp2571
S'22345351'
p2572
ag5
(g6
g7
NtRp2573
((dp2574
S'Q55CT4'
p2575
I01
stbaa(lp2576
S'10545500'
p2577
ag5
(g6
g7
NtRp2578
((dp2579
S'Q55D99'
p2580
I01
stbaa(lp2581
S'12626710'
p2582
ag5
(g6
g7
NtRp2583
((dp2584
S'Q55DL0'
p2585
I01
stbaa(lp2586
S'15086784'
p2587
ag5
(g6
g7
NtRp2588
((dp2589
S'Q55DM1'
p2590
I01
stbaa(lp2591
S'14629118'
p2592
ag5
(g6
g7
NtRp2593
((dp2594
S'Q55DR6'
p2595
I01
stbaa(lp2596
S'16781009'
p2597
ag5
(g6
g7
NtRp2598
((dp2599
S'Q55E26'
p2600
I01
stbaa(lp2601
S'12529423'
p2602
ag5
(g6
g7
NtRp2603
((dp2604
S'Q55E58'
p2605
I01
stbaa(lp2606
S'10930737'
p2607
ag5
(g6
g7
NtRp2608
((dp2609
S'Q55EK9'
p2610
I01
stbaa(lp2611
S'20966074'
p2612
ag5
(g6
g7
NtRp2613
((dp2614
S'Q55F68'
p2615
I01
stbaa(lp2616
S'22682495'
p2617
ag5
(g6
g7
NtRp2618
((dp2619
S'Q55FC8'
p2620
I01
stbaa(lp2621
S'24240571'
p2622
ag5
(g6
g7
NtRp2623
((dp2624
S'Q55FE6'
p2625
I01
stbaa(lp2626
S'18708585'
p2627
ag5
(g6
g7
NtRp2628
((dp2629
S'Q55FT4'
p2630
I01
stbaa(lp2631
S'11352578'
p2632
ag5
(g6
g7
NtRp2633
((dp2634
S'Q55G87'
p2635
I01
sS'Q7YSW8'
p2636
I01
stbaa(lp2637
S'9023987'
p2638
ag5
(g6
g7
NtRp2639
((dp2640
S'Q55GH4'
p2641
I01
stbaa(lp2642
S'16367873'
p2643
ag5
(g6
g7
NtRp2644
((dp2645
S'Q55GK8'
p2646
I01
stbaa(lp2647
S'12840076'
p2648
ag5
(g6
g7
NtRp2649
((dp2650
S'Q55GQ5'
p2651
I01
stbaa(lp2652
S'15255188'
p2653
ag5
(g6
g7
NtRp2654
((dp2655
S'Q65YR8'
p2656
I01
sS'Q65YR7'
p2657
I01
sS'Q5R1U3'
p2658
I01
stbaa(lp2659
S'17467078'
p2660
ag5
(g6
g7
NtRp2661
((dp2662
S'Q5TJ65'
p2663
I01
sS'Q8T8M2'
p2664
I01
stbaa(lp2665
S'15643073'
p2666
ag5
(g6
g7
NtRp2667
((dp2668
S'Q86KF9'
p2669
I01
sS'Q6B516'
p2670
I01
stbaa(lp2671
S'15728726'
p2672
ag5
(g6
g7
NtRp2673
((dp2674
S'Q6B9X6'
p2675
I01
stbaa(lp2676
S'18381083'
p2677
ag5
(g6
g7
NtRp2678
((dp2679
S'Q6B9X6'
p2680
I01
stbaa(lp2681
S'14551196'
p2682
ag5
(g6
g7
NtRp2683
((dp2684
S'Q6IMN8'
p2685
I01
stbaa(lp2686
S'3024983'
p2687
ag5
(g6
g7
NtRp2688
((dp2689
S'Q6RYT0'
p2690
I01
stbaa(lp2691
S'4308724'
p2692
ag5
(g6
g7
NtRp2693
((dp2694
S'Q6RYT0'
p2695
I01
stbaa(lp2696
S'15546981'
p2697
ag5
(g6
g7
NtRp2698
((dp2699
S'Q6S000'
p2700
I01
stbaa(lp2701
S'23333327'
p2702
ag5
(g6
g7
NtRp2703
((dp2704
S'Q6S001'
p2705
I01
stbaa(lp2706
S'15075287'
p2707
ag5
(g6
g7
NtRp2708
((dp2709
S'Q6TMI9'
p2710
I01
sS'Q6TMK3'
p2711
I01
stbaa(lp2712
S'14665466'
p2713
ag5
(g6
g7
NtRp2714
((dp2715
S'Q6TU48'
p2716
I01
stbaa(lp2717
S'22689969'
p2718
ag5
(g6
g7
NtRp2719
((dp2720
S'Q6XHB2'
p2721
I01
stbaa(lp2722
S'14701681'
p2723
ag5
(g6
g7
NtRp2724
((dp2725
S'Q70GP4'
p2726
I01
stbaa(lp2727
S'14517243'
p2728
ag5
(g6
g7
NtRp2729
((dp2730
S'Q71A39'
p2731
I01
stbaa(lp2732
S'17085634'
p2733
ag5
(g6
g7
NtRp2734
((dp2735
S'Q75JK0'
p2736
I01
stbaa(lp2737
S'10571182'
p2738
ag5
(g6
g7
NtRp2739
((dp2740
S'Q75JK0'
p2741
I01
stbaa(lp2742
S'17499244'
p2743
ag5
(g6
g7
NtRp2744
((dp2745
S'Q76NT9'
p2746
I01
stbaa(lp2747
S'9765812'
p2748
ag5
(g6
g7
NtRp2749
((dp2750
S'Q7YSW8'
p2751
I01
stbaa(lp2752
S'8681950'
p2753
ag5
(g6
g7
NtRp2754
((dp2755
S'Q7YSW8'
p2756
I01
stbaa(lp2757
S'16343335'
p2758
ag5
(g6
g7
NtRp2759
((dp2760
S'Q7YXU4'
p2761
I01
stbaa(lp2762
S'8670893'
p2763
ag5
(g6
g7
NtRp2764
((dp2765
S'Q869S5'
p2766
I01
stbaa(lp2767
S'2830141'
p2768
ag5
(g6
g7
NtRp2769
((dp2770
S'Q869S5'
p2771
I01
stbaa(lp2772
S'16445684'
p2773
ag5
(g6
g7
NtRp2774
((dp2775
S'Q869V1'
p2776
I01
stbaa(lp2777
S'11689442'
p2778
ag5
(g6
g7
NtRp2779
((dp2780
S'Q86A02'
p2781
I01
stbaa(lp2782
S'21819985'
p2783
ag5
(g6
g7
NtRp2784
((dp2785
S'Q86A17'
p2786
I01
stbaa(lp2787
S'18997329'
p2788
ag5
(g6
g7
NtRp2789
((dp2790
S'Q86A17'
p2791
I01
stbaa(lp2792
S'20019080'
p2793
ag5
(g6
g7
NtRp2794
((dp2795
S'Q86A84'
p2796
I01
stbaa(lp2797
S'21209787'
p2798
ag5
(g6
g7
NtRp2799
((dp2800
S'Q86AD9'
p2801
I01
stbaa(lp2802
S'10329620'
p2803
ag5
(g6
g7
NtRp2804
((dp2805
S'Q86AS5'
p2806
I01
stbaa(lp2807
S'14593072'
p2808
ag5
(g6
g7
NtRp2809
((dp2810
S'Q86AT8'
p2811
I01
stbaa(lp2812
S'15225305'
p2813
ag5
(g6
g7
NtRp2814
((dp2815
S'Q8MQU6'
p2816
I01
sS'Q86AV6'
p2817
I01
stbaa(lp2818
S'12626495'
p2819
ag5
(g6
g7
NtRp2820
((dp2821
S'Q86CR9'
p2822
I01
stbaa(lp2823
S'17031001'
p2824
ag5
(g6
g7
NtRp2825
((dp2826
S'Q86CS2'
p2827
I01
stbaa(lp2828
S'14736886'
p2829
ag5
(g6
g7
NtRp2830
((dp2831
S'Q86CS2'
p2832
I01
stbaa(lp2833
S'16644729'
p2834
ag5
(g6
g7
NtRp2835
((dp2836
S'Q86H13'
p2837
I01
stbaa(lp2838
S'15708561'
p2839
ag5
(g6
g7
NtRp2840
((dp2841
S'Q86H98'
p2842
I01
stbaa(lp2843
S'12912898'
p2844
ag5
(g6
g7
NtRp2845
((dp2846
S'Q86HE5'
p2847
I01
stbaa(lp2848
S'23548898'
p2849
ag5
(g6
g7
NtRp2850
((dp2851
S'Q86HH3'
p2852
I01
stbaa(lp2853
S'12843630'
p2854
ag5
(g6
g7
NtRp2855
((dp2856
S'Q86I79'
p2857
I01
stbaa(lp2858
S'11029049'
p2859
ag5
(g6
g7
NtRp2860
((dp2861
S'Q86IA3'
p2862
I01
stbaa(lp2863
S'12878591'
p2864
ag5
(g6
g7
NtRp2865
((dp2866
S'Q86IG3'
p2867
I01
stbaa(lp2868
S'10444594'
p2869
ag5
(g6
g7
NtRp2870
((dp2871
S'Q86IV5'
p2872
I01
stbaa(lp2873
S'17336445'
p2874
ag5
(g6
g7
NtRp2875
((dp2876
S'Q86IZ4'
p2877
I01
stbaa(lp2878
S'17625565'
p2879
ag5
(g6
g7
NtRp2880
((dp2881
S'Q86JM7'
p2882
I01
stbaa(lp2883
S'15705570'
p2884
ag5
(g6
g7
NtRp2885
((dp2886
S'Q86KR9'
p2887
I01
stbaa(lp2888
S'16478785'
p2889
ag5
(g6
g7
NtRp2890
((dp2891
S'Q9NIV0'
p2892
I01
sS'Q8I8U2'
p2893
I01
stbaa(lp2894
S'11102804'
p2895
ag5
(g6
g7
NtRp2896
((dp2897
S'Q8IS21'
p2898
I01
stbaa(lp2899
S'12429831'
p2900
ag5
(g6
g7
NtRp2901
((dp2902
S'Q8MLZ3'
p2903
I01
stbaa(lp2904
S'22730904'
p2905
ag5
(g6
g7
NtRp2906
((dp2907
S'Q8MMR8'
p2908
I01
stbaa(lp2909
S'9425628'
p2910
ag5
(g6
g7
NtRp2911
((dp2912
S'Q8MN58'
p2913
I01
stbaa(lp2914
S'18703517'
p2915
ag5
(g6
g7
NtRp2916
((dp2917
S'Q8MVR1'
p2918
I01
stbaa(lp2919
S'22119747'
p2920
ag5
(g6
g7
NtRp2921
((dp2922
S'Q8MVR1'
p2923
I01
stbaa(lp2924
S'18673369'
p2925
ag5
(g6
g7
NtRp2926
((dp2927
S'Q8MVR1'
p2928
I01
stbaa(lp2929
S'14686953'
p2930
ag5
(g6
g7
NtRp2931
((dp2932
S'Q9BLG3'
p2933
I01
sS'Q8MXY0'
p2934
I01
stbaa(lp2935
S'12475956'
p2936
ag5
(g6
g7
NtRp2937
((dp2938
S'Q8MY12'
p2939
I01
stbaa(lp2940
S'14623897'
p2941
ag5
(g6
g7
NtRp2942
((dp2943
S'Q8T135'
p2944
I01
stbaa(lp2945
S'10593934'
p2946
ag5
(g6
g7
NtRp2947
((dp2948
S'Q8T1C6'
p2949
I01
stbaa(lp2950
S'12244115'
p2951
ag5
(g6
g7
NtRp2952
((dp2953
S'Q8T1C6'
p2954
I01
stbaa(lp2955
S'11163223'
p2956
ag5
(g6
g7
NtRp2957
((dp2958
S'Q8T638'
p2959
I01
stbaa(lp2960
S'11823417'
p2961
ag5
(g6
g7
NtRp2962
((dp2963
S'Q94464'
p2964
I01
stbaa(lp2965
S'16527408'
p2966
ag5
(g6
g7
NtRp2967
((dp2968
S'Q94465'
p2969
I01
stbaa(lp2970
S'8870645'
p2971
ag5
(g6
g7
NtRp2972
((dp2973
S'Q94465'
p2974
I01
stbaa(lp2975
S'9348538'
p2976
ag5
(g6
g7
NtRp2977
((dp2978
S'Q94490'
p2979
I01
stbaa(lp2980
S'9102307'
p2981
ag5
(g6
g7
NtRp2982
((dp2983
S'Q94491'
p2984
I01
stbaa(lp2985
S'19861424'
p2986
ag5
(g6
g7
NtRp2987
((dp2988
S'Q95NZ8'
p2989
I01
stbaa(lp2990
S'15196949'
p2991
ag5
(g6
g7
NtRp2992
((dp2993
S'Q95YH0'
p2994
I01
stbaa(lp2995
S'11481037'
p2996
ag5
(g6
g7
NtRp2997
((dp2998
S'Q95YL4'
p2999
I01
stbaa(lp3000
S'11927596'
p3001
ag5
(g6
g7
NtRp3002
((dp3003
S'Q95YL4'
p3004
I01
sS'Q95YL5'
p3005
I01
stbaa(lp3006
S'12018385'
p3007
ag5
(g6
g7
NtRp3008
((dp3009
S'Q95ZG4'
p3010
I01
sS'Q95ZG3'
p3011
I01
stbaa(lp3012
S'11683919'
p3013
ag5
(g6
g7
NtRp3014
((dp3015
S'Q966T6'
p3016
I01
stbaa(lp3017
S'15363631'
p3018
ag5
(g6
g7
NtRp3019
((dp3020
S'Q9GPM4'
p3021
I01
stbaa(lp3022
S'9546041'
p3023
ag5
(g6
g7
NtRp3024
((dp3025
S'Q9GRF8'
p3026
I01
stbaa(lp3027
S'11479029'
p3028
ag5
(g6
g7
NtRp3029
((dp3030
S'Q9GRF8'
p3031
I01
stbaa(lp3032
S'15728724'
p3033
ag5
(g6
g7
NtRp3034
((dp3035
S'Q9GSG9'
p3036
I01
stbaa(lp3037
S'10970875'
p3038
ag5
(g6
g7
NtRp3039
((dp3040
S'Q9NA13'
p3041
I01
stbaa(lp3042
S'10804029'
p3043
ag5
(g6
g7
NtRp3044
((dp3045
S'Q9NH03'
p3046
I01
stbaa(lp3047
S'10828443'
p3048
ag5
(g6
g7
NtRp3049
((dp3050
S'Q9TW28'
p3051
I01
stbaa(lp3052
S'11208126'
p3053
ag5
(g6
g7
NtRp3054
((dp3055
S'Q9TW28'
p3056
I01
stbaa(lp3057
S'17189480'
p3058
ag5
(g6
g7
NtRp3059
((dp3060
S'Q9U1M8'
p3061
I01
stbaa(lp3062
S'10681463'
p3063
ag5
(g6
g7
NtRp3064
((dp3065
S'Q9U720'
p3066
I01
stbaa(lp3067
S'10652255'
p3068
ag5
(g6
g7
NtRp3069
((dp3070
S'Q9XXV8'
p3071
I01
stbaa(lp3072
S'10898960'
p3073
ag5
(g6
g7
NtRp3074
((dp3075
S'Q9Y0T2'
p3076
I01
stbaa(lp3077
S'10504413'
p3078
ag5
(g6
g7
NtRp3079
((dp3080
S'Q9Y1W0'
p3081
I01
stbaatRp3082
.