ccollections
OrderedDict
p1
((lp2
(lp3
S'18673382'
p4
accopy_reg
_reconstructor
p5
(csets
Set
p6
c__builtin__
object
p7
NtRp8
((dp9
S'A2V850'
p10
I01
stbaa(lp11
S'22120990'
p12
ag5
(g6
g7
NtRp13
((dp14
S'Q54D02'
p15
I01
sS'Q54D03'
p16
I01
sS'Q54D04'
p17
I01
sS'Q54D06'
p18
I01
sS'Q54D07'
p19
I01
sS'Q54D08'
p20
I01
sS'Q8MQU6'
p21
I01
sS'Q55BE6'
p22
I01
sS'Q557I9'
p23
I01
sS'Q54RX9'
p24
I01
sS'Q54RX6'
p25
I01
sS'Q54RX7'
p26
I01
sS'Q54RX2'
p27
I01
sS'Q54RX0'
p28
I01
sS'Q557I4'
p29
I01
sS'Q54MM6'
p30
I01
sS'Q54PT5'
p31
I01
sS'Q54PT7'
p32
I01
sS'Q54DW2'
p33
I01
sS'Q54MM9'
p34
I01
sS'Q54N47'
p35
I01
sS'Q54E36'
p36
I01
sS'Q54E30'
p37
I01
sS'Q553Q8'
p38
I01
sS'Q55ET3'
p39
I01
sS'Q54JG6'
p40
I01
sS'P11874'
p41
I01
sS'Q54RJ1'
p42
I01
sS'Q8T2Q3'
p43
I01
sS'Q54B42'
p44
I01
sS'Q54B43'
p45
I01
sS'Q55E06'
p46
I01
sS'Q54CV3'
p47
I01
sS'Q54BJ7'
p48
I01
sS'Q552C9'
p49
I01
sS'Q86K89'
p50
I01
sS'Q86A21'
p51
I01
sS'P34045'
p52
I01
sS'Q869L6'
p53
I01
sS'P34046'
p54
I01
sS'P34043'
p55
I01
sS'P34042'
p56
I01
sS'Q550A6'
p57
I01
sS'Q555G2'
p58
I01
sS'Q555G0'
p59
I01
sS'Q55F30'
p60
I01
sS'Q557I5'
p61
I01
sS'Q557G3'
p62
I01
sS'Q55BE9'
p63
I01
sS'Q54GL5'
p64
I01
sS'Q54KM4'
p65
I01
sS'Q54KM5'
p66
I01
sS'Q55FI4'
p67
I01
sS'Q54HR9'
p68
I01
sS'Q55FI1'
p69
I01
sS'Q54KM9'
p70
I01
sS'Q55GG8'
p71
I01
sS'Q54UM3'
p72
I01
sS'Q54UM1'
p73
I01
sS'Q54FC3'
p74
I01
sS'Q7KWM5'
p75
I01
sS'Q8T690'
p76
I01
sS'Q9TW32'
p77
I01
sS'Q55DB6'
p78
I01
sS'Q54JG9'
p79
I01
sS'Q9BIW5'
p80
I01
sS'P24005'
p81
I01
sS'Q54N42'
p82
I01
sS'O96070'
p83
I01
sS'Q8T2U3'
p84
I01
sS'Q55AI5'
p85
I01
sS'Q54XI2'
p86
I01
sS'Q54XI5'
p87
I01
sS'Q54BM1'
p88
I01
sS'Q54BM0'
p89
I01
sS'Q54BM3'
p90
I01
sS'Q54BM2'
p91
I01
sS'P46794'
p92
I01
sS'Q54BM7'
p93
I01
sS'Q54U24'
p94
I01
sS'Q55ET7'
p95
I01
sS'P02888'
p96
I01
sS'Q55BX3'
p97
I01
sS'Q55BX5'
p98
I01
sS'Q54QA4'
p99
I01
sS'Q54R55'
p100
I01
sS'Q76NW2'
p101
I01
sS'Q54M03'
p102
I01
sS'Q54WM4'
p103
I01
sS'Q86HU8'
p104
I01
sS'Q86HU9'
p105
I01
sS'Q95UQ1'
p106
I01
sS'Q86JA1'
p107
I01
sS'P90532'
p108
I01
sS'Q86JA8'
p109
I01
sS'Q54JV8'
p110
I01
sS'Q54XS7'
p111
I01
sS'Q54VW1'
p112
I01
sS'Q1ZXL7'
p113
I01
sS'Q54JV6'
p114
I01
sS'Q54JV0'
p115
I01
sS'Q54JV1'
p116
I01
sS'Q54MB5'
p117
I01
sS'Q54MB4'
p118
I01
sS'Q02720'
p119
I01
sS'Q54HV6'
p120
I01
sS'Q9GS21'
p121
I01
sS'Q54HV5'
p122
I01
sS'Q86HC7'
p123
I01
sS'Q54NF2'
p124
I01
sS'Q54NF3'
p125
I01
sS'Q76P29'
p126
I01
sS'Q54NF8'
p127
I01
sS'Q54NF9'
p128
I01
sS'Q54K41'
p129
I01
sS'Q54K47'
p130
I01
sS'Q76P23'
p131
I01
sS'Q54GI7'
p132
I01
sS'Q54LV8'
p133
I01
sS'Q54WD9'
p134
I01
sS'Q54GI9'
p135
I01
sS'Q54ZW5'
p136
I01
sS'Q54SM3'
p137
I01
sS'Q54TU2'
p138
I01
sS'Q75K16'
p139
I01
sS'Q54TU4'
p140
I01
sS'Q54CG0'
p141
I01
sS'Q54TU8'
p142
I01
sS'Q54HD4'
p143
I01
sS'Q75JI5'
p144
I01
sS'Q54NP6'
p145
I01
sS'Q54SC9'
p146
I01
sS'Q54J34'
p147
I01
sS'O00899'
p148
I01
sS'O00897'
p149
I01
sS'Q54G47'
p150
I01
sS'Q54G46'
p151
I01
sS'Q55BJ9'
p152
I01
sS'Q54G42'
p153
I01
sS'Q54BQ3'
p154
I01
sS'Q55C16'
p155
I01
sS'Q54BQ8'
p156
I01
sS'O76856'
p157
I01
sS'Q54G75'
p158
I01
sS'Q8T664'
p159
I01
sS'Q54D10'
p160
I01
sS'Q55BD5'
p161
I01
sS'Q54DT1'
p162
I01
sS'Q54PX3'
p163
I01
sS'Q54JX6'
p164
I01
sS'Q54ML1'
p165
I01
sS'Q54JX0'
p166
I01
sS'Q1ZXA8'
p167
I01
sS'Q54PU7'
p168
I01
sS'Q8MMS1'
p169
I01
sS'Q54E22'
p170
I01
sS'Q54N57'
p171
I01
sS'Q54E20'
p172
I01
sS'Q54E24'
p173
I01
sS'Q553V2'
p174
I01
sS'Q553V1'
p175
I01
sS'Q54N59'
p176
I01
sS'Q54DJ0'
p177
I01
sS'Q54JJ1'
p178
I01
sS'Q54JJ8'
p179
I01
sS'Q54JJ9'
p180
I01
sS'Q75JD5'
p181
I01
sS'Q54CU7'
p182
I01
sS'Q54CU2'
p183
I01
sS'Q550R6'
p184
I01
sS'Q23924'
p185
I01
sS'Q23921'
p186
I01
sS'Q552B4'
p187
I01
sS'Q9BKJ9'
p188
I01
sS'Q552B8'
p189
I01
sS'Q86L28'
p190
I01
sS'Q86IX4'
p191
I01
sS'P29505'
p192
I01
sS'P02599'
p193
I01
sS'O77033'
p194
I01
sS'Q55FF9'
p195
I01
sS'Q55FF3'
p196
I01
sS'Q55FF2'
p197
I01
sS'Q55FF7'
p198
I01
sS'Q54RK5'
p199
I01
sS'Q9U3X4'
p200
I01
sS'Q54YY1'
p201
I01
sS'B0G108'
p202
I01
sS'Q54KL5'
p203
I01
sS'Q55FH2'
p204
I01
sS'Q86KB7'
p205
I01
sS'Q86KB4'
p206
I01
sS'Q558Y7'
p207
I01
sS'Q54IP5'
p208
I01
sS'Q54IP4'
p209
I01
sS'Q54UL9'
p210
I01
sS'Q55BV1'
p211
I01
sS'Q00766'
p212
I01
sS'Q54IP9'
p213
I01
sS'Q55CN9'
p214
I01
sS'Q8T683'
p215
I01
sS'Q54FN9'
p216
I01
sS'Q54X84'
p217
I01
sS'Q54X86'
p218
I01
sS'Q54X80'
p219
I01
sS'Q54W37'
p220
I01
sS'Q54W34'
p221
I01
sS'Q54W35'
p222
I01
sS'Q54EH1'
p223
I01
sS'Q54EH2'
p224
I01
sS'Q55AB6'
p225
I01
sS'Q54LA5'
p226
I01
sS'Q8T2T5'
p227
I01
sS'Q54XF7'
p228
I01
sS'Q54XF2'
p229
I01
sS'Q54P88'
p230
I01
sS'Q54CB3'
p231
I01
sS'Q54BN4'
p232
I01
sS'Q54BN0'
p233
I01
sS'O97470'
p234
I01
sS'Q54BN3'
p235
I01
sS'Q54XB6'
p236
I01
sS'Q54P64'
p237
I01
sS'Q54P63'
p238
I01
sS'P19198'
p239
I01
sS'Q54WL7'
p240
I01
sS'Q54WL4'
p241
I01
sS'Q54WL1'
p242
I01
sS'Q55GJ6'
p243
I01
sS'Q55GJ7'
p244
I01
sS'Q55GJ4'
p245
I01
sS'Q55GJ9'
p246
I01
sS'Q86HT1'
p247
I01
sS'Q54FX8'
p248
I01
sS'Q54S90'
p249
I01
sS'Q8T1G5'
p250
I01
sS'Q54S93'
p251
I01
sS'Q54FX4'
p252
I01
sS'Q54PQ6'
p253
I01
sS'Q9GSE7'
p254
I01
sS'Q55ED3'
p255
I01
sS'Q55ED1'
p256
I01
sS'Q86HB8'
p257
I01
sS'Q54TD0'
p258
I01
sS'Q54HW8'
p259
I01
sS'Q54TD3'
p260
I01
sS'Q8I7T3'
p261
I01
sS'Q54NG9'
p262
I01
sS'Q54ZH1'
p263
I01
sS'Q76P36'
p264
I01
sS'Q54NG2'
p265
I01
sS'Q54NG1'
p266
I01
sS'Q54L07'
p267
I01
sS'Q54R66'
p268
I01
sS'Q54R67'
p269
I01
sS'Q54LW6'
p270
I01
sS'Q54K91'
p271
I01
sS'Q54K93'
p272
I01
sS'Q75K24'
p273
I01
sS'Q75K27'
p274
I01
sS'Q54K99'
p275
I01
sS'Q54TZ4'
p276
I01
sS'Q54F42'
p277
I01
sS'Q54CF7'
p278
I01
sS'Q54SB4'
p279
I01
sS'Q65YR7'
p280
I01
sS'Q54SB0'
p281
I01
sS'Q55G58'
p282
I01
sS'Q54NQ0'
p283
I01
sS'Q65YR8'
p284
I01
sS'Q54NQ7'
p285
I01
sS'Q54J42'
p286
I01
sS'Q54J47'
p287
I01
sS'Q54J48'
p288
I01
sS'Q55BU8'
p289
I01
sS'Q54H86'
p290
I01
sS'Q54H87'
p291
I01
sS'Q8MML6'
p292
I01
sS'Q54G34'
p293
I01
sS'Q54G35'
p294
I01
sS'Q55C58'
p295
I01
sS'Q54D63'
p296
I01
sS'Q54C92'
p297
I01
sS'Q54D66'
p298
I01
sS'P22887'
p299
I01
sS'C7FZY1'
p300
I01
sS'Q86AE2'
p301
I01
sS'Q869N9'
p302
I01
sS'Q54DU1'
p303
I01
sS'Q54KM7'
p304
I01
sS'Q54WK3'
p305
I01
sS'Q869N1'
p306
I01
sS'Q54DU9'
p307
I01
sS'Q54RZ4'
p308
I01
sS'Q54RZ5'
p309
I01
sS'Q869N6'
p310
I01
sS'Q54JY7'
p311
I01
sS'Q54PR9'
p312
I01
sS'Q54JY1'
p313
I01
sS'Q55EQ3'
p314
I01
sS'Q9GSB0'
p315
I01
sS'Q54PR7'
p316
I01
sS'Q553W9'
p317
I01
sS'Q55GV4'
p318
I01
sS'Q54VB8'
p319
I01
sS'Q55GV3'
p320
I01
sS'Q55GV0'
p321
I01
sS'Q54N68'
p322
I01
sS'Q54VB5'
p323
I01
sS'P54660'
p324
I01
sS'Q559R0'
p325
I01
sS'Q55GV8'
p326
I01
sS'Q54VB3'
p327
I01
sS'Q55CY7'
p328
I01
sS'Q54B67'
p329
I01
sS'Q54DK1'
p330
I01
sS'Q55F29'
p331
I01
sS'Q55GU7'
p332
I01
sS'Q54J07'
p333
I01
sS'Q54JK6'
p334
I01
sS'Q54JK5'
p335
I01
sS'Q54JK3'
p336
I01
sS'Q9NCL8'
p337
I01
sS'Q550Q4'
p338
I01
sS'Q23911'
p339
I01
sS'Q23915'
p340
I01
sS'Q54AX5'
p341
I01
sS'Q8MP23'
p342
I01
sS'O76734'
p343
I01
sS'Q54EY3'
p344
I01
sS'Q86IY4'
p345
I01
sS'Q86IY7'
p346
I01
sS'Q86L14'
p347
I01
sS'Q86L17'
p348
I01
sS'Q86H98'
p349
I01
sS'Q555I8'
p350
I01
sS'Q86H96'
p351
I01
sS'Q54RL3'
p352
I01
sS'Q869X1'
p353
I01
sS'Q54YX5'
p354
I01
sS'Q54YX7'
p355
I01
sS'Q557E4'
p356
I01
sS'P52922'
p357
I01
sS'P09556'
p358
I01
sS'Q54YX3'
p359
I01
sS'Q557E0'
p360
I01
sS'Q55FK2'
p361
I01
sS'Q55FK4'
p362
I01
sS'Q4W6B5'
p363
I01
sS'Q54KC6'
p364
I01
sS'Q86KC1'
p365
I01
sS'Q86H79'
p366
I01
sS'Q54FY1'
p367
I01
sS'Q54IS5'
p368
I01
sS'Q6TU48'
p369
I01
sS'P18613'
p370
I01
sS'Q54FY3'
p371
I01
sS'Q54IS9'
p372
I01
sS'Q559H0'
p373
I01
sS'Q559H1'
p374
I01
sS'P26310'
p375
I01
sS'P14196'
p376
I01
sS'Q9NH03'
p377
I01
sS'Q9U641'
p378
I01
sS'Q6UK63'
p379
I01
sS'Q54W21'
p380
I01
sS'Q54W20'
p381
I01
sS'Q54X97'
p382
I01
sS'Q54RV9'
p383
I01
sS'B0G117'
p384
I01
sS'P27685'
p385
I01
sS'Q86IK2'
p386
I01
sS'Q54EK0'
p387
I01
sS'B0G119'
p388
I01
sS'Q54LF1'
p389
I01
sS'Q54QQ8'
p390
I01
sS'Q54XG4'
p391
I01
sS'Q54SJ2'
p392
I01
sS'Q54XG0'
p393
I01
sS'Q54QQ0'
p394
I01
sS'Q55DY8'
p395
I01
sS'Q55FN8'
p396
I01
sS'O15692'
p397
I01
sS'Q54P96'
p398
I01
sS'Q54P95'
p399
I01
sS'Q55DY7'
p400
I01
sS'Q54P71'
p401
I01
sS'Q54P70'
p402
I01
sS'Q54BA2'
p403
I01
sS'Q54QC1'
p404
I01
sS'Q55BZ5'
p405
I01
sS'Q55BZ4'
p406
I01
sS'P0DJ26'
p407
I01
sS'Q54M22'
p408
I01
sS'Q54WK0'
p409
I01
sS'Q54S81'
p410
I01
sS'Q553S7'
p411
I01
sS'Q7KWQ2'
p412
I01
sS'Q86JC9'
p413
I01
sS'Q54T71'
p414
I01
sS'Q54T73'
p415
I01
sS'Q54FY2'
p416
I01
sS'Q54T77'
p417
I01
sS'Q95US4'
p418
I01
sS'Q54VQ1'
p419
I01
sS'Q54VQ7'
p420
I01
sS'Q1ZXN5'
p421
I01
sS'Q75JY8'
p422
I01
sS'Q86JM7'
p423
I01
sS'Q86JM5'
p424
I01
sS'Q86JM3'
p425
I01
sS'Q54L10'
p426
I01
sS'Q54HT3'
p427
I01
sS'Q54HT4'
p428
I01
sS'Q555Z2'
p429
I01
sS'Q54L19'
p430
I01
sS'Q54L18'
p431
I01
sS'Q8T2A6'
p432
I01
sS'Q54ZI6'
p433
I01
sS'Q54SS0'
p434
I01
sS'Q86A88'
p435
I01
sS'Q54R72'
p436
I01
sS'Q54R74'
p437
I01
sS'Q54GG6'
p438
I01
sS'Q54LT5'
p439
I01
sS'Q54LT0'
p440
I01
sS'Q54LT2'
p441
I01
sS'Q54NR5'
p442
I01
sS'Q54F59'
p443
I01
sS'Q54NR1'
p444
I01
sS'Q54NR3'
p445
I01
sS'Q54F53'
p446
I01
sS'Q54F52'
p447
I01
sS'Q54SA0'
p448
I01
sS'Q54SA1'
p449
I01
sS'Q54JS1'
p450
I01
sS'Q55G29'
p451
I01
sS'Q54LZ3'
p452
I01
sS'Q54J51'
p453
I01
sS'Q54J50'
p454
I01
sS'Q54J53'
p455
I01
sS'Q54G21'
p456
I01
sS'Q54Y63'
p457
I01
sS'Q54H97'
p458
I01
sS'Q54G24'
p459
I01
sS'Q551V0'
p460
I01
sS'Q54BS2'
p461
I01
sS'Q54IN9'
p462
I01
sS'Q54D71'
p463
I01
sS'Q54IN0'
p464
I01
sS'Q54IN6'
p465
I01
sS'P25323'
p466
I01
sS'Q55BF5'
p467
I01
sS'Q86AQ3'
p468
I01
sS'Q553T0'
p469
I01
sS'Q86AQ7'
p470
I01
sS'Q54MN6'
p471
I01
sS'Q54PS3'
p472
I01
sS'Q54MN4'
p473
I01
sS'Q54PS7'
p474
I01
sS'Q54HB2'
p475
I01
sS'Q55GW4'
p476
I01
sS'Q54VC9'
p477
I01
sS'Q54CE0'
p478
I01
sS'Q54XU9'
p479
I01
sS'Q54N76'
p480
I01
sS'Q54N75'
p481
I01
sS'Q54N74'
p482
I01
sS'Q8MML5'
p483
I01
sS'Q54PA2'
p484
I01
sS'Q54PD6'
p485
I01
sS'Q8I0H7'
p486
I01
sS'Q54PA9'
p487
I01
sS'Q54DH7'
p488
I01
sS'Q86AC9'
p489
I01
sS'Q54VM6'
p490
I01
sS'Q54VM2'
p491
I01
sS'Q54MX5'
p492
I01
sS'Q54MX6'
p493
I01
sS'Q8SSN5'
p494
I01
sS'Q86KP5'
p495
I01
sS'Q552L5'
p496
I01
sS'Q555X4'
p497
I01
sS'Q555X3'
p498
I01
sS'P13021'
p499
I01
sS'P13022'
p500
I01
sS'P13023'
p501
I01
sS'Q54EX5'
p502
I01
sS'Q54EX7'
p503
I01
sS'Q54EX6'
p504
I01
sS'Q86IZ2'
p505
I01
sS'Q54K81'
p506
I01
sS'Q86KR5'
p507
I01
sS'Q9NI62'
p508
I01
sS'Q86H83'
p509
I01
sS'Q86H82'
p510
I01
sS'Q555C6'
p511
I01
sS'Q869Y3'
p512
I01
sS'Q869Y7'
p513
I01
sS'Q54JQ8'
p514
I01
sS'Q54UN6'
p515
I01
sS'Q54KB8'
p516
I01
sS'Q55DZ3'
p517
I01
sS'Q54KB7'
p518
I01
sS'Q55FJ2'
p519
I01
sS'Q54KB3'
p520
I01
sS'Q55FJ0'
p521
I01
sS'P34124'
p522
I01
sS'P34123'
p523
I01
sS'P34120'
p524
I01
sS'Q54IR8'
p525
I01
sS'Q54IR0'
p526
I01
sS'P20790'
p527
I01
sS'Q86L05'
p528
I01
sS'Q86L04'
p529
I01
sS'Q559I6'
p530
I01
sS'Q86JP3'
p531
I01
sS'Q54FH7'
p532
I01
sS'Q54FH4'
p533
I01
sS'Q55CB6'
p534
I01
sS'Q54Z69'
p535
I01
sS'Q54W18'
p536
I01
sS'Q54W19'
p537
I01
sS'Q54X66'
p538
I01
sS'Q54X65'
p539
I01
sS'Q54X63'
p540
I01
sS'B0G160'
p541
I01
sS'B0G167'
p542
I01
sS'Q9NHF6'
p543
I01
sS'Q55DJ0'
p544
I01
sS'Q54LG3'
p545
I01
sS'Q8T2R4'
p546
I01
sS'Q54XD8'
p547
I01
sS'Q55DX6'
p548
I01
sS'Q54ED0'
p549
I01
sS'Q86IF6'
p550
I01
sS'Q54QP6'
p551
I01
sS'Q54QP2'
p552
I01
sS'P30815'
p553
I01
sS'Q54V68'
p554
I01
sS'Q54V61'
p555
I01
sS'Q54P42'
p556
I01
sS'Q54P46'
p557
I01
sS'Q86A97'
p558
I01
sS'Q54WJ9'
p559
I01
sS'P46793'
p560
I01
sS'Q54WJ1'
p561
I01
sS'Q6UUW6'
p562
I01
sS'Q55GH8'
p563
I01
sS'Q54FZ2'
p564
I01
sS'Q54FZ3'
p565
I01
sS'Q86HR3'
p566
I01
sS'Q55GH1'
p567
I01
sS'Q55AD9'
p568
I01
sS'Q86JB6'
p569
I01
sS'Q86JB5'
p570
I01
sS'Q86JB4'
p571
I01
sS'Q54VR8'
p572
I01
sS'Q54VR9'
p573
I01
sS'Q9UA41'
p574
I01
sS'Q54VR1'
p575
I01
sS'Q54VR2'
p576
I01
sS'Q76P15'
p577
I01
sS'P16051'
p578
I01
sS'Q54SR7'
p579
I01
sS'Q54NA0'
p580
I01
sS'Q54XR4'
p581
I01
sS'Q54R89'
p582
I01
sS'Q55A19'
p583
I01
sS'Q54LU2'
p584
I01
sS'Q54GF3'
p585
I01
sS'Q54NS3'
p586
I01
sS'Q54NS1'
p587
I01
sS'Q54NS7'
p588
I01
sS'Q54NS5'
p589
I01
sS'Q54NS9'
p590
I01
sS'Q54F66'
p591
I01
sS'Q54GT6'
p592
I01
sS'Q55G30'
p593
I01
sS'Q54GT9'
p594
I01
sS'Q54J68'
p595
I01
sS'Q54J69'
p596
I01
sS'O96552'
p597
I01
sS'Q54J66'
p598
I01
sS'Q55CR1'
p599
I01
sS'Q551W8'
p600
I01
sS'Q55EF7'
p601
I01
sS'Q54H66'
p602
I01
sS'Q54BT0'
p603
I01
sS'Q54BT5'
p604
I01
sS'Q03409'
p605
I01
sS'O60950'
p606
I01
sS'Q551A1'
p607
I01
sS'Q55BA8'
p608
I01
sS'Q55BA9'
p609
I01
sS'Q54PP1'
p610
I01
sS'Q55BA2'
p611
I01
sS'Q8T1F9'
p612
I01
sS'Q75JF3'
p613
I01
sS'Q553U5'
p614
I01
sS'Q55EX9'
p615
I01
sS'Q55GT0'
p616
I01
sS'P15064'
p617
I01
sS'Q54HC2'
p618
I01
sS'Q54CD7'
p619
I01
sS'Q55GT5'
p620
I01
sS'Q75JN6'
p621
I01
sS'Q75JN8'
p622
I01
sS'Q54N06'
p623
I01
sS'Q8STF9'
p624
I01
sS'Q559X6'
p625
I01
sS'Q86K69'
p626
I01
sS'Q54B82'
p627
I01
sS'Q54JM8'
p628
I01
sS'Q54VN3'
p629
I01
sS'O77229'
p630
I01
sS'Q54VN6'
p631
I01
sS'Q86AQ5'
p632
I01
sS'Q54JM3'
p633
I01
sS'Q556P6'
p634
I01
sS'Q54CZ8'
p635
I01
sS'O15744'
p636
I01
sS'Q54I12'
p637
I01
sS'Q54I10'
p638
I01
sS'P54641'
p639
I01
sS'B0M0Q0'
p640
I01
sS'B0M0Q3'
p641
I01
sS'Q552Y0'
p642
I01
sS'Q9U9A3'
p643
I01
sS'Q54KS1'
p644
I01
sS'Q54CE4'
p645
I01
sS'Q54IC2'
p646
I01
sS'Q54YZ4'
p647
I01
sS'Q54YZ0'
p648
I01
sS'Q58A40'
p649
I01
sS'Q54NM0'
p650
I01
sS'Q54DI6'
p651
I01
sS'Q54DI4'
p652
I01
sS'Q869Z4'
p653
I01
sS'Q869Z5'
p654
I01
sS'Q54RN6'
p655
I01
sS'P29447'
p656
I01
sS'Q54RN1'
p657
I01
sS'Q557C7'
p658
I01
sS'Q54DI8'
p659
I01
sS'Q54UI0'
p660
I01
sS'Q86H55'
p661
I01
sS'Q55FM2'
p662
I01
sS'Q55FM0'
p663
I01
sS'Q54KA3'
p664
I01
sS'Q55FM7'
p665
I01
sS'Q55FM5'
p666
I01
sS'Q54YL3'
p667
I01
sS'P34136'
p668
I01
sS'Q86JG4'
p669
I01
sS'Q869T1'
p670
I01
sS'Q55D81'
p671
I01
sS'Q54IU0'
p672
I01
sS'Q54IU1'
p673
I01
sS'P34139'
p674
I01
sS'Q54Y17'
p675
I01
sS'Q54Y14'
p676
I01
sS'Q86I87'
p677
I01
sS'Q8MXM8'
p678
I01
sS'Q54F47'
p679
I01
sS'Q556Q0'
p680
I01
sS'Q55FW9'
p681
I01
sS'Q54SV2'
p682
I01
sS'Q95UC5'
p683
I01
sS'Q54Z79'
p684
I01
sS'Q55CC2'
p685
I01
sS'Q54Z72'
p686
I01
sS'Q55CC8'
p687
I01
sS'Q54EU4'
p688
I01
sS'Q55FW7'
p689
I01
sS'Q54EU0'
p690
I01
sS'Q54X77'
p691
I01
sS'Q54EU8'
p692
I01
sS'Q55DR6'
p693
I01
sS'Q86KA1'
p694
I01
sS'Q55DI2'
p695
I01
sS'Q54XE7'
p696
I01
sS'Q54XE6'
p697
I01
sS'Q54LD5'
p698
I01
sS'Q54LD6'
p699
I01
sS'Q54LD2'
p700
I01
sS'Q54EG0'
p701
I01
sS'Q54EG3'
p702
I01
sS'Q54QS3'
p703
I01
sS'Q54V77'
p704
I01
sS'Q54V76'
p705
I01
sS'Q54V71'
p706
I01
sS'P28178'
p707
I01
sS'Q54P59'
p708
I01
sS'Q54BC6'
p709
I01
sS'Q54WI8'
p710
I01
sS'Q54BC2'
p711
I01
sS'Q54UU2'
p712
I01
sS'Q54UU3'
p713
I01
sS'Q54UU1'
p714
I01
sS'Q54UU8'
p715
I01
sS'Q54T59'
p716
I01
sS'Q54IS1'
p717
I01
sS'P54697'
p718
I01
sS'Q54MB2'
p719
I01
sS'Q54HR1'
p720
I01
sS'Q54HR7'
p721
I01
sS'Q55GG3'
p722
I01
sS'P36410'
p723
I01
sS'P36411'
p724
I01
sS'P36412'
p725
I01
sS'P36413'
p726
I01
sS'Q55F34'
p727
I01
sS'P36415'
p728
I01
sS'Q55EC2'
p729
I01
sS'Q54NB4'
p730
I01
sS'Q54NB5'
p731
I01
sS'Q54NB6'
p732
I01
sS'Q54NB2'
p733
I01
sS'Q55AW9'
p734
I01
sS'Q54TK2'
p735
I01
sS'Q54SQ0'
p736
I01
sS'Q55BS6'
p737
I01
sS'Q54QE2'
p738
I01
sS'Q54QE3'
p739
I01
sS'Q54XS2'
p740
I01
sS'P26200'
p741
I01
sS'Q54QE7'
p742
I01
sS'Q54QE4'
p743
I01
sS'Q54GE1'
p744
I01
sS'Q54GE3'
p745
I01
sS'Q54R90'
p746
I01
sS'Q54GE6'
p747
I01
sS'Q54GE7'
p748
I01
sS'Q55G04'
p749
I01
sS'Q55BS3'
p750
I01
sS'Q54SG2'
p751
I01
sS'Q54SG3'
p752
I01
sS'Q54GS8'
p753
I01
sS'Q54XB5'
p754
I01
sS'Q54J75'
p755
I01
sS'Q55BS9'
p756
I01
sS'Q54G09'
p757
I01
sS'Q54BU3'
p758
I01
sS'Q1ZXH9'
p759
I01
sS'Q54BU4'
p760
I01
sS'Q54H73'
p761
I01
sS'Q54J97'
p762
I01
sS'Q94490'
p763
I01
sS'Q54QH6'
p764
I01
sS'Q86I19'
p765
I01
sS'Q54QR9'
p766
I01
sS'Q54PQ5'
p767
I01
sS'Q55D17'
p768
I01
sS'Q551B5'
p769
I01
sS'Q54DX3'
p770
I01
sS'Q54MH8'
p771
I01
sS'Q54TY5'
p772
I01
sS'Q54F74'
p773
I01
sS'Q54K42'
p774
I01
sS'Q54CK6'
p775
I01
sS'Q54CK4'
p776
I01
sS'Q54JC8'
p777
I01
sS'Q55GU3'
p778
I01
sS'Q76P24'
p779
I01
sS'Q54N17'
p780
I01
sS'Q54F78'
p781
I01
sS'Q54MZ2'
p782
I01
sS'Q54MZ1'
p783
I01
sS'Q54MZ5'
p784
I01
sS'Q54MZ4'
p785
I01
sS'Q9TVK6'
p786
I01
sS'Q54HN1'
p787
I01
sS'P10733'
p788
I01
sS'Q54CY9'
p789
I01
sS'O15757'
p790
I01
sS'Q54CY6'
p791
I01
sS'Q54LV1'
p792
I01
sS'P83401'
p793
I01
sS'Q03380'
p794
I01
sS'P34036'
p795
I01
sS'Q555L5'
p796
I01
sS'Q54KR6'
p797
I01
sS'Q54KR1'
p798
I01
sS'Q54ZW1'
p799
I01
sS'Q54DN0'
p800
I01
sS'Q54UH9'
p801
I01
sS'Q54UH8'
p802
I01
sS'P25870'
p803
I01
sS'Q55FL5'
p804
I01
sS'Q55FL6'
p805
I01
sS'Q869U7'
p806
I01
sS'Q869U6'
p807
I01
sS'Q54RA2'
p808
I01
sS'Q54IT3'
p809
I01
sS'Q54RA8'
p810
I01
sS'Q55CR6'
p811
I01
sS'Q55CR0'
p812
I01
sS'Q54Y02'
p813
I01
sS'Q54PF9'
p814
I01
sS'Q54TU9'
p815
I01
sS'Q75JI3'
p816
I01
sS'Q6IMN8'
p817
I01
sS'Q86B08'
p818
I01
sS'Q86B07'
p819
I01
sS'Q54X49'
p820
I01
sS'Q54ET7'
p821
I01
sS'Q54ET6'
p822
I01
sS'Q86IV4'
p823
I01
sS'Q86IV5'
p824
I01
sS'Q86A92'
p825
I01
sS'Q55DH9'
p826
I01
sS'B0G145'
p827
I01
sS'B0G141'
p828
I01
sS'B0G142'
p829
I01
sS'Q86AD5'
p830
I01
sS'Q54QR3'
p831
I01
sS'Q54QR2'
p832
I01
sS'Q54QR0'
p833
I01
sS'Q54LE3'
p834
I01
sS'Q54LE5'
p835
I01
sS'Q54QR8'
p836
I01
sS'Q54U91'
p837
I01
sS'Q54U95'
p838
I01
sS'P14132'
p839
I01
sS'Q54EF1'
p840
I01
sS'P21900'
p841
I01
sS'Q54WZ3'
p842
I01
sS'Q54WZ2'
p843
I01
sS'Q54WZ5'
p844
I01
sS'Q54WZ6'
p845
I01
sS'Q54YA6'
p846
I01
sS'P09402'
p847
I01
sS'Q54YA2'
p848
I01
sS'Q54YA0'
p849
I01
sS'Q7KWU6'
p850
I01
sS'Q54FJ8'
p851
I01
sS'Q54WH2'
p852
I01
sS'Q54WH0'
p853
I01
sS'Q8MYF0'
p854
I01
sS'Q8MYF2'
p855
I01
sS'Q54P23'
p856
I01
sS'Q54P24'
p857
I01
sS'Q55FH3'
p858
I01
sS'P07830'
p859
I01
sS'Q75JR3'
p860
I01
sS'Q54FT8'
p861
I01
sS'Q54FT2'
p862
I01
sS'P54680'
p863
I01
sS'Q8T158'
p864
I01
sS'Q55GD7'
p865
I01
sS'Q54HS9'
p866
I01
sS'Q54S39'
p867
I01
sS'Q54TH8'
p868
I01
sS'Q54TH9'
p869
I01
sS'Q54NC1'
p870
I01
sS'Q54NC8'
p871
I01
sS'Q54TH4'
p872
I01
sS'Q86H60'
p873
I01
sS'Q54LK1'
p874
I01
sS'Q86H62'
p875
I01
sS'Q54GD8'
p876
I01
sS'Q54XP9'
p877
I01
sS'Q54QD9'
p878
I01
sS'Q54XP6'
p879
I01
sS'Q55FJ5'
p880
I01
sS'Q54XP2'
p881
I01
sS'Q55BS7'
p882
I01
sS'Q55F28'
p883
I01
sS'Q54LY8'
p884
I01
sS'Q54GR9'
p885
I01
sS'Q54GR8'
p886
I01
sS'Q54SF2'
p887
I01
sS'Q54LY3'
p888
I01
sS'Q54SF7'
p889
I01
sS'Q55BQ8'
p890
I01
sS'Q8T1V6'
p891
I01
sS'Q8T1V4'
p892
I01
sS'Q55BQ2'
p893
I01
sS'Q54K32'
p894
I01
sS'Q8T1V8'
p895
I01
sS'Q55BQ6'
p896
I01
sS'Q55C99'
p897
I01
sS'Q55BJ6'
p898
I01
sS'Q1ZXI0'
p899
I01
sS'Q55F21'
p900
I01
sS'Q54H42'
p901
I01
sS'Q54M91'
p902
I01
sS'Q55EH2'
p903
I01
sS'Q54H46'
p904
I01
sS'Q54H47'
p905
I01
sS'Q54DY7'
p906
I01
sS'Q55BC7'
p907
I01
sS'Q54DY3'
p908
I01
sS'Q54DY1'
p909
I01
sS'Q94469'
p910
I01
sS'Q94464'
p911
I01
sS'P34121'
p912
I01
sS'Q55BC8'
p913
I01
sS'Q54DY8'
p914
I01
sS'Q54MK4'
p915
I01
sS'P13833'
p916
I01
sS'Q54MK8'
p917
I01
sS'Q54MK9'
p918
I01
sS'Q54E92'
p919
I01
sS'P22685'
p920
I01
sS'Q54N27'
p921
I01
sS'P22683'
p922
I01
sS'Q55EZ6'
p923
I01
sS'Q86AX2'
p924
I01
sS'Q75JL8'
p925
I01
sS'Q54CJ9'
p926
I01
sS'Q54F07'
p927
I01
sS'Q54F04'
p928
I01
sS'Q54CJ5'
p929
I01
sS'Q54F09'
p930
I01
sS'Q75JL7'
p931
I01
sS'Q54CJ2'
p932
I01
sS'Q54PL9'
p933
I01
sS'O77203'
p934
I01
sS'Q54MU8'
p935
I01
sS'Q559Z4'
p936
I01
sS'Q54PL1'
p937
I01
sS'Q54PL2'
p938
I01
sS'Q559Z0'
p939
I01
sS'Q54MU3'
p940
I01
sS'Q75JB5'
p941
I01
sS'Q54CX6'
p942
I01
sS'P13723'
p943
I01
sS'Q54RY8'
p944
I01
sS'Q86KQ6'
p945
I01
sS'Q54C37'
p946
I01
sS'Q54C34'
p947
I01
sS'Q9BI24'
p948
I01
sS'Q54RY6'
p949
I01
sS'Q54RP2'
p950
I01
sS'Q6TMJ9'
p951
I01
sS'Q86J14'
p952
I01
sS'Q6TMJ4'
p953
I01
sS'Q54IE5'
p954
I01
sS'Q86H36'
p955
I01
sS'Q54UK2'
p956
I01
sS'Q869V1'
p957
I01
sS'Q54RB6'
p958
I01
sS'P34118'
p959
I01
sS'Q54YN3'
p960
I01
sS'Q54YN2'
p961
I01
sS'P34115'
p962
I01
sS'Q8T154'
p963
I01
sS'P34113'
p964
I01
sS'P34112'
p965
I01
sS'Q55CS1'
p966
I01
sS'Q55CS3'
p967
I01
sS'Q55CS9'
p968
I01
sS'Q86AH6'
p969
I01
sS'Q556S5'
p970
I01
sS'Q86K21'
p971
I01
sS'Q556E3'
p972
I01
sS'Q54G78'
p973
I01
sS'P08799'
p974
I01
sS'Q54X53'
p975
I01
sS'Q54X51'
p976
I01
sS'Q55CA0'
p977
I01
sS'Q54EW1'
p978
I01
sS'Q54EW2'
p979
I01
sS'Q54EW3'
p980
I01
sS'Q86IW8'
p981
I01
sS'Q54EW8'
p982
I01
sS'Q550I8'
p983
I01
sS'Q54E21'
p984
I01
sS'Q54KG3'
p985
I01
sS'Q54VA2'
p986
I01
sS'Q55E94'
p987
I01
sS'Q54XC4'
p988
I01
sS'Q54XC9'
p989
I01
sS'Q54QU8'
p990
I01
sS'Q54QU9'
p991
I01
sS'Q55EU1'
p992
I01
sS'Q86IA3'
p993
I01
sS'Q54WY8'
p994
I01
sS'Q55FU2'
p995
I01
sS'Q55FQ9'
p996
I01
sS'Q76NU1'
p997
I01
sS'Q54FK8'
p998
I01
sS'Q8MYE6'
p999
I01
sS'Q8MYE7'
p1000
I01
sS'Q54WG6'
p1001
I01
sS'Q54WG1'
p1002
I01
sS'C7G056'
p1003
I01
sS'Q54UW5'
p1004
I01
sS'P26355'
p1005
I01
sS'Q54FU1'
p1006
I01
sS'Q54FU0'
p1007
I01
sS'Q54Q05'
p1008
I01
sS'Q554G3'
p1009
I01
sS'Q55D79'
p1010
I01
sS'Q95YL5'
p1011
I01
sS'Q54S23'
p1012
I01
sS'Q55GE2'
p1013
I01
sS'Q54HP3'
p1014
I01
sS'Q54XP4'
p1015
I01
sS'P54654'
p1016
I01
sS'Q54L58'
p1017
I01
sS'Q7KWK5'
p1018
I01
sS'P54651'
p1019
I01
sS'Q55AQ9'
p1020
I01
sS'Q54NL4'
p1021
I01
sS'P54659'
p1022
I01
sS'Q54LH7'
p1023
I01
sS'Q54ZM4'
p1024
I01
sS'Q54QG4'
p1025
I01
sS'Q54XQ5'
p1026
I01
sS'Q54SE2'
p1027
I01
sS'Q553B4'
p1028
I01
sS'Q54W11'
p1029
I01
sS'Q54GQ6'
p1030
I01
sS'Q54GQ7'
p1031
I01
sS'O15819'
p1032
I01
sS'Q54BW3'
p1033
I01
sS'Q54H53'
p1034
I01
sS'Q54H52'
p1035
I01
sS'Q55BP2'
p1036
I01
sS'Q55BP5'
p1037
I01
sS'Q55D91'
p1038
I01
sS'Q55EI7'
p1039
I01
sS'Q54M82'
p1040
I01
sS'Q1ZXJ0'
p1041
I01
sS'Q54M86'
p1042
I01
sS'Q55C66'
p1043
I01
sS'Q1ZXD4'
p1044
I01
sS'Q550R2'
p1045
I01
sS'Q54MJ6'
p1046
I01
sS'Q54MJ5'
p1047
I01
sS'Q55D72'
p1048
I01
sS'Q55D70'
p1049
I01
sS'Q964D8'
p1050
I01
sS'Q54RR5'
p1051
I01
sS'Q54N33'
p1052
I01
sS'Q75JS7'
p1053
I01
sS'Q54E85'
p1054
I01
sS'Q54N35'
p1055
I01
sS'Q554U9'
p1056
I01
sS'Q54F10'
p1057
I01
sS'P11022'
p1058
I01
sS'Q54F16'
p1059
I01
sS'Q54CI4'
p1060
I01
sS'Q55GS7'
p1061
I01
sS'Q54CU8'
p1062
I01
sS'O00780'
p1063
I01
sS'Q54MT0'
p1064
I01
sS'Q54MT3'
p1065
I01
sS'Q54MT2'
p1066
I01
sS'Q54HL0'
p1067
I01
sS'Q5XM24'
p1068
I01
sS'Q54VI3'
p1069
I01
sS'Q54VI2'
p1070
I01
sS'Q54VI4'
p1071
I01
sS'Q54VI6'
p1072
I01
sS'Q54LY4'
p1073
I01
sS'Q552H9'
p1074
I01
sS'Q54I26'
p1075
I01
sS'Q7M438'
p1076
I01
sS'Q54I22'
p1077
I01
sS'Q54I20'
p1078
I01
sS'Q94504'
p1079
I01
sS'Q54KP3'
p1080
I01
sS'Q94503'
p1081
I01
sS'Q94502'
p1082
I01
sS'Q54C24'
p1083
I01
sS'Q54C27'
p1084
I01
sS'Q555N6'
p1085
I01
sS'Q552Z0'
p1086
I01
sS'Q54C29'
p1087
I01
sS'Q54C28'
p1088
I01
sS'Q54RQ1'
p1089
I01
sS'Q6TMK3'
p1090
I01
sS'Q54ID0'
p1091
I01
sS'Q54ND1'
p1092
I01
sS'Q54ID5'
p1093
I01
sS'Q54DL5'
p1094
I01
sS'Q86LA2'
p1095
I01
sS'Q54DL0'
p1096
I01
sS'Q5V9F0'
p1097
I01
sS'Q54PM8'
p1098
I01
sS'Q54UJ3'
p1099
I01
sS'Q54UJ0'
p1100
I01
sS'Q54YQ8'
p1101
I01
sS'Q54YQ9'
p1102
I01
sS'Q869W9'
p1103
I01
sS'Q54DB1'
p1104
I01
sS'P0C7B6'
p1105
I01
sS'Q869W6'
p1106
I01
sS'Q54RC3'
p1107
I01
sS'Q54RC0'
p1108
I01
sS'Q54Y20'
p1109
I01
sS'Q86K39'
p1110
I01
sS'Q86L41'
p1111
I01
sS'Q86L45'
p1112
I01
sS'Q86K32'
p1113
I01
sS'Q01501'
p1114
I01
sS'Q86B20'
p1115
I01
sS'Q55CF8'
p1116
I01
sS'Q556D4'
p1117
I01
sS'O76329'
p1118
I01
sS'Q55CF6'
p1119
I01
sS'Q550H7'
p1120
I01
sS'Q550H6'
p1121
I01
sS'Q55DN6'
p1122
I01
sS'Q54EV7'
p1123
I01
sS'P42530'
p1124
I01
sS'Q55FN1'
p1125
I01
sS'Q55FN7'
p1126
I01
sS'P36409'
p1127
I01
sS'Q55FN4'
p1128
I01
sS'P36408'
p1129
I01
sS'Q86KD1'
p1130
I01
sS'Q86IB4'
p1131
I01
sS'Q9GRX6'
p1132
I01
sS'B0G180'
p1133
I01
sS'B0G182'
p1134
I01
sS'B0G185'
p1135
I01
sS'Q55E61'
p1136
I01
sS'Q54UD1'
p1137
I01
sS'Q54UD0'
p1138
I01
sS'Q55FP4'
p1139
I01
sS'Q55FP7'
p1140
I01
sS'Q55FP0'
p1141
I01
sS'Q54YC0'
p1142
I01
sS'Q54FD7'
p1143
I01
sS'Q94465'
p1144
I01
sS'Q54WF8'
p1145
I01
sS'Q54UV2'
p1146
I01
sS'Q54UV0'
p1147
I01
sS'Q54T80'
p1148
I01
sS'Q54T81'
p1149
I01
sS'Q55C75'
p1150
I01
sS'Q54FV5'
p1151
I01
sS'Q54FV6'
p1152
I01
sS'Q54T87'
p1153
I01
sS'Q54Q30'
p1154
I01
sS'Q54Q31'
p1155
I01
sS'Q54Q32'
p1156
I01
sS'Q54S12'
p1157
I01
sS'Q54TN9'
p1158
I01
sS'P54644'
p1159
I01
sS'P54647'
p1160
I01
sS'Q54NM9'
p1161
I01
sS'P54640'
p1162
I01
sS'Q54ZN2'
p1163
I01
sS'P54642'
p1164
I01
sS'P54648'
p1165
I01
sS'Q55AR3'
p1166
I01
sS'Q54GB3'
p1167
I01
sS'Q54XN5'
p1168
I01
sS'Q54LI8'
p1169
I01
sS'Q54F95'
p1170
I01
sS'Q54LI4'
p1171
I01
sS'Q557D2'
p1172
I01
sS'Q54SV6'
p1173
I01
sS'Q54P04'
p1174
I01
sS'Q54BF6'
p1175
I01
sS'Q54P07'
p1176
I01
sS'Q54QF3'
p1177
I01
sS'Q54BF9'
p1178
I01
sS'P22684'
p1179
I01
sS'Q54SD5'
p1180
I01
sS'Q54SD4'
p1181
I01
sS'Q54QH7'
p1182
I01
sS'Q54GP8'
p1183
I01
sS'Q54QH0'
p1184
I01
sS'Q54QH3'
p1185
I01
sS'Q54QH2'
p1186
I01
sS'Q54GP0'
p1187
I01
sS'Q55BS8'
p1188
I01
sS'Q54GP6'
p1189
I01
sS'Q54GY1'
p1190
I01
sS'Q54H23'
p1191
I01
sS'Q54BX7'
p1192
I01
sS'P15112'
p1193
I01
sS'Q54BX0'
p1194
I01
sS'Q55F42'
p1195
I01
sS'Q55EJ2'
p1196
I01
sS'Q55FH5'
p1197
I01
sS'Q55BM7'
p1198
I01
sS'Q55D68'
p1199
I01
sS'Q55D61'
p1200
I01
sS'Q1ZXE8'
p1201
I01
sS'Q55D66'
p1202
I01
sS'Q75JR4'
p1203
I01
sS'Q54CH4'
p1204
I01
sS'Q54CH2'
p1205
I01
sS'Q54CH1'
p1206
I01
sS'Q75JR2'
p1207
I01
sS'Q8T191'
p1208
I01
sS'Q54F29'
p1209
I01
sS'Q54F25'
p1210
I01
sS'Q54F26'
p1211
I01
sS'Q54K35'
p1212
I01
sS'Q54F20'
p1213
I01
sS'Q54K33'
p1214
I01
sS'Q54F23'
p1215
I01
sS'Q54M21'
p1216
I01
sS'Q54VJ0'
p1217
I01
sS'Q54JA5'
p1218
I01
sS'Q54JA0'
p1219
I01
sS'Q8T662'
p1220
I01
sS'O15706'
p1221
I01
sS'Q54TR3'
p1222
I01
sS'Q54TR1'
p1223
I01
sS'Q54HM5'
p1224
I01
sS'Q54HM2'
p1225
I01
sS'Q54TR8'
p1226
I01
sS'Q55GR1'
p1227
I01
sS'Q552K6'
p1228
I01
sS'Q54I58'
p1229
I01
sS'Q54I59'
p1230
I01
sS'Q54I50'
p1231
I01
sS'Q54KW1'
p1232
I01
sS'O77082'
p1233
I01
sS'Q556G4'
p1234
I01
sS'Q54C12'
p1235
I01
sS'Q54C16'
p1236
I01
sS'Q54RR3'
p1237
I01
sS'C7FZZ0'
p1238
I01
sS'Q8SSQ0'
p1239
I01
sS'Q5V9E9'
p1240
I01
sS'Q54DM9'
p1241
I01
sS'Q54PJ1'
p1242
I01
sS'Q54PJ5'
p1243
I01
sS'Q55CG6'
p1244
I01
sS'Q54YP4'
p1245
I01
sS'Q559Z1'
p1246
I01
sS'Q54RD5'
p1247
I01
sS'Q556U6'
p1248
I01
sS'Q55CQ7'
p1249
I01
sS'Q55CQ6'
p1250
I01
sS'P05095'
p1251
I01
sS'Q55DM5'
p1252
I01
sS'Q86K01'
p1253
I01
sS'Q55B06'
p1254
I01
sS'Q86I62'
p1255
I01
sS'P42520'
p1256
I01
sS'Q55DM1'
p1257
I01
sS'Q556G9'
p1258
I01
sS'Q54X39'
p1259
I01
sS'Q556G1'
p1260
I01
sS'Q556G3'
p1261
I01
sS'Q54EQ8'
p1262
I01
sS'P42528'
p1263
I01
sS'Q9GPM4'
p1264
I01
sS'P42522'
p1265
I01
sS'Q54EQ1'
p1266
I01
sS'Q54EQ6'
p1267
I01
sS'P42526'
p1268
I01
sS'P35084'
p1269
I01
sS'P35085'
p1270
I01
sS'Q54VS8'
p1271
I01
sS'Q54KE6'
p1272
I01
sS'Q55DV6'
p1273
I01
sS'Q55DC7'
p1274
I01
sS'Q86IC0'
p1275
I01
sS'Q86IC6'
p1276
I01
sS'Q55DC0'
p1277
I01
sS'Q54QW5'
p1278
I01
sS'Q86IC9'
p1279
I01
sS'Q54XA0'
p1280
I01
sS'Q54QW1'
p1281
I01
sS'B0G197'
p1282
I01
sS'Q54WW0'
p1283
I01
sS'Q86C65'
p1284
I01
sS'Q54UG4'
p1285
I01
sS'Q54FE8'
p1286
I01
sS'Q54YB5'
p1287
I01
sS'Q54FE6'
p1288
I01
sS'Q54YB2'
p1289
I01
sS'Q54FE3'
p1290
I01
sS'Q54WE9'
p1291
I01
sS'Q54WE3'
p1292
I01
sS'Q54T96'
p1293
I01
sS'Q54T94'
p1294
I01
sS'Q54FW2'
p1295
I01
sS'Q54UQ7'
p1296
I01
sS'Q54Q20'
p1297
I01
sS'Q54Q29'
p1298
I01
sS'Q556I6'
p1299
I01
sS'Q54VG4'
p1300
I01
sS'Q86IC8'
p1301
I01
sS'Q553P6'
p1302
I01
sS'Q55GC0'
p1303
I01
sS'Q54S04'
p1304
I01
sS'Q55GC5'
p1305
I01
sS'Q55GC4'
p1306
I01
sS'Q55GC7'
p1307
I01
sS'P54671'
p1308
I01
sS'P54672'
p1309
I01
sS'Q8ST07'
p1310
I01
sS'Q54SU2'
p1311
I01
sS'Q86AU4'
p1312
I01
sS'P54678'
p1313
I01
sS'P54679'
p1314
I01
sS'Q8T2K9'
p1315
I01
sS'Q86K94'
p1316
I01
sS'Q54QY8'
p1317
I01
sS'P51405'
p1318
I01
sS'Q54P13'
p1319
I01
sS'Q54U43'
p1320
I01
sS'Q54P14'
p1321
I01
sS'Q54SK8'
p1322
I01
sS'Q8T295'
p1323
I01
sS'Q8T293'
p1324
I01
sS'Q54QK0'
p1325
I01
sS'Q54QK4'
p1326
I01
sS'Q54BY8'
p1327
I01
sS'Q55F79'
p1328
I01
sS'Q55F77'
p1329
I01
sS'Q55F70'
p1330
I01
sS'Q55C26'
p1331
I01
sS'Q55C24'
p1332
I01
sS'Q55D50'
p1333
I01
sS'Q1ZXF1'
p1334
I01
sS'Q55F94'
p1335
I01
sS'Q55F90'
p1336
I01
sS'Q54JP5'
p1337
I01
sS'Q54MD1'
p1338
I01
sS'Q54X81'
p1339
I01
sS'Q75JQ1'
p1340
I01
sS'Q54PX1'
p1341
I01
sS'Q54X82'
p1342
I01
sS'Q55GQ5'
p1343
I01
sS'Q76NW7'
p1344
I01
sS'Q86AG5'
p1345
I01
sS'Q54NX3'
p1346
I01
sS'Q54L98'
p1347
I01
sS'Q54K22'
p1348
I01
sS'Q54JB8'
p1349
I01
sS'O00909'
p1350
I01
sS'Q54E41'
p1351
I01
sS'Q54E42'
p1352
I01
sS'O77257'
p1353
I01
sS'Q54E49'
p1354
I01
sS'Q54JB6'
p1355
I01
sS'Q54TS5'
p1356
I01
sS'Q54TS4'
p1357
I01
sS'O96759'
p1358
I01
sS'Q54HJ0'
p1359
I01
sS'Q552J0'
p1360
I01
sS'Q54I41'
p1361
I01
sS'Q54I40'
p1362
I01
sS'P13466'
p1363
I01
sS'Q552D1'
p1364
I01
sS'Q5TJ65'
p1365
I01
sS'Q552D9'
p1366
I01
sS'Q54IF0'
p1367
I01
sS'Q54IF7'
p1368
I01
sS'Q23858'
p1369
I01
sS'Q54IF9'
p1370
I01
sS'Q54FE7'
p1371
I01
sS'Q54DR0'
p1372
I01
sS'Q54DR1'
p1373
I01
sS'Q86J23'
p1374
I01
sS'O96621'
p1375
I01
sS'O96622'
p1376
I01
sS'O96623'
p1377
I01
sS'O96624'
p1378
I01
sS'Q54RS2'
p1379
I01
sS'O96626'
p1380
I01
sS'Q86IJ1'
p1381
I01
sS'Q54MV7'
p1382
I01
sS'Q54PK4'
p1383
I01
sS'Q54PK6'
p1384
I01
sS'Q551H6'
p1385
I01
sS'B0G0Y7'
p1386
I01
sS'Q551H5'
p1387
I01
sS'P34144'
p1388
I01
sS'P34140'
p1389
I01
sS'P34142'
p1390
I01
sS'P34143'
p1391
I01
sS'Q54YS8'
p1392
I01
sS'Q54IX6'
p1393
I01
sS'P34148'
p1394
I01
sS'P34149'
p1395
I01
sS'Q54RE9'
p1396
I01
sS'Q869Q8'
p1397
I01
sS'Q869Q3'
p1398
I01
sS'Q8T5Z7'
p1399
I01
sS'Q54RE6'
p1400
I01
sS'Q556T3'
p1401
I01
sS'Q556T4'
p1402
I01
sS'Q556T7'
p1403
I01
sS'Q54Y41'
p1404
I01
sS'Q55CV0'
p1405
I01
sS'Q55CV4'
p1406
I01
sS'Q55CV5'
p1407
I01
sS'Q54CS6'
p1408
I01
sS'Q55CD5'
p1409
I01
sS'Q86I71'
p1410
I01
sS'Q54HH9'
p1411
I01
sS'Q54X04'
p1412
I01
sS'Q556F0'
p1413
I01
sS'Q54X02'
p1414
I01
sS'Q54X03'
p1415
I01
sS'Q86KZ5'
p1416
I01
sS'Q55DL6'
p1417
I01
sS'Q54EP7'
p1418
I01
sS'Q54EP6'
p1419
I01
sS'Q54KD9'
p1420
I01
sS'Q54KD3'
p1421
I01
sS'Q54KD1'
p1422
I01
sS'Q54KD5'
p1423
I01
sS'Q86D86'
p1424
I01
sS'Q54QV8'
p1425
I01
sS'Q55DB1'
p1426
I01
sS'Q86IL9'
p1427
I01
sS'Q54TC9'
p1428
I01
sS'Q54QV0'
p1429
I01
sS'Q55DB9'
p1430
I01
sS'Q54QV4'
p1431
I01
sS'Q54KJ7'
p1432
I01
sS'Q9GRF8'
p1433
I01
sS'Q54WV6'
p1434
I01
sS'Q54KJ9'
p1435
I01
sS'Q55FR9'
p1436
I01
sS'Q55FR8'
p1437
I01
sS'P14326'
p1438
I01
sS'Q54UF7'
p1439
I01
sS'Q54UF6'
p1440
I01
sS'Q54UF3'
p1441
I01
sS'P14329'
p1442
I01
sS'Q8T869'
p1443
I01
sS'Q8WSV6'
p1444
I01
sS'Q54BN8'
p1445
I01
sS'Q54UP4'
p1446
I01
sS'Q54Q51'
p1447
I01
sS'Q55AB5'
p1448
I01
sS'Q554D9'
p1449
I01
sS'Q9XYS8'
p1450
I01
sS'Q54W90'
p1451
I01
sS'Q556H9'
p1452
I01
sS'Q54TL8'
p1453
I01
sS'P34119'
p1454
I01
sS'Q86JJ5'
p1455
I01
sS'Q54RB7'
p1456
I01
sS'Q54TL0'
p1457
I01
sS'Q54ST3'
p1458
I01
sS'P34117'
p1459
I01
sS'Q54ST0'
p1460
I01
sS'Q8T2J5'
p1461
I01
sS'Q54ST6'
p1462
I01
sS'Q54RB9'
p1463
I01
sS'P54661'
p1464
I01
sS'O60952'
p1465
I01
sS'P20609'
p1466
I01
sS'Q54QX3'
p1467
I01
sS'Q6DN52'
p1468
I01
sS'Q54WD2'
p1469
I01
sS'Q54WD1'
p1470
I01
sS'Q55DP8'
p1471
I01
sS'Q54BH6'
p1472
I01
sS'P14197'
p1473
I01
sS'Q54WD8'
p1474
I01
sS'Q54R04'
p1475
I01
sS'Q54SJ8'
p1476
I01
sS'Q8T282'
p1477
I01
sS'Q54ZR7'
p1478
I01
sS'Q54QJ9'
p1479
I01
sS'Q54QJ8'
p1480
I01
sS'Q54XZ0'
p1481
I01
sS'Q553I0'
p1482
I01
sS'Q54M57'
p1483
I01
sS'Q54H06'
p1484
I01
sS'Q54H07'
p1485
I01
sS'Q54PZ2'
p1486
I01
sS'Q54VZ4'
p1487
I01
sS'Q54VZ1'
p1488
I01
sS'Q54VZ3'
p1489
I01
sS'Q1ZXG6'
p1490
I01
sS'Q1ZXG4'
p1491
I01
sS'Q54TB6'
p1492
I01
sS'Q54CN7'
p1493
I01
sS'Q54CN9'
p1494
I01
sS'Q54MA5'
p1495
I01
sS'Q54K19'
p1496
I01
sS'Q54NY6'
p1497
I01
sS'Q54K12'
p1498
I01
sS'Q54E73'
p1499
I01
sS'O00910'
p1500
I01
sS'Q55E35'
p1501
I01
sS'Q55E34'
p1502
I01
sS'Q55E32'
p1503
I01
sS'Q55E31'
p1504
I01
sS'Q7YXD4'
p1505
I01
sS'Q54I76'
p1506
I01
sS'Q54I73'
p1507
I01
sS'Q95VZ3'
p1508
I01
sS'Q86L51'
p1509
I01
sS'Q555Q9'
p1510
I01
sS'Q86KU6'
p1511
I01
sS'Q86KU5'
p1512
I01
sS'Q54M34'
p1513
I01
sS'Q556N5'
p1514
I01
sS'Q54C73'
p1515
I01
sS'Q54C70'
p1516
I01
sS'Q23862'
p1517
I01
sS'Q54II1'
p1518
I01
sS'P13651'
p1519
I01
sS'Q54DS3'
p1520
I01
sS'Q54DS8'
p1521
I01
sS'Q55GT3'
p1522
I01
sS'Q54PH8'
p1523
I01
sS'Q54JC2'
p1524
I01
sS'Q54PH5'
p1525
I01
sS'Q551I4'
p1526
I01
sS'Q54PH3'
p1527
I01
sS'Q54RF5'
p1528
I01
sS'Q54RF6'
p1529
I01
sS'Q54YR8'
p1530
I01
sS'Q54YR4'
p1531
I01
sS'Q869R8'
p1532
I01
sS'Q54PF3'
p1533
I01
sS'Q8T674'
p1534
I01
sS'Q54DA8'
p1535
I01
sS'Q54DA7'
p1536
I01
sS'Q54DA0'
p1537
I01
sS'Q86K61'
p1538
I01
sS'Q86K67'
p1539
I01
sS'Q55CW0'
p1540
I01
sS'Q556W7'
p1541
I01
sS'Q55CW5'
p1542
I01
sS'Q556W2'
p1543
I01
sS'Q54CR4'
p1544
I01
sS'Q54X54'
p1545
I01
sS'P08800'
p1546
I01
sS'Q550W4'
p1547
I01
sS'Q54CR8'
p1548
I01
sS'Q55CE3'
p1549
I01
sS'Q556Y4'
p1550
I01
sS'Q556Y3'
p1551
I01
sS'Q556Y0'
p1552
I01
sS'Q54ES4'
p1553
I01
sS'Q54ES6'
p1554
I01
sS'Q54LN4'
p1555
I01
sS'Q54X13'
p1556
I01
sS'Q54X10'
p1557
I01
sS'Q54ES8'
p1558
I01
sS'Q54ES9'
p1559
I01
sS'Q86A67'
p1560
I01
sS'Q555C8'
p1561
I01
sS'Q552Q3'
p1562
I01
sS'Q552Q7'
p1563
I01
sS'Q55DA4'
p1564
I01
sS'Q9Y1W0'
p1565
I01
sS'Q54EM7'
p1566
I01
sS'Q54KI0'
p1567
I01
sS'Q54WU1'
p1568
I01
sS'Q55FU9'
p1569
I01
sS'Q86KI1'
p1570
I01
sS'Q54T61'
p1571
I01
sS'P14330'
p1572
I01
sS'Q54YD8'
p1573
I01
sS'Q554U7'
p1574
I01
sS'Q554U0'
p1575
I01
sS'Q54YD2'
p1576
I01
sS'Q54YD4'
p1577
I01
sS'Q54IX9'
p1578
I01
sS'Q54Q46'
p1579
I01
sS'Q7KWY3'
p1580
I01
sS'Q7KWY0'
p1581
I01
sS'Q7KWY5'
p1582
I01
sS'P54872'
p1583
I01
sS'Q55FV8'
p1584
I01
sS'Q556K7'
p1585
I01
sS'Q54W88'
p1586
I01
sS'Q7KWW4'
p1587
I01
sS'Q9NKW1'
p1588
I01
sS'Q7KWW3'
p1589
I01
sS'Q54TM2'
p1590
I01
sS'Q55AM9'
p1591
I01
sS'Q7KWW8'
p1592
I01
sS'Q869Z0'
p1593
I01
sS'Q54LL8'
p1594
I01
sS'Q54XM9'
p1595
I01
sS'Q54XM7'
p1596
I01
sS'Q54XM6'
p1597
I01
sS'Q9XYL0'
p1598
I01
sS'Q54BI8'
p1599
I01
sS'Q55BR7'
p1600
I01
sS'Q54U61'
p1601
I01
sS'Q55DW5'
p1602
I01
sS'Q54R17'
p1603
I01
sS'Q54LR4'
p1604
I01
sS'Q54SI3'
p1605
I01
sS'Q54SI5'
p1606
I01
sS'Q54QM8'
p1607
I01
sS'Q553N3'
p1608
I01
sS'Q54H18'
p1609
I01
sS'Q553N9'
p1610
I01
sS'Q553R4'
p1611
I01
sS'Q54M42'
p1612
I01
sS'Q55GP7'
p1613
I01
sS'Q54G81'
p1614
I01
sS'Q86HX0'
p1615
I01
sS'Q54MF3'
p1616
I01
sS'Q54G86'
p1617
I01
sS'Q54MF0'
p1618
I01
sS'Q55C09'
p1619
I01
sS'Q54G88'
p1620
I01
sS'Q551X7'
p1621
I01
sS'Q54JR2'
p1622
I01
sS'Q55EK2'
p1623
I01
sS'Q54TC4'
p1624
I01
sS'Q54K02'
p1625
I01
sS'Q54HZ2'
p1626
I01
sS'Q54CM0'
p1627
I01
sS'Q54CM2'
p1628
I01
sS'Q54NZ0'
p1629
I01
sS'Q8T2G9'
p1630
I01
sS'Q54CC5'
p1631
I01
sS'Q54E67'
p1632
I01
sS'Q54E62'
p1633
I01
sS'Q54VE2'
p1634
I01
sS'Q54NT2'
p1635
I01
sS'Q7KWN0'
p1636
I01
sS'Q54TQ9'
p1637
I01
sS'Q55E41'
p1638
I01
sS'Q54I61'
p1639
I01
sS'Q55E09'
p1640
I01
sS'Q55BN7'
p1641
I01
sS'Q55BN9'
p1642
I01
sS'Q54KT3'
p1643
I01
sS'Q54C69'
p1644
I01
sS'Q54C68'
p1645
I01
sS'Q557J6'
p1646
I01
sS'Q557J7'
p1647
I01
sS'Q54C61'
p1648
I01
sS'P33519'
p1649
I01
sS'Q54DP1'
p1650
I01
sS'Q551J1'
p1651
I01
sS'Q54JD2'
p1652
I01
sS'Q54JD0'
p1653
I01
sS'Q54MP2'
p1654
I01
sS'Q55EQ1'
p1655
I01
sS'Q54JD4'
p1656
I01
sS'Q54JD9'
p1657
I01
sS'Q55EQ8'
p1658
I01
sS'Q55CT1'
p1659
I01
sS'Q55GW5'
p1660
I01
sS'Q869S7'
p1661
I01
sS'Q54PG5'
p1662
I01
sS'Q55CT5'
p1663
I01
sS'Q54PG7'
p1664
I01
sS'Q55CT7'
p1665
I01
sS'Q8T665'
p1666
I01
sS'Q54B10'
p1667
I01
sS'Q54B13'
p1668
I01
sS'Q54DF1'
p1669
I01
sS'Q54DF7'
p1670
I01
sS'Q54DF4'
p1671
I01
sS'Q86K74'
p1672
I01
sS'Q556V1'
p1673
I01
sS'Q556V7'
p1674
I01
sS'Q556V6'
p1675
I01
sS'Q55CT9'
p1676
I01
sS'P34093'
p1677
I01
sS'Q54CQ7'
p1678
I01
sS'Q54CQ9'
p1679
I01
sS'P34098'
p1680
I01
sS'Q55E97'
p1681
I01
sS'Q86A77'
p1682
I01
sS'Q86A72'
p1683
I01
sS'Q55CJ9'
p1684
I01
sS'Q55E91'
p1685
I01
sS'Q55CJ5'
p1686
I01
sS'Q55CJ3'
p1687
I01
sS'Q86I17'
p1688
I01
sS'Q54KZ4'
p1689
I01
sS'Q54KZ1'
p1690
I01
sS'Q86KX9'
p1691
I01
sS'Q54KZ8'
p1692
I01
sS'Q55FB8'
p1693
I01
sS'Q23892'
p1694
I01
sS'Q54IZ9'
p1695
I01
sS'P32252'
p1696
I01
sS'P32253'
p1697
I01
sS'P32256'
p1698
I01
sS'P32254'
p1699
I01
sS'P32255'
p1700
I01
sS'Q559Q5'
p1701
I01
sS'Q54EL2'
p1702
I01
sS'Q54KH9'
p1703
I01
sS'Q54KH8'
p1704
I01
sS'Q58A42'
p1705
I01
sS'Q54YG5'
p1706
I01
sS'Q54UR0'
p1707
I01
sS'Q9NKX1'
p1708
I01
sS'Q8SSU2'
p1709
I01
sS'Q55GQ6'
p1710
I01
sS'Q8T6J5'
p1711
I01
sS'Q5FXM5'
p1712
I01
sS'Q8T6J1'
p1713
I01
sS'Q54Z09'
p1714
I01
sS'Q54Q75'
p1715
I01
sS'Q554J3'
p1716
I01
sS'Q556J9'
p1717
I01
sS'Q556J8'
p1718
I01
sS'Q556J3'
p1719
I01
sS'Q556J2'
p1720
I01
sS'Q556J0'
p1721
I01
sS'Q54Q97'
p1722
I01
sS'Q54Q95'
p1723
I01
sS'Q54NI6'
p1724
I01
sS'Q86JD4'
p1725
I01
sS'Q54LM1'
p1726
I01
sS'Q54LM9'
p1727
I01
sS'Q8T2H0'
p1728
I01
sS'Q54XJ8'
p1729
I01
sS'Q54XJ9'
p1730
I01
sS'P32073'
p1731
I01
sS'Q54QZ5'
p1732
I01
sS'Q54BR2'
p1733
I01
sS'Q55DV9'
p1734
I01
sS'Q54WB6'
p1735
I01
sS'Q9GPR7'
p1736
I01
sS'Q54WB8'
p1737
I01
sS'Q54BJ5'
p1738
I01
sS'Q54U15'
p1739
I01
sS'Q54XX1'
p1740
I01
sS'Q54XX2'
p1741
I01
sS'Q54XX3'
p1742
I01
sS'P10819'
p1743
I01
sS'P16168'
p1744
I01
sS'Q86I14'
p1745
I01
sS'P02886'
p1746
I01
sS'Q54M70'
p1747
I01
sS'P02889'
p1748
I01
sS'Q55EN7'
p1749
I01
sS'Q76NT6'
p1750
I01
sS'Q54M75'
p1751
I01
sS'Q54M76'
p1752
I01
sS'Q55EN3'
p1753
I01
sS'Q54S52'
p1754
I01
sS'Q55GN9'
p1755
I01
sS'Q55GN3'
p1756
I01
sS'Q54T29'
p1757
I01
sS'Q54JS5'
p1758
I01
sS'Q54MA6'
p1759
I01
sS'Q54PX9'
p1760
I01
sS'Q54MA4'
p1761
I01
sS'Q54JS0'
p1762
I01
sS'Q55C17'
p1763
I01
sS'Q54G77'
p1764
I01
sS'Q54PX7'
p1765
I01
sS'Q54G73'
p1766
I01
sS'Q54G71'
p1767
I01
sS'Q54N83'
p1768
I01
sS'Q54N80'
p1769
I01
sS'Q86HF6'
p1770
I01
sS'Q54VT5'
p1771
I01
sS'Q1ZXA6'
p1772
I01
sS'Q54K74'
p1773
I01
sS'Q75JE7'
p1774
I01
sS'Q54CL2'
p1775
I01
sS'Q54VK4'
p1776
I01
sS'Q54SH0'
p1777
I01
sS'Q54CB5'
p1778
I01
sS'Q54CB7'
p1779
I01
sS'Q54E19'
p1780
I01
sS'Q54HI5'
p1781
I01
sS'C7FZY2'
p1782
I01
sS'Q54NU2'
p1783
I01
sS'Q55FB3'
p1784
I01
sS'Q54TV4'
p1785
I01
sS'C7FZW3'
p1786
I01
sS'C7FZW5'
p1787
I01
sS'Q54I98'
p1788
I01
sS'Q54I93'
p1789
I01
sS'Q54I90'
p1790
I01
sS'Q55BI2'
p1791
I01
sS'Q95YL4'
p1792
I01
sS'Q54GZ0'
p1793
I01
sS'Q54D27'
p1794
I01
sS'Q55BY3'
p1795
I01
sS'P13231'
p1796
I01
sS'Q54RV6'
p1797
I01
sS'Q54IK1'
p1798
I01
sS'Q54IK3'
p1799
I01
sS'Q54RZ2'
p1800
I01
sS'B0G0Z1'
p1801
I01
sS'B0G0Z7'
p1802
I01
sS'B0G0Z6'
p1803
I01
sS'B0G0Z5'
p1804
I01
sS'Q54PV8'
p1805
I01
sS'Q54JE3'
p1806
I01
sS'Q54JE4'
p1807
I01
sS'Q86AT8'
p1808
I01
sS'Q55ER7'
p1809
I01
sS'Q54JE8'
p1810
I01
sS'O76173'
p1811
I01
sS'Q54GJ2'
p1812
I01
sS'P15808'
p1813
I01
sS'Q8I8U2'
p1814
I01
sS'Q54YT4'
p1815
I01
sS'Q9NCL7'
p1816
I01
sS'Q54PD3'
p1817
I01
sS'Q54PD4'
p1818
I01
sS'Q54PD5'
p1819
I01
sS'Q54Y98'
p1820
I01
sS'Q54DG1'
p1821
I01
sS'Q54Y95'
p1822
I01
sS'Q54DG5'
p1823
I01
sS'Q8MMR8'
p1824
I01
sS'Q54M12'
p1825
I01
sS'Q86K48'
p1826
I01
sS'P54657'
p1827
I01
sS'Q550U9'
p1828
I01
sS'Q86JI9'
p1829
I01
sS'Q54CP2'
p1830
I01
sS'Q55CK8'
p1831
I01
sS'Q86A08'
p1832
I01
sS'Q55CK0'
p1833
I01
sS'Q55CK3'
p1834
I01
sS'Q550C4'
p1835
I01
sS'Q55G38'
p1836
I01
sS'Q55FE3'
p1837
I01
sS'Q55FE0'
p1838
I01
sS'Q552S7'
p1839
I01
sS'Q552S0'
p1840
I01
sS'Q552S1'
p1841
I01
sS'Q54KY9'
p1842
I01
sS'Q55FE8'
p1843
I01
sS'Q55FE9'
p1844
I01
sS'Q552S8'
p1845
I01
sS'Q555E8'
p1846
I01
sS'Q54HE3'
p1847
I01
sS'Q555E5'
p1848
I01
sS'Q55DG8'
p1849
I01
sS'Q55DG0'
p1850
I01
sS'Q54UC1'
p1851
I01
sS'Q54WT8'
p1852
I01
sS'Q54YF7'
p1853
I01
sS'Q54YF6'
p1854
I01
sS'Q54YF5'
p1855
I01
sS'Q54FA9'
p1856
I01
sS'Q54YF9'
p1857
I01
sS'Q86I20'
p1858
I01
sS'Q86I22'
p1859
I01
sS'Q75JH8'
p1860
I01
sS'P27133'
p1861
I01
sS'Q27563'
p1862
I01
sS'Q8T8M2'
p1863
I01
sS'Q54Q68'
p1864
I01
sS'Q54Z13'
p1865
I01
sS'Q86KT5'
p1866
I01
sS'Q556M2'
p1867
I01
sS'P20054'
p1868
I01
sS'Q556M4'
p1869
I01
sS'Q556M5'
p1870
I01
sS'Q54Q84'
p1871
I01
sS'Q54NJ8'
p1872
I01
sS'P54632'
p1873
I01
sS'Q54B68'
p1874
I01
sS'Q86JG3'
p1875
I01
sS'P54638'
p1876
I01
sS'P54639'
p1877
I01
sS'Q86JG6'
p1878
I01
sS'Q54LB8'
p1879
I01
sS'Q54LB9'
p1880
I01
sS'Q55GL2'
p1881
I01
sS'Q54XK9'
p1882
I01
sS'Q54BK2'
p1883
I01
sS'Q558Z2'
p1884
I01
sS'Q54XK2'
p1885
I01
sS'Q55FY1'
p1886
I01
sS'Q54WA4'
p1887
I01
sS'Q54U07'
p1888
I01
sS'Q54LP8'
p1889
I01
sS'Q54XY5'
p1890
I01
sS'Q54LP3'
p1891
I01
sS'Q54GK6'
p1892
I01
sS'Q54X73'
p1893
I01
sS'P46800'
p1894
I01
sS'Q86HW7'
p1895
I01
sS'Q86HW2'
p1896
I01
sS'Q553L4'
p1897
I01
sS'Q1ZXP3'
p1898
I01
sS'Q76NU3'
p1899
I01
sS'P26199'
p1900
I01
sS'Q769F9'
p1901
I01
sS'Q769F7'
p1902
I01
sS'Q769F6'
p1903
I01
sS'Q553B6'
p1904
I01
sS'Q54JT0'
p1905
I01
sS'Q54JT6'
p1906
I01
sS'Q54JT7'
p1907
I01
sS'Q55D90'
p1908
I01
sS'Q54G54'
p1909
I01
sS'Q54PY7'
p1910
I01
sS'Q55D96'
p1911
I01
sS'Q54VU3'
p1912
I01
sS'P36967'
p1913
I01
sS'Q54ND5'
p1914
I01
sS'P48160'
p1915
I01
sS'Q54ND0'
p1916
I01
sS'Q54TA8'
p1917
I01
sS'Q54TA1'
p1918
I01
sS'Q55E67'
p1919
I01
sS'Q55E60'
p1920
I01
sS'Q54CA5'
p1921
I01
sS'Q54CA6'
p1922
I01
sS'Q75JK6'
p1923
I01
sS'Q54E04'
p1924
I01
sS'O96625'
p1925
I01
sS'Q54RS1'
p1926
I01
sS'Q54NV9'
p1927
I01
sS'Q54F93'
p1928
I01
sS'Q54TW5'
p1929
I01
sS'Q54F94'
p1930
I01
sS'Q54I88'
p1931
I01
sS'Q8T131'
p1932
I01
sS'Q54GY8'
p1933
I01
sS'Q95ZG4'
p1934
I01
sS'Q55BH2'
p1935
I01
sS'Q55BH7'
p1936
I01
sS'Q95ZG8'
p1937
I01
sS'Q55BP9'
p1938
I01
sS'C7FZZ5'
p1939
I01
sS'Q54C47'
p1940
I01
sS'Q54IJ2'
p1941
I01
sS'Q54IJ1'
p1942
I01
sS'Q54C49'
p1943
I01
sS'C7FZZ8'
p1944
I01
sS'C7FZZ9'
p1945
I01
sS'Q54NE6'
p1946
I01
sS'Q03479'
p1947
I01
sS'Q8MXQ2'
p1948
I01
sS'Q557H6'
p1949
I01
sS'Q557H1'
p1950
I01
sS'Q557H3'
p1951
I01
sS'Q54PW3'
p1952
I01
sS'Q54DV3'
p1953
I01
sS'Q54VG5'
p1954
I01
sS'Q54MR8'
p1955
I01
sS'Q553P4'
p1956
I01
sS'Q553P5'
p1957
I01
sS'Q54VG1'
p1958
I01
sS'Q54VG0'
p1959
I01
sS'Q54JF5'
p1960
I01
sS'Q54MR6'
p1961
I01
sS'Q54RI8'
p1962
I01
sS'Q54DD3'
p1963
I01
sS'Q54RI2'
p1964
I01
sS'Q54JH4'
p1965
I01
sS'Q54JH2'
p1966
I01
sS'Q54PE8'
p1967
I01
sS'Q54YS4'
p1968
I01
sS'Q54Y83'
p1969
I01
sS'Q86K57'
p1970
I01
sS'Q54CW1'
p1971
I01
sS'Q86A17'
p1972
I01
sS'Q55CH0'
p1973
I01
sS'Q86A18'
p1974
I01
sS'Q55CH3'
p1975
I01
sS'Q556Z3'
p1976
I01
sS'Q556Z1'
p1977
I01
sS'Q556Z0'
p1978
I01
sS'P16894'
p1979
I01
sS'Q54RN0'
p1980
I01
sS'Q552R6'
p1981
I01
sS'Q557F3'
p1982
I01
sS'Q557F0'
p1983
I01
sS'Q54YW3'
p1984
I01
sS'Q1ZXJ3'
p1985
I01
sS'Q54YW8'
p1986
I01
sS'Q54WR3'
p1987
I01
sS'Q54WR2'
p1988
I01
sS'B0G128'
p1989
I01
sS'Q54WR9'
p1990
I01
sS'B0G127'
p1991
I01
sS'Q8TA03'
p1992
I01
sS'Q55FV9'
p1993
I01
sS'Q54UB0'
p1994
I01
sS'Q54UB7'
p1995
I01
sS'Q54UB6'
p1996
I01
sS'Q54UB5'
p1997
I01
sS'Q55E77'
p1998
I01
sS'Q54KN7'
p1999
I01
sS'Q55E76'
p2000
I01
sS'Q54FB6'
p2001
I01
sS'Q869Q6'
p2002
I01
sS'Q9NIV0'
p2003
I01
sS'Q54FL2'
p2004
I01
sS'P24639'
p2005
I01
sS'C7G028'
p2006
I01
sS'Q554H5'
p2007
I01
sS'Q54Z22'
p2008
I01
sS'Q8T6H3'
p2009
I01
sS'Q54Z26'
p2010
I01
sS'Q86IH2'
p2011
I01
sS'Q54EN4'
p2012
I01
sS'Q556L1'
p2013
I01
sS'Q556L2'
p2014
I01
sS'Q1ZXD3'
p2015
I01
sS'Q54SX7'
p2016
I01
sS'Q7KWR8'
p2017
I01
sS'Q54ZD1'
p2018
I01
sS'Q54ZD6'
p2019
I01
sS'Q1ZXB1'
p2020
I01
sS'Q7KWR6'
p2021
I01
sS'Q55AH5'
p2022
I01
sS'Q55AN3'
p2023
I01
sS'P14797'
p2024
I01
sS'Q54LC0'
p2025
I01
sS'P14794'
p2026
I01
sS'Q54U34'
p2027
I01
sS'Q54BL8'
p2028
I01
sS'Q55DT8'
p2029
I01
sS'Q54U38'
p2030
I01
sS'Q86AV5'
p2031
I01
sS'Q54QN2'
p2032
I01
sS'Q54QN1'
p2033
I01
sS'Q55BY1'
p2034
I01
sS'Q54QN4'
p2035
I01
sS'Q54R41'
p2036
I01
sS'Q54R47'
p2037
I01
sS'Q54XV0'
p2038
I01
sS'Q54R45'
p2039
I01
sS'Q54WN5'
p2040
I01
sS'Q76NV5'
p2041
I01
sS'Q9U9R7'
p2042
I01
sS'Q54WN0'
p2043
I01
sS'Q54M18'
p2044
I01
sS'Q54WN8'
p2045
I01
sS'Q86HV4'
p2046
I01
sS'Q553M7'
p2047
I01
sS'Q1ZXQ4'
p2048
I01
sS'Q54T02'
p2049
I01
sS'P90529'
p2050
I01
sS'Q54T06'
p2051
I01
sS'P90526'
p2052
I01
sS'P90521'
p2053
I01
sS'Q54G58'
p2054
I01
sS'Q54JU2'
p2055
I01
sS'Q55C71'
p2056
I01
sS'Q55C70'
p2057
I01
sS'Q55C73'
p2058
I01
sS'Q54G53'
p2059
I01
sS'Q54MC0'
p2060
I01
sS'Q54G56'
p2061
I01
sS'Q75JT7'
p2062
I01
sS'Q75JT6'
p2063
I01
sS'Q54HY5'
p2064
I01
sS'Q54VV1'
p2065
I01
sS'Q8T137'
p2066
I01
sS'Q86HD3'
p2067
I01
sS'Q54NE5'
p2068
I01
sS'Q54TF9'
p2069
I01
sS'Q54K50'
p2070
I01
sS'Q55FK8'
p2071
I01
sS'Q55G99'
p2072
I01
sS'Q54SN5'
p2073
I01
sS'Q54SN4'
p2074
I01
sS'Q55G90'
p2075
I01
sS'Q75K07'
p2076
I01
sS'Q54HG9'
p2077
I01
sS'Q54HG8'
p2078
I01
sS'Q54HG2'
p2079
I01
sS'Q55G75'
p2080
I01
sS'Q55G70'
p2081
I01
sS'Q54NW9'
p2082
I01
sS'Q54NW7'
p2083
I01
sS'Q54YJ6'
p2084
I01
sS'Q55BK1'
p2085
I01
sS'Q55D85'
p2086
I01
sS'Q55D84'
p2087
I01
sS'Q54BP0'
p2088
I01
sS'O97101'
p2089
I01
sS'Q54J23'
p2090
I01
sS'Q55BK0'
p2091
I01
sS'Q54XJ0'
p2092
I01
sS'Q54J26'
p2093
I01
stbaa(lp2094
S'15473840'
p2095
ag5
(g6
g7
NtRp2096
((dp2097
S'P34145'
p2098
I01
sS'Q54QV3'
p2099
I01
sS'Q553Y7'
p2100
I01
sS'P54644'
p2101
I01
sS'Q86H13'
p2102
I01
sS'P35352'
p2103
I01
sS'P34042'
p2104
I01
sS'Q23917'
p2105
I01
sS'P35401'
p2106
I01
sS'Q551V8'
p2107
I01
sS'Q03100'
p2108
I01
sS'O76765'
p2109
I01
sS'P13773'
p2110
I01
sS'Q54QB1'
p2111
I01
sS'P12019'
p2112
I01
sS'Q55CL6'
p2113
I01
sS'P34099'
p2114
I01
sS'Q95ZG8'
p2115
I01
sS'P34907'
p2116
I01
sS'Q55D99'
p2117
I01
sS'Q9TX43'
p2118
I01
sS'Q54R41'
p2119
I01
sS'Q8T9S7'
p2120
I01
sS'P54673'
p2121
I01
sS'P54674'
p2122
I01
sS'Q8MVR1'
p2123
I01
sS'Q8MLZ3'
p2124
I01
sS'Q54NF8'
p2125
I01
sS'Q54S40'
p2126
I01
sS'P05987'
p2127
I01
sS'B0G0Y8'
p2128
I01
sS'Q8MM62'
p2129
I01
sS'P36408'
p2130
I01
stbaa(lp2131
S'17517120'
p2132
ag5
(g6
g7
NtRp2133
((dp2134
S'B0G108'
p2135
I01
sS'Q54BC6'
p2136
I01
sS'P27133'
p2137
I01
sS'P34123'
p2138
I01
sS'Q54UB5'
p2139
I01
sS'Q869Q3'
p2140
I01
sS'Q75J86'
p2141
I01
sS'Q55FE0'
p2142
I01
sS'O00899'
p2143
I01
sS'Q6TMJ3'
p2144
I01
sS'Q54W87'
p2145
I01
sS'Q55E30'
p2146
I01
sS'Q54BU4'
p2147
I01
sS'P13466'
p2148
I01
sS'Q86JP5'
p2149
I01
sS'Q54BD4'
p2150
I01
sS'Q86B08'
p2151
I01
sS'Q54ZC9'
p2152
I01
sS'Q6TMK2'
p2153
I01
sS'P07830'
p2154
I01
sS'Q55FW3'
p2155
I01
sS'Q54I98'
p2156
I01
sS'Q5R1U3'
p2157
I01
sS'O96621'
p2158
I01
sS'P54681'
p2159
I01
sS'Q9XYL0'
p2160
I01
sS'P26200'
p2161
I01
sS'O61122'
p2162
I01
sS'P04988'
p2163
I01
sS'Q8T673'
p2164
I01
stbaa(lp2165
S'16926386'
p2166
ag5
(g6
g7
NtRp2167
((dp2168
S'P32252'
p2169
I01
sS'Q54XI5'
p2170
I01
sS'P32255'
p2171
I01
sS'Q54UH8'
p2172
I01
sS'Q54DA8'
p2173
I01
sS'O00780'
p2174
I01
sS'Q75K18'
p2175
I01
sS'Q55BZ4'
p2176
I01
sS'P0DJ26'
p2177
I01
sS'Q86IF6'
p2178
I01
sS'Q55D63'
p2179
I01
sS'Q54QP6'
p2180
I01
sS'Q54NP6'
p2181
I01
sS'Q54S82'
p2182
I01
sS'Q75JR3'
p2183
I01
sS'Q54H38'
p2184
I01
sS'Q7KWQ2'
p2185
I01
sS'Q55BH2'
p2186
I01
sS'Q54F26'
p2187
I01
sS'Q54PF9'
p2188
I01
sS'Q95US4'
p2189
I01
sS'Q54VQ1'
p2190
I01
sS'Q86A17'
p2191
I01
sS'Q86JE1'
p2192
I01
sS'Q8T662'
p2193
I01
sS'O15706'
p2194
I01
sS'P34118'
p2195
I01
sS'P34115'
p2196
I01
sS'Q54TH8'
p2197
I01
sS'Q54J47'
p2198
I01
sS'Q6TMK3'
p2199
I01
sS'Q54J48'
p2200
I01
sS'Q55CS9'
p2201
I01
sS'Q86A97'
p2202
I01
sS'Q8MML6'
p2203
I01
sS'Q54BI7'
p2204
I01
sS'B0G141'
p2205
I01
sS'Q556J0'
p2206
I01
sS'O00909'
p2207
I01
sS'Q54QR3'
p2208
I01
sS'Q54WR9'
p2209
I01
sS'Q86K89'
p2210
I01
sS'P27133'
p2211
I01
sS'P22887'
p2212
I01
sS'Q54JJ5'
p2213
I01
sS'P34042'
p2214
I01
sS'Q555G2'
p2215
I01
sS'P32073'
p2216
I01
sS'Q54WZ2'
p2217
I01
sS'Q23921'
p2218
I01
sS'Q54Z13'
p2219
I01
sS'Q54TY4'
p2220
I01
sS'Q54YA2'
p2221
I01
sS'Q54YA0'
p2222
I01
sS'P10819'
p2223
I01
sS'Q54D73'
p2224
I01
sS'Q01501'
p2225
I01
sS'Q552D1'
p2226
I01
sS'P24639'
p2227
I01
sS'P36410'
p2228
I01
sS'P36411'
p2229
I01
sS'P36412'
p2230
I01
sS'P54638'
p2231
I01
sS'P36415'
p2232
I01
sS'Q23858'
p2233
I01
sS'Q86IA3'
p2234
I01
sS'Q54HG2'
p2235
I01
sS'Q86AQ3'
p2236
I01
sS'P02886'
p2237
I01
sS'P02887'
p2238
I01
sS'P02888'
p2239
I01
sS'P42530'
p2240
I01
sS'Q54Z26'
p2241
I01
sS'Q54AX5'
p2242
I01
sS'Q9NIF3'
p2243
I01
sS'Q54Q48'
p2244
I01
sS'Q54N76'
p2245
I01
sS'Q54GE3'
p2246
I01
sS'Q54F93'
p2247
I01
sS'P34144'
p2248
I01
sS'Q54KL2'
p2249
I01
sS'Q54PX9'
p2250
I01
sS'Q55DR6'
p2251
I01
sS'Q55GD9'
p2252
I01
sS'Q54PA9'
p2253
I01
sS'Q86L14'
p2254
I01
sS'Q86JA1'
p2255
I01
sS'Q54S38'
p2256
I01
sS'P42526'
p2257
I01
sS'Q54LX0'
p2258
I01
sS'B0G181'
p2259
I01
sS'Q54NU2'
p2260
I01
sS'Q54IP0'
p2261
I01
sS'Q54C70'
p2262
I01
sS'Q556G3'
p2263
I01
sS'P46800'
p2264
I01
sS'P42528'
p2265
I01
sS'Q9GPM4'
p2266
I01
sS'Q55EX9'
p2267
I01
sS'Q76NU1'
p2268
I01
sS'Q55BV5'
p2269
I01
sS'Q94469'
p2270
I01
sS'Q54U38'
p2271
I01
sS'Q54FU0'
p2272
I01
sS'P15064'
p2273
I01
sS'P09556'
p2274
I01
sS'Q557E0'
p2275
I01
sS'Q55BY1'
p2276
I01
sS'Q75JD5'
p2277
I01
sS'Q55GN5'
p2278
I01
sS'Q86IC8'
p2279
I01
sS'Q54M12'
p2280
I01
sS'P54657'
p2281
I01
sS'Q54C92'
p2282
I01
sS'P54651'
p2283
I01
sS'P18613'
p2284
I01
sS'Q556F7'
p2285
I01
sS'P54659'
p2286
I01
sS'Q54BM2'
p2287
I01
sS'Q54X80'
p2288
I01
sS'Q54I98'
p2289
I01
sS'Q55DL5'
p2290
I01
sS'Q55FF3'
p2291
I01
sS'Q54KD9'
p2292
I01
sS'Q54F74'
p2293
I01
sS'P90529'
p2294
I01
sS'Q55BN8'
p2295
I01
sS'Q554F5'
p2296
I01
sS'Q9U9R7'
p2297
I01
sS'Q54MZ3'
p2298
I01
sS'Q54D21'
p2299
I01
sS'P13231'
p2300
I01
sS'Q94464'
p2301
I01
sS'Q94465'
p2302
I01
sS'Q54E04'
p2303
I01
sS'P54647'
p2304
I01
sS'Q54DF9'
p2305
I01
sS'P54641'
p2306
I01
sS'Q54FW2'
p2307
I01
sS'P34121'
p2308
I01
sS'Q9GRF8'
p2309
I01
sS'P21900'
p2310
I01
sS'Q54DF1'
p2311
I01
sS'Q54ES8'
p2312
I01
sS'Q54ES9'
p2313
I01
sS'P10733'
p2314
I01
sS'P22685'
p2315
I01
sS'Q54NE6'
p2316
I01
sS'Q54UF7'
p2317
I01
sS'Q54PV8'
p2318
I01
sS'Q54VG4'
p2319
I01
sS'Q54F07'
p2320
I01
sS'Q8T869'
p2321
I01
sS'Q03380'
p2322
I01
sS'Q75JL7'
p2323
I01
sS'Q86A77'
p2324
I01
sS'Q54UI0'
p2325
I01
sS'Q54MB4'
p2326
I01
sS'Q559R0'
p2327
I01
sS'Q54QH0'
p2328
I01
sS'Q555L5'
p2329
I01
sS'Q54WL7'
p2330
I01
sS'Q54SU8'
p2331
I01
sS'Q95YL5'
p2332
I01
sS'Q54QE9'
p2333
I01
sS'Q76NV5'
p2334
I01
sS'Q554D9'
p2335
I01
sS'P15112'
p2336
I01
sS'Q54K46'
p2337
I01
sS'Q86HU8'
p2338
I01
sS'Q54LV1'
p2339
I01
sS'Q55EU6'
p2340
I01
stbaa(lp2341
S'20422638'
p2342
ag5
(g6
g7
NtRp2343
((dp2344
S'Q54LG3'
p2345
I01
sS'Q54Z16'
p2346
I01
sS'Q54LG5'
p2347
I01
sS'Q7Z1I0'
p2348
I01
sS'Q54EL4'
p2349
I01
sS'Q54HD2'
p2350
I01
sS'Q54FI2'
p2351
I01
sS'Q55GD2'
p2352
I01
sS'Q55BZ5'
p2353
I01
sS'Q54EL2'
p2354
I01
sS'Q8T137'
p2355
I01
sS'Q55AQ9'
p2356
I01
sS'Q54ED7'
p2357
I01
sS'Q54ED6'
p2358
I01
sS'Q54TD0'
p2359
I01
sS'Q54HW8'
p2360
I01
sS'Q8T2I5'
p2361
I01
sS'Q557I0'
p2362
I01
sS'P54661'
p2363
I01
sS'Q54ME1'
p2364
I01
sS'Q55EK7'
p2365
I01
sS'Q55DV9'
p2366
I01
sS'Q55EK4'
p2367
I01
sS'Q86HB8'
p2368
I01
sS'Q8MYE6'
p2369
I01
sS'Q54NG9'
p2370
I01
sS'Q54MM1'
p2371
I01
sS'Q55CF8'
p2372
I01
sS'Q54W02'
p2373
I01
sS'Q76P36'
p2374
I01
sS'Q54YG8'
p2375
I01
sS'Q86L05'
p2376
I01
sS'Q54EU8'
p2377
I01
sS'Q54L07'
p2378
I01
sS'Q54G47'
p2379
I01
sS'Q86K73'
p2380
I01
sS'Q54JG8'
p2381
I01
sS'Q54WD2'
p2382
I01
sS'Q95YH0'
p2383
I01
sS'Q54K36'
p2384
I01
sS'Q54T73'
p2385
I01
sS'Q55F77'
p2386
I01
sS'Q555E5'
p2387
I01
sS'Q54BQ8'
p2388
I01
sS'O76856'
p2389
I01
sS'Q94504'
p2390
I01
sS'Q54P42'
p2391
I01
sS'Q54K94'
p2392
I01
sS'Q54VJ1'
p2393
I01
sS'Q94503'
p2394
I01
sS'Q6IMN8'
p2395
I01
sS'Q54JA5'
p2396
I01
sS'Q54CF7'
p2397
I01
sS'Q8T2R4'
p2398
I01
sS'Q65YR7'
p2399
I01
sS'Q86KU5'
p2400
I01
sS'Q54TR1'
p2401
I01
sS'P34116'
p2402
I01
sS'Q55C09'
p2403
I01
sS'Q54RI2'
p2404
I01
sS'P34113'
p2405
I01
sS'P83401'
p2406
I01
sS'Q54L19'
p2407
I01
sS'Q7KWU6'
p2408
I01
sS'Q7KWP5'
p2409
I01
sS'Q54J47'
p2410
I01
sS'Q54P69'
p2411
I01
sS'Q869Q8'
p2412
I01
sS'Q75JQ8'
p2413
I01
sS'Q54EK0'
p2414
I01
sS'Q86HR3'
p2415
I01
sS'Q54VC2'
p2416
I01
sS'Q54FZ8'
p2417
I01
sS'Q75JL8'
p2418
I01
sS'Q54PM6'
p2419
I01
sS'Q54VA2'
p2420
I01
sS'Q86JL4'
p2421
I01
sS'Q86KF4'
p2422
I01
sS'Q54M57'
p2423
I01
sS'Q76NV5'
p2424
I01
sS'Q556J0'
p2425
I01
sS'Q55DF9'
p2426
I01
sS'Q86K81'
p2427
I01
sS'Q54G96'
p2428
I01
sS'Q55B99'
p2429
I01
sS'Q75JX2'
p2430
I01
sS'Q75JJ3'
p2431
I01
sS'Q86IG4'
p2432
I01
sS'Q553M7'
p2433
I01
sS'Q54BC5'
p2434
I01
sS'O77257'
p2435
I01
sS'Q54C94'
p2436
I01
sS'Q54UI0'
p2437
I01
sS'O77082'
p2438
I01
sS'Q54TS5'
p2439
I01
sS'Q54SA1'
p2440
I01
sS'Q54C12'
p2441
I01
sS'Q54DU0'
p2442
I01
sS'Q54UB6'
p2443
I01
sS'P16643'
p2444
I01
sS'Q95US4'
p2445
I01
sS'P08796'
p2446
I01
sS'Q55GQ5'
p2447
I01
sS'Q55D50'
p2448
I01
sS'Q54EW2'
p2449
I01
sS'Q54PR9'
p2450
I01
sS'Q55EM4'
p2451
I01
sS'Q54QZ5'
p2452
I01
sS'Q54R27'
p2453
I01
sS'Q23921'
p2454
I01
sS'Q86IW1'
p2455
I01
sS'Q5VJL3'
p2456
I01
sS'Q54HE7'
p2457
I01
sS'Q54NY0'
p2458
I01
sS'Q8MM62'
p2459
I01
sS'Q55GV2'
p2460
I01
sS'Q8I7T3'
p2461
I01
sS'Q54NY7'
p2462
I01
sS'P10819'
p2463
I01
sS'Q86L42'
p2464
I01
sS'Q54K12'
p2465
I01
sS'Q54SC9'
p2466
I01
sS'Q54BS2'
p2467
I01
sS'Q54I47'
p2468
I01
sS'Q55CY7'
p2469
I01
sS'Q55EZ8'
p2470
I01
sS'Q54VS8'
p2471
I01
sS'Q75JK9'
p2472
I01
sS'Q54JD4'
p2473
I01
sS'P54632'
p2474
I01
sS'Q54IY9'
p2475
I01
sS'P36411'
p2476
I01
sS'Q86IX8'
p2477
I01
sS'Q86A30'
p2478
I01
sS'P54638'
p2479
I01
sS'P54639'
p2480
I01
sS'P36415'
p2481
I01
sS'Q554H5'
p2482
I01
sS'Q55GP7'
p2483
I01
sS'Q557J0'
p2484
I01
sS'Q23858'
p2485
I01
sS'P02599'
p2486
I01
sS'Q55CF6'
p2487
I01
sS'Q86L26'
p2488
I01
sS'Q54TC4'
p2489
I01
sS'Q6S001'
p2490
I01
sS'Q54CM9'
p2491
I01
sS'Q556U5'
p2492
I01
sS'Q55BW8'
p2493
I01
sS'Q86J22'
p2494
I01
sS'Q557H9'
p2495
I01
sS'P42530'
p2496
I01
sS'Q553T9'
p2497
I01
sS'Q86J25'
p2498
I01
sS'Q54RK5'
p2499
I01
sS'Q54EN4'
p2500
I01
sS'Q86K01'
p2501
I01
sS'Q54KF7'
p2502
I01
sS'Q54S53'
p2503
I01
sS'Q54GE1'
p2504
I01
sS'Q556S7'
p2505
I01
sS'Q54MV9'
p2506
I01
sS'Q54KR8'
p2507
I01
sS'Q54DY7'
p2508
I01
sS'Q54G58'
p2509
I01
sS'Q54V27'
p2510
I01
sS'Q86II9'
p2511
I01
sS'O60952'
p2512
I01
sS'Q54MA4'
p2513
I01
sS'Q54G77'
p2514
I01
sS'Q555L5'
p2515
I01
sS'Q54DH5'
p2516
I01
sS'Q75JR3'
p2517
I01
sS'Q5FXM5'
p2518
I01
sS'Q54MX8'
p2519
I01
sS'Q54TQ9'
p2520
I01
sS'Q54JR1'
p2521
I01
sS'Q55E60'
p2522
I01
sS'Q8T5Z7'
p2523
I01
sS'Q54MX7'
p2524
I01
sS'Q556G3'
p2525
I01
sS'Q8MUF9'
p2526
I01
sS'Q553U1'
p2527
I01
sS'P42523'
p2528
I01
sS'Q54BL8'
p2529
I01
sS'P42520'
p2530
I01
sS'Q54EQ6'
p2531
I01
sS'Q54FU0'
p2532
I01
sS'Q55GT0'
p2533
I01
sS'Q54RL3'
p2534
I01
sS'Q95UC5'
p2535
I01
sS'Q54WR3'
p2536
I01
sS'Q54QD9'
p2537
I01
sS'Q54BU3'
p2538
I01
sS'Q55DL0'
p2539
I01
sS'Q552L2'
p2540
I01
sS'Q54RF4'
p2541
I01
sS'Q54EX0'
p2542
I01
sS'Q54CB7'
p2543
I01
sS'P13023'
p2544
I01
sS'Q86IC7'
p2545
I01
sS'Q86I79'
p2546
I01
sS'Q54E80'
p2547
I01
sS'Q55FK8'
p2548
I01
sS'Q54UJ7'
p2549
I01
sS'Q55C60'
p2550
I01
sS'Q86L41'
p2551
I01
sS'Q86KC1'
p2552
I01
sS'Q558X5'
p2553
I01
sS'Q54VR1'
p2554
I01
sS'P54657'
p2555
I01
sS'P54654'
p2556
I01
sS'Q54L58'
p2557
I01
sS'Q557J6'
p2558
I01
sS'Q76NV1'
p2559
I01
sS'Q54ZD1'
p2560
I01
sS'Q54Q99'
p2561
I01
sS'Q8MP20'
p2562
I01
sS'Q8SSW4'
p2563
I01
sS'Q8T6B8'
p2564
I01
sS'Q54BK2'
p2565
I01
sS'Q557M8'
p2566
I01
sS'P46793'
p2567
I01
sS'Q54X80'
p2568
I01
sS'Q54DP5'
p2569
I01
sS'Q86HT1'
p2570
I01
sS'Q76NW2'
p2571
I01
sS'Q55B15'
p2572
I01
sS'Q55F70'
p2573
I01
sS'Q54N76'
p2574
I01
sS'Q54I92'
p2575
I01
sS'Q54FV5'
p2576
I01
sS'Q55BJ6'
p2577
I01
sS'Q8T1V4'
p2578
I01
sS'Q555C6'
p2579
I01
sS'Q9U7C7'
p2580
I01
sS'Q54U91'
p2581
I01
sS'Q54J08'
p2582
I01
sS'Q55GU8'
p2583
I01
sS'Q54T09'
p2584
I01
sS'P90526'
p2585
I01
sS'Q54WD8'
p2586
I01
sS'Q54QG1'
p2587
I01
sS'Q55D91'
p2588
I01
sS'Q55D84'
p2589
I01
sS'P0CG80'
p2590
I01
sS'Q55DC6'
p2591
I01
sS'Q55DB1'
p2592
I01
sS'Q1ZXC5'
p2593
I01
sS'O96070'
p2594
I01
sS'Q55C74'
p2595
I01
sS'Q54R55'
p2596
I01
sS'Q54E04'
p2597
I01
sS'Q556V7'
p2598
I01
sS'Q7KWS9'
p2599
I01
sS'Q54JJ8'
p2600
I01
sS'Q557K3'
p2601
I01
sS'Q54ZN0'
p2602
I01
sS'P54640'
p2603
I01
sS'Q94494'
p2604
I01
sS'Q54KP3'
p2605
I01
sS'Q551C1'
p2606
I01
sS'Q55D04'
p2607
I01
sS'Q86JH5'
p2608
I01
sS'Q55CT9'
p2609
I01
sS'Q54FW9'
p2610
I01
sS'Q86A67'
p2611
I01
sS'P14326'
p2612
I01
sS'Q557E0'
p2613
I01
sS'Q54X91'
p2614
I01
sS'Q54DQ9'
p2615
I01
sS'P22683'
p2616
I01
sS'Q557I4'
p2617
I01
sS'Q54K56'
p2618
I01
sS'Q75K27'
p2619
I01
sS'Q54K50'
p2620
I01
sS'B0G160'
p2621
I01
sS'Q54CY6'
p2622
I01
sS'Q8T2U1'
p2623
I01
sS'P34090'
p2624
I01
sS'Q556I5'
p2625
I01
sS'Q54Z69'
p2626
I01
sS'Q54F07'
p2627
I01
sS'Q8T869'
p2628
I01
sS'Q54XV7'
p2629
I01
sS'P90532'
p2630
I01
sS'P34098'
p2631
I01
sS'P29447'
p2632
I01
sS'Q54RN1'
p2633
I01
sS'Q557C7'
p2634
I01
sS'Q54HA1'
p2635
I01
sS'Q5XM24'
p2636
I01
sS'Q54IJ6'
p2637
I01
sS'Q54TT6'
p2638
I01
sS'Q55E77'
p2639
I01
sS'Q55FQ6'
p2640
I01
sS'Q55EM3'
p2641
I01
sS'Q23892'
p2642
I01
sS'Q54J53'
p2643
I01
sS'Q55GC7'
p2644
I01
sS'Q54HG2'
p2645
I01
sS'Q54UR7'
p2646
I01
sS'Q86B07'
p2647
I01
sS'Q54XG9'
p2648
I01
sS'Q54JA3'
p2649
I01
sS'Q1ZXD1'
p2650
I01
sS'Q9GS21'
p2651
I01
sS'Q55CU9'
p2652
I01
sS'Q9GRF8'
p2653
I01
sS'Q55GS3'
p2654
I01
sS'Q54YZ9'
p2655
I01
sS'Q54XG2'
p2656
I01
sS'Q94469'
p2657
I01
sS'Q54H23'
p2658
I01
sS'Q54YD2'
p2659
I01
sS'Q54KZ1'
p2660
I01
sS'Q54XN0'
p2661
I01
sS'Q54N35'
p2662
I01
sS'Q54IS1'
p2663
I01
sS'Q55AB5'
p2664
I01
sS'Q54P96'
p2665
I01
sS'Q54LN4'
p2666
I01
sS'Q54DV5'
p2667
I01
sS'Q55F41'
p2668
I01
sS'Q550U9'
p2669
I01
sS'Q54F13'
p2670
I01
sS'Q54GI7'
p2671
I01
sS'Q552M0'
p2672
I01
sS'Q54F16'
p2673
I01
sS'Q54YD1'
p2674
I01
sS'Q55EJ2'
p2675
I01
sS'Q54N70'
p2676
I01
sS'Q86AU1'
p2677
I01
sS'P51405'
p2678
I01
sS'Q54ZW5'
p2679
I01
sS'Q86AU2'
p2680
I01
stbaa(lp2681
S'19482547'
p2682
ag5
(g6
g7
NtRp2683
((dp2684
S'P32256'
p2685
I01
sS'P32255'
p2686
I01
sS'Q54UH8'
p2687
I01
sS'Q55BM4'
p2688
I01
sS'Q54DA8'
p2689
I01
sS'Q54MT0'
p2690
I01
sS'P0DJ26'
p2691
I01
sS'P0DJ27'
p2692
I01
sS'Q54D04'
p2693
I01
sS'Q54RA8'
p2694
I01
sS'P54661'
p2695
I01
sS'Q54VI6'
p2696
I01
sS'Q75JR3'
p2697
I01
sS'Q7KWQ2'
p2698
I01
sS'Q86JA1'
p2699
I01
sS'P33519'
p2700
I01
sS'Q54PX6'
p2701
I01
sS'Q9UAG7'
p2702
I01
sS'Q86A17'
p2703
I01
sS'Q55C21'
p2704
I01
sS'Q75JY8'
p2705
I01
sS'P34118'
p2706
I01
sS'Q54XZ0'
p2707
I01
sS'Q65YR8'
p2708
I01
sS'Q75JQ1'
p2709
I01
sS'Q55GQ5'
p2710
I01
sS'Q54M58'
p2711
I01
sS'Q554U9'
p2712
I01
sS'Q55CS9'
p2713
I01
sS'Q54VA2'
p2714
I01
sS'Q54BI8'
p2715
I01
sS'Q95YL5'
p2716
I01
sS'Q553V1'
p2717
I01
sS'Q54LT2'
p2718
I01
sS'Q54WR9'
p2719
I01
sS'P27133'
p2720
I01
sS'P22887'
p2721
I01
sS'Q27562'
p2722
I01
sS'Q54X53'
p2723
I01
sS'Q1ZXG4'
p2724
I01
sS'Q54RC0'
p2725
I01
sS'Q550R2'
p2726
I01
sS'P54632'
p2727
I01
sS'Q54EW8'
p2728
I01
sS'Q23921'
p2729
I01
sS'Q54TY4'
p2730
I01
sS'Q54YA2'
p2731
I01
sS'Q54XR4'
p2732
I01
sS'Q54D73'
p2733
I01
sS'Q54XC1'
p2734
I01
sS'Q558Z0'
p2735
I01
sS'P29505'
p2736
I01
sS'P24639'
p2737
I01
sS'P10819'
p2738
I01
sS'P16168'
p2739
I01
sS'Q54HR9'
p2740
I01
sS'Q54B68'
p2741
I01
sS'P36415'
p2742
I01
sS'Q54IF7'
p2743
I01
sS'Q23858'
p2744
I01
sS'Q86IA3'
p2745
I01
sS'Q54MB4'
p2746
I01
sS'Q54UM3'
p2747
I01
sS'P02886'
p2748
I01
sS'Q54J66'
p2749
I01
sS'P42530'
p2750
I01
sS'O96626'
p2751
I01
sS'Q54HB2'
p2752
I01
sS'Q557D2'
p2753
I01
sS'Q54EN4'
p2754
I01
sS'Q9U3X4'
p2755
I01
sS'Q54GE3'
p2756
I01
sS'Q76NU3'
p2757
I01
sS'Q54MA6'
p2758
I01
sS'Q54PX9'
p2759
I01
sS'Q9GRX6'
p2760
I01
sS'Q54PA9'
p2761
I01
sS'Q54JS9'
p2762
I01
sS'Q54NT1'
p2763
I01
sS'Q964D8'
p2764
I01
sS'P13651'
p2765
I01
sS'P42528'
p2766
I01
sS'Q9GPM4'
p2767
I01
sS'Q55EX9'
p2768
I01
sS'Q76NU1'
p2769
I01
sS'Q55BV5'
p2770
I01
sS'P42526'
p2771
I01
sS'Q55GT3'
p2772
I01
sS'P24005'
p2773
I01
sS'P09556'
p2774
I01
sS'Q557E0'
p2775
I01
sS'P13021'
p2776
I01
sS'P13022'
p2777
I01
sS'Q55BY1'
p2778
I01
sS'Q55FK4'
p2779
I01
sS'Q75JD5'
p2780
I01
sS'Q54PN7'
p2781
I01
sS'Q86IC8'
p2782
I01
sS'Q54R45'
p2783
I01
sS'P54657'
p2784
I01
sS'O77229'
p2785
I01
sS'P54651'
p2786
I01
sS'B0G196'
p2787
I01
sS'P54659'
p2788
I01
sS'Q54BM2'
p2789
I01
sS'Q54I98'
p2790
I01
sS'Q54F74'
p2791
I01
sS'P90529'
p2792
I01
sS'Q54JD4'
p2793
I01
sS'P90526'
p2794
I01
sS'Q54JD9'
p2795
I01
sS'Q86IJ1'
p2796
I01
sS'P36408'
p2797
I01
sS'Q94469'
p2798
I01
sS'P13231'
p2799
I01
sS'Q54KB7'
p2800
I01
sS'P54647'
p2801
I01
sS'P34123'
p2802
I01
sS'P34121'
p2803
I01
sS'Q9GRF8'
p2804
I01
sS'Q54F93'
p2805
I01
sS'Q54DF1'
p2806
I01
sS'Q8T131'
p2807
I01
sS'P10733'
p2808
I01
sS'Q86A67'
p2809
I01
sS'P14326'
p2810
I01
sS'P22685'
p2811
I01
sS'Q86HU8'
p2812
I01
sS'Q6IMN8'
p2813
I01
sS'Q58A41'
p2814
I01
sS'Q55EZ6'
p2815
I01
sS'Q95UQ1'
p2816
I01
sS'P34093'
p2817
I01
sS'Q553S7'
p2818
I01
sS'Q55DR6'
p2819
I01
sS'Q54F07'
p2820
I01
sS'Q8T869'
p2821
I01
sS'P90532'
p2822
I01
sS'P83401'
p2823
I01
sS'Q54P64'
p2824
I01
sS'P15808'
p2825
I01
sS'C7FZZ0'
p2826
I01
sS'Q54MB5'
p2827
I01
sS'Q54HG2'
p2828
I01
sS'P54638'
p2829
I01
sS'Q54Y98'
p2830
I01
sS'Q555L5'
p2831
I01
sS'Q54KR1'
p2832
I01
sS'Q54QQ0'
p2833
I01
sS'Q54Z26'
p2834
I01
sS'Q54PF9'
p2835
I01
sS'Q76NV5'
p2836
I01
sS'P15112'
p2837
I01
sS'Q54TG6'
p2838
I01
sS'Q54FX9'
p2839
I01
sS'Q54MR6'
p2840
I01
stbaa(lp2841
S'8710499'
p2842
ag5
(g6
g7
NtRp2843
((dp2844
S'B0M0P5'
p2845
I01
stbaa(lp2846
S'21193547'
p2847
ag5
(g6
g7
NtRp2848
((dp2849
S'Q550K3'
p2850
I01
sS'Q54CS2'
p2851
I01
sS'B0M0P5'
p2852
I01
stbaa(lp2853
S'9649625'
p2854
ag5
(g6
g7
NtRp2855
((dp2856
S'Q55G81'
p2857
I01
sS'B0M0P5'
p2858
I01
sS'O00835'
p2859
I01
stbaa(lp2860
S'17659086'
p2861
ag5
(g6
g7
NtRp2862
((dp2863
S'Q54JN7'
p2864
I01
sS'Q54C50'
p2865
I01
sS'Q54E42'
p2866
I01
sS'Q54QV3'
p2867
I01
sS'Q9GV71'
p2868
I01
sS'Q54DH4'
p2869
I01
sS'Q54FI4'
p2870
I01
sS'Q54SK0'
p2871
I01
sS'Q94489'
p2872
I01
sS'Q54Q13'
p2873
I01
sS'Q54XN8'
p2874
I01
sS'Q54T91'
p2875
I01
sS'Q54TS2'
p2876
I01
sS'Q76P07'
p2877
I01
sS'Q54B33'
p2878
I01
sS'O15736'
p2879
I01
sS'Q54PE1'
p2880
I01
sS'Q551S0'
p2881
I01
sS'Q54DX3'
p2882
I01
sS'Q8T191'
p2883
I01
sS'P35401'
p2884
I01
sS'Q23925'
p2885
I01
sS'Q54RA9'
p2886
I01
sS'Q55BI3'
p2887
I01
sS'Q54XY4'
p2888
I01
sS'Q54EJ9'
p2889
I01
sS'P42525'
p2890
I01
sS'Q54YA6'
p2891
I01
sS'Q54SH6'
p2892
I01
sS'O76765'
p2893
I01
sS'Q86JF2'
p2894
I01
sS'Q54NL0'
p2895
I01
sS'Q86A78'
p2896
I01
sS'Q55BN0'
p2897
I01
sS'Q54RN4'
p2898
I01
sS'P34098'
p2899
I01
sS'Q54NL1'
p2900
I01
sS'Q1ZXJ0'
p2901
I01
sS'Q55C49'
p2902
I01
sS'P13466'
p2903
I01
sS'Q54T23'
p2904
I01
sS'Q55GV1'
p2905
I01
sS'Q54NS0'
p2906
I01
sS'O77203'
p2907
I01
sS'Q54FJ6'
p2908
I01
sS'Q86M88'
p2909
I01
sS'O00910'
p2910
I01
sS'B0M0P8'
p2911
I01
sS'Q54HP0'
p2912
I01
sS'P36417'
p2913
I01
sS'Q1ZXD6'
p2914
I01
sS'Q55AV3'
p2915
I01
sS'Q54KI3'
p2916
I01
sS'P18160'
p2917
I01
sS'Q551Y7'
p2918
I01
sS'Q54U87'
p2919
I01
sS'Q54PQ4'
p2920
I01
sS'Q54DG1'
p2921
I01
sS'Q54LY5'
p2922
I01
sS'Q54C04'
p2923
I01
sS'Q55CL6'
p2924
I01
sS'Q54HV0'
p2925
I01
sS'Q54IQ9'
p2926
I01
sS'Q553M8'
p2927
I01
sS'Q54W34'
p2928
I01
sS'Q8T6J2'
p2929
I01
sS'Q86AS3'
p2930
I01
sS'Q54K32'
p2931
I01
sS'Q54Y53'
p2932
I01
sS'Q54RQ8'
p2933
I01
sS'Q23917'
p2934
I01
sS'Q54RR8'
p2935
I01
sS'P54683'
p2936
I01
sS'Q55F68'
p2937
I01
sS'Q54G37'
p2938
I01
sS'Q54V32'
p2939
I01
sS'Q869Q6'
p2940
I01
sS'Q55GS3'
p2941
I01
sS'Q55FD8'
p2942
I01
sS'Q54DL1'
p2943
I01
sS'Q557J7'
p2944
I01
stbaa(lp2945
S'16086850'
p2946
ag5
(g6
g7
NtRp2947
((dp2948
S'B0M0P8'
p2949
I01
sS'Q8IS18'
p2950
I01
stbaa(lp2951
S'21190565'
p2952
ag5
(g6
g7
NtRp2953
((dp2954
S'P34092'
p2955
I01
sS'P42528'
p2956
I01
sS'Q54GX7'
p2957
I01
sS'Q553U6'
p2958
I01
sS'C7FZZ0'
p2959
I01
sS'O96621'
p2960
I01
sS'O96622'
p2961
I01
sS'O96623'
p2962
I01
sS'O96624'
p2963
I01
sS'O96625'
p2964
I01
sS'O96626'
p2965
I01
sS'P07829'
p2966
I01
sS'P07830'
p2967
I01
sS'P27133'
p2968
I01
stbaa(lp2969
S'21401524'
p2970
ag5
(g6
g7
NtRp2971
((dp2972
S'P42528'
p2973
I01
sS'C7FZZ0'
p2974
I01
sS'O96621'
p2975
I01
sS'O96622'
p2976
I01
sS'O96623'
p2977
I01
sS'O96624'
p2978
I01
sS'O96625'
p2979
I01
sS'O96626'
p2980
I01
sS'Q54X65'
p2981
I01
sS'Q9GSG9'
p2982
I01
stbaa(lp2983
S'9171087'
p2984
ag5
(g6
g7
NtRp2985
((dp2986
S'Q55G81'
p2987
I01
sS'O00835'
p2988
I01
stbaa(lp2989
S'9765592'
p2990
ag5
(g6
g7
NtRp2991
((dp2992
S'O00835'
p2993
I01
stbaa(lp2994
S'9226443'
p2995
ag5
(g6
g7
NtRp2996
((dp2997
S'O00841'
p2998
I01
stbaa(lp2999
S'18701541'
p3000
ag5
(g6
g7
NtRp3001
((dp3002
S'Q55BY9'
p3003
I01
sS'Q54KJ1'
p3004
I01
sS'Q54LR0'
p3005
I01
sS'O00841'
p3006
I01
sS'Q54LR3'
p3007
I01
stbaa(lp3008
S'21085675'
p3009
ag5
(g6
g7
NtRp3010
((dp3011
S'P34144'
p3012
I01
sS'O00899'
p3013
I01
sS'P13466'
p3014
I01
sS'Q54HG2'
p3015
I01
stbaa(lp3016
S'12771188'
p3017
ag5
(g6
g7
NtRp3018
((dp3019
S'P54681'
p3020
I01
sS'O00899'
p3021
I01
sS'Q54BD4'
p3022
I01
stbaa(lp3023
S'15740584'
p3024
ag5
(g6
g7
NtRp3025
((dp3026
S'P26199'
p3027
I01
sS'Q8IS21'
p3028
I01
sS'O00899'
p3029
I01
sS'P32254'
p3030
I01
sS'Q54HG2'
p3031
I01
stbaa(lp3032
S'23264736'
p3033
ag5
(g6
g7
NtRp3034
((dp3035
S'O00909'
p3036
I01
sS'Q54WI0'
p3037
I01
stbaa(lp3038
S'15193148'
p3039
ag5
(g6
g7
NtRp3040
((dp3041
S'Q550U9'
p3042
I01
sS'O00909'
p3043
I01
stbaa(lp3044
S'18634783'
p3045
ag5
(g6
g7
NtRp3046
((dp3047
S'Q54JY7'
p3048
I01
sS'O00909'
p3049
I01
sS'P25870'
p3050
I01
sS'Q9GPF1'
p3051
I01
sS'Q54NW7'
p3052
I01
sS'P54672'
p3053
I01
sS'Q54WN0'
p3054
I01
sS'Q556J8'
p3055
I01
sS'Q54CK6'
p3056
I01
sS'Q8MN58'
p3057
I01
sS'Q553P5'
p3058
I01
stbaa(lp3059
S'20071332'
p3060
ag5
(g6
g7
NtRp3061
((dp3062
S'O00909'
p3063
I01
sS'Q55E54'
p3064
I01
stbaa(lp3065
S'21179207'
p3066
ag5
(g6
g7
NtRp3067
((dp3068
S'O00909'
p3069
I01
sS'Q54CH1'
p3070
I01
stbaa(lp3071
S'15053873'
p3072
ag5
(g6
g7
NtRp3073
((dp3074
S'O00910'
p3075
I01
stbaa(lp3076
S'9200609'
p3077
ag5
(g6
g7
NtRp3078
((dp3079
S'O00910'
p3080
I01
stbaa(lp3081
S'11032815'
p3082
ag5
(g6
g7
NtRp3083
((dp3084
S'O00910'
p3085
I01
sS'P51136'
p3086
I01
stbaa(lp3087
S'12506009'
p3088
ag5
(g6
g7
NtRp3089
((dp3090
S'O00910'
p3091
I01
sS'Q54BD4'
p3092
I01
stbaa(lp3093
S'9670017'
p3094
ag5
(g6
g7
NtRp3095
((dp3096
S'O00910'
p3097
I01
sS'P13773'
p3098
I01
stbaa(lp3099
S'15733068'
p3100
ag5
(g6
g7
NtRp3101
((dp3102
S'O00910'
p3103
I01
sS'Q54Z60'
p3104
I01
sS'Q557X0'
p3105
I01
stbaa(lp3106
S'15470642'
p3107
ag5
(g6
g7
NtRp3108
((dp3109
S'O00910'
p3110
I01
stbaa(lp3111
S'10393118'
p3112
ag5
(g6
g7
NtRp3113
((dp3114
S'O00910'
p3115
I01
stbaa(lp3116
S'16750281'
p3117
ag5
(g6
g7
NtRp3118
((dp3119
S'Q54WZ2'
p3120
I01
sS'O15706'
p3121
I01
stbaa(lp3122
S'14561408'
p3123
ag5
(g6
g7
NtRp3124
((dp3125
S'O15706'
p3126
I01
stbaa(lp3127
S'9276759'
p3128
ag5
(g6
g7
NtRp3129
((dp3130
S'O15706'
p3131
I01
stbaa(lp3132
S'16445684'
p3133
ag5
(g6
g7
NtRp3134
((dp3135
S'Q9XYS8'
p3136
I01
sS'P36411'
p3137
I01
sS'Q869V1'
p3138
I01
sS'O15706'
p3139
I01
sS'Q54CK6'
p3140
I01
sS'Q76NU1'
p3141
I01
stbaa(lp3142
S'10402673'
p3143
ag5
(g6
g7
NtRp3144
((dp3145
S'Q551S0'
p3146
I01
sS'O15736'
p3147
I01
sS'Q55FG3'
p3148
I01
stbaa(lp3149
S'9585512'
p3150
ag5
(g6
g7
NtRp3151
((dp3152
S'O15743'
p3153
I01
stbaa(lp3154
S'9620859'
p3155
ag5
(g6
g7
NtRp3156
((dp3157
S'O15816'
p3158
I01
stbaa(lp3159
S'22980139'
p3160
ag5
(g6
g7
NtRp3161
((dp3162
S'Q94464'
p3163
I01
sS'Q54S83'
p3164
I01
sS'O15818'
p3165
I01
stbaa(lp3166
S'9207087'
p3167
ag5
(g6
g7
NtRp3168
((dp3169
S'O15818'
p3170
I01
stbaa(lp3171
S'11229601'
p3172
ag5
(g6
g7
NtRp3173
((dp3174
S'O60950'
p3175
I01
stbaa(lp3176
S'23132928'
p3177
ag5
(g6
g7
NtRp3178
((dp3179
S'P32253'
p3180
I01
sS'O60952'
p3181
I01
sS'P35401'
p3182
I01
sS'P27133'
p3183
I01
sS'Q02158'
p3184
I01
sS'Q8T9S7'
p3185
I01
sS'Q54HG2'
p3186
I01
sS'P15064'
p3187
I01
sS'P08799'
p3188
I01
sS'P54674'
p3189
I01
sS'Q9NHF6'
p3190
I01
sS'P54673'
p3191
I01
stbaa(lp3192
S'14711408'
p3193
ag5
(g6
g7
NtRp3194
((dp3195
S'P42528'
p3196
I01
sS'O60952'
p3197
I01
sS'P13466'
p3198
I01
stbaa(lp3199
S'15894626'
p3200
ag5
(g6
g7
NtRp3201
((dp3202
S'P42528'
p3203
I01
sS'O60952'
p3204
I01
sS'O96621'
p3205
I01
sS'O96622'
p3206
I01
sS'O96623'
p3207
I01
sS'O96624'
p3208
I01
sS'O96625'
p3209
I01
sS'O96626'
p3210
I01
sS'P08799'
p3211
I01
sS'P13466'
p3212
I01
stbaa(lp3213
S'15527790'
p3214
ag5
(g6
g7
NtRp3215
((dp3216
S'Q54LP8'
p3217
I01
sS'Q55BA8'
p3218
I01
sS'O60952'
p3219
I01
sS'P13466'
p3220
I01
sS'P32255'
p3221
I01
stbaa(lp3222
S'11390363'
p3223
ag5
(g6
g7
NtRp3224
((dp3225
S'O60999'
p3226
I01
sS'Q9Y0T2'
p3227
I01
stbaa(lp3228
S'9582328'
p3229
ag5
(g6
g7
NtRp3230
((dp3231
S'O61122'
p3232
I01
stbaa(lp3233
S'18042625'
p3234
ag5
(g6
g7
NtRp3235
((dp3236
S'O61122'
p3237
I01
stbaa(lp3238
S'16842885'
p3239
ag5
(g6
g7
NtRp3240
((dp3241
S'O61125'
p3242
I01
stbaa(lp3243
S'17362909'
p3244
ag5
(g6
g7
NtRp3245
((dp3246
S'O61125'
p3247
I01
stbaa(lp3248
S'9802899'
p3249
ag5
(g6
g7
NtRp3250
((dp3251
S'O76187'
p3252
I01
sS'P34149'
p3253
I01
sS'Q23862'
p3254
I01
stbaa(lp3255
S'9700162'
p3256
ag5
(g6
g7
NtRp3257
((dp3258
S'O76329'
p3259
I01
stbaa(lp3260
S'18266910'
p3261
ag5
(g6
g7
NtRp3262
((dp3263
S'Q558Z2'
p3264
I01
sS'O76329'
p3265
I01
stbaa(lp3266
S'10704840'
p3267
ag5
(g6
g7
NtRp3268
((dp3269
S'O76329'
p3270
I01
stbaa(lp3271
S'11352940'
p3272
ag5
(g6
g7
NtRp3273
((dp3274
S'O76765'
p3275
I01
stbaa(lp3276
S'17553489'
p3277
ag5
(g6
g7
NtRp3278
((dp3279
S'O96621'
p3280
I01
sS'O76765'
p3281
I01
sS'O96623'
p3282
I01
stbaa(lp3283
S'11854420'
p3284
ag5
(g6
g7
NtRp3285
((dp3286
S'P36410'
p3287
I01
sS'P36411'
p3288
I01
sS'Q54E04'
p3289
I01
sS'Q9XYS8'
p3290
I01
sS'Q86JF2'
p3291
I01
sS'O76856'
p3292
I01
stbaa(lp3293
S'7916591'
p3294
ag5
(g6
g7
NtRp3295
((dp3296
S'P51405'
p3297
I01
sS'O77082'
p3298
I01
stbaa(lp3299
S'21169559'
p3300
ag5
(g6
g7
NtRp3301
((dp3302
S'P54644'
p3303
I01
sS'Q8T9S7'
p3304
I01
sS'O77203'
p3305
I01
sS'Q55D99'
p3306
I01
stbaa(lp3307
S'16079174'
p3308
ag5
(g6
g7
NtRp3309
((dp3310
S'O77203'
p3311
I01
sS'P54632'
p3312
I01
sS'Q54D08'
p3313
I01
sS'P36415'
p3314
I01
sS'P54651'
p3315
I01
sS'Q9Y0C9'
p3316
I01
sS'Q86C65'
p3317
I01
stbaa(lp3318
S'12413895'
p3319
ag5
(g6
g7
NtRp3320
((dp3321
S'O77203'
p3322
I01
stbaa(lp3323
S'9389653'
p3324
ag5
(g6
g7
NtRp3325
((dp3326
S'O77203'
p3327
I01
stbaa(lp3328
S'22266904'
p3329
ag5
(g6
g7
NtRp3330
((dp3331
S'O77203'
p3332
I01
sS'Q54D08'
p3333
I01
sS'Q554J2'
p3334
I01
sS'P54644'
p3335
I01
sS'Q55BR7'
p3336
I01
sS'Q9Y0C9'
p3337
I01
sS'Q550Q4'
p3338
I01
sS'Q54VB2'
p3339
I01
stbaa(lp3340
S'18635356'
p3341
ag5
(g6
g7
NtRp3342
((dp3343
S'P54644'
p3344
I01
sS'P28178'
p3345
I01
sS'O77203'
p3346
I01
sS'P36408'
p3347
I01
stbaa(lp3348
S'11004503'
p3349
ag5
(g6
g7
NtRp3350
((dp3351
S'O77229'
p3352
I01
sS'Q55DH8'
p3353
I01
stbaa(lp3354
S'2921242'
p3355
ag5
(g6
g7
NtRp3356
((dp3357
S'O77229'
p3358
I01
stbaa(lp3359
S'11782526'
p3360
ag5
(g6
g7
NtRp3361
((dp3362
S'O77229'
p3363
I01
stbaa(lp3364
S'20408569'
p3365
ag5
(g6
g7
NtRp3366
((dp3367
S'Q54D04'
p3368
I01
sS'Q54PX9'
p3369
I01
sS'Q54D21'
p3370
I01
sS'Q86K89'
p3371
I01
sS'Q8TA03'
p3372
I01
sS'Q54Z13'
p3373
I01
sS'Q55D61'
p3374
I01
sS'Q54KN7'
p3375
I01
sS'Q556G3'
p3376
I01
sS'Q86HW7'
p3377
I01
sS'Q54NE6'
p3378
I01
sS'Q75JR3'
p3379
I01
sS'Q94469'
p3380
I01
sS'Q23921'
p3381
I01
sS'Q54X73'
p3382
I01
sS'P54872'
p3383
I01
sS'Q95UQ1'
p3384
I01
sS'Q54F07'
p3385
I01
sS'Q54YA0'
p3386
I01
sS'Q556P4'
p3387
I01
sS'P83401'
p3388
I01
sS'Q557E0'
p3389
I01
sS'Q54P64'
p3390
I01
sS'Q55GC5'
p3391
I01
sS'P29505'
p3392
I01
sS'Q54DK1'
p3393
I01
sS'Q55FM7'
p3394
I01
sS'P54654'
p3395
I01
sS'O77229'
p3396
I01
sS'Q54DA8'
p3397
I01
sS'P0CT32'
p3398
I01
sS'Q65YR8'
p3399
I01
sS'Q54JK3'
p3400
I01
sS'Q964D8'
p3401
I01
sS'Q23919'
p3402
I01
sS'Q553V1'
p3403
I01
sS'P46794'
p3404
I01
sS'Q55GQ5'
p3405
I01
sS'P42530'
p3406
I01
sS'Q54JD9'
p3407
I01
stbaa(lp3408
S'17825085'
p3409
ag5
(g6
g7
NtRp3410
((dp3411
S'O96042'
p3412
I01
stbaa(lp3413
S'9813183'
p3414
ag5
(g6
g7
NtRp3415
((dp3416
S'O96042'
p3417
I01
stbaa(lp3418
S'10712614'
p3419
ag5
(g6
g7
NtRp3420
((dp3421
S'O96099'
p3422
I01
stbaa(lp3423
S'15509655'
p3424
ag5
(g6
g7
NtRp3425
((dp3426
S'P34144'
p3427
I01
sS'P34145'
p3428
I01
sS'P34146'
p3429
I01
sS'P34147'
p3430
I01
sS'P34143'
p3431
I01
sS'O96390'
p3432
I01
sS'P34149'
p3433
I01
sS'Q9GPS3'
p3434
I01
sS'Q869N2'
p3435
I01
stbaa(lp3436
S'16573737'
p3437
ag5
(g6
g7
NtRp3438
((dp3439
S'P34145'
p3440
I01
sS'P34146'
p3441
I01
sS'O96390'
p3442
I01
sS'Q9GPS0'
p3443
I01
sS'Q9GPS3'
p3444
I01
sS'Q23862'
p3445
I01
sS'Q9GPQ8'
p3446
I01
sS'Q9GPQ9'
p3447
I01
stbaa(lp3448
S'9832508'
p3449
ag5
(g6
g7
NtRp3450
((dp3451
S'Q94490'
p3452
I01
sS'Q54R82'
p3453
I01
sS'O96612'
p3454
I01
stbaa(lp3455
S'17296313'
p3456
ag5
(g6
g7
NtRp3457
((dp3458
S'P42528'
p3459
I01
sS'O96621'
p3460
I01
sS'O96622'
p3461
I01
sS'O96623'
p3462
I01
sS'O96624'
p3463
I01
sS'O96625'
p3464
I01
sS'O96626'
p3465
I01
stbaa(lp3466
S'15726806'
p3467
ag5
(g6
g7
NtRp3468
((dp3469
S'P27133'
p3470
I01
sS'P07829'
p3471
I01
sS'Q8T8M2'
p3472
I01
sS'P42528'
p3473
I01
sS'Q553U6'
p3474
I01
sS'Q54SP2'
p3475
I01
sS'Q95UQ1'
p3476
I01
sS'P26199'
p3477
I01
sS'Q54WH2'
p3478
I01
sS'Q9GSG9'
p3479
I01
sS'P07830'
p3480
I01
sS'Q54GX7'
p3481
I01
sS'Q95VZ3'
p3482
I01
sS'O96621'
p3483
I01
sS'O96622'
p3484
I01
sS'O96623'
p3485
I01
sS'O96624'
p3486
I01
sS'O96625'
p3487
I01
sS'O96626'
p3488
I01
sS'Q54NF8'
p3489
I01
sS'P26200'
p3490
I01
sS'Q95UP9'
p3491
I01
stbaa(lp3492
S'22891261'
p3493
ag5
(g6
g7
NtRp3494
((dp3495
S'P42528'
p3496
I01
sS'Q54NF8'
p3497
I01
sS'O96621'
p3498
I01
sS'O96622'
p3499
I01
sS'O96623'
p3500
I01
sS'O96624'
p3501
I01
sS'O96625'
p3502
I01
sS'O96626'
p3503
I01
sS'Q54X65'
p3504
I01
sS'Q55FT9'
p3505
I01
sS'Q869Q3'
p3506
I01
sS'Q6UK63'
p3507
I01
stbaa(lp3508
S'23223240'
p3509
ag5
(g6
g7
NtRp3510
((dp3511
S'O96621'
p3512
I01
stbaa(lp3513
S'22264729'
p3514
ag5
(g6
g7
NtRp3515
((dp3516
S'Q54WH5'
p3517
I01
sS'Q86I66'
p3518
I01
sS'Q54DW1'
p3519
I01
sS'O96621'
p3520
I01
sS'P34148'
p3521
I01
sS'P36408'
p3522
I01
stbaa(lp3523
S'16624291'
p3524
ag5
(g6
g7
NtRp3525
((dp3526
S'O96621'
p3527
I01
sS'P08799'
p3528
I01
stbaa(lp3529
S'15496465'
p3530
ag5
(g6
g7
NtRp3531
((dp3532
S'Q54HE7'
p3533
I01
sS'O96621'
p3534
I01
sS'Q54I79'
p3535
I01
stbaa(lp3536
S'22366457'
p3537
ag5
(g6
g7
NtRp3538
((dp3539
S'P34144'
p3540
I01
sS'P13021'
p3541
I01
sS'P13022'
p3542
I01
sS'P32256'
p3543
I01
sS'Q86I66'
p3544
I01
sS'Q54WH2'
p3545
I01
sS'P32255'
p3546
I01
sS'Q54CA8'
p3547
I01
sS'O96622'
p3548
I01
sS'O96623'
p3549
I01
sS'P10733'
p3550
I01
stbaa(lp3551
S'14710184'
p3552
ag5
(g6
g7
NtRp3553
((dp3554
S'Q551V8'
p3555
I01
sS'Q553Y7'
p3556
I01
sS'O96622'
p3557
I01
sS'P42528'
p3558
I01
stbaa(lp3559
S'16971511'
p3560
ag5
(g6
g7
NtRp3561
((dp3562
S'P34092'
p3563
I01
sS'O96622'
p3564
I01
sS'P42528'
p3565
I01
sS'Q54E04'
p3566
I01
stbaa(lp3567
S'19589376'
p3568
ag5
(g6
g7
NtRp3569
((dp3570
S'P32253'
p3571
I01
sS'Q4W6B5'
p3572
I01
sS'P02887'
p3573
I01
sS'P27133'
p3574
I01
sS'O96623'
p3575
I01
sS'P42530'
p3576
I01
sS'O96625'
p3577
I01
sS'P36415'
p3578
I01
sS'P54657'
p3579
I01
sS'P15064'
p3580
I01
sS'P18613'
p3581
I01
sS'P14132'
p3582
I01
sS'Q9BKJ9'
p3583
I01
sS'Q54HG2'
p3584
I01
sS'P54654'
p3585
I01
sS'P36408'
p3586
I01
stbaa(lp3587
S'9837757'
p3588
ag5
(g6
g7
NtRp3589
((dp3590
S'O96759'
p3591
I01
stbaa(lp3592
S'17562315'
p3593
ag5
(g6
g7
NtRp3594
((dp3595
S'O96759'
p3596
I01
stbaa(lp3597
S'17606910'
p3598
ag5
(g6
g7
NtRp3599
((dp3600
S'O96759'
p3601
I01
stbaa(lp3602
S'18636095'
p3603
ag5
(g6
g7
NtRp3604
((dp3605
S'P20790'
p3606
I01
sS'Q550H6'
p3607
I01
sS'P36410'
p3608
I01
sS'P36412'
p3609
I01
sS'Q55AV3'
p3610
I01
sS'Q55DM1'
p3611
I01
sS'Q54UM5'
p3612
I01
sS'O96904'
p3613
I01
stbaa(lp3614
S'10369671'
p3615
ag5
(g6
g7
NtRp3616
((dp3617
S'O96904'
p3618
I01
stbaa(lp3619
S'16735078'
p3620
ag5
(g6
g7
NtRp3621
((dp3622
S'O96923'
p3623
I01
sS'P54644'
p3624
I01
sS'P03967'
p3625
I01
sS'Q54QB1'
p3626
I01
sS'P13466'
p3627
I01
stbaa(lp3628
S'9880334'
p3629
ag5
(g6
g7
NtRp3630
((dp3631
S'O96923'
p3632
I01
stbaa(lp3633
S'10491202'
p3634
ag5
(g6
g7
NtRp3635
((dp3636
S'O97101'
p3637
I01
stbaa(lp3638
S'11162086'
p3639
ag5
(g6
g7
NtRp3640
((dp3641
S'O97101'
p3642
I01
stbaa(lp3643
S'23355006'
p3644
ag5
(g6
g7
NtRp3645
((dp3646
S'O97101'
p3647
I01
stbaa(lp3648
S'16607013'
p3649
ag5
(g6
g7
NtRp3650
((dp3651
S'O97101'
p3652
I01
stbaa(lp3653
S'10092866'
p3654
ag5
(g6
g7
NtRp3655
((dp3656
S'O97470'
p3657
I01
stbaa(lp3658
S'12175335'
p3659
ag5
(g6
g7
NtRp3660
((dp3661
S'Q54JY7'
p3662
I01
sS'Q75JI3'
p3663
I01
sS'Q86AQ7'
p3664
I01
sS'Q54Y50'
p3665
I01
sS'Q54IX6'
p3666
I01
sS'Q54X86'
p3667
I01
sS'O97470'
p3668
I01
sS'Q54NW7'
p3669
I01
sS'Q54R67'
p3670
I01
sS'Q553P5'
p3671
I01
sS'Q54CK6'
p3672
I01
sS'Q54NP6'
p3673
I01
sS'Q9U9R7'
p3674
I01
stbaa(lp3675
S'1493336'
p3676
ag5
(g6
g7
NtRp3677
((dp3678
S'P02599'
p3679
I01
stbaa(lp3680
S'11220631'
p3681
ag5
(g6
g7
NtRp3682
((dp3683
S'Q9NIV0'
p3684
I01
sS'P54647'
p3685
I01
sS'P02599'
p3686
I01
stbaa(lp3687
S'1629238'
p3688
ag5
(g6
g7
NtRp3689
((dp3690
S'P02599'
p3691
I01
stbaa(lp3692
S'15606490'
p3693
ag5
(g6
g7
NtRp3694
((dp3695
S'Q54RF4'
p3696
I01
sS'P42529'
p3697
I01
sS'Q86IV7'
p3698
I01
sS'Q55C62'
p3699
I01
sS'P02599'
p3700
I01
sS'Q54LX0'
p3701
I01
sS'Q75K28'
p3702
I01
sS'Q6DN52'
p3703
I01
stbaa(lp3704
S'6243626'
p3705
ag5
(g6
g7
NtRp3706
((dp3707
S'P02599'
p3708
I01
stbaa(lp3709
S'6667031'
p3710
ag5
(g6
g7
NtRp3711
((dp3712
S'P02599'
p3713
I01
stbaa(lp3714
S'11919178'
p3715
ag5
(g6
g7
NtRp3716
((dp3717
S'Q9U7C9'
p3718
I01
sS'P02599'
p3719
I01
stbaa(lp3720
S'15883042'
p3721
ag5
(g6
g7
NtRp3722
((dp3723
S'Q27564'
p3724
I01
sS'P02599'
p3725
I01
stbaa(lp3726
S'15896312'
p3727
ag5
(g6
g7
NtRp3728
((dp3729
S'Q9U7C9'
p3730
I01
sS'P02599'
p3731
I01
stbaa(lp3732
S'21402150'
p3733
ag5
(g6
g7
NtRp3734
((dp3735
S'Q9GPK9'
p3736
I01
sS'P02599'
p3737
I01
stbaa(lp3738
S'22391412'
p3739
ag5
(g6
g7
NtRp3740
((dp3741
S'Q9GPK9'
p3742
I01
sS'P02599'
p3743
I01
stbaa(lp3744
S'23441816'
p3745
ag5
(g6
g7
NtRp3746
((dp3747
S'P54657'
p3748
I01
sS'P02599'
p3749
I01
stbaa(lp3750
S'23063531'
p3751
ag5
(g6
g7
NtRp3752
((dp3753
S'P34117'
p3754
I01
sS'Q55CT4'
p3755
I01
sS'P02599'
p3756
I01
stbaa(lp3757
S'22884799'
p3758
ag5
(g6
g7
NtRp3759
((dp3760
S'P02599'
p3761
I01
stbaa(lp3762
S'6259174'
p3763
ag5
(g6
g7
NtRp3764
((dp3765
S'P02599'
p3766
I01
stbaa(lp3767
S'6087882'
p3768
ag5
(g6
g7
NtRp3769
((dp3770
S'P02599'
p3771
I01
stbaa(lp3772
S'15947191'
p3773
ag5
(g6
g7
NtRp3774
((dp3775
S'Q7YSJ4'
p3776
I01
sS'Q55GS3'
p3777
I01
sS'P02886'
p3778
I01
stbaa(lp3779
S'20580724'
p3780
ag5
(g6
g7
NtRp3781
((dp3782
S'P42530'
p3783
I01
sS'P02886'
p3784
I01
stbaa(lp3785
S'23516620'
p3786
ag5
(g6
g7
NtRp3787
((dp3788
S'P12729'
p3789
I01
sS'P02886'
p3790
I01
sS'P42523'
p3791
I01
sS'Q54YG2'
p3792
I01
sS'P36417'
p3793
I01
sS'Q03100'
p3794
I01
sS'P13773'
p3795
I01
sS'P12019'
p3796
I01
stbaa(lp3797
S'10725225'
p3798
ag5
(g6
g7
NtRp3799
((dp3800
S'P32252'
p3801
I01
sS'P15064'
p3802
I01
sS'P03967'
p3803
I01
stbaa(lp3804
S'11257439'
p3805
ag5
(g6
g7
NtRp3806
((dp3807
S'P32252'
p3808
I01
sS'P32253'
p3809
I01
sS'P32254'
p3810
I01
sS'Q55CB7'
p3811
I01
sS'P15064'
p3812
I01
sS'P03967'
p3813
I01
sS'Q55CA9'
p3814
I01
sS'Q55CB8'
p3815
I01
stbaa(lp3816
S'2885843'
p3817
ag5
(g6
g7
NtRp3818
((dp3819
S'P03967'
p3820
I01
stbaa(lp3821
S'10837033'
p3822
ag5
(g6
g7
NtRp3823
((dp3824
S'P03967'
p3825
I01
stbaa(lp3826
S'6746725'
p3827
ag5
(g6
g7
NtRp3828
((dp3829
S'P05095'
p3830
I01
stbaa(lp3831
S'8486739'
p3832
ag5
(g6
g7
NtRp3833
((dp3834
S'P05095'
p3835
I01
stbaa(lp3836
S'11884033'
p3837
ag5
(g6
g7
NtRp3838
((dp3839
S'P05817'
p3840
I01
stbaa(lp3841
S'11973270'
p3842
ag5
(g6
g7
NtRp3843
((dp3844
S'P05817'
p3845
I01
stbaa(lp3846
S'23126556'
p3847
ag5
(g6
g7
NtRp3848
((dp3849
S'P05817'
p3850
I01
stbaa(lp3851
S'15548420'
p3852
ag5
(g6
g7
NtRp3853
((dp3854
S'Q556Y4'
p3855
I01
sS'P32256'
p3856
I01
sS'P32255'
p3857
I01
sS'Q55C16'
p3858
I01
sS'Q54QR9'
p3859
I01
sS'Q54IK9'
p3860
I01
sS'P54703'
p3861
I01
sS'Q54UL8'
p3862
I01
sS'Q54WX4'
p3863
I01
sS'Q76P38'
p3864
I01
sS'Q553N8'
p3865
I01
sS'Q54Y08'
p3866
I01
sS'Q95ZG4'
p3867
I01
sS'P34099'
p3868
I01
sS'P34036'
p3869
I01
sS'Q54J96'
p3870
I01
sS'Q54VD6'
p3871
I01
sS'Q54IY3'
p3872
I01
sS'Q55BD8'
p3873
I01
sS'P33519'
p3874
I01
sS'Q1ZXQ8'
p3875
I01
sS'Q54I71'
p3876
I01
sS'Q6S004'
p3877
I01
sS'Q54I79'
p3878
I01
sS'P05987'
p3879
I01
sS'Q54N50'
p3880
I01
sS'Q55GS2'
p3881
I01
sS'Q554U9'
p3882
I01
stbaa(lp3883
S'1312226'
p3884
ag5
(g6
g7
NtRp3885
((dp3886
S'P05987'
p3887
I01
stbaa(lp3888
S'14695060'
p3889
ag5
(g6
g7
NtRp3890
((dp3891
S'Q8WQ85'
p3892
I01
sS'Q03380'
p3893
I01
sS'P27133'
p3894
I01
sS'P05987'
p3895
I01
sS'P34092'
p3896
I01
sS'Q23858'
p3897
I01
sS'P22467'
p3898
I01
stbaa(lp3899
S'15131307'
p3900
ag5
(g6
g7
NtRp3901
((dp3902
S'Q54QB1'
p3903
I01
sS'P05987'
p3904
I01
stbaa(lp3905
S'12455979'
p3906
ag5
(g6
g7
NtRp3907
((dp3908
S'Q9XZJ3'
p3909
I01
sS'P34099'
p3910
I01
sS'P05987'
p3911
I01
stbaa(lp3912
S'2996629'
p3913
ag5
(g6
g7
NtRp3914
((dp3915
S'P07670'
p3916
I01
stbaa(lp3917
S'3003365'
p3918
ag5
(g6
g7
NtRp3919
((dp3920
S'P07828'
p3921
I01
stbaa(lp3922
S'20052281'
p3923
ag5
(g6
g7
NtRp3924
((dp3925
S'P07829'
p3926
I01
sS'P07830'
p3927
I01
sS'Q54GX7'
p3928
I01
sS'Q54E04'
p3929
I01
sS'Q553U6'
p3930
I01
stbaa(lp3931
S'6707016'
p3932
ag5
(g6
g7
NtRp3933
((dp3934
S'P07829'
p3935
I01
sS'P07830'
p3936
I01
sS'Q54GX7'
p3937
I01
sS'P24005'
p3938
I01
sS'Q553U6'
p3939
I01
stbaa(lp3940
S'22008230'
p3941
ag5
(g6
g7
NtRp3942
((dp3943
S'P34092'
p3944
I01
sS'Q54GX7'
p3945
I01
sS'Q553U6'
p3946
I01
sS'Q95VZ3'
p3947
I01
sS'Q94464'
p3948
I01
sS'P07829'
p3949
I01
sS'Q557J6'
p3950
I01
sS'P07830'
p3951
I01
stbaa(lp3952
S'20530573'
p3953
ag5
(g6
g7
NtRp3954
((dp3955
S'Q54GX7'
p3956
I01
sS'Q553U6'
p3957
I01
sS'Q54NF8'
p3958
I01
sS'Q54X65'
p3959
I01
sS'P07829'
p3960
I01
sS'Q8WQ86'
p3961
I01
sS'P07830'
p3962
I01
stbaa(lp3963
S'1057168'
p3964
ag5
(g6
g7
NtRp3965
((dp3966
S'P07830'
p3967
I01
sS'Q54GX7'
p3968
I01
stbaa(lp3969
S'15843041'
p3970
ag5
(g6
g7
NtRp3971
((dp3972
S'P07830'
p3973
I01
sS'Q54QT7'
p3974
I01
stbaa(lp3975
S'11257435'
p3976
ag5
(g6
g7
NtRp3977
((dp3978
S'P07830'
p3979
I01
sS'Q54GX7'
p3980
I01
stbaa(lp3981
S'6191197'
p3982
ag5
(g6
g7
NtRp3983
((dp3984
S'P08796'
p3985
I01
stbaa(lp3986
S'15366765'
p3987
ag5
(g6
g7
NtRp3988
((dp3989
S'Q54I71'
p3990
I01
sS'P51136'
p3991
I01
sS'Q55CT4'
p3992
I01
sS'P54657'
p3993
I01
sS'P08796'
p3994
I01
sS'P54661'
p3995
I01
stbaa(lp3996
S'19285397'
p3997
ag5
(g6
g7
NtRp3998
((dp3999
S'P42523'
p4000
I01
sS'P54657'
p4001
I01
sS'P08796'
p4002
I01
sS'Q54V07'
p4003
I01
sS'Q9U8Q1'
p4004
I01
stbaa(lp4005
S'16982629'
p4006
ag5
(g6
g7
NtRp4007
((dp4008
S'P08799'
p4009
I01
stbaa(lp4010
S'19955408'
p4011
ag5
(g6
g7
NtRp4012
((dp4013
S'P08799'
p4014
I01
stbaa(lp4015
S'10588668'
p4016
ag5
(g6
g7
NtRp4017
((dp4018
S'P08799'
p4019
I01
sS'Q55DM1'
p4020
I01
sS'Q23862'
p4021
I01
stbaa(lp4022
S'19065153'
p4023
ag5
(g6
g7
NtRp4024
((dp4025
S'Q54MH2'
p4026
I01
sS'P08799'
p4027
I01
sS'Q8MML5'
p4028
I01
stbaa(lp4029
S'2721503'
p4030
ag5
(g6
g7
NtRp4031
((dp4032
S'P08799'
p4033
I01
stbaa(lp4034
S'3576222'
p4035
ag5
(g6
g7
NtRp4036
((dp4037
S'P08799'
p4038
I01
stbaa(lp4039
S'17126332'
p4040
ag5
(g6
g7
NtRp4041
((dp4042
S'P34092'
p4043
I01
sS'P42528'
p4044
I01
sS'P08799'
p4045
I01
sS'P54686'
p4046
I01
sS'P35401'
p4047
I01
stbaa(lp4048
S'15910751'
p4049
ag5
(g6
g7
NtRp4050
((dp4051
S'P08799'
p4052
I01
stbaa(lp4053
S'11106661'
p4054
ag5
(g6
g7
NtRp4055
((dp4056
S'P08799'
p4057
I01
sS'P42527'
p4058
I01
sS'P90648'
p4059
I01
stbaa(lp4060
S'18504297'
p4061
ag5
(g6
g7
NtRp4062
((dp4063
S'P08799'
p4064
I01
sS'P42527'
p4065
I01
sS'Q86G47'
p4066
I01
stbaa(lp4067
S'18854143'
p4068
ag5
(g6
g7
NtRp4069
((dp4070
S'P08799'
p4071
I01
sS'Q54YW1'
p4072
I01
stbaa(lp4073
S'4278009'
p4074
ag5
(g6
g7
NtRp4075
((dp4076
S'P08799'
p4077
I01
sS'P13833'
p4078
I01
sS'P09402'
p4079
I01
stbaa(lp4080
S'9238018'
p4081
ag5
(g6
g7
NtRp4082
((dp4083
S'P25870'
p4084
I01
sS'P08799'
p4085
I01
stbaa(lp4086
S'2578450'
p4087
ag5
(g6
g7
NtRp4088
((dp4089
S'P08799'
p4090
I01
stbaa(lp4091
S'16461463'
p4092
ag5
(g6
g7
NtRp4093
((dp4094
S'Q9NHF6'
p4095
I01
sS'P08799'
p4096
I01
stbaa(lp4097
S'15259052'
p4098
ag5
(g6
g7
NtRp4099
((dp4100
S'Q95UQ1'
p4101
I01
sS'P08799'
p4102
I01
sS'Q54S20'
p4103
I01
stbaa(lp4104
S'16926192'
p4105
ag5
(g6
g7
NtRp4106
((dp4107
S'P08799'
p4108
I01
stbaa(lp4109
S'16339076'
p4110
ag5
(g6
g7
NtRp4111
((dp4112
S'P08799'
p4113
I01
sS'Q55GF9'
p4114
I01
sS'Q54WX4'
p4115
I01
stbaa(lp4116
S'14620745'
p4117
ag5
(g6
g7
NtRp4118
((dp4119
S'P08799'
p4120
I01
stbaa(lp4121
S'18067324'
p4122
ag5
(g6
g7
NtRp4123
((dp4124
S'P08799'
p4125
I01
stbaa(lp4126
S'22114350'
p4127
ag5
(g6
g7
NtRp4128
((dp4129
S'P08799'
p4130
I01
sS'Q550R2'
p4131
I01
sS'Q54HG2'
p4132
I01
stbaa(lp4133
S'18388319'
p4134
ag5
(g6
g7
NtRp4135
((dp4136
S'P08799'
p4137
I01
stbaa(lp4138
S'20200225'
p4139
ag5
(g6
g7
NtRp4140
((dp4141
S'P42528'
p4142
I01
sS'Q9XXV8'
p4143
I01
sS'Q9BKJ9'
p4144
I01
sS'P42522'
p4145
I01
sS'P27133'
p4146
I01
sS'P34092'
p4147
I01
sS'P26199'
p4148
I01
sS'P54647'
p4149
I01
sS'P08799'
p4150
I01
sS'P26200'
p4151
I01
sS'Q557J6'
p4152
I01
sS'Q869N2'
p4153
I01
sS'Q94464'
p4154
I01
stbaa(lp4155
S'16901894'
p4156
ag5
(g6
g7
NtRp4157
((dp4158
S'P08799'
p4159
I01
stbaa(lp4160
S'2745547'
p4161
ag5
(g6
g7
NtRp4162
((dp4163
S'P08799'
p4164
I01
stbaa(lp4165
S'22902739'
p4166
ag5
(g6
g7
NtRp4167
((dp4168
S'Q550R2'
p4169
I01
sS'Q54I71'
p4170
I01
sS'Q54MH2'
p4171
I01
sS'Q54HG2'
p4172
I01
sS'P08799'
p4173
I01
sS'Q54K32'
p4174
I01
stbaa(lp4175
S'15855234'
p4176
ag5
(g6
g7
NtRp4177
((dp4178
S'P08799'
p4179
I01
stbaa(lp4180
S'20951045'
p4181
ag5
(g6
g7
NtRp4182
((dp4183
S'P08799'
p4184
I01
sS'Q23862'
p4185
I01
sS'P54632'
p4186
I01
stbaa(lp4187
S'8552657'
p4188
ag5
(g6
g7
NtRp4189
((dp4190
S'P08799'
p4191
I01
stbaa(lp4192
S'1535025'
p4193
ag5
(g6
g7
NtRp4194
((dp4195
S'P09402'
p4196
I01
stbaa(lp4197
S'2451126'
p4198
ag5
(g6
g7
NtRp4199
((dp4200
S'P09402'
p4201
I01
stbaa(lp4202
S'7593282'
p4203
ag5
(g6
g7
NtRp4204
((dp4205
S'P09402'
p4206
I01
stbaa(lp4207
S'2835631'
p4208
ag5
(g6
g7
NtRp4209
((dp4210
S'P09556'
p4211
I01
stbaa(lp4212
S'8500761'
p4213
ag5
(g6
g7
NtRp4214
((dp4215
S'P09556'
p4216
I01
stbaa(lp4217
S'2017144'
p4218
ag5
(g6
g7
NtRp4219
((dp4220
S'P09556'
p4221
I01
stbaa(lp4222
S'18515835'
p4223
ag5
(g6
g7
NtRp4224
((dp4225
S'Q54D00'
p4226
I01
sS'Q54DD4'
p4227
I01
sS'Q54XB0'
p4228
I01
sS'Q54NI7'
p4229
I01
sS'Q54SI1'
p4230
I01
sS'Q54B97'
p4231
I01
sS'Q54VV8'
p4232
I01
sS'Q54HN4'
p4233
I01
sS'Q55BA4'
p4234
I01
sS'Q54S20'
p4235
I01
sS'Q55BX7'
p4236
I01
sS'Q54KY8'
p4237
I01
sS'Q55BN0'
p4238
I01
sS'Q55DQ5'
p4239
I01
sS'Q54FL3'
p4240
I01
sS'Q54WH4'
p4241
I01
sS'Q54PN3'
p4242
I01
sS'Q552X2'
p4243
I01
sS'Q54PD9'
p4244
I01
sS'Q54B46'
p4245
I01
sS'Q54GV0'
p4246
I01
sS'Q54X75'
p4247
I01
sS'P0CB66'
p4248
I01
sS'Q54MR3'
p4249
I01
sS'Q54U49'
p4250
I01
sS'Q54GE5'
p4251
I01
stbaa(lp4252
S'15194808'
p4253
ag5
(g6
g7
NtRp4254
((dp4255
S'P0CE94'
p4256
I01
sS'P32254'
p4257
I01
sS'Q9U1M8'
p4258
I01
sS'Q55FP0'
p4259
I01
sS'P15064'
p4260
I01
sS'P18613'
p4261
I01
sS'Q54QQ1'
p4262
I01
stbaa(lp4263
S'9230077'
p4264
ag5
(g6
g7
NtRp4265
((dp4266
S'P0CE94'
p4267
I01
stbaa(lp4268
S'15826949'
p4269
ag5
(g6
g7
NtRp4270
((dp4271
S'Q9U1M8'
p4272
I01
sS'P0CE94'
p4273
I01
stbaa(lp4274
S'16699495'
p4275
ag5
(g6
g7
NtRp4276
((dp4277
S'P0CE94'
p4278
I01
sS'Q54JA5'
p4279
I01
sS'Q54JA4'
p4280
I01
sS'Q54JA3'
p4281
I01
sS'Q54JE1'
p4282
I01
sS'Q54KF7'
p4283
I01
stbaa(lp4284
S'17671169'
p4285
ag5
(g6
g7
NtRp4286
((dp4287
S'Q9U1M8'
p4288
I01
sS'P0CE94'
p4289
I01
stbaa(lp4290
S'18375618'
p4291
ag5
(g6
g7
NtRp4292
((dp4293
S'P0CE94'
p4294
I01
sS'Q54K81'
p4295
I01
stbaa(lp4296
S'18349074'
p4297
ag5
(g6
g7
NtRp4298
((dp4299
S'Q54EW0'
p4300
I01
sS'P0CE94'
p4301
I01
sS'Q8MML5'
p4302
I01
stbaa(lp4303
S'7738034'
p4304
ag5
(g6
g7
NtRp4305
((dp4306
S'P0DJ26'
p4307
I01
stbaa(lp4308
S'9118250'
p4309
ag5
(g6
g7
NtRp4310
((dp4311
S'P0DJ26'
p4312
I01
stbaa(lp4313
S'9410873'
p4314
ag5
(g6
g7
NtRp4315
((dp4316
S'P0DJ26'
p4317
I01
stbaa(lp4318
S'8636212'
p4319
ag5
(g6
g7
NtRp4320
((dp4321
S'P0DJ26'
p4322
I01
stbaa(lp4323
S'10421841'
p4324
ag5
(g6
g7
NtRp4325
((dp4326
S'P0DJ26'
p4327
I01
stbaa(lp4328
S'10744862'
p4329
ag5
(g6
g7
NtRp4330
((dp4331
S'P0DJ26'
p4332
I01
stbaa(lp4333
S'15075287'
p4334
ag5
(g6
g7
NtRp4335
((dp4336
S'Q02158'
p4337
I01
sS'Q6TMK3'
p4338
I01
sS'Q55DH8'
p4339
I01
sS'P0DJ27'
p4340
I01
sS'Q6TMI9'
p4341
I01
sS'Q02465'
p4342
I01
stbaa(lp4343
S'17660362'
p4344
ag5
(g6
g7
NtRp4345
((dp4346
S'P0DJ29'
p4347
I01
stbaa(lp4348
S'2191567'
p4349
ag5
(g6
g7
NtRp4350
((dp4351
S'P10733'
p4352
I01
stbaa(lp4353
S'6897549'
p4354
ag5
(g6
g7
NtRp4355
((dp4356
S'P10733'
p4357
I01
stbaa(lp4358
S'15060630'
p4359
ag5
(g6
g7
NtRp4360
((dp4361
S'P10733'
p4362
I01
stbaa(lp4363
S'3139100'
p4364
ag5
(g6
g7
NtRp4365
((dp4366
S'P10819'
p4367
I01
stbaa(lp4368
S'3288206'
p4369
ag5
(g6
g7
NtRp4370
((dp4371
S'P10819'
p4372
I01
stbaa(lp4373
S'6299402'
p4374
ag5
(g6
g7
NtRp4375
((dp4376
S'P10819'
p4377
I01
stbaa(lp4378
S'11728467'
p4379
ag5
(g6
g7
NtRp4380
((dp4381
S'P10819'
p4382
I01
stbaa(lp4383
S'15358428'
p4384
ag5
(g6
g7
NtRp4385
((dp4386
S'P10819'
p4387
I01
stbaa(lp4388
S'17172447'
p4389
ag5
(g6
g7
NtRp4390
((dp4391
S'P10819'
p4392
I01
stbaa(lp4393
S'1310316'
p4394
ag5
(g6
g7
NtRp4395
((dp4396
S'P10901'
p4397
I01
stbaa(lp4398
S'8016318'
p4399
ag5
(g6
g7
NtRp4400
((dp4401
S'Q54YG2'
p4402
I01
sS'P11976'
p4403
I01
stbaa(lp4404
S'17040207'
p4405
ag5
(g6
g7
NtRp4406
((dp4407
S'Q54HY0'
p4408
I01
sS'P12019'
p4409
I01
stbaa(lp4410
S'2049870'
p4411
ag5
(g6
g7
NtRp4412
((dp4413
S'P12019'
p4414
I01
stbaa(lp4415
S'3243026'
p4416
ag5
(g6
g7
NtRp4417
((dp4418
S'P12729'
p4419
I01
stbaa(lp4420
S'2850494'
p4421
ag5
(g6
g7
NtRp4422
((dp4423
S'P12729'
p4424
I01
stbaa(lp4425
S'23369714'
p4426
ag5
(g6
g7
NtRp4427
((dp4428
S'P13021'
p4429
I01
sS'Q552E2'
p4430
I01
sS'Q54IR8'
p4431
I01
sS'Q55FU3'
p4432
I01
sS'Q54CK9'
p4433
I01
sS'Q54R74'
p4434
I01
stbaa(lp4435
S'2914932'
p4436
ag5
(g6
g7
NtRp4437
((dp4438
S'P13231'
p4439
I01
stbaa(lp4440
S'7822284'
p4441
ag5
(g6
g7
NtRp4442
((dp4443
S'P13231'
p4444
I01
sS'P42526'
p4445
I01
stbaa(lp4446
S'15962002'
p4447
ag5
(g6
g7
NtRp4448
((dp4449
S'Q86I44'
p4450
I01
sS'P34142'
p4451
I01
sS'P13466'
p4452
I01
sS'Q55GV9'
p4453
I01
stbaa(lp4454
S'15383615'
p4455
ag5
(g6
g7
NtRp4456
((dp4457
S'Q556T3'
p4458
I01
sS'P13466'
p4459
I01
stbaa(lp4460
S'17121815'
p4461
ag5
(g6
g7
NtRp4462
((dp4463
S'P13466'
p4464
I01
stbaa(lp4465
S'9480045'
p4466
ag5
(g6
g7
NtRp4467
((dp4468
S'P13466'
p4469
I01
stbaa(lp4470
S'16781869'
p4471
ag5
(g6
g7
NtRp4472
((dp4473
S'P13466'
p4474
I01
stbaa(lp4475
S'9578623'
p4476
ag5
(g6
g7
NtRp4477
((dp4478
S'P13773'
p4479
I01
sS'P35352'
p4480
I01
stbaa(lp4481
S'15574880'
p4482
ag5
(g6
g7
NtRp4483
((dp4484
S'P13773'
p4485
I01
stbaa(lp4486
S'15507682'
p4487
ag5
(g6
g7
NtRp4488
((dp4489
S'Q03100'
p4490
I01
sS'P13773'
p4491
I01
stbaa(lp4492
S'11264536'
p4493
ag5
(g6
g7
NtRp4494
((dp4495
S'P36408'
p4496
I01
sS'P13773'
p4497
I01
sS'Q95ZG8'
p4498
I01
sS'P16051'
p4499
I01
stbaa(lp4500
S'17630977'
p4501
ag5
(g6
g7
NtRp4502
((dp4503
S'P13773'
p4504
I01
stbaa(lp4505
S'1849108'
p4506
ag5
(g6
g7
NtRp4507
((dp4508
S'P13773'
p4509
I01
stbaa(lp4510
S'21103944'
p4511
ag5
(g6
g7
NtRp4512
((dp4513
S'P13773'
p4514
I01
sS'P35352'
p4515
I01
sS'P16051'
p4516
I01
stbaa(lp4517
S'15143344'
p4518
ag5
(g6
g7
NtRp4519
((dp4520
S'P32253'
p4521
I01
sS'P15064'
p4522
I01
sS'P13773'
p4523
I01
sS'P35352'
p4524
I01
sS'P16051'
p4525
I01
sS'P36408'
p4526
I01
stbaa(lp4527
S'17905919'
p4528
ag5
(g6
g7
NtRp4529
((dp4530
S'P13773'
p4531
I01
stbaa(lp4532
S'7806571'
p4533
ag5
(g6
g7
NtRp4534
((dp4535
S'P13833'
p4536
I01
stbaa(lp4537
S'11428129'
p4538
ag5
(g6
g7
NtRp4539
((dp4540
S'P54704'
p4541
I01
sS'Q9U720'
p4542
I01
sS'P14328'
p4543
I01
sS'Q04503'
p4544
I01
stbaa(lp4545
S'16822579'
p4546
ag5
(g6
g7
NtRp4547
((dp4548
S'Q54NF8'
p4549
I01
sS'P15064'
p4550
I01
sS'Q6UK63'
p4551
I01
sS'P32254'
p4552
I01
stbaa(lp4553
S'15352238'
p4554
ag5
(g6
g7
NtRp4555
((dp4556
S'P15064'
p4557
I01
stbaa(lp4558
S'16622066'
p4559
ag5
(g6
g7
NtRp4560
((dp4561
S'P54657'
p4562
I01
sS'P15064'
p4563
I01
stbaa(lp4564
S'17380187'
p4565
ag5
(g6
g7
NtRp4566
((dp4567
S'P32253'
p4568
I01
sS'P15064'
p4569
I01
sS'Q8SSQ0'
p4570
I01
sS'Q54PQ4'
p4571
I01
stbaa(lp4572
S'10473630'
p4573
ag5
(g6
g7
NtRp4574
((dp4575
S'P15064'
p4576
I01
sS'P54673'
p4577
I01
sS'Q9Y0C9'
p4578
I01
sS'Q54PQ4'
p4579
I01
stbaa(lp4580
S'18180289'
p4581
ag5
(g6
g7
NtRp4582
((dp4583
S'P32253'
p4584
I01
sS'P15064'
p4585
I01
stbaa(lp4586
S'16885420'
p4587
ag5
(g6
g7
NtRp4588
((dp4589
S'P32253'
p4590
I01
sS'P15064'
p4591
I01
stbaa(lp4592
S'15261655'
p4593
ag5
(g6
g7
NtRp4594
((dp4595
S'P15270'
p4596
I01
sS'P42523'
p4597
I01
sS'Q55FP0'
p4598
I01
sS'Q7YTA6'
p4599
I01
sS'Q9U8Q1'
p4600
I01
sS'Q54ZW0'
p4601
I01
stbaa(lp4602
S'2161991'
p4603
ag5
(g6
g7
NtRp4604
((dp4605
S'P15648'
p4606
I01
sS'P15649'
p4607
I01
stbaa(lp4608
S'18204858'
p4609
ag5
(g6
g7
NtRp4610
((dp4611
S'Q54BX4'
p4612
I01
sS'Q54BX5'
p4613
I01
sS'P15649'
p4614
I01
stbaa(lp4615
S'2813371'
p4616
ag5
(g6
g7
NtRp4617
((dp4618
S'P15808'
p4619
I01
stbaa(lp4620
S'8280098'
p4621
ag5
(g6
g7
NtRp4622
((dp4623
S'P16894'
p4624
I01
sS'P16051'
p4625
I01
stbaa(lp4626
S'15563608'
p4627
ag5
(g6
g7
NtRp4628
((dp4629
S'P36408'
p4630
I01
sS'P35401'
p4631
I01
sS'Q95ZG8'
p4632
I01
sS'P16051'
p4633
I01
stbaa(lp4634
S'23576747'
p4635
ag5
(g6
g7
NtRp4636
((dp4637
S'P34042'
p4638
I01
sS'Q54DU0'
p4639
I01
sS'P16894'
p4640
I01
sS'P16051'
p4641
I01
stbaa(lp4642
S'12217653'
p4643
ag5
(g6
g7
NtRp4644
((dp4645
S'P16051'
p4646
I01
stbaa(lp4647
S'15715993'
p4648
ag5
(g6
g7
NtRp4649
((dp4650
S'P16051'
p4651
I01
stbaa(lp4652
S'17878305'
p4653
ag5
(g6
g7
NtRp4654
((dp4655
S'Q558X5'
p4656
I01
sS'Q5FXM5'
p4657
I01
sS'Q86CR8'
p4658
I01
sS'P16643'
p4659
I01
sS'P16642'
p4660
I01
sS'P54661'
p4661
I01
stbaa(lp4662
S'7821221'
p4663
ag5
(g6
g7
NtRp4664
((dp4665
S'P16894'
p4666
I01
stbaa(lp4667
S'2500658'
p4668
ag5
(g6
g7
NtRp4669
((dp4670
S'P16894'
p4671
I01
stbaa(lp4672
S'9015266'
p4673
ag5
(g6
g7
NtRp4674
((dp4675
S'P16894'
p4676
I01
stbaa(lp4677
S'17481898'
p4678
ag5
(g6
g7
NtRp4679
((dp4680
S'Q86D86'
p4681
I01
sS'P16894'
p4682
I01
stbaa(lp4683
S'8898241'
p4684
ag5
(g6
g7
NtRp4685
((dp4686
S'P18160'
p4687
I01
stbaa(lp4688
S'1972546'
p4689
ag5
(g6
g7
NtRp4690
((dp4691
S'P18160'
p4692
I01
sS'P18161'
p4693
I01
stbaa(lp4694
S'22699506'
p4695
ag5
(g6
g7
NtRp4696
((dp4697
S'P18161'
p4698
I01
sS'Q54BD4'
p4699
I01
stbaa(lp4700
S'17371831'
p4701
ag5
(g6
g7
NtRp4702
((dp4703
S'P18613'
p4704
I01
sS'Q54QQ1'
p4705
I01
stbaa(lp4706
S'22644079'
p4707
ag5
(g6
g7
NtRp4708
((dp4709
S'P18613'
p4710
I01
sS'Q54YZ6'
p4711
I01
stbaa(lp4712
S'12186953'
p4713
ag5
(g6
g7
NtRp4714
((dp4715
S'P18613'
p4716
I01
stbaa(lp4717
S'18039932'
p4718
ag5
(g6
g7
NtRp4719
((dp4720
S'P18613'
p4721
I01
sS'Q550R2'
p4722
I01
sS'Q75J96'
p4723
I01
sS'Q54HG2'
p4724
I01
stbaa(lp4725
S'2568162'
p4726
ag5
(g6
g7
NtRp4727
((dp4728
S'P20054'
p4729
I01
stbaa(lp4730
S'8703943'
p4731
ag5
(g6
g7
NtRp4732
((dp4733
S'P20425'
p4734
I01
stbaa(lp4735
S'2156849'
p4736
ag5
(g6
g7
NtRp4737
((dp4738
S'P20425'
p4739
I01
stbaa(lp4740
S'15289548'
p4741
ag5
(g6
g7
NtRp4742
((dp4743
S'P20790'
p4744
I01
sS'P20791'
p4745
I01
stbaa(lp4746
S'1989999'
p4747
ag5
(g6
g7
NtRp4748
((dp4749
S'P21900'
p4750
I01
stbaa(lp4751
S'15653432'
p4752
ag5
(g6
g7
NtRp4753
((dp4754
S'P22685'
p4755
I01
sS'Q75K16'
p4756
I01
sS'Q54CN9'
p4757
I01
sS'Q54Q71'
p4758
I01
sS'P90526'
p4759
I01
sS'Q54N17'
p4760
I01
stbaa(lp4761
S'2161830'
p4762
ag5
(g6
g7
NtRp4763
((dp4764
S'P22887'
p4765
I01
stbaa(lp4766
S'21991393'
p4767
ag5
(g6
g7
NtRp4768
((dp4769
S'P22887'
p4770
I01
stbaa(lp4771
S'8244981'
p4772
ag5
(g6
g7
NtRp4773
((dp4774
S'P34093'
p4775
I01
sS'P22887'
p4776
I01
stbaa(lp4777
S'7733916'
p4778
ag5
(g6
g7
NtRp4779
((dp4780
S'P22887'
p4781
I01
stbaa(lp4782
S'8816286'
p4783
ag5
(g6
g7
NtRp4784
((dp4785
S'P22887'
p4786
I01
stbaa(lp4787
S'8389692'
p4788
ag5
(g6
g7
NtRp4789
((dp4790
S'P22887'
p4791
I01
stbaa(lp4792
S'11990506'
p4793
ag5
(g6
g7
NtRp4794
((dp4795
S'P22887'
p4796
I01
stbaa(lp4797
S'18054409'
p4798
ag5
(g6
g7
NtRp4799
((dp4800
S'P27133'
p4801
I01
sS'P24005'
p4802
I01
sS'P54686'
p4803
I01
stbaa(lp4804
S'9927418'
p4805
ag5
(g6
g7
NtRp4806
((dp4807
S'Q550R2'
p4808
I01
sS'P24005'
p4809
I01
sS'Q54HG2'
p4810
I01
stbaa(lp4811
S'1832674'
p4812
ag5
(g6
g7
NtRp4813
((dp4814
S'P24639'
p4815
I01
stbaa(lp4816
S'16762449'
p4817
ag5
(g6
g7
NtRp4818
((dp4819
S'Q95YL4'
p4820
I01
sS'P54653'
p4821
I01
sS'P24639'
p4822
I01
sS'Q54PW0'
p4823
I01
stbaa(lp4824
S'1824843'
p4825
ag5
(g6
g7
NtRp4826
((dp4827
S'P24639'
p4828
I01
stbaa(lp4829
S'7657724'
p4830
ag5
(g6
g7
NtRp4831
((dp4832
S'P24639'
p4833
I01
stbaa(lp4834
S'8901579'
p4835
ag5
(g6
g7
NtRp4836
((dp4837
S'P25323'
p4838
I01
stbaa(lp4839
S'3029131'
p4840
ag5
(g6
g7
NtRp4841
((dp4842
S'P25323'
p4843
I01
stbaa(lp4844
S'16546177'
p4845
ag5
(g6
g7
NtRp4846
((dp4847
S'P25323'
p4848
I01
sS'Q8MVR1'
p4849
I01
stbaa(lp4850
S'3032987'
p4851
ag5
(g6
g7
NtRp4852
((dp4853
S'P25323'
p4854
I01
stbaa(lp4855
S'9789030'
p4856
ag5
(g6
g7
NtRp4857
((dp4858
S'P25323'
p4859
I01
stbaa(lp4860
S'8947030'
p4861
ag5
(g6
g7
NtRp4862
((dp4863
S'P25323'
p4864
I01
stbaa(lp4865
S'1651931'
p4866
ag5
(g6
g7
NtRp4867
((dp4868
S'P25323'
p4869
I01
stbaa(lp4870
S'11223952'
p4871
ag5
(g6
g7
NtRp4872
((dp4873
S'P25870'
p4874
I01
sS'Q8MN58'
p4875
I01
stbaa(lp4876
S'12802059'
p4877
ag5
(g6
g7
NtRp4878
((dp4879
S'Q54HS9'
p4880
I01
sS'P25870'
p4881
I01
sS'Q8I8U2'
p4882
I01
stbaa(lp4883
S'1522112'
p4884
ag5
(g6
g7
NtRp4885
((dp4886
S'P25870'
p4887
I01
stbaa(lp4888
S'14617352'
p4889
ag5
(g6
g7
NtRp4890
((dp4891
S'P25870'
p4892
I01
sS'Q8MN58'
p4893
I01
stbaa(lp4894
S'8034739'
p4895
ag5
(g6
g7
NtRp4896
((dp4897
S'P25870'
p4898
I01
stbaa(lp4899
S'9425628'
p4900
ag5
(g6
g7
NtRp4901
((dp4902
S'P25870'
p4903
I01
sS'Q54Y50'
p4904
I01
sS'Q8MN58'
p4905
I01
stbaa(lp4906
S'9053320'
p4907
ag5
(g6
g7
NtRp4908
((dp4909
S'P25870'
p4910
I01
stbaa(lp4911
S'22992464'
p4912
ag5
(g6
g7
NtRp4913
((dp4914
S'Q54X82'
p4915
I01
sS'Q54H39'
p4916
I01
sS'P25870'
p4917
I01
sS'P54672'
p4918
I01
sS'Q54KI4'
p4919
I01
sS'Q86KI1'
p4920
I01
stbaa(lp4921
S'7954798'
p4922
ag5
(g6
g7
NtRp4923
((dp4924
S'P26199'
p4925
I01
sS'P26200'
p4926
I01
stbaa(lp4927
S'17467078'
p4928
ag5
(g6
g7
NtRp4929
((dp4930
S'P26199'
p4931
I01
sS'Q8T8M2'
p4932
I01
sS'P26200'
p4933
I01
sS'Q5TJ65'
p4934
I01
stbaa(lp4935
S'15908944'
p4936
ag5
(g6
g7
NtRp4937
((dp4938
S'P34144'
p4939
I01
sS'Q54K32'
p4940
I01
sS'Q54N00'
p4941
I01
sS'P26200'
p4942
I01
stbaa(lp4943
S'17923679'
p4944
ag5
(g6
g7
NtRp4945
((dp4946
S'Q54R53'
p4947
I01
sS'Q54U85'
p4948
I01
sS'P26355'
p4949
I01
stbaa(lp4950
S'15769249'
p4951
ag5
(g6
g7
NtRp4952
((dp4953
S'P26355'
p4954
I01
stbaa(lp4955
S'8380174'
p4956
ag5
(g6
g7
NtRp4957
((dp4958
S'P27133'
p4959
I01
stbaa(lp4960
S'23915312'
p4961
ag5
(g6
g7
NtRp4962
((dp4963
S'Q86KG9'
p4964
I01
sS'P27133'
p4965
I01
sS'P34119'
p4966
I01
stbaa(lp4967
S'1661669'
p4968
ag5
(g6
g7
NtRp4969
((dp4970
S'P27133'
p4971
I01
stbaa(lp4972
S'22809629'
p4973
ag5
(g6
g7
NtRp4974
((dp4975
S'Q86KX8'
p4976
I01
sS'P27133'
p4977
I01
stbaa(lp4978
S'10873800'
p4979
ag5
(g6
g7
NtRp4980
((dp4981
S'P54644'
p4982
I01
sS'P28178'
p4983
I01
stbaa(lp4984
S'1885577'
p4985
ag5
(g6
g7
NtRp4986
((dp4987
S'P32073'
p4988
I01
stbaa(lp4989
S'11606416'
p4990
ag5
(g6
g7
NtRp4991
((dp4992
S'P32252'
p4993
I01
stbaa(lp4994
S'14597204'
p4995
ag5
(g6
g7
NtRp4996
((dp4997
S'P32252'
p4998
I01
sS'P54632'
p4999
I01
sS'Q54HC6'
p5000
I01
stbaa(lp5001
S'8455930'
p5002
ag5
(g6
g7
NtRp5003
((dp5004
S'P32252'
p5005
I01
stbaa(lp5006
S'15878331'
p5007
ag5
(g6
g7
NtRp5008
((dp5009
S'P32253'
p5010
I01
stbaa(lp5011
S'11500376'
p5012
ag5
(g6
g7
NtRp5013
((dp5014
S'P32253'
p5015
I01
sS'Q8IS21'
p5016
I01
sS'Q54PQ4'
p5017
I01
stbaa(lp5018
S'8290260'
p5019
ag5
(g6
g7
NtRp5020
((dp5021
S'P32253'
p5022
I01
sS'P32254'
p5023
I01
stbaa(lp5024
S'16023096'
p5025
ag5
(g6
g7
NtRp5026
((dp5027
S'P32253'
p5028
I01
sS'P54677'
p5029
I01
stbaa(lp5030
S'10652263'
p5031
ag5
(g6
g7
NtRp5032
((dp5033
S'P32254'
p5034
I01
stbaa(lp5035
S'12211111'
p5036
ag5
(g6
g7
NtRp5037
((dp5038
S'Q8IS21'
p5039
I01
sS'P32254'
p5040
I01
stbaa(lp5041
S'12854977'
p5042
ag5
(g6
g7
NtRp5043
((dp5044
S'Q8IS21'
p5045
I01
sS'P32254'
p5046
I01
stbaa(lp5047
S'15800059'
p5048
ag5
(g6
g7
NtRp5049
((dp5050
S'P34144'
p5051
I01
sS'Q1ZXQ8'
p5052
I01
sS'P34036'
p5053
I01
sS'Q8I0F4'
p5054
I01
sS'P32255'
p5055
I01
stbaa(lp5056
S'8816999'
p5057
ag5
(g6
g7
NtRp5058
((dp5059
S'P34036'
p5060
I01
sS'P32255'
p5061
I01
stbaa(lp5062
S'15366936'
p5063
ag5
(g6
g7
NtRp5064
((dp5065
S'P34036'
p5066
I01
stbaa(lp5067
S'15186508'
p5068
ag5
(g6
g7
NtRp5069
((dp5070
S'Q1ZXQ8'
p5071
I01
sS'P34036'
p5072
I01
sS'Q03380'
p5073
I01
sS'Q8WQ86'
p5074
I01
sS'Q54VS0'
p5075
I01
stbaa(lp5076
S'17761194'
p5077
ag5
(g6
g7
NtRp5078
((dp5079
S'P34036'
p5080
I01
stbaa(lp5081
S'7866389'
p5082
ag5
(g6
g7
NtRp5083
((dp5084
S'P34036'
p5085
I01
stbaa(lp5086
S'17548361'
p5087
ag5
(g6
g7
NtRp5088
((dp5089
S'P34036'
p5090
I01
stbaa(lp5091
S'18430243'
p5092
ag5
(g6
g7
NtRp5093
((dp5094
S'Q6S002'
p5095
I01
sS'Q6S003'
p5096
I01
sS'P34036'
p5097
I01
sS'Q54NP8'
p5098
I01
stbaa(lp5099
S'19765570'
p5100
ag5
(g6
g7
NtRp5101
((dp5102
S'Q54QB1'
p5103
I01
sS'P34042'
p5104
I01
stbaa(lp5105
S'1730409'
p5106
ag5
(g6
g7
NtRp5107
((dp5108
S'P34042'
p5109
I01
stbaa(lp5110
S'18028904'
p5111
ag5
(g6
g7
NtRp5112
((dp5113
S'P34042'
p5114
I01
stbaa(lp5115
S'8620848'
p5116
ag5
(g6
g7
NtRp5117
((dp5118
S'P34043'
p5119
I01
stbaa(lp5120
S'19176583'
p5121
ag5
(g6
g7
NtRp5122
((dp5123
S'P34045'
p5124
I01
stbaa(lp5125
S'18089562'
p5126
ag5
(g6
g7
NtRp5127
((dp5128
S'P34092'
p5129
I01
stbaa(lp5130
S'16415352'
p5131
ag5
(g6
g7
NtRp5132
((dp5133
S'P34092'
p5134
I01
sS'Q54GL7'
p5135
I01
stbaa(lp5136
S'8609164'
p5137
ag5
(g6
g7
NtRp5138
((dp5139
S'P34092'
p5140
I01
sS'P42522'
p5141
I01
stbaa(lp5142
S'2163458'
p5143
ag5
(g6
g7
NtRp5144
((dp5145
S'P34093'
p5146
I01
stbaa(lp5147
S'23473502'
p5148
ag5
(g6
g7
NtRp5149
((dp5150
S'Q03100'
p5151
I01
sS'P34099'
p5152
I01
sS'Q54PQ4'
p5153
I01
stbaa(lp5154
S'14680693'
p5155
ag5
(g6
g7
NtRp5156
((dp5157
S'P34099'
p5158
I01
stbaa(lp5159
S'8325874'
p5160
ag5
(g6
g7
NtRp5161
((dp5162
S'P34109'
p5163
I01
stbaa(lp5164
S'10102987'
p5165
ag5
(g6
g7
NtRp5166
((dp5167
S'P34117'
p5168
I01
sS'P34112'
p5169
I01
stbaa(lp5170
S'12074548'
p5171
ag5
(g6
g7
NtRp5172
((dp5173
S'P34117'
p5174
I01
sS'P34112'
p5175
I01
stbaa(lp5176
S'3110159'
p5177
ag5
(g6
g7
NtRp5178
((dp5179
S'P34114'
p5180
I01
sS'Q00766'
p5181
I01
stbaa(lp5182
S'21766205'
p5183
ag5
(g6
g7
NtRp5184
((dp5185
S'P34117'
p5186
I01
sS'Q55CT4'
p5187
I01
stbaa(lp5188
S'8130037'
p5189
ag5
(g6
g7
NtRp5190
((dp5191
S'Q55G04'
p5192
I01
sS'Q55GJ6'
p5193
I01
sS'P34119'
p5194
I01
sS'Q54BC8'
p5195
I01
sS'Q54XM7'
p5196
I01
sS'Q86A21'
p5197
I01
sS'Q55DY7'
p5198
I01
sS'Q27563'
p5199
I01
sS'Q27562'
p5200
I01
sS'P34120'
p5201
I01
sS'Q55D66'
p5202
I01
sS'Q54DM7'
p5203
I01
sS'Q556Q0'
p5204
I01
sS'Q54QR2'
p5205
I01
stbaa(lp5206
S'8293475'
p5207
ag5
(g6
g7
NtRp5208
((dp5209
S'P34121'
p5210
I01
stbaa(lp5211
S'7589554'
p5212
ag5
(g6
g7
NtRp5213
((dp5214
S'P34121'
p5215
I01
stbaa(lp5216
S'16042397'
p5217
ag5
(g6
g7
NtRp5218
((dp5219
S'P34125'
p5220
I01
stbaa(lp5221
S'12952069'
p5222
ag5
(g6
g7
NtRp5223
((dp5224
S'Q54SF9'
p5225
I01
sS'P34125'
p5226
I01
stbaa(lp5227
S'16854454'
p5228
ag5
(g6
g7
NtRp5229
((dp5230
S'P34125'
p5231
I01
stbaa(lp5232
S'8769416'
p5233
ag5
(g6
g7
NtRp5234
((dp5235
S'P34125'
p5236
I01
stbaa(lp5237
S'8557714'
p5238
ag5
(g6
g7
NtRp5239
((dp5240
S'P34125'
p5241
I01
stbaa(lp5242
S'1321427'
p5243
ag5
(g6
g7
NtRp5244
((dp5245
S'P34125'
p5246
I01
stbaa(lp5247
S'2549052'
p5248
ag5
(g6
g7
NtRp5249
((dp5250
S'P34125'
p5251
I01
stbaa(lp5252
S'9334183'
p5253
ag5
(g6
g7
NtRp5254
((dp5255
S'P34127'
p5256
I01
stbaa(lp5257
S'1549373'
p5258
ag5
(g6
g7
NtRp5259
((dp5260
S'P34127'
p5261
I01
stbaa(lp5262
S'8226777'
p5263
ag5
(g6
g7
NtRp5264
((dp5265
S'P34138'
p5266
I01
stbaa(lp5267
S'22302991'
p5268
ag5
(g6
g7
NtRp5269
((dp5270
S'P34144'
p5271
I01
sS'Q54K32'
p5272
I01
sS'Q54HG2'
p5273
I01
stbaa(lp5274
S'11447112'
p5275
ag5
(g6
g7
NtRp5276
((dp5277
S'P34144'
p5278
I01
sS'Q550R2'
p5279
I01
sS'Q54K32'
p5280
I01
sS'Q54HG2'
p5281
I01
stbaa(lp5282
S'9739079'
p5283
ag5
(g6
g7
NtRp5284
((dp5285
S'P34144'
p5286
I01
sS'Q54K32'
p5287
I01
sS'Q23862'
p5288
I01
stbaa(lp5289
S'16968699'
p5290
ag5
(g6
g7
NtRp5291
((dp5292
S'P34144'
p5293
I01
sS'P34145'
p5294
I01
sS'P34149'
p5295
I01
sS'P54644'
p5296
I01
sS'Q9GSG9'
p5297
I01
sS'P54674'
p5298
I01
stbaa(lp5299
S'16415044'
p5300
ag5
(g6
g7
NtRp5301
((dp5302
S'P34145'
p5303
I01
stbaa(lp5304
S'15817229'
p5305
ag5
(g6
g7
NtRp5306
((dp5307
S'P34145'
p5308
I01
sS'Q869W9'
p5309
I01
sS'Q54GM7'
p5310
I01
sS'Q54BC0'
p5311
I01
sS'Q55CA9'
p5312
I01
sS'Q5FBC4'
p5313
I01
sS'Q54WK1'
p5314
I01
sS'Q5FBC3'
p5315
I01
sS'Q54ME1'
p5316
I01
sS'Q54GD5'
p5317
I01
sS'Q54EU5'
p5318
I01
sS'Q54X71'
p5319
I01
sS'Q557G4'
p5320
I01
sS'Q9GPS3'
p5321
I01
sS'Q54C82'
p5322
I01
sS'Q86HI2'
p5323
I01
sS'Q54TI1'
p5324
I01
sS'Q55BT7'
p5325
I01
sS'Q54P69'
p5326
I01
sS'Q55CG7'
p5327
I01
sS'Q55BT6'
p5328
I01
sS'Q54W35'
p5329
I01
sS'P54680'
p5330
I01
sS'Q54RK5'
p5331
I01
sS'Q54EN4'
p5332
I01
stbaa(lp5333
S'15470506'
p5334
ag5
(g6
g7
NtRp5335
((dp5336
S'Q54YZ6'
p5337
I01
sS'P34148'
p5338
I01
sS'Q55GV3'
p5339
I01
stbaa(lp5340
S'18992223'
p5341
ag5
(g6
g7
NtRp5342
((dp5343
S'Q54S04'
p5344
I01
sS'P35084'
p5345
I01
stbaa(lp5346
S'16781008'
p5347
ag5
(g6
g7
NtRp5348
((dp5349
S'Q75K24'
p5350
I01
sS'Q54E53'
p5351
I01
sS'Q54QX3'
p5352
I01
sS'Q54C92'
p5353
I01
sS'Q54B82'
p5354
I01
sS'Q55BD5'
p5355
I01
sS'P35352'
p5356
I01
sS'Q54PF3'
p5357
I01
sS'Q54HL6'
p5358
I01
stbaa(lp5359
S'15668169'
p5360
ag5
(g6
g7
NtRp5361
((dp5362
S'P35401'
p5363
I01
stbaa(lp5364
S'9778249'
p5365
ag5
(g6
g7
NtRp5366
((dp5367
S'P35401'
p5368
I01
stbaa(lp5369
S'17606871'
p5370
ag5
(g6
g7
NtRp5371
((dp5372
S'Q8T9S7'
p5373
I01
sS'P35401'
p5374
I01
stbaa(lp5375
S'8089184'
p5376
ag5
(g6
g7
NtRp5377
((dp5378
S'P35401'
p5379
I01
stbaa(lp5380
S'15366706'
p5381
ag5
(g6
g7
NtRp5382
((dp5383
S'Q55D99'
p5384
I01
sS'P35401'
p5385
I01
sS'P54644'
p5386
I01
sS'Q8T9S7'
p5387
I01
sS'P54673'
p5388
I01
sS'P54674'
p5389
I01
stbaa(lp5390
S'15470246'
p5391
ag5
(g6
g7
NtRp5392
((dp5393
S'P54644'
p5394
I01
sS'P35401'
p5395
I01
stbaa(lp5396
S'16267269'
p5397
ag5
(g6
g7
NtRp5398
((dp5399
S'Q03100'
p5400
I01
sS'Q8T9S7'
p5401
I01
sS'P54673'
p5402
I01
sS'P54674'
p5403
I01
sS'P35401'
p5404
I01
stbaa(lp5405
S'7790361'
p5406
ag5
(g6
g7
NtRp5407
((dp5408
S'P35401'
p5409
I01
stbaa(lp5410
S'7790362'
p5411
ag5
(g6
g7
NtRp5412
((dp5413
S'P36408'
p5414
I01
stbaa(lp5415
S'8099335'
p5416
ag5
(g6
g7
NtRp5417
((dp5418
S'P36408'
p5419
I01
stbaa(lp5420
S'17635933'
p5421
ag5
(g6
g7
NtRp5422
((dp5423
S'P54644'
p5424
I01
sS'P36408'
p5425
I01
stbaa(lp5426
S'9422733'
p5427
ag5
(g6
g7
NtRp5428
((dp5429
S'P36411'
p5430
I01
stbaa(lp5431
S'11686306'
p5432
ag5
(g6
g7
NtRp5433
((dp5434
S'P36412'
p5435
I01
stbaa(lp5436
S'8065317'
p5437
ag5
(g6
g7
NtRp5438
((dp5439
S'P36417'
p5440
I01
stbaa(lp5441
S'8125261'
p5442
ag5
(g6
g7
NtRp5443
((dp5444
S'P36417'
p5445
I01
stbaa(lp5446
S'9698452'
p5447
ag5
(g6
g7
NtRp5448
((dp5449
S'P36417'
p5450
I01
stbaa(lp5451
S'19133302'
p5452
ag5
(g6
g7
NtRp5453
((dp5454
S'Q54K81'
p5455
I01
sS'P36417'
p5456
I01
stbaa(lp5457
S'8448193'
p5458
ag5
(g6
g7
NtRp5459
((dp5460
S'P36967'
p5461
I01
stbaa(lp5462
S'8950185'
p5463
ag5
(g6
g7
NtRp5464
((dp5465
S'P42521'
p5466
I01
stbaa(lp5467
S'14651934'
p5468
ag5
(g6
g7
NtRp5469
((dp5470
S'P42523'
p5471
I01
sS'Q9U8Q1'
p5472
I01
stbaa(lp5473
S'7926779'
p5474
ag5
(g6
g7
NtRp5475
((dp5476
S'P42523'
p5477
I01
stbaa(lp5478
S'12062087'
p5479
ag5
(g6
g7
NtRp5480
((dp5481
S'Q55CL6'
p5482
I01
sS'Q557I6'
p5483
I01
sS'P42525'
p5484
I01
sS'Q8N0B4'
p5485
I01
stbaa(lp5486
S'15987738'
p5487
ag5
(g6
g7
NtRp5488
((dp5489
S'Q54SF9'
p5490
I01
sS'Q54DK4'
p5491
I01
sS'P42527'
p5492
I01
sS'P90648'
p5493
I01
sS'Q8MY12'
p5494
I01
stbaa(lp5495
S'20197546'
p5496
ag5
(g6
g7
NtRp5497
((dp5498
S'P42527'
p5499
I01
stbaa(lp5500
S'11278493'
p5501
ag5
(g6
g7
NtRp5502
((dp5503
S'P42527'
p5504
I01
sS'P90648'
p5505
I01
sS'Q8MY12'
p5506
I01
stbaa(lp5507
S'11369235'
p5508
ag5
(g6
g7
NtRp5509
((dp5510
S'P42527'
p5511
I01
stbaa(lp5512
S'16372899'
p5513
ag5
(g6
g7
NtRp5514
((dp5515
S'P42527'
p5516
I01
stbaa(lp5517
S'3027076'
p5518
ag5
(g6
g7
NtRp5519
((dp5520
S'P42527'
p5521
I01
stbaa(lp5522
S'7822274'
p5523
ag5
(g6
g7
NtRp5524
((dp5525
S'P42527'
p5526
I01
stbaa(lp5527
S'18381083'
p5528
ag5
(g6
g7
NtRp5529
((dp5530
S'P42527'
p5531
I01
sS'P90648'
p5532
I01
sS'Q6B9X6'
p5533
I01
stbaa(lp5534
S'8567716'
p5535
ag5
(g6
g7
NtRp5536
((dp5537
S'P42527'
p5538
I01
stbaa(lp5539
S'2176841'
p5540
ag5
(g6
g7
NtRp5541
((dp5542
S'P42527'
p5543
I01
stbaa(lp5544
S'11959103'
p5545
ag5
(g6
g7
NtRp5546
((dp5547
S'P42527'
p5548
I01
stbaa(lp5549
S'15545285'
p5550
ag5
(g6
g7
NtRp5551
((dp5552
S'P42527'
p5553
I01
stbaa(lp5554
S'9201999'
p5555
ag5
(g6
g7
NtRp5556
((dp5557
S'P42527'
p5558
I01
stbaa(lp5559
S'16950926'
p5560
ag5
(g6
g7
NtRp5561
((dp5562
S'Q9GPS0'
p5563
I01
sS'P42528'
p5564
I01
stbaa(lp5565
S'7729526'
p5566
ag5
(g6
g7
NtRp5567
((dp5568
S'P42529'
p5569
I01
stbaa(lp5570
S'10771103'
p5571
ag5
(g6
g7
NtRp5572
((dp5573
S'Q54RF4'
p5574
I01
sS'Q9GYD9'
p5575
I01
sS'P42529'
p5576
I01
stbaa(lp5577
S'10896781'
p5578
ag5
(g6
g7
NtRp5579
((dp5580
S'Q54RF4'
p5581
I01
sS'P42529'
p5582
I01
stbaa(lp5583
S'18384150'
p5584
ag5
(g6
g7
NtRp5585
((dp5586
S'P42530'
p5587
I01
stbaa(lp5588
S'9836437'
p5589
ag5
(g6
g7
NtRp5590
((dp5591
S'Q54UG4'
p5592
I01
sS'P48160'
p5593
I01
stbaa(lp5594
S'23787121'
p5595
ag5
(g6
g7
NtRp5596
((dp5597
S'P51136'
p5598
I01
stbaa(lp5599
S'22020250'
p5600
ag5
(g6
g7
NtRp5601
((dp5602
S'Q54WJ0'
p5603
I01
sS'P51136'
p5604
I01
stbaa(lp5605
S'9784196'
p5606
ag5
(g6
g7
NtRp5607
((dp5608
S'P51136'
p5609
I01
stbaa(lp5610
S'7813009'
p5611
ag5
(g6
g7
NtRp5612
((dp5613
S'P51136'
p5614
I01
stbaa(lp5615
S'15342480'
p5616
ag5
(g6
g7
NtRp5617
((dp5618
S'P51136'
p5619
I01
stbaa(lp5620
S'10571182'
p5621
ag5
(g6
g7
NtRp5622
((dp5623
S'Q75JK0'
p5624
I01
sS'P51136'
p5625
I01
stbaa(lp5626
S'22944283'
p5627
ag5
(g6
g7
NtRp5628
((dp5629
S'Q54BD4'
p5630
I01
sS'P51136'
p5631
I01
sS'Q54ET8'
p5632
I01
stbaa(lp5633
S'21205787'
p5634
ag5
(g6
g7
NtRp5635
((dp5636
S'Q552C6'
p5637
I01
sS'Q75JK0'
p5638
I01
sS'P51136'
p5639
I01
stbaa(lp5640
S'2580557'
p5641
ag5
(g6
g7
NtRp5642
((dp5643
S'P51173'
p5644
I01
stbaa(lp5645
S'21247092'
p5646
ag5
(g6
g7
NtRp5647
((dp5648
S'Q8T1C6'
p5649
I01
sS'Q9Y0T2'
p5650
I01
sS'P52285'
p5651
I01
sS'Q86KR9'
p5652
I01
stbaa(lp5653
S'11358877'
p5654
ag5
(g6
g7
NtRp5655
((dp5656
S'Q557E4'
p5657
I01
sS'P52285'
p5658
I01
sS'Q86KR9'
p5659
I01
stbaa(lp5660
S'1577798'
p5661
ag5
(g6
g7
NtRp5662
((dp5663
S'Q557E4'
p5664
I01
sS'P52285'
p5665
I01
stbaa(lp5666
S'9660787'
p5667
ag5
(g6
g7
NtRp5668
((dp5669
S'Q557E4'
p5670
I01
sS'P52285'
p5671
I01
stbaa(lp5672
S'8662604'
p5673
ag5
(g6
g7
NtRp5674
((dp5675
S'Q557E4'
p5676
I01
sS'Q54QG0'
p5677
I01
sS'P52285'
p5678
I01
stbaa(lp5679
S'12678488'
p5680
ag5
(g6
g7
NtRp5681
((dp5682
S'Q557E4'
p5683
I01
sS'P52285'
p5684
I01
stbaa(lp5685
S'20457612'
p5686
ag5
(g6
g7
NtRp5687
((dp5688
S'Q54JS2'
p5689
I01
sS'P54632'
p5690
I01
sS'Q54XJ7'
p5691
I01
stbaa(lp5692
S'12220630'
p5693
ag5
(g6
g7
NtRp5694
((dp5695
S'P54637'
p5696
I01
sS'Q8MPQ7'
p5697
I01
sS'Q54BD4'
p5698
I01
stbaa(lp5699
S'18305004'
p5700
ag5
(g6
g7
NtRp5701
((dp5702
S'P54637'
p5703
I01
sS'Q54BD4'
p5704
I01
stbaa(lp5705
S'8838672'
p5706
ag5
(g6
g7
NtRp5707
((dp5708
S'P54642'
p5709
I01
stbaa(lp5710
S'10205164'
p5711
ag5
(g6
g7
NtRp5712
((dp5713
S'P54644'
p5714
I01
stbaa(lp5715
S'9226449'
p5716
ag5
(g6
g7
NtRp5717
((dp5718
S'P54644'
p5719
I01
stbaa(lp5720
S'11865029'
p5721
ag5
(g6
g7
NtRp5722
((dp5723
S'Q7YXD4'
p5724
I01
sS'P54647'
p5725
I01
sS'Q9NIV0'
p5726
I01
sS'Q55DM1'
p5727
I01
sS'Q86JF2'
p5728
I01
stbaa(lp5729
S'8126094'
p5730
ag5
(g6
g7
NtRp5731
((dp5732
S'P54647'
p5733
I01
sS'Q54E04'
p5734
I01
stbaa(lp5735
S'16138906'
p5736
ag5
(g6
g7
NtRp5737
((dp5738
S'Q869V1'
p5739
I01
sS'P54647'
p5740
I01
sS'P54654'
p5741
I01
sS'Q8MML6'
p5742
I01
stbaa(lp5743
S'22073313'
p5744
ag5
(g6
g7
NtRp5745
((dp5746
S'Q86D86'
p5747
I01
sS'P54647'
p5748
I01
sS'Q54E04'
p5749
I01
stbaa(lp5750
S'16003496'
p5751
ag5
(g6
g7
NtRp5752
((dp5753
S'Q54PN9'
p5754
I01
sS'P54651'
p5755
I01
stbaa(lp5756
S'18718841'
p5757
ag5
(g6
g7
NtRp5758
((dp5759
S'P54651'
p5760
I01
stbaa(lp5761
S'14706075'
p5762
ag5
(g6
g7
NtRp5763
((dp5764
S'Q54QT7'
p5765
I01
sS'Q54QT9'
p5766
I01
sS'Q54QT8'
p5767
I01
sS'Q869S9'
p5768
I01
sS'Q966Q9'
p5769
I01
sS'P54653'
p5770
I01
sS'Q9GYD9'
p5771
I01
sS'Q966R0'
p5772
I01
stbaa(lp5773
S'19875452'
p5774
ag5
(g6
g7
NtRp5775
((dp5776
S'P54657'
p5777
I01
stbaa(lp5778
S'17057715'
p5779
ag5
(g6
g7
NtRp5780
((dp5781
S'P54657'
p5782
I01
stbaa(lp5783
S'9639652'
p5784
ag5
(g6
g7
NtRp5785
((dp5786
S'P54658'
p5787
I01
stbaa(lp5788
S'3312238'
p5789
ag5
(g6
g7
NtRp5790
((dp5791
S'P54660'
p5792
I01
stbaa(lp5793
S'8432731'
p5794
ag5
(g6
g7
NtRp5795
((dp5796
S'P54660'
p5797
I01
stbaa(lp5798
S'18522444'
p5799
ag5
(g6
g7
NtRp5800
((dp5801
S'P54660'
p5802
I01
stbaa(lp5803
S'8089175'
p5804
ag5
(g6
g7
NtRp5805
((dp5806
S'P54660'
p5807
I01
stbaa(lp5808
S'8089176'
p5809
ag5
(g6
g7
NtRp5810
((dp5811
S'P54660'
p5812
I01
stbaa(lp5813
S'2060029'
p5814
ag5
(g6
g7
NtRp5815
((dp5816
S'P54660'
p5817
I01
stbaa(lp5818
S'8787732'
p5819
ag5
(g6
g7
NtRp5820
((dp5821
S'P54661'
p5822
I01
stbaa(lp5823
S'16606621'
p5824
ag5
(g6
g7
NtRp5825
((dp5826
S'Q86IV5'
p5827
I01
sS'P54661'
p5828
I01
stbaa(lp5829
S'15643062'
p5830
ag5
(g6
g7
NtRp5831
((dp5832
S'Q86IV5'
p5833
I01
sS'P54661'
p5834
I01
sS'Q54K22'
p5835
I01
stbaa(lp5836
S'17897809'
p5837
ag5
(g6
g7
NtRp5838
((dp5839
S'P54671'
p5840
I01
sS'Q54K32'
p5841
I01
stbaa(lp5842
S'22050483'
p5843
ag5
(g6
g7
NtRp5844
((dp5845
S'Q54HS9'
p5846
I01
sS'P54672'
p5847
I01
sS'Q54X82'
p5848
I01
stbaa(lp5849
S'8996086'
p5850
ag5
(g6
g7
NtRp5851
((dp5852
S'P54672'
p5853
I01
stbaa(lp5854
S'17462897'
p5855
ag5
(g6
g7
NtRp5856
((dp5857
S'Q54S78'
p5858
I01
sS'Q54F55'
p5859
I01
sS'Q55FX5'
p5860
I01
sS'Q8T9S7'
p5861
I01
sS'P54673'
p5862
I01
sS'P54674'
p5863
I01
sS'P54675'
p5864
I01
stbaa(lp5865
S'21045112'
p5866
ag5
(g6
g7
NtRp5867
((dp5868
S'Q54S78'
p5869
I01
sS'Q54F55'
p5870
I01
sS'Q55FX5'
p5871
I01
sS'P54673'
p5872
I01
sS'P54674'
p5873
I01
sS'P54675'
p5874
I01
stbaa(lp5875
S'19011688'
p5876
ag5
(g6
g7
NtRp5877
((dp5878
S'Q8T9S7'
p5879
I01
sS'P54673'
p5880
I01
sS'P54674'
p5881
I01
stbaa(lp5882
S'17535967'
p5883
ag5
(g6
g7
NtRp5884
((dp5885
S'Q02158'
p5886
I01
sS'P54673'
p5887
I01
sS'P54674'
p5888
I01
stbaa(lp5889
S'17517960'
p5890
ag5
(g6
g7
NtRp5891
((dp5892
S'Q02158'
p5893
I01
sS'Q8T9S7'
p5894
I01
sS'P54673'
p5895
I01
sS'P54674'
p5896
I01
stbaa(lp5897
S'16421252'
p5898
ag5
(g6
g7
NtRp5899
((dp5900
S'P54673'
p5901
I01
sS'P54674'
p5902
I01
stbaa(lp5903
S'10878573'
p5904
ag5
(g6
g7
NtRp5905
((dp5906
S'P54675'
p5907
I01
stbaa(lp5908
S'7499325'
p5909
ag5
(g6
g7
NtRp5910
((dp5911
S'P54678'
p5912
I01
stbaa(lp5913
S'9885293'
p5914
ag5
(g6
g7
NtRp5915
((dp5916
S'P54678'
p5917
I01
stbaa(lp5918
S'9421912'
p5919
ag5
(g6
g7
NtRp5920
((dp5921
S'P54679'
p5922
I01
stbaa(lp5923
S'16265631'
p5924
ag5
(g6
g7
NtRp5925
((dp5926
S'P54680'
p5927
I01
sS'Q54XX0'
p5928
I01
sS'Q75JH9'
p5929
I01
sS'Q55C43'
p5930
I01
stbaa(lp5931
S'9017597'
p5932
ag5
(g6
g7
NtRp5933
((dp5934
S'P54680'
p5935
I01
stbaa(lp5936
S'10747962'
p5937
ag5
(g6
g7
NtRp5938
((dp5939
S'P54681'
p5940
I01
stbaa(lp5941
S'11330860'
p5942
ag5
(g6
g7
NtRp5943
((dp5944
S'P54681'
p5945
I01
stbaa(lp5946
S'15679845'
p5947
ag5
(g6
g7
NtRp5948
((dp5949
S'P54681'
p5950
I01
stbaa(lp5951
S'8643519'
p5952
ag5
(g6
g7
NtRp5953
((dp5954
S'P54681'
p5955
I01
sS'Q54SM3'
p5956
I01
stbaa(lp5957
S'11719559'
p5958
ag5
(g6
g7
NtRp5959
((dp5960
S'P54681'
p5961
I01
sS'Q8ST66'
p5962
I01
sS'Q9NGP5'
p5963
I01
stbaa(lp5964
S'8951083'
p5965
ag5
(g6
g7
NtRp5966
((dp5967
S'P54681'
p5968
I01
stbaa(lp5969
S'7744252'
p5970
ag5
(g6
g7
NtRp5971
((dp5972
S'P54683'
p5973
I01
sS'Q23868'
p5974
I01
stbaa(lp5975
S'10427097'
p5976
ag5
(g6
g7
NtRp5977
((dp5978
S'P54686'
p5979
I01
stbaa(lp5980
S'20668166'
p5981
ag5
(g6
g7
NtRp5982
((dp5983
S'Q552S0'
p5984
I01
sS'P54686'
p5985
I01
stbaa(lp5986
S'18650439'
p5987
ag5
(g6
g7
NtRp5988
((dp5989
S'P54697'
p5990
I01
stbaa(lp5991
S'10564654'
p5992
ag5
(g6
g7
NtRp5993
((dp5994
S'Q9NAX4'
p5995
I01
sS'P54704'
p5996
I01
stbaa(lp5997
S'17416892'
p5998
ag5
(g6
g7
NtRp5999
((dp6000
S'Q9NAX4'
p6001
I01
sS'P54704'
p6002
I01
stbaa(lp6003
S'11690648'
p6004
ag5
(g6
g7
NtRp6005
((dp6006
S'Q9NI62'
p6007
I01
sS'P54705'
p6008
I01
stbaa(lp6009
S'9177484'
p6010
ag5
(g6
g7
NtRp6011
((dp6012
S'P90520'
p6013
I01
stbaa(lp6014
S'4300706'
p6015
ag5
(g6
g7
NtRp6016
((dp6017
S'P90521'
p6018
I01
stbaa(lp6019
S'7589492'
p6020
ag5
(g6
g7
NtRp6021
((dp6022
S'P90521'
p6023
I01
stbaa(lp6024
S'7813455'
p6025
ag5
(g6
g7
NtRp6026
((dp6027
S'P90521'
p6028
I01
stbaa(lp6029
S'10026266'
p6030
ag5
(g6
g7
NtRp6031
((dp6032
S'P90521'
p6033
I01
stbaa(lp6034
S'12532328'
p6035
ag5
(g6
g7
NtRp6036
((dp6037
S'P90648'
p6038
I01
stbaa(lp6039
S'12139770'
p6040
ag5
(g6
g7
NtRp6041
((dp6042
S'P90648'
p6043
I01
stbaa(lp6044
S'9115238'
p6045
ag5
(g6
g7
NtRp6046
((dp6047
S'P90648'
p6048
I01
stbaa(lp6049
S'1328220'
p6050
ag5
(g6
g7
NtRp6051
((dp6052
S'Q01501'
p6053
I01
stbaa(lp6054
S'1326523'
p6055
ag5
(g6
g7
NtRp6056
((dp6057
S'Q02158'
p6058
I01
stbaa(lp6059
S'8156999'
p6060
ag5
(g6
g7
NtRp6061
((dp6062
S'Q02158'
p6063
I01
stbaa(lp6064
S'1448100'
p6065
ag5
(g6
g7
NtRp6066
((dp6067
S'Q02720'
p6068
I01
stbaa(lp6069
S'10556070'
p6070
ag5
(g6
g7
NtRp6071
((dp6072
S'Q03100'
p6073
I01
sS'Q55F68'
p6074
I01
stbaa(lp6075
S'8619862'
p6076
ag5
(g6
g7
NtRp6077
((dp6078
S'Q03100'
p6079
I01
sS'Q94465'
p6080
I01
stbaa(lp6081
S'15821137'
p6082
ag5
(g6
g7
NtRp6083
((dp6084
S'Q03100'
p6085
I01
stbaa(lp6086
S'20670432'
p6087
ag5
(g6
g7
NtRp6088
((dp6089
S'Q54QV3'
p6090
I01
sS'Q03100'
p6091
I01
sS'Q86AD8'
p6092
I01
stbaa(lp6093
S'9582274'
p6094
ag5
(g6
g7
NtRp6095
((dp6096
S'Q54RR8'
p6097
I01
sS'Q03100'
p6098
I01
stbaa(lp6099
S'22928977'
p6100
ag5
(g6
g7
NtRp6101
((dp6102
S'Q03100'
p6103
I01
sS'Q86H13'
p6104
I01
stbaa(lp6105
S'14718564'
p6106
ag5
(g6
g7
NtRp6107
((dp6108
S'Q03101'
p6109
I01
sS'Q23917'
p6110
I01
stbaa(lp6111
S'18640994'
p6112
ag5
(g6
g7
NtRp6113
((dp6114
S'Q03101'
p6115
I01
stbaa(lp6116
S'17267449'
p6117
ag5
(g6
g7
NtRp6118
((dp6119
S'Q03101'
p6120
I01
stbaa(lp6121
S'8224535'
p6122
ag5
(g6
g7
NtRp6123
((dp6124
S'Q03101'
p6125
I01
stbaa(lp6126
S'3972891'
p6127
ag5
(g6
g7
NtRp6128
((dp6129
S'Q03380'
p6130
I01
stbaa(lp6131
S'8635456'
p6132
ag5
(g6
g7
NtRp6133
((dp6134
S'Q03380'
p6135
I01
stbaa(lp6136
S'8408201'
p6137
ag5
(g6
g7
NtRp6138
((dp6139
S'Q03380'
p6140
I01
stbaa(lp6141
S'16443752'
p6142
ag5
(g6
g7
NtRp6143
((dp6144
S'Q03479'
p6145
I01
stbaa(lp6146
S'12032065'
p6147
ag5
(g6
g7
NtRp6148
((dp6149
S'Q03479'
p6150
I01
stbaa(lp6151
S'8504170'
p6152
ag5
(g6
g7
NtRp6153
((dp6154
S'Q03479'
p6155
I01
stbaa(lp6156
S'16787542'
p6157
ag5
(g6
g7
NtRp6158
((dp6159
S'Q55DM1'
p6160
I01
sS'Q06885'
p6161
I01
stbaa(lp6162
S'17971415'
p6163
ag5
(g6
g7
NtRp6164
((dp6165
S'Q54EH1'
p6166
I01
sS'Q1ZXE9'
p6167
I01
stbaa(lp6168
S'19692567'
p6169
ag5
(g6
g7
NtRp6170
((dp6171
S'Q86AQ7'
p6172
I01
sS'Q54Y50'
p6173
I01
sS'Q54EH1'
p6174
I01
sS'Q54CK6'
p6175
I01
sS'Q1ZXE9'
p6176
I01
sS'Q86KI1'
p6177
I01
stbaa(lp6178
S'17584488'
p6179
ag5
(g6
g7
NtRp6180
((dp6181
S'Q1ZXH8'
p6182
I01
stbaa(lp6183
S'8660315'
p6184
ag5
(g6
g7
NtRp6185
((dp6186
S'Q54GP3'
p6187
I01
sS'Q1ZXI0'
p6188
I01
sS'Q94465'
p6189
I01
stbaa(lp6190
S'23433110'
p6191
ag5
(g6
g7
NtRp6192
((dp6193
S'Q54GP3'
p6194
I01
sS'Q1ZXI0'
p6195
I01
sS'Q94465'
p6196
I01
stbaa(lp6197
S'15740615'
p6198
ag5
(g6
g7
NtRp6199
((dp6200
S'Q54WH2'
p6201
I01
sS'Q5TJ55'
p6202
I01
sS'Q5TJ57'
p6203
I01
sS'Q5TJ56'
p6204
I01
sS'Q54SP2'
p6205
I01
sS'Q54PI9'
p6206
I01
sS'Q54ER5'
p6207
I01
sS'Q1ZXK2'
p6208
I01
stbaa(lp6209
S'22647904'
p6210
ag5
(g6
g7
NtRp6211
((dp6212
S'Q1ZXQ4'
p6213
I01
stbaa(lp6214
S'14629118'
p6215
ag5
(g6
g7
NtRp6216
((dp6217
S'Q55DR6'
p6218
I01
sS'Q1ZXQ4'
p6219
I01
stbaa(lp6220
S'10769206'
p6221
ag5
(g6
g7
NtRp6222
((dp6223
S'Q1ZXQ8'
p6224
I01
stbaa(lp6225
S'20658257'
p6226
ag5
(g6
g7
NtRp6227
((dp6228
S'Q1ZXQ8'
p6229
I01
sS'Q553N8'
p6230
I01
stbaa(lp6231
S'18326585'
p6232
ag5
(g6
g7
NtRp6233
((dp6234
S'Q1ZXQ8'
p6235
I01
sS'Q55GF9'
p6236
I01
sS'Q54WX4'
p6237
I01
stbaa(lp6238
S'12134070'
p6239
ag5
(g6
g7
NtRp6240
((dp6241
S'Q1ZXQ8'
p6242
I01
sS'Q8WQ86'
p6243
I01
stbaa(lp6244
S'14517319'
p6245
ag5
(g6
g7
NtRp6246
((dp6247
S'Q1ZXQ8'
p6248
I01
stbaa(lp6249
S'11726513'
p6250
ag5
(g6
g7
NtRp6251
((dp6252
S'Q23858'
p6253
I01
sS'Q55BA8'
p6254
I01
stbaa(lp6255
S'15897458'
p6256
ag5
(g6
g7
NtRp6257
((dp6258
S'Q5FXM5'
p6259
I01
sS'Q23868'
p6260
I01
sS'Q54U87'
p6261
I01
stbaa(lp6262
S'8986798'
p6263
ag5
(g6
g7
NtRp6264
((dp6265
S'Q54MY9'
p6266
I01
sS'Q23868'
p6267
I01
stbaa(lp6268
S'12456012'
p6269
ag5
(g6
g7
NtRp6270
((dp6271
S'Q8T675'
p6272
I01
sS'Q55BC0'
p6273
I01
sS'Q9GTN7'
p6274
I01
sS'Q9NGP5'
p6275
I01
sS'Q54CG0'
p6276
I01
sS'Q54R52'
p6277
I01
sS'Q54LE6'
p6278
I01
sS'Q8T9W1'
p6279
I01
sS'Q8T663'
p6280
I01
sS'Q8T662'
p6281
I01
sS'Q23868'
p6282
I01
sS'Q8T664'
p6283
I01
sS'Q86HQ2'
p6284
I01
sS'Q8T8P3'
p6285
I01
sS'Q8T5Z7'
p6286
I01
sS'Q54W20'
p6287
I01
sS'Q8T9W2'
p6288
I01
sS'Q54W24'
p6289
I01
sS'Q54GU0'
p6290
I01
sS'Q8T665'
p6291
I01
sS'Q8T690'
p6292
I01
sS'Q8T6J0'
p6293
I01
sS'Q55DR1'
p6294
I01
sS'Q8T689'
p6295
I01
sS'Q8T686'
p6296
I01
sS'Q8T685'
p6297
I01
sS'Q54HM0'
p6298
I01
sS'Q8T683'
p6299
I01
sS'Q54BU4'
p6300
I01
sS'Q54EK2'
p6301
I01
sS'Q8T6J5'
p6302
I01
sS'Q55GB1'
p6303
I01
sS'Q54VJ0'
p6304
I01
sS'Q8ST87'
p6305
I01
sS'Q54V86'
p6306
I01
sS'Q8T673'
p6307
I01
sS'Q54DT1'
p6308
I01
sS'Q8T674'
p6309
I01
sS'Q54BT3'
p6310
I01
sS'Q54TV2'
p6311
I01
sS'Q8T6B4'
p6312
I01
sS'Q54JR2'
p6313
I01
sS'Q54TV1'
p6314
I01
sS'Q8T9W4'
p6315
I01
sS'Q8T6B8'
p6316
I01
sS'Q54NL1'
p6317
I01
sS'Q8ST66'
p6318
I01
sS'Q8T6J1'
p6319
I01
sS'Q54W19'
p6320
I01
sS'Q8T6H8'
p6321
I01
sS'Q8T6J2'
p6322
I01
sS'Q8T6H3'
p6323
I01
sS'Q556W2'
p6324
I01
sS'Q555Z5'
p6325
I01
sS'Q54P13'
p6326
I01
sS'Q54U44'
p6327
I01
sS'Q55DQ2'
p6328
I01
sS'Q54K24'
p6329
I01
sS'Q552P3'
p6330
I01
sS'Q55DW4'
p6331
I01
sS'Q54BT5'
p6332
I01
stbaa(lp6333
S'15752425'
p6334
ag5
(g6
g7
NtRp6335
((dp6336
S'Q23917'
p6337
I01
stbaa(lp6338
S'9435289'
p6339
ag5
(g6
g7
NtRp6340
((dp6341
S'Q23917'
p6342
I01
stbaa(lp6343
S'10974109'
p6344
ag5
(g6
g7
NtRp6345
((dp6346
S'Q54RV9'
p6347
I01
sS'Q23917'
p6348
I01
stbaa(lp6349
S'12796307'
p6350
ag5
(g6
g7
NtRp6351
((dp6352
S'Q9Y0T2'
p6353
I01
sS'Q54U87'
p6354
I01
sS'Q23917'
p6355
I01
stbaa(lp6356
S'10930471'
p6357
ag5
(g6
g7
NtRp6358
((dp6359
S'Q23917'
p6360
I01
stbaa(lp6361
S'10887966'
p6362
ag5
(g6
g7
NtRp6363
((dp6364
S'Q23924'
p6365
I01
stbaa(lp6366
S'16234315'
p6367
ag5
(g6
g7
NtRp6368
((dp6369
S'Q54CF9'
p6370
I01
sS'Q55DA7'
p6371
I01
sS'Q23925'
p6372
I01
sS'Q54XG7'
p6373
I01
sS'Q8T8P2'
p6374
I01
sS'Q54BU4'
p6375
I01
stbaa(lp6376
S'9254905'
p6377
ag5
(g6
g7
NtRp6378
((dp6379
S'Q23925'
p6380
I01
sS'Q54B10'
p6381
I01
stbaa(lp6382
S'17448496'
p6383
ag5
(g6
g7
NtRp6384
((dp6385
S'Q54YL2'
p6386
I01
sS'Q27564'
p6387
I01
sS'Q54UT2'
p6388
I01
stbaa(lp6389
S'23351158'
p6390
ag5
(g6
g7
NtRp6391
((dp6392
S'Q27564'
p6393
I01
stbaa(lp6394
S'17207566'
p6395
ag5
(g6
g7
NtRp6396
((dp6397
S'Q3ZE13'
p6398
I01
stbaa(lp6399
S'18603769'
p6400
ag5
(g6
g7
NtRp6401
((dp6402
S'Q4W6B5'
p6403
I01
sS'Q86A84'
p6404
I01
stbaa(lp6405
S'16051212'
p6406
ag5
(g6
g7
NtRp6407
((dp6408
S'Q54AX5'
p6409
I01
stbaa(lp6410
S'18218133'
p6411
ag5
(g6
g7
NtRp6412
((dp6413
S'Q54B10'
p6414
I01
stbaa(lp6415
S'18252726'
p6416
ag5
(g6
g7
NtRp6417
((dp6418
S'Q54B59'
p6419
I01
sS'Q55E72'
p6420
I01
stbaa(lp6421
S'22035794'
p6422
ag5
(g6
g7
NtRp6423
((dp6424
S'Q54B85'
p6425
I01
stbaa(lp6426
S'11336701'
p6427
ag5
(g6
g7
NtRp6428
((dp6429
S'Q54BD4'
p6430
I01
stbaa(lp6431
S'23587254'
p6432
ag5
(g6
g7
NtRp6433
((dp6434
S'Q54RF4'
p6435
I01
sS'Q54BF0'
p6436
I01
stbaa(lp6437
S'14871937'
p6438
ag5
(g6
g7
NtRp6439
((dp6440
S'Q7Z1I0'
p6441
I01
sS'Q54BF5'
p6442
I01
sS'Q7Z202'
p6443
I01
sS'Q7Z203'
p6444
I01
sS'Q7Z1Z9'
p6445
I01
sS'Q55FW5'
p6446
I01
stbaa(lp6447
S'19466752'
p6448
ag5
(g6
g7
NtRp6449
((dp6450
S'Q54NE5'
p6451
I01
sS'Q54HI5'
p6452
I01
sS'Q54JX0'
p6453
I01
sS'Q86A08'
p6454
I01
sS'Q54RJ3'
p6455
I01
sS'Q54XP9'
p6456
I01
sS'Q86HN7'
p6457
I01
sS'Q54BP1'
p6458
I01
sS'Q54SG2'
p6459
I01
sS'Q54DL5'
p6460
I01
sS'Q54BH4'
p6461
I01
sS'Q54G01'
p6462
I01
sS'Q55CA1'
p6463
I01
stbaa(lp6464
S'15701689'
p6465
ag5
(g6
g7
NtRp6466
((dp6467
S'Q54BM7'
p6468
I01
stbaa(lp6469
S'17940044'
p6470
ag5
(g6
g7
NtRp6471
((dp6472
S'Q54BM7'
p6473
I01
stbaa(lp6474
S'16582628'
p6475
ag5
(g6
g7
NtRp6476
((dp6477
S'Q54MA9'
p6478
I01
sS'Q54BN2'
p6479
I01
sS'Q54YJ7'
p6480
I01
sS'Q54UC0'
p6481
I01
sS'Q54U78'
p6482
I01
sS'Q54LY5'
p6483
I01
sS'Q54CR9'
p6484
I01
sS'Q54CS9'
p6485
I01
stbaa(lp6486
S'19763158'
p6487
ag5
(g6
g7
NtRp6488
((dp6489
S'Q54PN5'
p6490
I01
sS'Q55AZ3'
p6491
I01
sS'Q8T145'
p6492
I01
sS'Q54WG5'
p6493
I01
sS'Q54F00'
p6494
I01
sS'Q54BR4'
p6495
I01
sS'Q54CR0'
p6496
I01
sS'Q55F81'
p6497
I01
stbaa(lp6498
S'23967067'
p6499
ag5
(g6
g7
NtRp6500
((dp6501
S'Q9NGP5'
p6502
I01
sS'Q54CG0'
p6503
I01
sS'Q54R52'
p6504
I01
sS'Q8T664'
p6505
I01
sS'Q8T8P3'
p6506
I01
sS'Q8T6B7'
p6507
I01
sS'Q8T9W2'
p6508
I01
sS'Q54W24'
p6509
I01
sS'Q8T686'
p6510
I01
sS'Q555Z5'
p6511
I01
sS'Q55DA0'
p6512
I01
sS'Q55GB1'
p6513
I01
sS'Q54VJ0'
p6514
I01
sS'Q54V86'
p6515
I01
sS'Q54DT1'
p6516
I01
sS'Q8T675'
p6517
I01
sS'Q54TV2'
p6518
I01
sS'Q8T6B4'
p6519
I01
sS'Q54JR2'
p6520
I01
sS'Q54TV1'
p6521
I01
sS'Q8T6B8'
p6522
I01
sS'Q54HM0'
p6523
I01
sS'Q8ST66'
p6524
I01
sS'Q8T6J1'
p6525
I01
sS'Q8T6J0'
p6526
I01
sS'Q8T6J2'
p6527
I01
sS'Q8T6H3'
p6528
I01
sS'Q556W2'
p6529
I01
sS'Q54BU4'
p6530
I01
sS'Q54P13'
p6531
I01
sS'Q54T02'
p6532
I01
sS'Q54K24'
p6533
I01
sS'Q54BT5'
p6534
I01
stbaa(lp6535
S'17655921'
p6536
ag5
(g6
g7
NtRp6537
((dp6538
S'Q54C46'
p6539
I01
stbaa(lp6540
S'23548898'
p6541
ag5
(g6
g7
NtRp6542
((dp6543
S'Q86HH3'
p6544
I01
sS'Q54VQ5'
p6545
I01
sS'Q54IJ3'
p6546
I01
sS'Q54CB3'
p6547
I01
sS'Q55FI1'
p6548
I01
stbaa(lp6549
S'18621026'
p6550
ag5
(g6
g7
NtRp6551
((dp6552
S'Q54CJ4'
p6553
I01
stbaa(lp6554
S'21606208'
p6555
ag5
(g6
g7
NtRp6556
((dp6557
S'Q76NU1'
p6558
I01
sS'Q54CK9'
p6559
I01
stbaa(lp6560
S'21134080'
p6561
ag5
(g6
g7
NtRp6562
((dp6563
S'Q769F7'
p6564
I01
sS'Q54Y26'
p6565
I01
sS'Q54XJ0'
p6566
I01
sS'Q54CR8'
p6567
I01
stbaa(lp6568
S'16112620'
p6569
ag5
(g6
g7
NtRp6570
((dp6571
S'Q86KS1'
p6572
I01
sS'Q54MA9'
p6573
I01
sS'Q54YJ7'
p6574
I01
sS'Q54UC0'
p6575
I01
sS'Q54LY5'
p6576
I01
sS'Q54CR9'
p6577
I01
stbaa(lp6578
S'18164290'
p6579
ag5
(g6
g7
NtRp6580
((dp6581
S'Q55DA0'
p6582
I01
sS'Q54P41'
p6583
I01
sS'Q54CT1'
p6584
I01
sS'Q54I71'
p6585
I01
sS'Q54UT6'
p6586
I01
sS'Q556S4'
p6587
I01
sS'Q54Z78'
p6588
I01
sS'Q869S5'
p6589
I01
sS'Q55B61'
p6590
I01
sS'Q54WR4'
p6591
I01
sS'Q54RL3'
p6592
I01
sS'Q557Q0'
p6593
I01
sS'Q54FQ2'
p6594
I01
sS'Q553P4'
p6595
I01
sS'Q557G6'
p6596
I01
sS'Q86AT9'
p6597
I01
sS'Q54HV7'
p6598
I01
sS'Q54DT8'
p6599
I01
sS'Q54V07'
p6600
I01
stbaa(lp6601
S'16368684'
p6602
ag5
(g6
g7
NtRp6603
((dp6604
S'Q54CW7'
p6605
I01
stbaa(lp6606
S'19878291'
p6607
ag5
(g6
g7
NtRp6608
((dp6609
S'Q54D84'
p6610
I01
stbaa(lp6611
S'17177856'
p6612
ag5
(g6
g7
NtRp6613
((dp6614
S'Q54D84'
p6615
I01
stbaa(lp6616
S'12464622'
p6617
ag5
(g6
g7
NtRp6618
((dp6619
S'Q54D97'
p6620
I01
sS'Q8I7P3'
p6621
I01
sS'Q54W40'
p6622
I01
sS'Q54PV1'
p6623
I01
stbaa(lp6624
S'11784104'
p6625
ag5
(g6
g7
NtRp6626
((dp6627
S'Q54DD0'
p6628
I01
stbaa(lp6629
S'12871696'
p6630
ag5
(g6
g7
NtRp6631
((dp6632
S'Q54V32'
p6633
I01
sS'Q557B8'
p6634
I01
sS'Q54T92'
p6635
I01
sS'Q54TS2'
p6636
I01
sS'Q54DG1'
p6637
I01
sS'Q86M88'
p6638
I01
stbaa(lp6639
S'15309638'
p6640
ag5
(g6
g7
NtRp6641
((dp6642
S'Q54EX0'
p6643
I01
sS'Q55BZ9'
p6644
I01
sS'Q54JS4'
p6645
I01
sS'Q54JS3'
p6646
I01
sS'Q86KB6'
p6647
I01
sS'Q55BZ7'
p6648
I01
sS'Q54DJ4'
p6649
I01
sS'Q54DJ2'
p6650
I01
sS'Q54DJ3'
p6651
I01
sS'Q54DJ1'
p6652
I01
sS'Q54VM7'
p6653
I01
sS'Q55BZ8'
p6654
I01
sS'Q54U76'
p6655
I01
sS'Q54PW1'
p6656
I01
sS'Q55BZ6'
p6657
I01
sS'Q86K68'
p6658
I01
stbaa(lp6659
S'11488929'
p6660
ag5
(g6
g7
NtRp6661
((dp6662
S'Q54LG5'
p6663
I01
sS'Q54DJ1'
p6664
I01
stbaa(lp6665
S'24137657'
p6666
ag5
(g6
g7
NtRp6667
((dp6668
S'Q54DU0'
p6669
I01
stbaa(lp6670
S'11956322'
p6671
ag5
(g6
g7
NtRp6672
((dp6673
S'Q54E04'
p6674
I01
stbaa(lp6675
S'8743951'
p6676
ag5
(g6
g7
NtRp6677
((dp6678
S'Q54E04'
p6679
I01
stbaa(lp6680
S'23938384'
p6681
ag5
(g6
g7
NtRp6682
((dp6683
S'Q9GPM2'
p6684
I01
sS'Q54E04'
p6685
I01
stbaa(lp6686
S'12082150'
p6687
ag5
(g6
g7
NtRp6688
((dp6689
S'Q54E04'
p6690
I01
stbaa(lp6691
S'18827012'
p6692
ag5
(g6
g7
NtRp6693
((dp6694
S'Q54EH1'
p6695
I01
stbaa(lp6696
S'16243037'
p6697
ag5
(g6
g7
NtRp6698
((dp6699
S'Q54WG6'
p6700
I01
sS'Q54MA9'
p6701
I01
sS'Q54T85'
p6702
I01
sS'Q54UC0'
p6703
I01
sS'Q54ER4'
p6704
I01
sS'Q54LY5'
p6705
I01
stbaa(lp6706
S'21458438'
p6707
ag5
(g6
g7
NtRp6708
((dp6709
S'Q54ER9'
p6710
I01
stbaa(lp6711
S'16396914'
p6712
ag5
(g6
g7
NtRp6713
((dp6714
S'Q54ER9'
p6715
I01
stbaa(lp6716
S'16410410'
p6717
ag5
(g6
g7
NtRp6718
((dp6719
S'Q54ER9'
p6720
I01
sS'Q54XG7'
p6721
I01
stbaa(lp6722
S'20080085'
p6723
ag5
(g6
g7
NtRp6724
((dp6725
S'Q54T71'
p6726
I01
sS'Q54ER9'
p6727
I01
stbaa(lp6728
S'20300194'
p6729
ag5
(g6
g7
NtRp6730
((dp6731
S'Q54FX2'
p6732
I01
sS'Q54NU5'
p6733
I01
sS'Q54ER9'
p6734
I01
sS'Q54T71'
p6735
I01
stbaa(lp6736
S'22253818'
p6737
ag5
(g6
g7
NtRp6738
((dp6739
S'Q54ER9'
p6740
I01
stbaa(lp6741
S'16672332'
p6742
ag5
(g6
g7
NtRp6743
((dp6744
S'Q54ET0'
p6745
I01
stbaa(lp6746
S'16527814'
p6747
ag5
(g6
g7
NtRp6748
((dp6749
S'Q54ET0'
p6750
I01
stbaa(lp6751
S'19002378'
p6752
ag5
(g6
g7
NtRp6753
((dp6754
S'Q54EW0'
p6755
I01
stbaa(lp6756
S'15003488'
p6757
ag5
(g6
g7
NtRp6758
((dp6759
S'Q54EW8'
p6760
I01
sS'Q6RYT0'
p6761
I01
stbaa(lp6762
S'22357942'
p6763
ag5
(g6
g7
NtRp6764
((dp6765
S'Q54EY0'
p6766
I01
stbaa(lp6767
S'16151245'
p6768
ag5
(g6
g7
NtRp6769
((dp6770
S'Q54EY0'
p6771
I01
sS'Q9NA13'
p6772
I01
sS'Q54HZ8'
p6773
I01
sS'Q558Y3'
p6774
I01
stbaa(lp6775
S'12697064'
p6776
ag5
(g6
g7
NtRp6777
((dp6778
S'Q54EY2'
p6779
I01
sS'Q558U1'
p6780
I01
sS'Q869N9'
p6781
I01
sS'Q550L8'
p6782
I01
stbaa(lp6783
S'16957294'
p6784
ag5
(g6
g7
NtRp6785
((dp6786
S'Q54EY3'
p6787
I01
stbaa(lp6788
S'15950752'
p6789
ag5
(g6
g7
NtRp6790
((dp6791
S'Q9XYS3'
p6792
I01
sS'Q54F44'
p6793
I01
sS'Q86GL4'
p6794
I01
sS'Q867T7'
p6795
I01
sS'Q867X6'
p6796
I01
sS'Q95YL4'
p6797
I01
stbaa(lp6798
S'9486804'
p6799
ag5
(g6
g7
NtRp6800
((dp6801
S'Q54F46'
p6802
I01
stbaa(lp6803
S'24132237'
p6804
ag5
(g6
g7
NtRp6805
((dp6806
S'Q54F87'
p6807
I01
stbaa(lp6808
S'16906151'
p6809
ag5
(g6
g7
NtRp6810
((dp6811
S'Q55E72'
p6812
I01
sS'Q54FI3'
p6813
I01
stbaa(lp6814
S'18402932'
p6815
ag5
(g6
g7
NtRp6816
((dp6817
S'Q54FI3'
p6818
I01
sS'Q8T638'
p6819
I01
stbaa(lp6820
S'24096661'
p6821
ag5
(g6
g7
NtRp6822
((dp6823
S'Q55E72'
p6824
I01
sS'Q54FI3'
p6825
I01
stbaa(lp6826
S'20231486'
p6827
ag5
(g6
g7
NtRp6828
((dp6829
S'Q54FI4'
p6830
I01
stbaa(lp6831
S'16495312'
p6832
ag5
(g6
g7
NtRp6833
((dp6834
S'Q54FX2'
p6835
I01
stbaa(lp6836
S'22744750'
p6837
ag5
(g6
g7
NtRp6838
((dp6839
S'Q54G01'
p6840
I01
stbaa(lp6841
S'15073273'
p6842
ag5
(g6
g7
NtRp6843
((dp6844
S'Q54U31'
p6845
I01
sS'Q55A48'
p6846
I01
sS'Q70GP4'
p6847
I01
sS'Q54Y55'
p6848
I01
sS'Q54IP4'
p6849
I01
sS'Q54G43'
p6850
I01
sS'Q54RB7'
p6851
I01
sS'Q86I20'
p6852
I01
stbaa(lp6853
S'16356468'
p6854
ag5
(g6
g7
NtRp6855
((dp6856
S'Q54G53'
p6857
I01
stbaa(lp6858
S'18334553'
p6859
ag5
(g6
g7
NtRp6860
((dp6861
S'Q55CK2'
p6862
I01
sS'Q54GD0'
p6863
I01
stbaa(lp6864
S'16766083'
p6865
ag5
(g6
g7
NtRp6866
((dp6867
S'Q54KZ4'
p6868
I01
sS'Q54GK9'
p6869
I01
sS'Q54P63'
p6870
I01
sS'Q54NF1'
p6871
I01
sS'Q55GD9'
p6872
I01
sS'Q55DV8'
p6873
I01
sS'Q54T18'
p6874
I01
sS'Q54RC4'
p6875
I01
sS'Q54LJ3'
p6876
I01
stbaa(lp6877
S'10987137'
p6878
ag5
(g6
g7
NtRp6879
((dp6880
S'Q54GP3'
p6881
I01
stbaa(lp6882
S'15896778'
p6883
ag5
(g6
g7
NtRp6884
((dp6885
S'Q54GP3'
p6886
I01
stbaa(lp6887
S'16678813'
p6888
ag5
(g6
g7
NtRp6889
((dp6890
S'Q8T137'
p6891
I01
sS'Q54GP8'
p6892
I01
stbaa(lp6893
S'12626495'
p6894
ag5
(g6
g7
NtRp6895
((dp6896
S'Q86CR6'
p6897
I01
sS'Q54NA3'
p6898
I01
sS'Q557H7'
p6899
I01
sS'Q54GT9'
p6900
I01
sS'Q86CR9'
p6901
I01
stbaa(lp6902
S'11854403'
p6903
ag5
(g6
g7
NtRp6904
((dp6905
S'Q54H25'
p6906
I01
stbaa(lp6907
S'17050732'
p6908
ag5
(g6
g7
NtRp6909
((dp6910
S'Q75JH9'
p6911
I01
sS'Q54HG2'
p6912
I01
stbaa(lp6913
S'8752217'
p6914
ag5
(g6
g7
NtRp6915
((dp6916
S'Q550R2'
p6917
I01
sS'Q54HG2'
p6918
I01
stbaa(lp6919
S'21441344'
p6920
ag5
(g6
g7
NtRp6921
((dp6922
S'Q8I7T3'
p6923
I01
sS'Q54HG2'
p6924
I01
stbaa(lp6925
S'15014435'
p6926
ag5
(g6
g7
NtRp6927
((dp6928
S'Q9NHF6'
p6929
I01
sS'Q54HG2'
p6930
I01
stbaa(lp6931
S'22311068'
p6932
ag5
(g6
g7
NtRp6933
((dp6934
S'Q54HH2'
p6935
I01
stbaa(lp6936
S'23269477'
p6937
ag5
(g6
g7
NtRp6938
((dp6939
S'Q54HH2'
p6940
I01
stbaa(lp6941
S'22090348'
p6942
ag5
(g6
g7
NtRp6943
((dp6944
S'Q54HI5'
p6945
I01
stbaa(lp6946
S'16469305'
p6947
ag5
(g6
g7
NtRp6948
((dp6949
S'Q54HS3'
p6950
I01
stbaa(lp6951
S'11179674'
p6952
ag5
(g6
g7
NtRp6953
((dp6954
S'Q54HS9'
p6955
I01
sS'Q9GPF1'
p6956
I01
sS'Q9GPF0'
p6957
I01
stbaa(lp6958
S'17673666'
p6959
ag5
(g6
g7
NtRp6960
((dp6961
S'Q54HT1'
p6962
I01
stbaa(lp6963
S'16571632'
p6964
ag5
(g6
g7
NtRp6965
((dp6966
S'Q54YB7'
p6967
I01
sS'Q54Z40'
p6968
I01
sS'Q869R9'
p6969
I01
sS'Q54K19'
p6970
I01
sS'Q54HX6'
p6971
I01
sS'Q54T71'
p6972
I01
sS'Q54IF9'
p6973
I01
stbaa(lp6974
S'17611045'
p6975
ag5
(g6
g7
NtRp6976
((dp6977
S'Q54W23'
p6978
I01
sS'Q54HY6'
p6979
I01
stbaa(lp6980
S'17353263'
p6981
ag5
(g6
g7
NtRp6982
((dp6983
S'Q86IL5'
p6984
I01
sS'Q9Y0B7'
p6985
I01
sS'Q54I18'
p6986
I01
stbaa(lp6987
S'16107728'
p6988
ag5
(g6
g7
NtRp6989
((dp6990
S'Q54I18'
p6991
I01
stbaa(lp6992
S'18657170'
p6993
ag5
(g6
g7
NtRp6994
((dp6995
S'Q54I36'
p6996
I01
stbaa(lp6997
S'8898113'
p6998
ag5
(g6
g7
NtRp6999
((dp7000
S'Q552C6'
p7001
I01
sS'Q54I36'
p7002
I01
stbaa(lp7003
S'21393547'
p7004
ag5
(g6
g7
NtRp7005
((dp7006
S'Q54MH2'
p7007
I01
sS'Q54I71'
p7008
I01
sS'Q9U720'
p7009
I01
stbaa(lp7010
S'10224056'
p7011
ag5
(g6
g7
NtRp7012
((dp7013
S'Q54IL5'
p7014
I01
stbaa(lp7015
S'21087028'
p7016
ag5
(g6
g7
NtRp7017
((dp7018
S'Q54IT0'
p7019
I01
stbaa(lp7020
S'22389384'
p7021
ag5
(g6
g7
NtRp7022
((dp7023
S'Q54IT4'
p7024
I01
stbaa(lp7025
S'11713866'
p7026
ag5
(g6
g7
NtRp7027
((dp7028
S'Q54IY3'
p7029
I01
stbaa(lp7030
S'19833731'
p7031
ag5
(g6
g7
NtRp7032
((dp7033
S'Q86JM7'
p7034
I01
sS'Q54JH4'
p7035
I01
sS'Q54J33'
p7036
I01
sS'Q553Y1'
p7037
I01
sS'Q553Y0'
p7038
I01
stbaa(lp7039
S'19207182'
p7040
ag5
(g6
g7
NtRp7041
((dp7042
S'Q54J35'
p7043
I01
stbaa(lp7044
S'12952082'
p7045
ag5
(g6
g7
NtRp7046
((dp7047
S'Q54J97'
p7048
I01
stbaa(lp7049
S'17725968'
p7050
ag5
(g6
g7
NtRp7051
((dp7052
S'Q9U3X4'
p7053
I01
sS'Q54J97'
p7054
I01
stbaa(lp7055
S'18676957'
p7056
ag5
(g6
g7
NtRp7057
((dp7058
S'Q54JA5'
p7059
I01
sS'Q54KF7'
p7060
I01
stbaa(lp7061
S'16777069'
p7062
ag5
(g6
g7
NtRp7063
((dp7064
S'Q54JC0'
p7065
I01
stbaa(lp7066
S'15689527'
p7067
ag5
(g6
g7
NtRp7068
((dp7069
S'Q54JH6'
p7070
I01
stbaa(lp7071
S'16282589'
p7072
ag5
(g6
g7
NtRp7073
((dp7074
S'Q54JH6'
p7075
I01
stbaa(lp7076
S'16400165'
p7077
ag5
(g6
g7
NtRp7078
((dp7079
S'Q54JH6'
p7080
I01
stbaa(lp7081
S'23998118'
p7082
ag5
(g6
g7
NtRp7083
((dp7084
S'Q54JI6'
p7085
I01
stbaa(lp7086
S'18676953'
p7087
ag5
(g6
g7
NtRp7088
((dp7089
S'Q54JL7'
p7090
I01
stbaa(lp7091
S'17560550'
p7092
ag5
(g6
g7
NtRp7093
((dp7094
S'Q54JV1'
p7095
I01
stbaa(lp7096
S'23536703'
p7097
ag5
(g6
g7
NtRp7098
((dp7099
S'Q54JW0'
p7100
I01
sS'Q54S83'
p7101
I01
stbaa(lp7102
S'10978342'
p7103
ag5
(g6
g7
NtRp7104
((dp7105
S'Q54JY7'
p7106
I01
sS'Q75JI3'
p7107
I01
stbaa(lp7108
S'8830653'
p7109
ag5
(g6
g7
NtRp7110
((dp7111
S'Q54K32'
p7112
I01
stbaa(lp7113
S'9056774'
p7114
ag5
(g6
g7
NtRp7115
((dp7116
S'Q54K32'
p7117
I01
stbaa(lp7118
S'18367554'
p7119
ag5
(g6
g7
NtRp7120
((dp7121
S'Q54UC0'
p7122
I01
sS'Q54LY5'
p7123
I01
sS'Q54K47'
p7124
I01
stbaa(lp7125
S'9813063'
p7126
ag5
(g6
g7
NtRp7127
((dp7128
S'Q54K50'
p7129
I01
stbaa(lp7130
S'15141168'
p7131
ag5
(g6
g7
NtRp7132
((dp7133
S'Q54K81'
p7134
I01
stbaa(lp7135
S'10209124'
p7136
ag5
(g6
g7
NtRp7137
((dp7138
S'Q54K81'
p7139
I01
stbaa(lp7140
S'16765443'
p7141
ag5
(g6
g7
NtRp7142
((dp7143
S'Q54WR4'
p7144
I01
sS'Q54KA7'
p7145
I01
stbaa(lp7146
S'20186335'
p7147
ag5
(g6
g7
NtRp7148
((dp7149
S'Q54KA7'
p7150
I01
stbaa(lp7151
S'12538772'
p7152
ag5
(g6
g7
NtRp7153
((dp7154
S'Q54KF1'
p7155
I01
stbaa(lp7156
S'22219373'
p7157
ag5
(g6
g7
NtRp7158
((dp7159
S'Q8I7T3'
p7160
I01
sS'Q55FP0'
p7161
I01
sS'Q54KF7'
p7162
I01
stbaa(lp7163
S'15511086'
p7164
ag5
(g6
g7
NtRp7165
((dp7166
S'Q54KR8'
p7167
I01
stbaa(lp7168
S'21871890'
p7169
ag5
(g6
g7
NtRp7170
((dp7171
S'Q86A17'
p7172
I01
sS'Q54LA0'
p7173
I01
stbaa(lp7174
S'7729573'
p7175
ag5
(g6
g7
NtRp7176
((dp7177
S'Q54LG5'
p7178
I01
sS'Q54LF5'
p7179
I01
stbaa(lp7180
S'6468764'
p7181
ag5
(g6
g7
NtRp7182
((dp7183
S'Q54LP2'
p7184
I01
stbaa(lp7185
S'21760904'
p7186
ag5
(g6
g7
NtRp7187
((dp7188
S'Q8SSS9'
p7189
I01
sS'Q5XM24'
p7190
I01
sS'Q54LU5'
p7191
I01
sS'Q54TR1'
p7192
I01
stbaa(lp7193
S'23773804'
p7194
ag5
(g6
g7
NtRp7195
((dp7196
S'Q54LW0'
p7197
I01
stbaa(lp7198
S'18638468'
p7199
ag5
(g6
g7
NtRp7200
((dp7201
S'Q54LW0'
p7202
I01
stbaa(lp7203
S'12890554'
p7204
ag5
(g6
g7
NtRp7205
((dp7206
S'Q54M25'
p7207
I01
stbaa(lp7208
S'23923009'
p7209
ag5
(g6
g7
NtRp7210
((dp7211
S'Q54M56'
p7212
I01
stbaa(lp7213
S'12963116'
p7214
ag5
(g6
g7
NtRp7215
((dp7216
S'Q54ME1'
p7217
I01
stbaa(lp7218
S'18809930'
p7219
ag5
(g6
g7
NtRp7220
((dp7221
S'Q54MH8'
p7222
I01
sS'Q55AX0'
p7223
I01
sS'Q55F94'
p7224
I01
stbaa(lp7225
S'23679940'
p7226
ag5
(g6
g7
NtRp7227
((dp7228
S'Q9U1M9'
p7229
I01
sS'Q54MH8'
p7230
I01
sS'Q55F94'
p7231
I01
sS'Q94464'
p7232
I01
stbaa(lp7233
S'20887559'
p7234
ag5
(g6
g7
NtRp7235
((dp7236
S'Q54MI3'
p7237
I01
stbaa(lp7238
S'20170636'
p7239
ag5
(g6
g7
NtRp7240
((dp7241
S'Q54MP1'
p7242
I01
stbaa(lp7243
S'20057961'
p7244
ag5
(g6
g7
NtRp7245
((dp7246
S'Q54N00'
p7247
I01
stbaa(lp7248
S'16675552'
p7249
ag5
(g6
g7
NtRp7250
((dp7251
S'Q5TJ65'
p7252
I01
sS'Q54N00'
p7253
I01
stbaa(lp7254
S'16599905'
p7255
ag5
(g6
g7
NtRp7256
((dp7257
S'Q54N49'
p7258
I01
stbaa(lp7259
S'16087752'
p7260
ag5
(g6
g7
NtRp7261
((dp7262
S'Q54N80'
p7263
I01
sS'Q54N81'
p7264
I01
stbaa(lp7265
S'20070309'
p7266
ag5
(g6
g7
NtRp7267
((dp7268
S'Q54NA3'
p7269
I01
stbaa(lp7270
S'18413611'
p7271
ag5
(g6
g7
NtRp7272
((dp7273
S'Q54ND5'
p7274
I01
stbaa(lp7275
S'17314411'
p7276
ag5
(g6
g7
NtRp7277
((dp7278
S'Q54NF8'
p7279
I01
sS'Q55FT9'
p7280
I01
sS'Q54X65'
p7281
I01
sS'Q6UK63'
p7282
I01
stbaa(lp7283
S'18261908'
p7284
ag5
(g6
g7
NtRp7285
((dp7286
S'Q54NF8'
p7287
I01
sS'Q55FT9'
p7288
I01
stbaa(lp7289
S'16581519'
p7290
ag5
(g6
g7
NtRp7291
((dp7292
S'Q54NF8'
p7293
I01
sS'Q869Q3'
p7294
I01
sS'Q6UK63'
p7295
I01
stbaa(lp7296
S'9732292'
p7297
ag5
(g6
g7
NtRp7298
((dp7299
S'Q54NF8'
p7300
I01
stbaa(lp7301
S'16597702'
p7302
ag5
(g6
g7
NtRp7303
((dp7304
S'Q54NF8'
p7305
I01
sS'Q869Q3'
p7306
I01
stbaa(lp7307
S'18550798'
p7308
ag5
(g6
g7
NtRp7309
((dp7310
S'Q54NL4'
p7311
I01
stbaa(lp7312
S'10727946'
p7313
ag5
(g6
g7
NtRp7314
((dp7315
S'Q75JI3'
p7316
I01
sS'Q54NP6'
p7317
I01
sS'Q9U9R7'
p7318
I01
stbaa(lp7319
S'10749929'
p7320
ag5
(g6
g7
NtRp7321
((dp7322
S'Q54NW4'
p7323
I01
stbaa(lp7324
S'16495485'
p7325
ag5
(g6
g7
NtRp7326
((dp7327
S'Q54NW7'
p7328
I01
sS'Q86AQ7'
p7329
I01
stbaa(lp7330
S'10888671'
p7331
ag5
(g6
g7
NtRp7332
((dp7333
S'Q54NW7'
p7334
I01
stbaa(lp7335
S'15470500'
p7336
ag5
(g6
g7
NtRp7337
((dp7338
S'Q54NW7'
p7339
I01
stbaa(lp7340
S'14704357'
p7341
ag5
(g6
g7
NtRp7342
((dp7343
S'Q54P04'
p7344
I01
stbaa(lp7345
S'15993406'
p7346
ag5
(g6
g7
NtRp7347
((dp7348
S'Q54PC2'
p7349
I01
stbaa(lp7350
S'8793298'
p7351
ag5
(g6
g7
NtRp7352
((dp7353
S'Q54PQ4'
p7354
I01
stbaa(lp7355
S'16963635'
p7356
ag5
(g6
g7
NtRp7357
((dp7358
S'Q54PR9'
p7359
I01
stbaa(lp7360
S'22811266'
p7361
ag5
(g6
g7
NtRp7362
((dp7363
S'Q54PT9'
p7364
I01
stbaa(lp7365
S'22722653'
p7366
ag5
(g6
g7
NtRp7367
((dp7368
S'Q54PW9'
p7369
I01
stbaa(lp7370
S'10491107'
p7371
ag5
(g6
g7
NtRp7372
((dp7373
S'Q9XZE5'
p7374
I01
sS'Q54QR9'
p7375
I01
sS'Q54Q99'
p7376
I01
stbaa(lp7377
S'10452519'
p7378
ag5
(g6
g7
NtRp7379
((dp7380
S'Q9XZE5'
p7381
I01
sS'Q54QR9'
p7382
I01
sS'Q54Q99'
p7383
I01
stbaa(lp7384
S'21562226'
p7385
ag5
(g6
g7
NtRp7386
((dp7387
S'Q76P24'
p7388
I01
sS'Q9XZE5'
p7389
I01
sS'Q54QR9'
p7390
I01
sS'Q54Q99'
p7391
I01
stbaa(lp7392
S'15333995'
p7393
ag5
(g6
g7
NtRp7394
((dp7395
S'Q54QB1'
p7396
I01
stbaa(lp7397
S'8670837'
p7398
ag5
(g6
g7
NtRp7399
((dp7400
S'Q54QB1'
p7401
I01
stbaa(lp7402
S'17684569'
p7403
ag5
(g6
g7
NtRp7404
((dp7405
S'Q54QC8'
p7406
I01
stbaa(lp7407
S'17998288'
p7408
ag5
(g6
g7
NtRp7409
((dp7410
S'Q54QC8'
p7411
I01
stbaa(lp7412
S'11423539'
p7413
ag5
(g6
g7
NtRp7414
((dp7415
S'Q54QG0'
p7416
I01
stbaa(lp7417
S'12244067'
p7418
ag5
(g6
g7
NtRp7419
((dp7420
S'Q54QG0'
p7421
I01
stbaa(lp7422
S'15351882'
p7423
ag5
(g6
g7
NtRp7424
((dp7425
S'Q54QM6'
p7426
I01
stbaa(lp7427
S'16987957'
p7428
ag5
(g6
g7
NtRp7429
((dp7430
S'Q556N5'
p7431
I01
sS'Q54QQ1'
p7432
I01
stbaa(lp7433
S'16325504'
p7434
ag5
(g6
g7
NtRp7435
((dp7436
S'Q54QQ1'
p7437
I01
stbaa(lp7438
S'15769592'
p7439
ag5
(g6
g7
NtRp7440
((dp7441
S'Q54QT7'
p7442
I01
stbaa(lp7443
S'9883904'
p7444
ag5
(g6
g7
NtRp7445
((dp7446
S'Q54QT7'
p7447
I01
stbaa(lp7448
S'22864416'
p7449
ag5
(g6
g7
NtRp7450
((dp7451
S'Q54R09'
p7452
I01
stbaa(lp7453
S'12176329'
p7454
ag5
(g6
g7
NtRp7455
((dp7456
S'Q54R41'
p7457
I01
stbaa(lp7458
S'15059962'
p7459
ag5
(g6
g7
NtRp7460
((dp7461
S'Q54R41'
p7462
I01
stbaa(lp7463
S'11274054'
p7464
ag5
(g6
g7
NtRp7465
((dp7466
S'Q54RB7'
p7467
I01
stbaa(lp7468
S'17442478'
p7469
ag5
(g6
g7
NtRp7470
((dp7471
S'Q54RB9'
p7472
I01
stbaa(lp7473
S'16835457'
p7474
ag5
(g6
g7
NtRp7475
((dp7476
S'Q54RC0'
p7477
I01
stbaa(lp7478
S'15325281'
p7479
ag5
(g6
g7
NtRp7480
((dp7481
S'Q54RF4'
p7482
I01
sS'Q9U7C9'
p7483
I01
stbaa(lp7484
S'20600701'
p7485
ag5
(g6
g7
NtRp7486
((dp7487
S'Q55BP0'
p7488
I01
sS'Q54RJ2'
p7489
I01
sS'Q54RN0'
p7490
I01
sS'Q55FS1'
p7491
I01
stbaa(lp7492
S'17391056'
p7493
ag5
(g6
g7
NtRp7494
((dp7495
S'Q54RQ4'
p7496
I01
sS'Q55CU7'
p7497
I01
sS'Q54RN0'
p7498
I01
stbaa(lp7499
S'16524908'
p7500
ag5
(g6
g7
NtRp7501
((dp7502
S'Q54RQ4'
p7503
I01
sS'Q54RN0'
p7504
I01
stbaa(lp7505
S'12913271'
p7506
ag5
(g6
g7
NtRp7507
((dp7508
S'Q54RQ1'
p7509
I01
sS'Q54RN1'
p7510
I01
sS'Q55GQ5'
p7511
I01
stbaa(lp7512
S'15123660'
p7513
ag5
(g6
g7
NtRp7514
((dp7515
S'Q54RP0'
p7516
I01
stbaa(lp7517
S'16495217'
p7518
ag5
(g6
g7
NtRp7519
((dp7520
S'Q54RP0'
p7521
I01
stbaa(lp7522
S'18768936'
p7523
ag5
(g6
g7
NtRp7524
((dp7525
S'Q54RQ1'
p7526
I01
stbaa(lp7527
S'15476260'
p7528
ag5
(g6
g7
NtRp7529
((dp7530
S'Q54RV9'
p7531
I01
stbaa(lp7532
S'11566853'
p7533
ag5
(g6
g7
NtRp7534
((dp7535
S'Q54RV9'
p7536
I01
stbaa(lp7537
S'18339368'
p7538
ag5
(g6
g7
NtRp7539
((dp7540
S'Q54RY6'
p7541
I01
stbaa(lp7542
S'15155803'
p7543
ag5
(g6
g7
NtRp7544
((dp7545
S'Q54RZ5'
p7546
I01
stbaa(lp7547
S'10651904'
p7548
ag5
(g6
g7
NtRp7549
((dp7550
S'Q54S20'
p7551
I01
stbaa(lp7552
S'15827084'
p7553
ag5
(g6
g7
NtRp7554
((dp7555
S'Q54S40'
p7556
I01
sS'Q8MVR1'
p7557
I01
stbaa(lp7558
S'16769729'
p7559
ag5
(g6
g7
NtRp7560
((dp7561
S'Q54S40'
p7562
I01
stbaa(lp7563
S'20406883'
p7564
ag5
(g6
g7
NtRp7565
((dp7566
S'Q54S83'
p7567
I01
stbaa(lp7568
S'16507593'
p7569
ag5
(g6
g7
NtRp7570
((dp7571
S'Q54S83'
p7572
I01
stbaa(lp7573
S'20375146'
p7574
ag5
(g6
g7
NtRp7575
((dp7576
S'Q54SK5'
p7577
I01
stbaa(lp7578
S'16741867'
p7579
ag5
(g6
g7
NtRp7580
((dp7581
S'Q54T47'
p7582
I01
stbaa(lp7583
S'17237363'
p7584
ag5
(g6
g7
NtRp7585
((dp7586
S'Q54T71'
p7587
I01
stbaa(lp7588
S'14595117'
p7589
ag5
(g6
g7
NtRp7590
((dp7591
S'Q54T86'
p7592
I01
stbaa(lp7593
S'17664333'
p7594
ag5
(g6
g7
NtRp7595
((dp7596
S'Q54TA1'
p7597
I01
stbaa(lp7598
S'22307974'
p7599
ag5
(g6
g7
NtRp7600
((dp7601
S'Q54TM2'
p7602
I01
stbaa(lp7603
S'10331990'
p7604
ag5
(g6
g7
NtRp7605
((dp7606
S'Q54TN2'
p7607
I01
stbaa(lp7608
S'23616924'
p7609
ag5
(g6
g7
NtRp7610
((dp7611
S'Q54TP5'
p7612
I01
stbaa(lp7613
S'18611962'
p7614
ag5
(g6
g7
NtRp7615
((dp7616
S'Q5XM24'
p7617
I01
sS'Q54TR1'
p7618
I01
stbaa(lp7619
S'9729488'
p7620
ag5
(g6
g7
NtRp7621
((dp7622
S'Q54TY7'
p7623
I01
stbaa(lp7624
S'14665466'
p7625
ag5
(g6
g7
NtRp7626
((dp7627
S'Q54TY7'
p7628
I01
sS'Q6TU47'
p7629
I01
sS'Q6TU48'
p7630
I01
stbaa(lp7631
S'14706699'
p7632
ag5
(g6
g7
NtRp7633
((dp7634
S'Q54TY7'
p7635
I01
stbaa(lp7636
S'11437439'
p7637
ag5
(g6
g7
NtRp7638
((dp7639
S'Q54TY7'
p7640
I01
stbaa(lp7641
S'14732403'
p7642
ag5
(g6
g7
NtRp7643
((dp7644
S'Q6UUW5'
p7645
I01
sS'Q6UUW6'
p7646
I01
sS'Q54U75'
p7647
I01
stbaa(lp7648
S'9191038'
p7649
ag5
(g6
g7
NtRp7650
((dp7651
S'Q54U87'
p7652
I01
stbaa(lp7653
S'8670894'
p7654
ag5
(g6
g7
NtRp7655
((dp7656
S'Q54U87'
p7657
I01
stbaa(lp7658
S'12204259'
p7659
ag5
(g6
g7
NtRp7660
((dp7661
S'Q54U87'
p7662
I01
stbaa(lp7663
S'18160177'
p7664
ag5
(g6
g7
NtRp7665
((dp7666
S'Q54UC9'
p7667
I01
stbaa(lp7668
S'17916577'
p7669
ag5
(g6
g7
NtRp7670
((dp7671
S'Q55FS1'
p7672
I01
sS'Q54UI6'
p7673
I01
stbaa(lp7674
S'22875808'
p7675
ag5
(g6
g7
NtRp7676
((dp7677
S'Q55FS1'
p7678
I01
sS'Q54UI6'
p7679
I01
stbaa(lp7680
S'23724097'
p7681
ag5
(g6
g7
NtRp7682
((dp7683
S'Q55FS1'
p7684
I01
sS'Q54UI6'
p7685
I01
stbaa(lp7686
S'16899077'
p7687
ag5
(g6
g7
NtRp7688
((dp7689
S'Q54UU8'
p7690
I01
stbaa(lp7691
S'18673380'
p7692
ag5
(g6
g7
NtRp7693
((dp7694
S'Q54VB6'
p7695
I01
stbaa(lp7696
S'22869547'
p7697
ag5
(g6
g7
NtRp7698
((dp7699
S'Q54VL5'
p7700
I01
stbaa(lp7701
S'15821735'
p7702
ag5
(g6
g7
NtRp7703
((dp7704
S'Q54WA6'
p7705
I01
stbaa(lp7706
S'20062541'
p7707
ag5
(g6
g7
NtRp7708
((dp7709
S'Q551Q8'
p7710
I01
sS'Q54WI0'
p7711
I01
stbaa(lp7712
S'15821129'
p7713
ag5
(g6
g7
NtRp7714
((dp7715
S'Q54WR4'
p7716
I01
stbaa(lp7717
S'21531871'
p7718
ag5
(g6
g7
NtRp7719
((dp7720
S'Q54WR4'
p7721
I01
sS'Q8MML5'
p7722
I01
stbaa(lp7723
S'22262860'
p7724
ag5
(g6
g7
NtRp7725
((dp7726
S'Q54WT8'
p7727
I01
stbaa(lp7728
S'23320427'
p7729
ag5
(g6
g7
NtRp7730
((dp7731
S'Q54WW9'
p7732
I01
stbaa(lp7733
S'9394012'
p7734
ag5
(g6
g7
NtRp7735
((dp7736
S'Q54WZ2'
p7737
I01
stbaa(lp7738
S'17587329'
p7739
ag5
(g6
g7
NtRp7740
((dp7741
S'Q9GPR7'
p7742
I01
sS'Q54WZ2'
p7743
I01
stbaa(lp7744
S'17086450'
p7745
ag5
(g6
g7
NtRp7746
((dp7747
S'Q54WZ6'
p7748
I01
stbaa(lp7749
S'21040356'
p7750
ag5
(g6
g7
NtRp7751
((dp7752
S'Q54X63'
p7753
I01
stbaa(lp7754
S'15506982'
p7755
ag5
(g6
g7
NtRp7756
((dp7757
S'Q55FT9'
p7758
I01
sS'Q869Q3'
p7759
I01
sS'Q54X65'
p7760
I01
sS'Q6UK63'
p7761
I01
stbaa(lp7762
S'19465563'
p7763
ag5
(g6
g7
NtRp7764
((dp7765
S'Q54X77'
p7766
I01
stbaa(lp7767
S'20539780'
p7768
ag5
(g6
g7
NtRp7769
((dp7770
S'Q54X77'
p7771
I01
stbaa(lp7772
S'561722'
p7773
ag5
(g6
g7
NtRp7774
((dp7775
S'Q54XG2'
p7776
I01
stbaa(lp7777
S'14729573'
p7778
ag5
(g6
g7
NtRp7779
((dp7780
S'Q54XG7'
p7781
I01
stbaa(lp7782
S'15470429'
p7783
ag5
(g6
g7
NtRp7784
((dp7785
S'Q54XG7'
p7786
I01
stbaa(lp7787
S'22223109'
p7788
ag5
(g6
g7
NtRp7789
((dp7790
S'Q54XP9'
p7791
I01
stbaa(lp7792
S'12686622'
p7793
ag5
(g6
g7
NtRp7794
((dp7795
S'Q54XQ2'
p7796
I01
stbaa(lp7797
S'18835579'
p7798
ag5
(g6
g7
NtRp7799
((dp7800
S'Q54XS1'
p7801
I01
stbaa(lp7802
S'23017206'
p7803
ag5
(g6
g7
NtRp7804
((dp7805
S'Q54XS1'
p7806
I01
stbaa(lp7807
S'10793140'
p7808
ag5
(g6
g7
NtRp7809
((dp7810
S'Q54XS3'
p7811
I01
stbaa(lp7812
S'17419997'
p7813
ag5
(g6
g7
NtRp7814
((dp7815
S'Q54XY1'
p7816
I01
stbaa(lp7817
S'22896810'
p7818
ag5
(g6
g7
NtRp7819
((dp7820
S'Q54XY1'
p7821
I01
stbaa(lp7822
S'565823'
p7823
ag5
(g6
g7
NtRp7824
((dp7825
S'Q54Y02'
p7826
I01
stbaa(lp7827
S'12717731'
p7828
ag5
(g6
g7
NtRp7829
((dp7830
S'Q54Y02'
p7831
I01
stbaa(lp7832
S'6273404'
p7833
ag5
(g6
g7
NtRp7834
((dp7835
S'Q54Y02'
p7836
I01
stbaa(lp7837
S'17050736'
p7838
ag5
(g6
g7
NtRp7839
((dp7840
S'Q54Y50'
p7841
I01
stbaa(lp7842
S'17332500'
p7843
ag5
(g6
g7
NtRp7844
((dp7845
S'Q54YF2'
p7846
I01
stbaa(lp7847
S'9716534'
p7848
ag5
(g6
g7
NtRp7849
((dp7850
S'Q54YU6'
p7851
I01
stbaa(lp7852
S'11493573'
p7853
ag5
(g6
g7
NtRp7854
((dp7855
S'Q54YU6'
p7856
I01
stbaa(lp7857
S'18424909'
p7858
ag5
(g6
g7
NtRp7859
((dp7860
S'Q55GH4'
p7861
I01
sS'Q54YZ0'
p7862
I01
stbaa(lp7863
S'14665465'
p7864
ag5
(g6
g7
NtRp7865
((dp7866
S'Q9GPZ7'
p7867
I01
sS'Q54Z54'
p7868
I01
stbaa(lp7869
S'12857872'
p7870
ag5
(g6
g7
NtRp7871
((dp7872
S'Q54ZW0'
p7873
I01
sS'Q55FP0'
p7874
I01
stbaa(lp7875
S'18178563'
p7876
ag5
(g6
g7
NtRp7877
((dp7878
S'Q54ZW0'
p7879
I01
sS'Q55FP0'
p7880
I01
stbaa(lp7881
S'23301051'
p7882
ag5
(g6
g7
NtRp7883
((dp7884
S'Q54ZW0'
p7885
I01
sS'Q55FP0'
p7886
I01
stbaa(lp7887
S'8898200'
p7888
ag5
(g6
g7
NtRp7889
((dp7890
S'Q550D5'
p7891
I01
stbaa(lp7892
S'21034843'
p7893
ag5
(g6
g7
NtRp7894
((dp7895
S'Q8I0F4'
p7896
I01
sS'Q550F6'
p7897
I01
stbaa(lp7898
S'17177855'
p7899
ag5
(g6
g7
NtRp7900
((dp7901
S'Q558U1'
p7902
I01
sS'Q550L8'
p7903
I01
stbaa(lp7904
S'16814427'
p7905
ag5
(g6
g7
NtRp7906
((dp7907
S'Q551M2'
p7908
I01
stbaa(lp7909
S'16790492'
p7910
ag5
(g6
g7
NtRp7911
((dp7912
S'Q551V8'
p7913
I01
sS'Q553Y7'
p7914
I01
stbaa(lp7915
S'18073238'
p7916
ag5
(g6
g7
NtRp7917
((dp7918
S'Q551V8'
p7919
I01
sS'Q553Y7'
p7920
I01
stbaa(lp7921
S'15851518'
p7922
ag5
(g6
g7
NtRp7923
((dp7924
S'Q552S0'
p7925
I01
stbaa(lp7926
S'21239624'
p7927
ag5
(g6
g7
NtRp7928
((dp7929
S'Q552S0'
p7930
I01
stbaa(lp7931
S'17880704'
p7932
ag5
(g6
g7
NtRp7933
((dp7934
S'Q552Y2'
p7935
I01
sS'Q55FV9'
p7936
I01
sS'Q94497'
p7937
I01
sS'Q86KP5'
p7938
I01
stbaa(lp7939
S'22992462'
p7940
ag5
(g6
g7
NtRp7941
((dp7942
S'Q553K4'
p7943
I01
stbaa(lp7944
S'16782229'
p7945
ag5
(g6
g7
NtRp7946
((dp7947
S'Q553N8'
p7948
I01
stbaa(lp7949
S'15629062'
p7950
ag5
(g6
g7
NtRp7951
((dp7952
S'Q554C5'
p7953
I01
stbaa(lp7954
S'293714'
p7955
ag5
(g6
g7
NtRp7956
((dp7957
S'Q554S6'
p7958
I01
stbaa(lp7959
S'16299590'
p7960
ag5
(g6
g7
NtRp7961
((dp7962
S'Q86KM0'
p7963
I01
sS'Q555B5'
p7964
I01
sS'Q556A8'
p7965
I01
stbaa(lp7966
S'23161062'
p7967
ag5
(g6
g7
NtRp7968
((dp7969
S'Q558Z2'
p7970
I01
sS'Q555I8'
p7971
I01
stbaa(lp7972
S'23213391'
p7973
ag5
(g6
g7
NtRp7974
((dp7975
S'Q555I8'
p7976
I01
stbaa(lp7977
S'17588537'
p7978
ag5
(g6
g7
NtRp7979
((dp7980
S'Q555X4'
p7981
I01
stbaa(lp7982
S'21933174'
p7983
ag5
(g6
g7
NtRp7984
((dp7985
S'Q555X5'
p7986
I01
stbaa(lp7987
S'21876387'
p7988
ag5
(g6
g7
NtRp7989
((dp7990
S'Q556J0'
p7991
I01
stbaa(lp7992
S'12117815'
p7993
ag5
(g6
g7
NtRp7994
((dp7995
S'Q556R7'
p7996
I01
stbaa(lp7997
S'12912898'
p7998
ag5
(g6
g7
NtRp7999
((dp8000
S'Q556R7'
p8001
I01
sS'Q86HE5'
p8002
I01
sS'Q86IV5'
p8003
I01
stbaa(lp8004
S'10880352'
p8005
ag5
(g6
g7
NtRp8006
((dp8007
S'Q556Y4'
p8008
I01
stbaa(lp8009
S'15640146'
p8010
ag5
(g6
g7
NtRp8011
((dp8012
S'Q556Y7'
p8013
I01
sS'Q8T1G5'
p8014
I01
sS'Q8T1G4'
p8015
I01
sS'Q8T1G6'
p8016
I01
stbaa(lp8017
S'22623154'
p8018
ag5
(g6
g7
NtRp8019
((dp8020
S'Q556Z0'
p8021
I01
stbaa(lp8022
S'18840649'
p8023
ag5
(g6
g7
NtRp8024
((dp8025
S'Q557E7'
p8026
I01
stbaa(lp8027
S'16449327'
p8028
ag5
(g6
g7
NtRp8029
((dp8030
S'Q557J6'
p8031
I01
stbaa(lp8032
S'17699599'
p8033
ag5
(g6
g7
NtRp8034
((dp8035
S'Q558K8'
p8036
I01
stbaa(lp8037
S'22572958'
p8038
ag5
(g6
g7
NtRp8039
((dp8040
S'Q558K8'
p8041
I01
stbaa(lp8042
S'20940261'
p8043
ag5
(g6
g7
NtRp8044
((dp8045
S'Q558Y7'
p8046
I01
stbaa(lp8047
S'19632001'
p8048
ag5
(g6
g7
NtRp8049
((dp8050
S'Q558Z2'
p8051
I01
stbaa(lp8052
S'15059942'
p8053
ag5
(g6
g7
NtRp8054
((dp8055
S'Q55A00'
p8056
I01
stbaa(lp8057
S'23391225'
p8058
ag5
(g6
g7
NtRp8059
((dp8060
S'Q55AA6'
p8061
I01
stbaa(lp8062
S'17950724'
p8063
ag5
(g6
g7
NtRp8064
((dp8065
S'Q55AP1'
p8066
I01
stbaa(lp8067
S'9275182'
p8068
ag5
(g6
g7
NtRp8069
((dp8070
S'Q55AR3'
p8071
I01
stbaa(lp8072
S'18948008'
p8073
ag5
(g6
g7
NtRp8074
((dp8075
S'Q55AR6'
p8076
I01
stbaa(lp8077
S'21187070'
p8078
ag5
(g6
g7
NtRp8079
((dp8080
S'Q55AX2'
p8081
I01
stbaa(lp8082
S'9630545'
p8083
ag5
(g6
g7
NtRp8084
((dp8085
S'Q55BM4'
p8086
I01
stbaa(lp8087
S'16899512'
p8088
ag5
(g6
g7
NtRp8089
((dp8090
S'Q9GSG9'
p8091
I01
sS'Q55BN3'
p8092
I01
stbaa(lp8093
S'11956323'
p8094
ag5
(g6
g7
NtRp8095
((dp8096
S'Q55BN8'
p8097
I01
stbaa(lp8098
S'7862164'
p8099
ag5
(g6
g7
NtRp8100
((dp8101
S'Q55BV5'
p8102
I01
stbaa(lp8103
S'19576222'
p8104
ag5
(g6
g7
NtRp8105
((dp8106
S'Q55BW2'
p8107
I01
stbaa(lp8108
S'14736886'
p8109
ag5
(g6
g7
NtRp8110
((dp8111
S'Q55CC5'
p8112
I01
sS'Q86CR8'
p8113
I01
sS'Q86CS2'
p8114
I01
stbaa(lp8115
S'16962888'
p8116
ag5
(g6
g7
NtRp8117
((dp8118
S'Q55CL6'
p8119
I01
sS'Q95ZG8'
p8120
I01
stbaa(lp8121
S'18408056'
p8122
ag5
(g6
g7
NtRp8123
((dp8124
S'Q55CS7'
p8125
I01
stbaa(lp8126
S'22345351'
p8127
ag5
(g6
g7
NtRp8128
((dp8129
S'Q55CT4'
p8130
I01
stbaa(lp8131
S'22038042'
p8132
ag5
(g6
g7
NtRp8133
((dp8134
S'Q55CT4'
p8135
I01
stbaa(lp8136
S'15236669'
p8137
ag5
(g6
g7
NtRp8138
((dp8139
S'Q55CZ1'
p8140
I01
stbaa(lp8141
S'10545500'
p8142
ag5
(g6
g7
NtRp8143
((dp8144
S'Q55D99'
p8145
I01
stbaa(lp8146
S'18707607'
p8147
ag5
(g6
g7
NtRp8148
((dp8149
S'Q55DB0'
p8150
I01
stbaa(lp8151
S'12626710'
p8152
ag5
(g6
g7
NtRp8153
((dp8154
S'Q55DL0'
p8155
I01
stbaa(lp8156
S'11872142'
p8157
ag5
(g6
g7
NtRp8158
((dp8159
S'Q55DM1'
p8160
I01
sS'Q86JF2'
p8161
I01
stbaa(lp8162
S'15086784'
p8163
ag5
(g6
g7
NtRp8164
((dp8165
S'Q55DM1'
p8166
I01
stbaa(lp8167
S'16781009'
p8168
ag5
(g6
g7
NtRp8169
((dp8170
S'Q55E26'
p8171
I01
stbaa(lp8172
S'12529423'
p8173
ag5
(g6
g7
NtRp8174
((dp8175
S'Q55E58'
p8176
I01
stbaa(lp8177
S'10930737'
p8178
ag5
(g6
g7
NtRp8179
((dp8180
S'Q55EK9'
p8181
I01
stbaa(lp8182
S'23577638'
p8183
ag5
(g6
g7
NtRp8184
((dp8185
S'Q55F37'
p8186
I01
stbaa(lp8187
S'20966074'
p8188
ag5
(g6
g7
NtRp8189
((dp8190
S'Q55F68'
p8191
I01
stbaa(lp8192
S'9636072'
p8193
ag5
(g6
g7
NtRp8194
((dp8195
S'Q55FB8'
p8196
I01
stbaa(lp8197
S'22682495'
p8198
ag5
(g6
g7
NtRp8199
((dp8200
S'Q55FC8'
p8201
I01
stbaa(lp8202
S'24240571'
p8203
ag5
(g6
g7
NtRp8204
((dp8205
S'Q55FE6'
p8206
I01
stbaa(lp8207
S'16367873'
p8208
ag5
(g6
g7
NtRp8209
((dp8210
S'Q55GK8'
p8211
I01
sS'Q55FP0'
p8212
I01
stbaa(lp8213
S'18708585'
p8214
ag5
(g6
g7
NtRp8215
((dp8216
S'Q55FT4'
p8217
I01
stbaa(lp8218
S'21131095'
p8219
ag5
(g6
g7
NtRp8220
((dp8221
S'Q55G45'
p8222
I01
stbaa(lp8223
S'11352578'
p8224
ag5
(g6
g7
NtRp8225
((dp8226
S'Q55G87'
p8227
I01
sS'Q7YSW8'
p8228
I01
stbaa(lp8229
S'16512895'
p8230
ag5
(g6
g7
NtRp8231
((dp8232
S'Q55G87'
p8233
I01
stbaa(lp8234
S'23686520'
p8235
ag5
(g6
g7
NtRp8236
((dp8237
S'Q55G87'
p8238
I01
sS'Q7YSW8'
p8239
I01
stbaa(lp8240
S'9023987'
p8241
ag5
(g6
g7
NtRp8242
((dp8243
S'Q55GH4'
p8244
I01
stbaa(lp8245
S'12840076'
p8246
ag5
(g6
g7
NtRp8247
((dp8248
S'Q55GQ5'
p8249
I01
stbaa(lp8250
S'15483055'
p8251
ag5
(g6
g7
NtRp8252
((dp8253
S'Q55GV3'
p8254
I01
stbaa(lp8255
S'20472692'
p8256
ag5
(g6
g7
NtRp8257
((dp8258
S'Q5FXM5'
p8259
I01
sS'Q75JI3'
p8260
I01
stbaa(lp8261
S'15255188'
p8262
ag5
(g6
g7
NtRp8263
((dp8264
S'Q65YR8'
p8265
I01
sS'Q65YR7'
p8266
I01
sS'Q5R1U3'
p8267
I01
stbaa(lp8268
S'12388544'
p8269
ag5
(g6
g7
NtRp8270
((dp8271
S'Q5TJ65'
p8272
I01
stbaa(lp8273
S'16176950'
p8274
ag5
(g6
g7
NtRp8275
((dp8276
S'Q5XM24'
p8277
I01
stbaa(lp8278
S'15643073'
p8279
ag5
(g6
g7
NtRp8280
((dp8281
S'Q86KF9'
p8282
I01
sS'Q6B516'
p8283
I01
stbaa(lp8284
S'15728726'
p8285
ag5
(g6
g7
NtRp8286
((dp8287
S'Q6B9X6'
p8288
I01
stbaa(lp8289
S'14551196'
p8290
ag5
(g6
g7
NtRp8291
((dp8292
S'Q6IMN8'
p8293
I01
stbaa(lp8294
S'18990192'
p8295
ag5
(g6
g7
NtRp8296
((dp8297
S'Q6IMN8'
p8298
I01
stbaa(lp8299
S'4308724'
p8300
ag5
(g6
g7
NtRp8301
((dp8302
S'Q6RYT0'
p8303
I01
stbaa(lp8304
S'3024983'
p8305
ag5
(g6
g7
NtRp8306
((dp8307
S'Q6RYT0'
p8308
I01
stbaa(lp8309
S'18712789'
p8310
ag5
(g6
g7
NtRp8311
((dp8312
S'Q6RZZ9'
p8313
I01
stbaa(lp8314
S'15546981'
p8315
ag5
(g6
g7
NtRp8316
((dp8317
S'Q6S000'
p8318
I01
stbaa(lp8319
S'23333327'
p8320
ag5
(g6
g7
NtRp8321
((dp8322
S'Q6S001'
p8323
I01
stbaa(lp8324
S'17031003'
p8325
ag5
(g6
g7
NtRp8326
((dp8327
S'Q6T486'
p8328
I01
stbaa(lp8329
S'12956949'
p8330
ag5
(g6
g7
NtRp8331
((dp8332
S'Q6UK63'
p8333
I01
stbaa(lp8334
S'20348387'
p8335
ag5
(g6
g7
NtRp8336
((dp8337
S'Q6XHA5'
p8338
I01
sS'Q6XHB2'
p8339
I01
stbaa(lp8340
S'22689969'
p8341
ag5
(g6
g7
NtRp8342
((dp8343
S'Q6XHB2'
p8344
I01
stbaa(lp8345
S'14701681'
p8346
ag5
(g6
g7
NtRp8347
((dp8348
S'Q70GP4'
p8349
I01
stbaa(lp8350
S'14517243'
p8351
ag5
(g6
g7
NtRp8352
((dp8353
S'Q71A39'
p8354
I01
sS'Q71A38'
p8355
I01
stbaa(lp8356
S'16135826'
p8357
ag5
(g6
g7
NtRp8358
((dp8359
S'Q71A39'
p8360
I01
stbaa(lp8361
S'12183371'
p8362
ag5
(g6
g7
NtRp8363
((dp8364
S'Q75JI3'
p8365
I01
stbaa(lp8366
S'17606987'
p8367
ag5
(g6
g7
NtRp8368
((dp8369
S'Q75JI3'
p8370
I01
stbaa(lp8371
S'17085634'
p8372
ag5
(g6
g7
NtRp8373
((dp8374
S'Q75JK0'
p8375
I01
stbaa(lp8376
S'15084313'
p8377
ag5
(g6
g7
NtRp8378
((dp8379
S'Q75JL2'
p8380
I01
stbaa(lp8381
S'17501984'
p8382
ag5
(g6
g7
NtRp8383
((dp8384
S'Q75JT4'
p8385
I01
stbaa(lp8386
S'18367552'
p8387
ag5
(g6
g7
NtRp8388
((dp8389
S'Q75JZ1'
p8390
I01
stbaa(lp8391
S'17499244'
p8392
ag5
(g6
g7
NtRp8393
((dp8394
S'Q76NT9'
p8395
I01
stbaa(lp8396
S'21552328'
p8397
ag5
(g6
g7
NtRp8398
((dp8399
S'Q76P24'
p8400
I01
stbaa(lp8401
S'8647262'
p8402
ag5
(g6
g7
NtRp8403
((dp8404
S'Q7M3S9'
p8405
I01
stbaa(lp8406
S'9765812'
p8407
ag5
(g6
g7
NtRp8408
((dp8409
S'Q7YSW8'
p8410
I01
stbaa(lp8411
S'8681950'
p8412
ag5
(g6
g7
NtRp8413
((dp8414
S'Q7YSW8'
p8415
I01
stbaa(lp8416
S'11831389'
p8417
ag5
(g6
g7
NtRp8418
((dp8419
S'Q7YXD4'
p8420
I01
stbaa(lp8421
S'16920105'
p8422
ag5
(g6
g7
NtRp8423
((dp8424
S'Q7YXD4'
p8425
I01
stbaa(lp8426
S'17259548'
p8427
ag5
(g6
g7
NtRp8428
((dp8429
S'Q7YXU4'
p8430
I01
stbaa(lp8431
S'16343335'
p8432
ag5
(g6
g7
NtRp8433
((dp8434
S'Q7YXU4'
p8435
I01
stbaa(lp8436
S'20525180'
p8437
ag5
(g6
g7
NtRp8438
((dp8439
S'Q7YXU4'
p8440
I01
stbaa(lp8441
S'21950343'
p8442
ag5
(g6
g7
NtRp8443
((dp8444
S'Q7YXU4'
p8445
I01
stbaa(lp8446
S'8670893'
p8447
ag5
(g6
g7
NtRp8448
((dp8449
S'Q869S5'
p8450
I01
stbaa(lp8451
S'2830141'
p8452
ag5
(g6
g7
NtRp8453
((dp8454
S'Q869S5'
p8455
I01
stbaa(lp8456
S'11689442'
p8457
ag5
(g6
g7
NtRp8458
((dp8459
S'Q86A02'
p8460
I01
stbaa(lp8461
S'21819985'
p8462
ag5
(g6
g7
NtRp8463
((dp8464
S'Q86A17'
p8465
I01
stbaa(lp8466
S'18997329'
p8467
ag5
(g6
g7
NtRp8468
((dp8469
S'Q86A17'
p8470
I01
stbaa(lp8471
S'20019080'
p8472
ag5
(g6
g7
NtRp8473
((dp8474
S'Q86A84'
p8475
I01
stbaa(lp8476
S'20351273'
p8477
ag5
(g6
g7
NtRp8478
((dp8479
S'Q86AC8'
p8480
I01
stbaa(lp8481
S'21209787'
p8482
ag5
(g6
g7
NtRp8483
((dp8484
S'Q86AD9'
p8485
I01
stbaa(lp8486
S'10459012'
p8487
ag5
(g6
g7
NtRp8488
((dp8489
S'Q86AQ7'
p8490
I01
stbaa(lp8491
S'10329620'
p8492
ag5
(g6
g7
NtRp8493
((dp8494
S'Q86AS5'
p8495
I01
stbaa(lp8496
S'14593072'
p8497
ag5
(g6
g7
NtRp8498
((dp8499
S'Q86AT8'
p8500
I01
stbaa(lp8501
S'15225305'
p8502
ag5
(g6
g7
NtRp8503
((dp8504
S'Q8MQU6'
p8505
I01
sS'Q86AV6'
p8506
I01
sS'Q9NKW1'
p8507
I01
stbaa(lp8508
S'17031001'
p8509
ag5
(g6
g7
NtRp8510
((dp8511
S'Q86CS2'
p8512
I01
stbaa(lp8513
S'15358773'
p8514
ag5
(g6
g7
NtRp8515
((dp8516
S'Q86CS2'
p8517
I01
stbaa(lp8518
S'17150370'
p8519
ag5
(g6
g7
NtRp8520
((dp8521
S'Q86CS2'
p8522
I01
stbaa(lp8523
S'16473345'
p8524
ag5
(g6
g7
NtRp8525
((dp8526
S'Q86CZ2'
p8527
I01
stbaa(lp8528
S'16644729'
p8529
ag5
(g6
g7
NtRp8530
((dp8531
S'Q86H13'
p8532
I01
stbaa(lp8533
S'15708561'
p8534
ag5
(g6
g7
NtRp8535
((dp8536
S'Q86H98'
p8537
I01
sS'Q8T7K0'
p8538
I01
stbaa(lp8539
S'12385972'
p8540
ag5
(g6
g7
NtRp8541
((dp8542
S'Q86HV8'
p8543
I01
stbaa(lp8544
S'16490188'
p8545
ag5
(g6
g7
NtRp8546
((dp8547
S'Q86I19'
p8548
I01
stbaa(lp8549
S'12843630'
p8550
ag5
(g6
g7
NtRp8551
((dp8552
S'Q86I79'
p8553
I01
stbaa(lp8554
S'11029049'
p8555
ag5
(g6
g7
NtRp8556
((dp8557
S'Q86IA3'
p8558
I01
stbaa(lp8559
S'9428745'
p8560
ag5
(g6
g7
NtRp8561
((dp8562
S'Q86IA3'
p8563
I01
stbaa(lp8564
S'12878591'
p8565
ag5
(g6
g7
NtRp8566
((dp8567
S'Q86IG3'
p8568
I01
stbaa(lp8569
S'10444594'
p8570
ag5
(g6
g7
NtRp8571
((dp8572
S'Q86IV5'
p8573
I01
stbaa(lp8574
S'12070154'
p8575
ag5
(g6
g7
NtRp8576
((dp8577
S'Q86IV5'
p8578
I01
stbaa(lp8579
S'11090633'
p8580
ag5
(g6
g7
NtRp8581
((dp8582
S'Q86IV5'
p8583
I01
stbaa(lp8584
S'11371560'
p8585
ag5
(g6
g7
NtRp8586
((dp8587
S'Q86IV5'
p8588
I01
stbaa(lp8589
S'17336445'
p8590
ag5
(g6
g7
NtRp8591
((dp8592
S'Q86IZ4'
p8593
I01
stbaa(lp8594
S'17488289'
p8595
ag5
(g6
g7
NtRp8596
((dp8597
S'Q86JF2'
p8598
I01
stbaa(lp8599
S'17606989'
p8600
ag5
(g6
g7
NtRp8601
((dp8602
S'Q86JF2'
p8603
I01
stbaa(lp8604
S'20097741'
p8605
ag5
(g6
g7
NtRp8606
((dp8607
S'Q9GPF1'
p8608
I01
sS'Q86JF2'
p8609
I01
stbaa(lp8610
S'17625565'
p8611
ag5
(g6
g7
NtRp8612
((dp8613
S'Q86JM7'
p8614
I01
stbaa(lp8615
S'24128258'
p8616
ag5
(g6
g7
NtRp8617
((dp8618
S'Q86K54'
p8619
I01
stbaa(lp8620
S'18216168'
p8621
ag5
(g6
g7
NtRp8622
((dp8623
S'Q86K86'
p8624
I01
stbaa(lp8625
S'12060071'
p8626
ag5
(g6
g7
NtRp8627
((dp8628
S'Q86KE7'
p8629
I01
sS'Q95YH0'
p8630
I01
stbaa(lp8631
S'20479885'
p8632
ag5
(g6
g7
NtRp8633
((dp8634
S'Q86KE7'
p8635
I01
sS'Q95YH0'
p8636
I01
stbaa(lp8637
S'15705570'
p8638
ag5
(g6
g7
NtRp8639
((dp8640
S'Q86KR9'
p8641
I01
stbaa(lp8642
S'17699611'
p8643
ag5
(g6
g7
NtRp8644
((dp8645
S'Q86KR9'
p8646
I01
stbaa(lp8647
S'16410554'
p8648
ag5
(g6
g7
NtRp8649
((dp8650
S'Q86KZ5'
p8651
I01
stbaa(lp8652
S'15652353'
p8653
ag5
(g6
g7
NtRp8654
((dp8655
S'Q86L04'
p8656
I01
sS'Q9NKX1'
p8657
I01
stbaa(lp8658
S'15507488'
p8659
ag5
(g6
g7
NtRp8660
((dp8661
S'Q86L04'
p8662
I01
stbaa(lp8663
S'15652354'
p8664
ag5
(g6
g7
NtRp8665
((dp8666
S'Q86L04'
p8667
I01
stbaa(lp8668
S'12372338'
p8669
ag5
(g6
g7
NtRp8670
((dp8671
S'Q86L04'
p8672
I01
stbaa(lp8673
S'16456031'
p8674
ag5
(g6
g7
NtRp8675
((dp8676
S'Q86L44'
p8677
I01
stbaa(lp8678
S'17343681'
p8679
ag5
(g6
g7
NtRp8680
((dp8681
S'Q8I7P3'
p8682
I01
stbaa(lp8683
S'12499361'
p8684
ag5
(g6
g7
NtRp8685
((dp8686
S'Q8I7T3'
p8687
I01
stbaa(lp8688
S'16478785'
p8689
ag5
(g6
g7
NtRp8690
((dp8691
S'Q9NIV0'
p8692
I01
sS'Q8I8U2'
p8693
I01
stbaa(lp8694
S'11102804'
p8695
ag5
(g6
g7
NtRp8696
((dp8697
S'Q8IS21'
p8698
I01
stbaa(lp8699
S'12429831'
p8700
ag5
(g6
g7
NtRp8701
((dp8702
S'Q8MLZ3'
p8703
I01
stbaa(lp8704
S'12429832'
p8705
ag5
(g6
g7
NtRp8706
((dp8707
S'Q8MLZ3'
p8708
I01
stbaa(lp8709
S'16155255'
p8710
ag5
(g6
g7
NtRp8711
((dp8712
S'Q8MML5'
p8713
I01
stbaa(lp8714
S'16900100'
p8715
ag5
(g6
g7
NtRp8716
((dp8717
S'Q8T9S7'
p8718
I01
sS'Q8MML5'
p8719
I01
stbaa(lp8720
S'19213599'
p8721
ag5
(g6
g7
NtRp8722
((dp8723
S'Q8MML5'
p8724
I01
stbaa(lp8725
S'22730904'
p8726
ag5
(g6
g7
NtRp8727
((dp8728
S'Q8MMR8'
p8729
I01
stbaa(lp8730
S'23187822'
p8731
ag5
(g6
g7
NtRp8732
((dp8733
S'Q8MMR8'
p8734
I01
stbaa(lp8735
S'16734666'
p8736
ag5
(g6
g7
NtRp8737
((dp8738
S'Q8MN58'
p8739
I01
stbaa(lp8740
S'18703517'
p8741
ag5
(g6
g7
NtRp8742
((dp8743
S'Q8MVR1'
p8744
I01
stbaa(lp8745
S'22119747'
p8746
ag5
(g6
g7
NtRp8747
((dp8748
S'Q8MVR1'
p8749
I01
stbaa(lp8750
S'18673369'
p8751
ag5
(g6
g7
NtRp8752
((dp8753
S'Q8MVR1'
p8754
I01
stbaa(lp8755
S'14686953'
p8756
ag5
(g6
g7
NtRp8757
((dp8758
S'Q9BLG3'
p8759
I01
sS'Q8MXY0'
p8760
I01
stbaa(lp8761
S'16188250'
p8762
ag5
(g6
g7
NtRp8763
((dp8764
S'Q8MXY0'
p8765
I01
stbaa(lp8766
S'12475956'
p8767
ag5
(g6
g7
NtRp8768
((dp8769
S'Q8MY12'
p8770
I01
stbaa(lp8771
S'16336640'
p8772
ag5
(g6
g7
NtRp8773
((dp8774
S'Q8SSQ3'
p8775
I01
stbaa(lp8776
S'20709790'
p8777
ag5
(g6
g7
NtRp8778
((dp8779
S'Q8SSS9'
p8780
I01
stbaa(lp8781
S'12954783'
p8782
ag5
(g6
g7
NtRp8783
((dp8784
S'Q8SSS9'
p8785
I01
stbaa(lp8786
S'11157987'
p8787
ag5
(g6
g7
NtRp8788
((dp8789
S'Q8T133'
p8790
I01
stbaa(lp8791
S'14623897'
p8792
ag5
(g6
g7
NtRp8793
((dp8794
S'Q8T135'
p8795
I01
stbaa(lp8796
S'10593934'
p8797
ag5
(g6
g7
NtRp8798
((dp8799
S'Q8T1C6'
p8800
I01
stbaa(lp8801
S'12244115'
p8802
ag5
(g6
g7
NtRp8803
((dp8804
S'Q8T1C6'
p8805
I01
stbaa(lp8806
S'9446571'
p8807
ag5
(g6
g7
NtRp8808
((dp8809
S'Q8T638'
p8810
I01
stbaa(lp8811
S'11163223'
p8812
ag5
(g6
g7
NtRp8813
((dp8814
S'Q8T638'
p8815
I01
stbaa(lp8816
S'15276209'
p8817
ag5
(g6
g7
NtRp8818
((dp8819
S'Q8T7K0'
p8820
I01
stbaa(lp8821
S'15757670'
p8822
ag5
(g6
g7
NtRp8823
((dp8824
S'Q8T7K0'
p8825
I01
stbaa(lp8826
S'17623773'
p8827
ag5
(g6
g7
NtRp8828
((dp8829
S'Q8T9S7'
p8830
I01
stbaa(lp8831
S'11737154'
p8832
ag5
(g6
g7
NtRp8833
((dp8834
S'Q8WSR7'
p8835
I01
stbaa(lp8836
S'9880338'
p8837
ag5
(g6
g7
NtRp8838
((dp8839
S'Q94464'
p8840
I01
stbaa(lp8841
S'11823417'
p8842
ag5
(g6
g7
NtRp8843
((dp8844
S'Q94464'
p8845
I01
stbaa(lp8846
S'16527408'
p8847
ag5
(g6
g7
NtRp8848
((dp8849
S'Q94465'
p8850
I01
stbaa(lp8851
S'8870645'
p8852
ag5
(g6
g7
NtRp8853
((dp8854
S'Q94465'
p8855
I01
stbaa(lp8856
S'9169048'
p8857
ag5
(g6
g7
NtRp8858
((dp8859
S'Q94489'
p8860
I01
stbaa(lp8861
S'9348538'
p8862
ag5
(g6
g7
NtRp8863
((dp8864
S'Q94490'
p8865
I01
stbaa(lp8866
S'9102307'
p8867
ag5
(g6
g7
NtRp8868
((dp8869
S'Q94491'
p8870
I01
stbaa(lp8871
S'9397534'
p8872
ag5
(g6
g7
NtRp8873
((dp8874
S'Q94502'
p8875
I01
stbaa(lp8876
S'19861424'
p8877
ag5
(g6
g7
NtRp8878
((dp8879
S'Q95NZ8'
p8880
I01
stbaa(lp8881
S'9808785'
p8882
ag5
(g6
g7
NtRp8883
((dp8884
S'Q95PI2'
p8885
I01
stbaa(lp8886
S'15788570'
p8887
ag5
(g6
g7
NtRp8888
((dp8889
S'Q95US4'
p8890
I01
stbaa(lp8891
S'8831554'
p8892
ag5
(g6
g7
NtRp8893
((dp8894
S'Q95US4'
p8895
I01
stbaa(lp8896
S'15196949'
p8897
ag5
(g6
g7
NtRp8898
((dp8899
S'Q95YH0'
p8900
I01
stbaa(lp8901
S'11481037'
p8902
ag5
(g6
g7
NtRp8903
((dp8904
S'Q95YL4'
p8905
I01
sS'Q95YL5'
p8906
I01
stbaa(lp8907
S'11927596'
p8908
ag5
(g6
g7
NtRp8909
((dp8910
S'Q95YL4'
p8911
I01
sS'Q95YL5'
p8912
I01
stbaa(lp8913
S'12018385'
p8914
ag5
(g6
g7
NtRp8915
((dp8916
S'Q95ZG4'
p8917
I01
sS'Q95ZG3'
p8918
I01
stbaa(lp8919
S'11683919'
p8920
ag5
(g6
g7
NtRp8921
((dp8922
S'Q966T6'
p8923
I01
stbaa(lp8924
S'19411624'
p8925
ag5
(g6
g7
NtRp8926
((dp8927
S'Q967U1'
p8928
I01
stbaa(lp8929
S'15367206'
p8930
ag5
(g6
g7
NtRp8931
((dp8932
S'Q968Z6'
p8933
I01
stbaa(lp8934
S'21256841'
p8935
ag5
(g6
g7
NtRp8936
((dp8937
S'Q9BLG4'
p8938
I01
stbaa(lp8939
S'16835443'
p8940
ag5
(g6
g7
NtRp8941
((dp8942
S'Q9BLG4'
p8943
I01
stbaa(lp8944
S'17951519'
p8945
ag5
(g6
g7
NtRp8946
((dp8947
S'Q9BLG4'
p8948
I01
stbaa(lp8949
S'17010123'
p8950
ag5
(g6
g7
NtRp8951
((dp8952
S'Q9GPF1'
p8953
I01
stbaa(lp8954
S'17889831'
p8955
ag5
(g6
g7
NtRp8956
((dp8957
S'Q9GPM2'
p8958
I01
stbaa(lp8959
S'15363631'
p8960
ag5
(g6
g7
NtRp8961
((dp8962
S'Q9GPM4'
p8963
I01
stbaa(lp8964
S'17004322'
p8965
ag5
(g6
g7
NtRp8966
((dp8967
S'Q9GPR7'
p8968
I01
stbaa(lp8969
S'19325115'
p8970
ag5
(g6
g7
NtRp8971
((dp8972
S'Q9GPR7'
p8973
I01
stbaa(lp8974
S'9546041'
p8975
ag5
(g6
g7
NtRp8976
((dp8977
S'Q9GRF8'
p8978
I01
stbaa(lp8979
S'11479029'
p8980
ag5
(g6
g7
NtRp8981
((dp8982
S'Q9GRF8'
p8983
I01
stbaa(lp8984
S'11598188'
p8985
ag5
(g6
g7
NtRp8986
((dp8987
S'Q9GRX6'
p8988
I01
stbaa(lp8989
S'15883156'
p8990
ag5
(g6
g7
NtRp8991
((dp8992
S'Q9GSB0'
p8993
I01
stbaa(lp8994
S'15728724'
p8995
ag5
(g6
g7
NtRp8996
((dp8997
S'Q9GSG9'
p8998
I01
stbaa(lp8999
S'12756178'
p9000
ag5
(g6
g7
NtRp9001
((dp9002
S'Q9GTN7'
p9003
I01
stbaa(lp9004
S'17056744'
p9005
ag5
(g6
g7
NtRp9006
((dp9007
S'Q9GTN7'
p9008
I01
stbaa(lp9009
S'10970875'
p9010
ag5
(g6
g7
NtRp9011
((dp9012
S'Q9NA13'
p9013
I01
stbaa(lp9014
S'17077123'
p9015
ag5
(g6
g7
NtRp9016
((dp9017
S'Q9NA13'
p9018
I01
stbaa(lp9019
S'18077554'
p9020
ag5
(g6
g7
NtRp9021
((dp9022
S'Q9NA13'
p9023
I01
stbaa(lp9024
S'18202452'
p9025
ag5
(g6
g7
NtRp9026
((dp9027
S'Q9NA13'
p9028
I01
stbaa(lp9029
S'18359017'
p9030
ag5
(g6
g7
NtRp9031
((dp9032
S'Q9NA13'
p9033
I01
stbaa(lp9034
S'10804029'
p9035
ag5
(g6
g7
NtRp9036
((dp9037
S'Q9NH03'
p9038
I01
stbaa(lp9039
S'22849378'
p9040
ag5
(g6
g7
NtRp9041
((dp9042
S'Q9NH03'
p9043
I01
stbaa(lp9044
S'16005849'
p9045
ag5
(g6
g7
NtRp9046
((dp9047
S'Q9NH03'
p9048
I01
stbaa(lp9049
S'10828443'
p9050
ag5
(g6
g7
NtRp9051
((dp9052
S'Q9TW28'
p9053
I01
stbaa(lp9054
S'11208126'
p9055
ag5
(g6
g7
NtRp9056
((dp9057
S'Q9TW28'
p9058
I01
stbaa(lp9059
S'11267868'
p9060
ag5
(g6
g7
NtRp9061
((dp9062
S'Q9U1M8'
p9063
I01
stbaa(lp9064
S'10574761'
p9065
ag5
(g6
g7
NtRp9066
((dp9067
S'Q9U1M8'
p9068
I01
stbaa(lp9069
S'15470238'
p9070
ag5
(g6
g7
NtRp9071
((dp9072
S'Q9U1M8'
p9073
I01
stbaa(lp9074
S'17189480'
p9075
ag5
(g6
g7
NtRp9076
((dp9077
S'Q9U1M8'
p9078
I01
stbaa(lp9079
S'21086149'
p9080
ag5
(g6
g7
NtRp9081
((dp9082
S'Q9U1M9'
p9083
I01
stbaa(lp9084
S'10681463'
p9085
ag5
(g6
g7
NtRp9086
((dp9087
S'Q9U720'
p9088
I01
stbaa(lp9089
S'12654899'
p9090
ag5
(g6
g7
NtRp9091
((dp9092
S'Q9U720'
p9093
I01
stbaa(lp9094
S'21327858'
p9095
ag5
(g6
g7
NtRp9096
((dp9097
S'Q9U7C9'
p9098
I01
stbaa(lp9099
S'10652255'
p9100
ag5
(g6
g7
NtRp9101
((dp9102
S'Q9XXV8'
p9103
I01
stbaa(lp9104
S'10898960'
p9105
ag5
(g6
g7
NtRp9106
((dp9107
S'Q9Y0T2'
p9108
I01
stbaa(lp9109
S'10725352'
p9110
ag5
(g6
g7
NtRp9111
((dp9112
S'Q9Y0T2'
p9113
I01
stbaa(lp9114
S'10504413'
p9115
ag5
(g6
g7
NtRp9116
((dp9117
S'Q9Y1W0'
p9118
I01
stbaa(lp9119
S'15632431'
p9120
ag5
(g6
g7
NtRp9121
((dp9122
S'Q9Y1W0'
p9123
I01
stbaatRp9124
.