ccollections
OrderedDict
p1
((lp2
(lp3
S'18673382'
p4
accopy_reg
_reconstructor
p5
(csets
Set
p6
c__builtin__
object
p7
NtRp8
((dp9
S'A2V850'
p10
I01
stbaa(lp11
S'22120990'
p12
ag5
(g6
g7
NtRp13
((dp14
S'Q54D02'
p15
I01
sS'Q54D03'
p16
I01
sS'Q54D04'
p17
I01
sS'Q54D06'
p18
I01
sS'Q54D07'
p19
I01
sS'Q54D08'
p20
I01
sS'Q8MQU6'
p21
I01
sS'Q55BE6'
p22
I01
sS'Q557I9'
p23
I01
sS'Q54RX9'
p24
I01
sS'Q54RX6'
p25
I01
sS'Q54RX7'
p26
I01
sS'Q54RX2'
p27
I01
sS'Q54RX0'
p28
I01
sS'Q557I4'
p29
I01
sS'Q54MM6'
p30
I01
sS'Q54PT5'
p31
I01
sS'Q54PT7'
p32
I01
sS'Q54DW2'
p33
I01
sS'Q54MM9'
p34
I01
sS'Q54N47'
p35
I01
sS'Q54E36'
p36
I01
sS'Q54E30'
p37
I01
sS'Q553Q8'
p38
I01
sS'Q55ET3'
p39
I01
sS'Q54JG6'
p40
I01
sS'P11874'
p41
I01
sS'Q54RJ1'
p42
I01
sS'Q8T2Q3'
p43
I01
sS'Q54B42'
p44
I01
sS'Q54B43'
p45
I01
sS'Q55E06'
p46
I01
sS'Q54CV3'
p47
I01
sS'Q54BJ7'
p48
I01
sS'Q552C9'
p49
I01
sS'Q86K89'
p50
I01
sS'Q86A21'
p51
I01
sS'P34045'
p52
I01
sS'Q869L6'
p53
I01
sS'P34046'
p54
I01
sS'P34043'
p55
I01
sS'P34042'
p56
I01
sS'Q550A6'
p57
I01
sS'Q555G2'
p58
I01
sS'Q555G0'
p59
I01
sS'Q55F30'
p60
I01
sS'Q557I5'
p61
I01
sS'Q557G3'
p62
I01
sS'Q55BE9'
p63
I01
sS'Q54GL5'
p64
I01
sS'Q54KM4'
p65
I01
sS'Q54KM5'
p66
I01
sS'Q55FI4'
p67
I01
sS'Q54HR9'
p68
I01
sS'Q55FI1'
p69
I01
sS'Q54KM9'
p70
I01
sS'Q55GG8'
p71
I01
sS'Q54UM3'
p72
I01
sS'Q54UM1'
p73
I01
sS'Q54FC3'
p74
I01
sS'Q7KWM5'
p75
I01
sS'Q8T690'
p76
I01
sS'Q9TW32'
p77
I01
sS'Q55DB6'
p78
I01
sS'Q54JG9'
p79
I01
sS'Q9BIW5'
p80
I01
sS'P24005'
p81
I01
sS'Q54N42'
p82
I01
sS'O96070'
p83
I01
sS'Q8T2U3'
p84
I01
sS'Q55AI5'
p85
I01
sS'Q54XI2'
p86
I01
sS'Q54XI5'
p87
I01
sS'Q54BM1'
p88
I01
sS'Q54BM0'
p89
I01
sS'Q54BM3'
p90
I01
sS'Q54BM2'
p91
I01
sS'P46794'
p92
I01
sS'Q54BM7'
p93
I01
sS'Q54U24'
p94
I01
sS'Q55ET7'
p95
I01
sS'P02888'
p96
I01
sS'Q55BX3'
p97
I01
sS'Q55BX5'
p98
I01
sS'Q54QA4'
p99
I01
sS'Q54R55'
p100
I01
sS'Q76NW2'
p101
I01
sS'Q54M03'
p102
I01
sS'Q54WM4'
p103
I01
sS'Q86HU8'
p104
I01
sS'Q86HU9'
p105
I01
sS'Q95UQ1'
p106
I01
sS'Q86JA1'
p107
I01
sS'P90532'
p108
I01
sS'Q86JA8'
p109
I01
sS'Q54JV8'
p110
I01
sS'Q54XS7'
p111
I01
sS'Q54VW1'
p112
I01
sS'Q1ZXL7'
p113
I01
sS'Q54JV6'
p114
I01
sS'Q54JV0'
p115
I01
sS'Q54JV1'
p116
I01
sS'Q54MB5'
p117
I01
sS'Q54MB4'
p118
I01
sS'Q02720'
p119
I01
sS'Q54HV6'
p120
I01
sS'Q9GS21'
p121
I01
sS'Q54HV5'
p122
I01
sS'Q86HC7'
p123
I01
sS'Q54NF2'
p124
I01
sS'Q54NF3'
p125
I01
sS'Q76P29'
p126
I01
sS'Q54NF8'
p127
I01
sS'Q54NF9'
p128
I01
sS'Q54K41'
p129
I01
sS'Q54K47'
p130
I01
sS'Q76P23'
p131
I01
sS'Q54GI7'
p132
I01
sS'Q54LV8'
p133
I01
sS'Q54WD9'
p134
I01
sS'Q54GI9'
p135
I01
sS'Q54ZW5'
p136
I01
sS'Q54SM3'
p137
I01
sS'Q54TU2'
p138
I01
sS'Q75K16'
p139
I01
sS'Q54TU4'
p140
I01
sS'Q54CG0'
p141
I01
sS'Q54TU8'
p142
I01
sS'Q54HD4'
p143
I01
sS'Q75JI5'
p144
I01
sS'Q54NP6'
p145
I01
sS'Q54SC9'
p146
I01
sS'Q54J34'
p147
I01
sS'O00899'
p148
I01
sS'O00897'
p149
I01
sS'Q54G47'
p150
I01
sS'Q54G46'
p151
I01
sS'Q55BJ9'
p152
I01
sS'Q54G42'
p153
I01
sS'Q54BQ3'
p154
I01
sS'Q55C16'
p155
I01
sS'Q54BQ8'
p156
I01
sS'O76856'
p157
I01
sS'Q54G75'
p158
I01
sS'Q8T664'
p159
I01
sS'Q54D10'
p160
I01
sS'Q55BD5'
p161
I01
sS'Q54DT1'
p162
I01
sS'Q54PX3'
p163
I01
sS'Q54JX6'
p164
I01
sS'Q54ML1'
p165
I01
sS'Q54JX0'
p166
I01
sS'Q1ZXA8'
p167
I01
sS'Q54PU7'
p168
I01
sS'Q8MMS1'
p169
I01
sS'Q54E22'
p170
I01
sS'Q54N57'
p171
I01
sS'Q54E20'
p172
I01
sS'Q54E24'
p173
I01
sS'Q553V2'
p174
I01
sS'Q553V1'
p175
I01
sS'Q54N59'
p176
I01
sS'Q54DJ0'
p177
I01
sS'Q54JJ1'
p178
I01
sS'Q54JJ8'
p179
I01
sS'Q54JJ9'
p180
I01
sS'Q75JD5'
p181
I01
sS'Q54CU7'
p182
I01
sS'Q54CU2'
p183
I01
sS'Q550R6'
p184
I01
sS'Q23924'
p185
I01
sS'Q23921'
p186
I01
sS'Q552B4'
p187
I01
sS'Q9BKJ9'
p188
I01
sS'Q552B8'
p189
I01
sS'Q86L28'
p190
I01
sS'Q86IX4'
p191
I01
sS'P29505'
p192
I01
sS'P02599'
p193
I01
sS'O77033'
p194
I01
sS'Q55FF9'
p195
I01
sS'Q55FF3'
p196
I01
sS'Q55FF2'
p197
I01
sS'Q55FF7'
p198
I01
sS'Q54RK5'
p199
I01
sS'Q9U3X4'
p200
I01
sS'Q54YY1'
p201
I01
sS'B0G108'
p202
I01
sS'Q54KL5'
p203
I01
sS'Q55FH2'
p204
I01
sS'Q86KB7'
p205
I01
sS'Q86KB4'
p206
I01
sS'Q558Y7'
p207
I01
sS'Q54IP5'
p208
I01
sS'Q54IP4'
p209
I01
sS'Q54UL9'
p210
I01
sS'Q55BV1'
p211
I01
sS'Q00766'
p212
I01
sS'Q54IP9'
p213
I01
sS'Q55CN9'
p214
I01
sS'Q8T683'
p215
I01
sS'Q54FN9'
p216
I01
sS'Q54X84'
p217
I01
sS'Q54X86'
p218
I01
sS'Q54X80'
p219
I01
sS'Q54W37'
p220
I01
sS'Q54W34'
p221
I01
sS'Q54W35'
p222
I01
sS'Q54EH1'
p223
I01
sS'Q54EH2'
p224
I01
sS'Q55AB6'
p225
I01
sS'Q54LA5'
p226
I01
sS'Q8T2T5'
p227
I01
sS'Q54XF7'
p228
I01
sS'Q54XF2'
p229
I01
sS'Q54P88'
p230
I01
sS'Q54CB3'
p231
I01
sS'Q54BN4'
p232
I01
sS'Q54BN0'
p233
I01
sS'O97470'
p234
I01
sS'Q54BN3'
p235
I01
sS'Q54XB6'
p236
I01
sS'Q54P64'
p237
I01
sS'Q54P63'
p238
I01
sS'P19198'
p239
I01
sS'Q54WL7'
p240
I01
sS'Q54WL4'
p241
I01
sS'Q54WL1'
p242
I01
sS'Q55GJ6'
p243
I01
sS'Q55GJ7'
p244
I01
sS'Q55GJ4'
p245
I01
sS'Q55GJ9'
p246
I01
sS'Q86HT1'
p247
I01
sS'Q54FX8'
p248
I01
sS'Q54S90'
p249
I01
sS'Q8T1G5'
p250
I01
sS'Q54S93'
p251
I01
sS'Q54FX4'
p252
I01
sS'Q54PQ6'
p253
I01
sS'Q9GSE7'
p254
I01
sS'Q55ED3'
p255
I01
sS'Q55ED1'
p256
I01
sS'Q86HB8'
p257
I01
sS'Q54TD0'
p258
I01
sS'Q54HW8'
p259
I01
sS'Q54TD3'
p260
I01
sS'Q8I7T3'
p261
I01
sS'Q54NG9'
p262
I01
sS'Q54ZH1'
p263
I01
sS'Q76P36'
p264
I01
sS'Q54NG2'
p265
I01
sS'Q54NG1'
p266
I01
sS'Q54L07'
p267
I01
sS'Q54R66'
p268
I01
sS'Q54R67'
p269
I01
sS'Q54LW6'
p270
I01
sS'Q54K91'
p271
I01
sS'Q54K93'
p272
I01
sS'Q75K24'
p273
I01
sS'Q75K27'
p274
I01
sS'Q54K99'
p275
I01
sS'Q54TZ4'
p276
I01
sS'Q54F42'
p277
I01
sS'Q54CF7'
p278
I01
sS'Q54SB4'
p279
I01
sS'Q65YR7'
p280
I01
sS'Q54SB0'
p281
I01
sS'Q55G58'
p282
I01
sS'Q54NQ0'
p283
I01
sS'Q65YR8'
p284
I01
sS'Q54NQ7'
p285
I01
sS'Q54J42'
p286
I01
sS'Q54J47'
p287
I01
sS'Q54J48'
p288
I01
sS'Q55BU8'
p289
I01
sS'Q54H86'
p290
I01
sS'Q54H87'
p291
I01
sS'Q8MML6'
p292
I01
sS'Q54G34'
p293
I01
sS'Q54G35'
p294
I01
sS'Q55C58'
p295
I01
sS'Q54D63'
p296
I01
sS'Q54C92'
p297
I01
sS'Q54D66'
p298
I01
sS'P22887'
p299
I01
sS'C7FZY1'
p300
I01
sS'Q86AE2'
p301
I01
sS'Q869N9'
p302
I01
sS'Q54DU1'
p303
I01
sS'Q54KM7'
p304
I01
sS'Q54WK3'
p305
I01
sS'Q869N1'
p306
I01
sS'Q54DU9'
p307
I01
sS'Q54RZ4'
p308
I01
sS'Q54RZ5'
p309
I01
sS'Q869N6'
p310
I01
sS'Q54JY7'
p311
I01
sS'Q54PR9'
p312
I01
sS'Q54JY1'
p313
I01
sS'Q55EQ3'
p314
I01
sS'Q9GSB0'
p315
I01
sS'Q54PR7'
p316
I01
sS'Q553W9'
p317
I01
sS'Q55GV4'
p318
I01
sS'Q54VB8'
p319
I01
sS'Q55GV3'
p320
I01
sS'Q55GV0'
p321
I01
sS'Q54N68'
p322
I01
sS'Q54VB5'
p323
I01
sS'P54660'
p324
I01
sS'Q559R0'
p325
I01
sS'Q55GV8'
p326
I01
sS'Q54VB3'
p327
I01
sS'Q55CY7'
p328
I01
sS'Q54B67'
p329
I01
sS'Q54DK1'
p330
I01
sS'Q55F29'
p331
I01
sS'Q55GU7'
p332
I01
sS'Q54J07'
p333
I01
sS'Q54JK6'
p334
I01
sS'Q54JK5'
p335
I01
sS'Q54JK3'
p336
I01
sS'Q9NCL8'
p337
I01
sS'Q550Q4'
p338
I01
sS'Q23911'
p339
I01
sS'Q23915'
p340
I01
sS'Q54AX5'
p341
I01
sS'Q8MP23'
p342
I01
sS'O76734'
p343
I01
sS'Q54EY3'
p344
I01
sS'Q86IY4'
p345
I01
sS'Q86IY7'
p346
I01
sS'Q86L14'
p347
I01
sS'Q86L17'
p348
I01
sS'Q86H98'
p349
I01
sS'Q555I8'
p350
I01
sS'Q86H96'
p351
I01
sS'Q54RL3'
p352
I01
sS'Q869X1'
p353
I01
sS'Q54YX5'
p354
I01
sS'Q54YX7'
p355
I01
sS'Q557E4'
p356
I01
sS'P52922'
p357
I01
sS'P09556'
p358
I01
sS'Q54YX3'
p359
I01
sS'Q557E0'
p360
I01
sS'Q55FK2'
p361
I01
sS'Q55FK4'
p362
I01
sS'Q4W6B5'
p363
I01
sS'Q54KC6'
p364
I01
sS'Q86KC1'
p365
I01
sS'Q86H79'
p366
I01
sS'Q54FY1'
p367
I01
sS'Q54IS5'
p368
I01
sS'Q6TU48'
p369
I01
sS'P18613'
p370
I01
sS'Q54FY3'
p371
I01
sS'Q54IS9'
p372
I01
sS'Q559H0'
p373
I01
sS'Q559H1'
p374
I01
sS'P26310'
p375
I01
sS'P14196'
p376
I01
sS'Q9NH03'
p377
I01
sS'Q9U641'
p378
I01
sS'Q6UK63'
p379
I01
sS'Q54W21'
p380
I01
sS'Q54W20'
p381
I01
sS'Q54X97'
p382
I01
sS'Q54RV9'
p383
I01
sS'B0G117'
p384
I01
sS'P27685'
p385
I01
sS'Q86IK2'
p386
I01
sS'Q54EK0'
p387
I01
sS'B0G119'
p388
I01
sS'Q54LF1'
p389
I01
sS'Q54QQ8'
p390
I01
sS'Q54XG4'
p391
I01
sS'Q54SJ2'
p392
I01
sS'Q54XG0'
p393
I01
sS'Q54QQ0'
p394
I01
sS'Q55DY8'
p395
I01
sS'Q55FN8'
p396
I01
sS'O15692'
p397
I01
sS'Q54P96'
p398
I01
sS'Q54P95'
p399
I01
sS'Q55DY7'
p400
I01
sS'Q54P71'
p401
I01
sS'Q54P70'
p402
I01
sS'Q54BA2'
p403
I01
sS'Q54QC1'
p404
I01
sS'Q55BZ5'
p405
I01
sS'Q55BZ4'
p406
I01
sS'P0DJ26'
p407
I01
sS'Q54M22'
p408
I01
sS'Q54WK0'
p409
I01
sS'Q54S81'
p410
I01
sS'Q553S7'
p411
I01
sS'Q7KWQ2'
p412
I01
sS'Q86JC9'
p413
I01
sS'Q54T71'
p414
I01
sS'Q54T73'
p415
I01
sS'Q54FY2'
p416
I01
sS'Q54T77'
p417
I01
sS'Q95US4'
p418
I01
sS'Q54VQ1'
p419
I01
sS'Q54VQ7'
p420
I01
sS'Q1ZXN5'
p421
I01
sS'Q75JY8'
p422
I01
sS'Q86JM7'
p423
I01
sS'Q86JM5'
p424
I01
sS'Q86JM3'
p425
I01
sS'Q54L10'
p426
I01
sS'Q54HT3'
p427
I01
sS'Q54HT4'
p428
I01
sS'Q555Z2'
p429
I01
sS'Q54L19'
p430
I01
sS'Q54L18'
p431
I01
sS'Q8T2A6'
p432
I01
sS'Q54ZI6'
p433
I01
sS'Q54SS0'
p434
I01
sS'Q86A88'
p435
I01
sS'Q54R72'
p436
I01
sS'Q54R74'
p437
I01
sS'Q54GG6'
p438
I01
sS'Q54LT5'
p439
I01
sS'Q54LT0'
p440
I01
sS'Q54LT2'
p441
I01
sS'Q54NR5'
p442
I01
sS'Q54F59'
p443
I01
sS'Q54NR1'
p444
I01
sS'Q54NR3'
p445
I01
sS'Q54F53'
p446
I01
sS'Q54F52'
p447
I01
sS'Q54SA0'
p448
I01
sS'Q54SA1'
p449
I01
sS'Q54JS1'
p450
I01
sS'Q55G29'
p451
I01
sS'Q54LZ3'
p452
I01
sS'Q54J51'
p453
I01
sS'Q54J50'
p454
I01
sS'Q54J53'
p455
I01
sS'Q54G21'
p456
I01
sS'Q54Y63'
p457
I01
sS'Q54H97'
p458
I01
sS'Q54G24'
p459
I01
sS'Q551V0'
p460
I01
sS'Q54BS2'
p461
I01
sS'Q54IN9'
p462
I01
sS'Q54D71'
p463
I01
sS'Q54IN0'
p464
I01
sS'Q54IN6'
p465
I01
sS'P25323'
p466
I01
sS'Q55BF5'
p467
I01
sS'Q86AQ3'
p468
I01
sS'Q553T0'
p469
I01
sS'Q86AQ7'
p470
I01
sS'Q54MN6'
p471
I01
sS'Q54PS3'
p472
I01
sS'Q54MN4'
p473
I01
sS'Q54PS7'
p474
I01
sS'Q54HB2'
p475
I01
sS'Q55GW4'
p476
I01
sS'Q54VC9'
p477
I01
sS'Q54CE0'
p478
I01
sS'Q54XU9'
p479
I01
sS'Q54N76'
p480
I01
sS'Q54N75'
p481
I01
sS'Q54N74'
p482
I01
sS'Q8MML5'
p483
I01
sS'Q54PA2'
p484
I01
sS'Q54PD6'
p485
I01
sS'Q8I0H7'
p486
I01
sS'Q54PA9'
p487
I01
sS'Q54DH7'
p488
I01
sS'Q86AC9'
p489
I01
sS'Q54VM6'
p490
I01
sS'Q54VM2'
p491
I01
sS'Q54MX5'
p492
I01
sS'Q54MX6'
p493
I01
sS'Q8SSN5'
p494
I01
sS'Q86KP5'
p495
I01
sS'Q552L5'
p496
I01
sS'Q555X4'
p497
I01
sS'Q555X3'
p498
I01
sS'P13021'
p499
I01
sS'P13022'
p500
I01
sS'P13023'
p501
I01
sS'Q54EX5'
p502
I01
sS'Q54EX7'
p503
I01
sS'Q54EX6'
p504
I01
sS'Q86IZ2'
p505
I01
sS'Q54K81'
p506
I01
sS'Q86KR5'
p507
I01
sS'Q9NI62'
p508
I01
sS'Q86H83'
p509
I01
sS'Q86H82'
p510
I01
sS'Q555C6'
p511
I01
sS'Q869Y3'
p512
I01
sS'Q869Y7'
p513
I01
sS'Q54JQ8'
p514
I01
sS'Q54UN6'
p515
I01
sS'Q54KB8'
p516
I01
sS'Q55DZ3'
p517
I01
sS'Q54KB7'
p518
I01
sS'Q55FJ2'
p519
I01
sS'Q54KB3'
p520
I01
sS'Q55FJ0'
p521
I01
sS'P34124'
p522
I01
sS'P34123'
p523
I01
sS'P34120'
p524
I01
sS'Q54IR8'
p525
I01
sS'Q54IR0'
p526
I01
sS'P20790'
p527
I01
sS'Q86L05'
p528
I01
sS'Q86L04'
p529
I01
sS'Q559I6'
p530
I01
sS'Q86JP3'
p531
I01
sS'Q54FH7'
p532
I01
sS'Q54FH4'
p533
I01
sS'Q55CB6'
p534
I01
sS'Q54Z69'
p535
I01
sS'Q54W18'
p536
I01
sS'Q54W19'
p537
I01
sS'Q54X66'
p538
I01
sS'Q54X65'
p539
I01
sS'Q54X63'
p540
I01
sS'B0G160'
p541
I01
sS'B0G167'
p542
I01
sS'Q9NHF6'
p543
I01
sS'Q55DJ0'
p544
I01
sS'Q54LG3'
p545
I01
sS'Q8T2R4'
p546
I01
sS'Q54XD8'
p547
I01
sS'Q55DX6'
p548
I01
sS'Q54ED0'
p549
I01
sS'Q86IF6'
p550
I01
sS'Q54QP6'
p551
I01
sS'Q54QP2'
p552
I01
sS'P30815'
p553
I01
sS'Q54V68'
p554
I01
sS'Q54V61'
p555
I01
sS'Q54P42'
p556
I01
sS'Q54P46'
p557
I01
sS'Q86A97'
p558
I01
sS'Q54WJ9'
p559
I01
sS'P46793'
p560
I01
sS'Q54WJ1'
p561
I01
sS'Q6UUW6'
p562
I01
sS'Q55GH8'
p563
I01
sS'Q54FZ2'
p564
I01
sS'Q54FZ3'
p565
I01
sS'Q86HR3'
p566
I01
sS'Q55GH1'
p567
I01
sS'Q55AD9'
p568
I01
sS'Q86JB6'
p569
I01
sS'Q86JB5'
p570
I01
sS'Q86JB4'
p571
I01
sS'Q54VR8'
p572
I01
sS'Q54VR9'
p573
I01
sS'Q9UA41'
p574
I01
sS'Q54VR1'
p575
I01
sS'Q54VR2'
p576
I01
sS'Q76P15'
p577
I01
sS'P16051'
p578
I01
sS'Q54SR7'
p579
I01
sS'Q54NA0'
p580
I01
sS'Q54XR4'
p581
I01
sS'Q54R89'
p582
I01
sS'Q55A19'
p583
I01
sS'Q54LU2'
p584
I01
sS'Q54GF3'
p585
I01
sS'Q54NS3'
p586
I01
sS'Q54NS1'
p587
I01
sS'Q54NS7'
p588
I01
sS'Q54NS5'
p589
I01
sS'Q54NS9'
p590
I01
sS'Q54F66'
p591
I01
sS'Q54GT6'
p592
I01
sS'Q55G30'
p593
I01
sS'Q54GT9'
p594
I01
sS'Q54J68'
p595
I01
sS'Q54J69'
p596
I01
sS'O96552'
p597
I01
sS'Q54J66'
p598
I01
sS'Q55CR1'
p599
I01
sS'Q551W8'
p600
I01
sS'Q55EF7'
p601
I01
sS'Q54H66'
p602
I01
sS'Q54BT0'
p603
I01
sS'Q54BT5'
p604
I01
sS'Q03409'
p605
I01
sS'O60950'
p606
I01
sS'Q551A1'
p607
I01
sS'Q55BA8'
p608
I01
sS'Q55BA9'
p609
I01
sS'Q54PP1'
p610
I01
sS'Q55BA2'
p611
I01
sS'Q8T1F9'
p612
I01
sS'Q75JF3'
p613
I01
sS'Q553U5'
p614
I01
sS'Q55EX9'
p615
I01
sS'Q55GT0'
p616
I01
sS'P15064'
p617
I01
sS'Q54HC2'
p618
I01
sS'Q54CD7'
p619
I01
sS'Q55GT5'
p620
I01
sS'Q75JN6'
p621
I01
sS'Q75JN8'
p622
I01
sS'Q54N06'
p623
I01
sS'Q8STF9'
p624
I01
sS'Q559X6'
p625
I01
sS'Q86K69'
p626
I01
sS'Q54B82'
p627
I01
sS'Q54JM8'
p628
I01
sS'Q54VN3'
p629
I01
sS'O77229'
p630
I01
sS'Q54VN6'
p631
I01
sS'Q86AQ5'
p632
I01
sS'Q54JM3'
p633
I01
sS'Q556P6'
p634
I01
sS'Q54CZ8'
p635
I01
sS'O15744'
p636
I01
sS'Q54I12'
p637
I01
sS'Q54I10'
p638
I01
sS'P54641'
p639
I01
sS'B0M0Q0'
p640
I01
sS'B0M0Q3'
p641
I01
sS'Q552Y0'
p642
I01
sS'Q9U9A3'
p643
I01
sS'Q54KS1'
p644
I01
sS'Q54CE4'
p645
I01
sS'Q54IC2'
p646
I01
sS'Q54YZ4'
p647
I01
sS'Q54YZ0'
p648
I01
sS'Q58A40'
p649
I01
sS'Q54NM0'
p650
I01
sS'Q54DI6'
p651
I01
sS'Q54DI4'
p652
I01
sS'Q869Z4'
p653
I01
sS'Q869Z5'
p654
I01
sS'Q54RN6'
p655
I01
sS'P29447'
p656
I01
sS'Q54RN1'
p657
I01
sS'Q557C7'
p658
I01
sS'Q54DI8'
p659
I01
sS'Q54UI0'
p660
I01
sS'Q86H55'
p661
I01
sS'Q55FM2'
p662
I01
sS'Q55FM0'
p663
I01
sS'Q54KA3'
p664
I01
sS'Q55FM7'
p665
I01
sS'Q55FM5'
p666
I01
sS'Q54YL3'
p667
I01
sS'P34136'
p668
I01
sS'Q86JG4'
p669
I01
sS'Q869T1'
p670
I01
sS'Q55D81'
p671
I01
sS'Q54IU0'
p672
I01
sS'Q54IU1'
p673
I01
sS'P34139'
p674
I01
sS'Q54Y17'
p675
I01
sS'Q54Y14'
p676
I01
sS'Q86I87'
p677
I01
sS'Q8MXM8'
p678
I01
sS'Q54F47'
p679
I01
sS'Q556Q0'
p680
I01
sS'Q55FW9'
p681
I01
sS'Q54SV2'
p682
I01
sS'Q95UC5'
p683
I01
sS'Q54Z79'
p684
I01
sS'Q55CC2'
p685
I01
sS'Q54Z72'
p686
I01
sS'Q55CC8'
p687
I01
sS'Q54EU4'
p688
I01
sS'Q55FW7'
p689
I01
sS'Q54EU0'
p690
I01
sS'Q54X77'
p691
I01
sS'Q54EU8'
p692
I01
sS'Q55DR6'
p693
I01
sS'Q86KA1'
p694
I01
sS'Q55DI2'
p695
I01
sS'Q54XE7'
p696
I01
sS'Q54XE6'
p697
I01
sS'Q54LD5'
p698
I01
sS'Q54LD6'
p699
I01
sS'Q54LD2'
p700
I01
sS'Q54EG0'
p701
I01
sS'Q54EG3'
p702
I01
sS'Q54QS3'
p703
I01
sS'Q54V77'
p704
I01
sS'Q54V76'
p705
I01
sS'Q54V71'
p706
I01
sS'P28178'
p707
I01
sS'Q54P59'
p708
I01
sS'Q54BC6'
p709
I01
sS'Q54WI8'
p710
I01
sS'Q54BC2'
p711
I01
sS'Q54UU2'
p712
I01
sS'Q54UU3'
p713
I01
sS'Q54UU1'
p714
I01
sS'Q54UU8'
p715
I01
sS'Q54T59'
p716
I01
sS'Q54IS1'
p717
I01
sS'P54697'
p718
I01
sS'Q54MB2'
p719
I01
sS'Q54HR1'
p720
I01
sS'Q54HR7'
p721
I01
sS'Q55GG3'
p722
I01
sS'P36410'
p723
I01
sS'P36411'
p724
I01
sS'P36412'
p725
I01
sS'P36413'
p726
I01
sS'Q55F34'
p727
I01
sS'P36415'
p728
I01
sS'Q55EC2'
p729
I01
sS'Q54NB4'
p730
I01
sS'Q54NB5'
p731
I01
sS'Q54NB6'
p732
I01
sS'Q54NB2'
p733
I01
sS'Q55AW9'
p734
I01
sS'Q54TK2'
p735
I01
sS'Q54SQ0'
p736
I01
sS'Q55BS6'
p737
I01
sS'Q54QE2'
p738
I01
sS'Q54QE3'
p739
I01
sS'Q54XS2'
p740
I01
sS'P26200'
p741
I01
sS'Q54QE7'
p742
I01
sS'Q54QE4'
p743
I01
sS'Q54GE1'
p744
I01
sS'Q54GE3'
p745
I01
sS'Q54R90'
p746
I01
sS'Q54GE6'
p747
I01
sS'Q54GE7'
p748
I01
sS'Q55G04'
p749
I01
sS'Q55BS3'
p750
I01
sS'Q54SG2'
p751
I01
sS'Q54SG3'
p752
I01
sS'Q54GS8'
p753
I01
sS'Q54XB5'
p754
I01
sS'Q54J75'
p755
I01
sS'Q55BS9'
p756
I01
sS'Q54G09'
p757
I01
sS'Q54BU3'
p758
I01
sS'Q1ZXH9'
p759
I01
sS'Q54BU4'
p760
I01
sS'Q54H73'
p761
I01
sS'Q54J97'
p762
I01
sS'Q94490'
p763
I01
sS'Q54QH6'
p764
I01
sS'Q86I19'
p765
I01
sS'Q54QR9'
p766
I01
sS'Q54PQ5'
p767
I01
sS'Q55D17'
p768
I01
sS'Q551B5'
p769
I01
sS'Q54DX3'
p770
I01
sS'Q54MH8'
p771
I01
sS'Q54TY5'
p772
I01
sS'Q54F74'
p773
I01
sS'Q54K42'
p774
I01
sS'Q54CK6'
p775
I01
sS'Q54CK4'
p776
I01
sS'Q54JC8'
p777
I01
sS'Q55GU3'
p778
I01
sS'Q76P24'
p779
I01
sS'Q54N17'
p780
I01
sS'Q54F78'
p781
I01
sS'Q54MZ2'
p782
I01
sS'Q54MZ1'
p783
I01
sS'Q54MZ5'
p784
I01
sS'Q54MZ4'
p785
I01
sS'Q9TVK6'
p786
I01
sS'Q54HN1'
p787
I01
sS'P10733'
p788
I01
sS'Q54CY9'
p789
I01
sS'O15757'
p790
I01
sS'Q54CY6'
p791
I01
sS'Q54LV1'
p792
I01
sS'P83401'
p793
I01
sS'Q03380'
p794
I01
sS'P34036'
p795
I01
sS'Q555L5'
p796
I01
sS'Q54KR6'
p797
I01
sS'Q54KR1'
p798
I01
sS'Q54ZW1'
p799
I01
sS'Q54DN0'
p800
I01
sS'Q54UH9'
p801
I01
sS'Q54UH8'
p802
I01
sS'P25870'
p803
I01
sS'Q55FL5'
p804
I01
sS'Q55FL6'
p805
I01
sS'Q869U7'
p806
I01
sS'Q869U6'
p807
I01
sS'Q54RA2'
p808
I01
sS'Q54IT3'
p809
I01
sS'Q54RA8'
p810
I01
sS'Q55CR6'
p811
I01
sS'Q55CR0'
p812
I01
sS'Q54Y02'
p813
I01
sS'Q54PF9'
p814
I01
sS'Q54TU9'
p815
I01
sS'Q75JI3'
p816
I01
sS'Q6IMN8'
p817
I01
sS'Q86B08'
p818
I01
sS'Q86B07'
p819
I01
sS'Q54X49'
p820
I01
sS'Q54ET7'
p821
I01
sS'Q54ET6'
p822
I01
sS'Q86IV4'
p823
I01
sS'Q86IV5'
p824
I01
sS'Q86A92'
p825
I01
sS'Q55DH9'
p826
I01
sS'B0G145'
p827
I01
sS'B0G141'
p828
I01
sS'B0G142'
p829
I01
sS'Q86AD5'
p830
I01
sS'Q54QR3'
p831
I01
sS'Q54QR2'
p832
I01
sS'Q54QR0'
p833
I01
sS'Q54LE3'
p834
I01
sS'Q54LE5'
p835
I01
sS'Q54QR8'
p836
I01
sS'Q54U91'
p837
I01
sS'Q54U95'
p838
I01
sS'P14132'
p839
I01
sS'Q54EF1'
p840
I01
sS'P21900'
p841
I01
sS'Q54WZ3'
p842
I01
sS'Q54WZ2'
p843
I01
sS'Q54WZ5'
p844
I01
sS'Q54WZ6'
p845
I01
sS'Q54YA6'
p846
I01
sS'P09402'
p847
I01
sS'Q54YA2'
p848
I01
sS'Q54YA0'
p849
I01
sS'Q7KWU6'
p850
I01
sS'Q54FJ8'
p851
I01
sS'Q54WH2'
p852
I01
sS'Q54WH0'
p853
I01
sS'Q8MYF0'
p854
I01
sS'Q8MYF2'
p855
I01
sS'Q54P23'
p856
I01
sS'Q54P24'
p857
I01
sS'Q55FH3'
p858
I01
sS'P07830'
p859
I01
sS'Q75JR3'
p860
I01
sS'Q54FT8'
p861
I01
sS'Q54FT2'
p862
I01
sS'P54680'
p863
I01
sS'Q8T158'
p864
I01
sS'Q55GD7'
p865
I01
sS'Q54HS9'
p866
I01
sS'Q54S39'
p867
I01
sS'Q54TH8'
p868
I01
sS'Q54TH9'
p869
I01
sS'Q54NC1'
p870
I01
sS'Q54NC8'
p871
I01
sS'Q54TH4'
p872
I01
sS'Q86H60'
p873
I01
sS'Q54LK1'
p874
I01
sS'Q86H62'
p875
I01
sS'Q54GD8'
p876
I01
sS'Q54XP9'
p877
I01
sS'Q54QD9'
p878
I01
sS'Q54XP6'
p879
I01
sS'Q55FJ5'
p880
I01
sS'Q54XP2'
p881
I01
sS'Q55BS7'
p882
I01
sS'Q55F28'
p883
I01
sS'Q54LY8'
p884
I01
sS'Q54GR9'
p885
I01
sS'Q54GR8'
p886
I01
sS'Q54SF2'
p887
I01
sS'Q54LY3'
p888
I01
sS'Q54SF7'
p889
I01
sS'Q55BQ8'
p890
I01
sS'Q8T1V6'
p891
I01
sS'Q8T1V4'
p892
I01
sS'Q55BQ2'
p893
I01
sS'Q54K32'
p894
I01
sS'Q8T1V8'
p895
I01
sS'Q55BQ6'
p896
I01
sS'Q55C99'
p897
I01
sS'Q55BJ6'
p898
I01
sS'Q1ZXI0'
p899
I01
sS'Q55F21'
p900
I01
sS'Q54H42'
p901
I01
sS'Q54M91'
p902
I01
sS'Q55EH2'
p903
I01
sS'Q54H46'
p904
I01
sS'Q54H47'
p905
I01
sS'Q54DY7'
p906
I01
sS'Q55BC7'
p907
I01
sS'Q54DY3'
p908
I01
sS'Q54DY1'
p909
I01
sS'Q94469'
p910
I01
sS'Q94464'
p911
I01
sS'P34121'
p912
I01
sS'Q55BC8'
p913
I01
sS'Q54DY8'
p914
I01
sS'Q54MK4'
p915
I01
sS'P13833'
p916
I01
sS'Q54MK8'
p917
I01
sS'Q54MK9'
p918
I01
sS'Q54E92'
p919
I01
sS'P22685'
p920
I01
sS'Q54N27'
p921
I01
sS'P22683'
p922
I01
sS'Q55EZ6'
p923
I01
sS'Q86AX2'
p924
I01
sS'Q75JL8'
p925
I01
sS'Q54CJ9'
p926
I01
sS'Q54F07'
p927
I01
sS'Q54F04'
p928
I01
sS'Q54CJ5'
p929
I01
sS'Q54F09'
p930
I01
sS'Q75JL7'
p931
I01
sS'Q54CJ2'
p932
I01
sS'Q54PL9'
p933
I01
sS'O77203'
p934
I01
sS'Q54MU8'
p935
I01
sS'Q559Z4'
p936
I01
sS'Q54PL1'
p937
I01
sS'Q54PL2'
p938
I01
sS'Q559Z0'
p939
I01
sS'Q54MU3'
p940
I01
sS'Q75JB5'
p941
I01
sS'Q54CX6'
p942
I01
sS'P13723'
p943
I01
sS'Q54RY8'
p944
I01
sS'Q86KQ6'
p945
I01
sS'Q54C37'
p946
I01
sS'Q54C34'
p947
I01
sS'Q9BI24'
p948
I01
sS'Q54RY6'
p949
I01
sS'Q54RP2'
p950
I01
sS'Q6TMJ9'
p951
I01
sS'Q86J14'
p952
I01
sS'Q6TMJ4'
p953
I01
sS'Q54IE5'
p954
I01
sS'Q86H36'
p955
I01
sS'Q54UK2'
p956
I01
sS'Q869V1'
p957
I01
sS'Q54RB6'
p958
I01
sS'P34118'
p959
I01
sS'Q54YN3'
p960
I01
sS'Q54YN2'
p961
I01
sS'P34115'
p962
I01
sS'Q8T154'
p963
I01
sS'P34113'
p964
I01
sS'P34112'
p965
I01
sS'Q55CS1'
p966
I01
sS'Q55CS3'
p967
I01
sS'Q55CS9'
p968
I01
sS'Q86AH6'
p969
I01
sS'Q556S5'
p970
I01
sS'Q86K21'
p971
I01
sS'Q556E3'
p972
I01
sS'Q54G78'
p973
I01
sS'P08799'
p974
I01
sS'Q54X53'
p975
I01
sS'Q54X51'
p976
I01
sS'Q55CA0'
p977
I01
sS'Q54EW1'
p978
I01
sS'Q54EW2'
p979
I01
sS'Q54EW3'
p980
I01
sS'Q86IW8'
p981
I01
sS'Q54EW8'
p982
I01
sS'Q550I8'
p983
I01
sS'Q54E21'
p984
I01
sS'Q54KG3'
p985
I01
sS'Q54VA2'
p986
I01
sS'Q55E94'
p987
I01
sS'Q54XC4'
p988
I01
sS'Q54XC9'
p989
I01
sS'Q54QU8'
p990
I01
sS'Q54QU9'
p991
I01
sS'Q55EU1'
p992
I01
sS'Q86IA3'
p993
I01
sS'Q54WY8'
p994
I01
sS'Q55FU2'
p995
I01
sS'Q55FQ9'
p996
I01
sS'Q76NU1'
p997
I01
sS'Q54FK8'
p998
I01
sS'Q8MYE6'
p999
I01
sS'Q8MYE7'
p1000
I01
sS'Q54WG6'
p1001
I01
sS'Q54WG1'
p1002
I01
sS'C7G056'
p1003
I01
sS'Q54UW5'
p1004
I01
sS'P26355'
p1005
I01
sS'Q54FU1'
p1006
I01
sS'Q54FU0'
p1007
I01
sS'Q54Q05'
p1008
I01
sS'Q554G3'
p1009
I01
sS'Q55D79'
p1010
I01
sS'Q95YL5'
p1011
I01
sS'Q54S23'
p1012
I01
sS'Q55GE2'
p1013
I01
sS'Q54HP3'
p1014
I01
sS'Q54XP4'
p1015
I01
sS'P54654'
p1016
I01
sS'Q54L58'
p1017
I01
sS'Q7KWK5'
p1018
I01
sS'P54651'
p1019
I01
sS'Q55AQ9'
p1020
I01
sS'Q54NL4'
p1021
I01
sS'P54659'
p1022
I01
sS'Q54LH7'
p1023
I01
sS'Q54ZM4'
p1024
I01
sS'Q54QG4'
p1025
I01
sS'Q54XQ5'
p1026
I01
sS'Q54SE2'
p1027
I01
sS'Q553B4'
p1028
I01
sS'Q54W11'
p1029
I01
sS'Q54GQ6'
p1030
I01
sS'Q54GQ7'
p1031
I01
sS'O15819'
p1032
I01
sS'Q54BW3'
p1033
I01
sS'Q54H53'
p1034
I01
sS'Q54H52'
p1035
I01
sS'Q55BP2'
p1036
I01
sS'Q55BP5'
p1037
I01
sS'Q55D91'
p1038
I01
sS'Q55EI7'
p1039
I01
sS'Q54M82'
p1040
I01
sS'Q1ZXJ0'
p1041
I01
sS'Q54M86'
p1042
I01
sS'Q55C66'
p1043
I01
sS'Q1ZXD4'
p1044
I01
sS'Q550R2'
p1045
I01
sS'Q54MJ6'
p1046
I01
sS'Q54MJ5'
p1047
I01
sS'Q55D72'
p1048
I01
sS'Q55D70'
p1049
I01
sS'Q964D8'
p1050
I01
sS'Q54RR5'
p1051
I01
sS'Q54N33'
p1052
I01
sS'Q75JS7'
p1053
I01
sS'Q54E85'
p1054
I01
sS'Q54N35'
p1055
I01
sS'Q554U9'
p1056
I01
sS'Q54F10'
p1057
I01
sS'P11022'
p1058
I01
sS'Q54F16'
p1059
I01
sS'Q54CI4'
p1060
I01
sS'Q55GS7'
p1061
I01
sS'Q54CU8'
p1062
I01
sS'O00780'
p1063
I01
sS'Q54MT0'
p1064
I01
sS'Q54MT3'
p1065
I01
sS'Q54MT2'
p1066
I01
sS'Q54HL0'
p1067
I01
sS'Q5XM24'
p1068
I01
sS'Q54VI3'
p1069
I01
sS'Q54VI2'
p1070
I01
sS'Q54VI4'
p1071
I01
sS'Q54VI6'
p1072
I01
sS'Q54LY4'
p1073
I01
sS'Q552H9'
p1074
I01
sS'Q54I26'
p1075
I01
sS'Q7M438'
p1076
I01
sS'Q54I22'
p1077
I01
sS'Q54I20'
p1078
I01
sS'Q94504'
p1079
I01
sS'Q54KP3'
p1080
I01
sS'Q94503'
p1081
I01
sS'Q94502'
p1082
I01
sS'Q54C24'
p1083
I01
sS'Q54C27'
p1084
I01
sS'Q555N6'
p1085
I01
sS'Q552Z0'
p1086
I01
sS'Q54C29'
p1087
I01
sS'Q54C28'
p1088
I01
sS'Q54RQ1'
p1089
I01
sS'Q6TMK3'
p1090
I01
sS'Q54ID0'
p1091
I01
sS'Q54ND1'
p1092
I01
sS'Q54ID5'
p1093
I01
sS'Q54DL5'
p1094
I01
sS'Q86LA2'
p1095
I01
sS'Q54DL0'
p1096
I01
sS'Q5V9F0'
p1097
I01
sS'Q54PM8'
p1098
I01
sS'Q54UJ3'
p1099
I01
sS'Q54UJ0'
p1100
I01
sS'Q54YQ8'
p1101
I01
sS'Q54YQ9'
p1102
I01
sS'Q869W9'
p1103
I01
sS'Q54DB1'
p1104
I01
sS'P0C7B6'
p1105
I01
sS'Q869W6'
p1106
I01
sS'Q54RC3'
p1107
I01
sS'Q54RC0'
p1108
I01
sS'Q54Y20'
p1109
I01
sS'Q86K39'
p1110
I01
sS'Q86L41'
p1111
I01
sS'Q86L45'
p1112
I01
sS'Q86K32'
p1113
I01
sS'Q01501'
p1114
I01
sS'Q86B20'
p1115
I01
sS'Q55CF8'
p1116
I01
sS'Q556D4'
p1117
I01
sS'O76329'
p1118
I01
sS'Q55CF6'
p1119
I01
sS'Q550H7'
p1120
I01
sS'Q550H6'
p1121
I01
sS'Q55DN6'
p1122
I01
sS'Q54EV7'
p1123
I01
sS'P42530'
p1124
I01
sS'Q55FN1'
p1125
I01
sS'Q55FN7'
p1126
I01
sS'P36409'
p1127
I01
sS'Q55FN4'
p1128
I01
sS'P36408'
p1129
I01
sS'Q86KD1'
p1130
I01
sS'Q86IB4'
p1131
I01
sS'Q9GRX6'
p1132
I01
sS'B0G180'
p1133
I01
sS'B0G182'
p1134
I01
sS'B0G185'
p1135
I01
sS'Q55E61'
p1136
I01
sS'Q54UD1'
p1137
I01
sS'Q54UD0'
p1138
I01
sS'Q55FP4'
p1139
I01
sS'Q55FP7'
p1140
I01
sS'Q55FP0'
p1141
I01
sS'Q54YC0'
p1142
I01
sS'Q54FD7'
p1143
I01
sS'Q94465'
p1144
I01
sS'Q54WF8'
p1145
I01
sS'Q54UV2'
p1146
I01
sS'Q54UV0'
p1147
I01
sS'Q54T80'
p1148
I01
sS'Q54T81'
p1149
I01
sS'Q55C75'
p1150
I01
sS'Q54FV5'
p1151
I01
sS'Q54FV6'
p1152
I01
sS'Q54T87'
p1153
I01
sS'Q54Q30'
p1154
I01
sS'Q54Q31'
p1155
I01
sS'Q54Q32'
p1156
I01
sS'Q54S12'
p1157
I01
sS'Q54TN9'
p1158
I01
sS'P54644'
p1159
I01
sS'P54647'
p1160
I01
sS'Q54NM9'
p1161
I01
sS'P54640'
p1162
I01
sS'Q54ZN2'
p1163
I01
sS'P54642'
p1164
I01
sS'P54648'
p1165
I01
sS'Q55AR3'
p1166
I01
sS'Q54GB3'
p1167
I01
sS'Q54XN5'
p1168
I01
sS'Q54LI8'
p1169
I01
sS'Q54F95'
p1170
I01
sS'Q54LI4'
p1171
I01
sS'Q557D2'
p1172
I01
sS'Q54SV6'
p1173
I01
sS'Q54P04'
p1174
I01
sS'Q54BF6'
p1175
I01
sS'Q54P07'
p1176
I01
sS'Q54QF3'
p1177
I01
sS'Q54BF9'
p1178
I01
sS'P22684'
p1179
I01
sS'Q54SD5'
p1180
I01
sS'Q54SD4'
p1181
I01
sS'Q54QH7'
p1182
I01
sS'Q54GP8'
p1183
I01
sS'Q54QH0'
p1184
I01
sS'Q54QH3'
p1185
I01
sS'Q54QH2'
p1186
I01
sS'Q54GP0'
p1187
I01
sS'Q55BS8'
p1188
I01
sS'Q54GP6'
p1189
I01
sS'Q54GY1'
p1190
I01
sS'Q54H23'
p1191
I01
sS'Q54BX7'
p1192
I01
sS'P15112'
p1193
I01
sS'Q54BX0'
p1194
I01
sS'Q55F42'
p1195
I01
sS'Q55EJ2'
p1196
I01
sS'Q55FH5'
p1197
I01
sS'Q55BM7'
p1198
I01
sS'Q55D68'
p1199
I01
sS'Q55D61'
p1200
I01
sS'Q1ZXE8'
p1201
I01
sS'Q55D66'
p1202
I01
sS'Q75JR4'
p1203
I01
sS'Q54CH4'
p1204
I01
sS'Q54CH2'
p1205
I01
sS'Q54CH1'
p1206
I01
sS'Q75JR2'
p1207
I01
sS'Q8T191'
p1208
I01
sS'Q54F29'
p1209
I01
sS'Q54F25'
p1210
I01
sS'Q54F26'
p1211
I01
sS'Q54K35'
p1212
I01
sS'Q54F20'
p1213
I01
sS'Q54K33'
p1214
I01
sS'Q54F23'
p1215
I01
sS'Q54M21'
p1216
I01
sS'Q54VJ0'
p1217
I01
sS'Q54JA5'
p1218
I01
sS'Q54JA0'
p1219
I01
sS'Q8T662'
p1220
I01
sS'O15706'
p1221
I01
sS'Q54TR3'
p1222
I01
sS'Q54TR1'
p1223
I01
sS'Q54HM5'
p1224
I01
sS'Q54HM2'
p1225
I01
sS'Q54TR8'
p1226
I01
sS'Q55GR1'
p1227
I01
sS'Q552K6'
p1228
I01
sS'Q54I58'
p1229
I01
sS'Q54I59'
p1230
I01
sS'Q54I50'
p1231
I01
sS'Q54KW1'
p1232
I01
sS'O77082'
p1233
I01
sS'Q556G4'
p1234
I01
sS'Q54C12'
p1235
I01
sS'Q54C16'
p1236
I01
sS'Q54RR3'
p1237
I01
sS'C7FZZ0'
p1238
I01
sS'Q8SSQ0'
p1239
I01
sS'Q5V9E9'
p1240
I01
sS'Q54DM9'
p1241
I01
sS'Q54PJ1'
p1242
I01
sS'Q54PJ5'
p1243
I01
sS'Q55CG6'
p1244
I01
sS'Q54YP4'
p1245
I01
sS'Q559Z1'
p1246
I01
sS'Q54RD5'
p1247
I01
sS'Q556U6'
p1248
I01
sS'Q55CQ7'
p1249
I01
sS'Q55CQ6'
p1250
I01
sS'P05095'
p1251
I01
sS'Q55DM5'
p1252
I01
sS'Q86K01'
p1253
I01
sS'Q55B06'
p1254
I01
sS'Q86I62'
p1255
I01
sS'P42520'
p1256
I01
sS'Q55DM1'
p1257
I01
sS'Q556G9'
p1258
I01
sS'Q54X39'
p1259
I01
sS'Q556G1'
p1260
I01
sS'Q556G3'
p1261
I01
sS'Q54EQ8'
p1262
I01
sS'P42528'
p1263
I01
sS'Q9GPM4'
p1264
I01
sS'P42522'
p1265
I01
sS'Q54EQ1'
p1266
I01
sS'Q54EQ6'
p1267
I01
sS'P42526'
p1268
I01
sS'P35084'
p1269
I01
sS'P35085'
p1270
I01
sS'Q54VS8'
p1271
I01
sS'Q54KE6'
p1272
I01
sS'Q55DV6'
p1273
I01
sS'Q55DC7'
p1274
I01
sS'Q86IC0'
p1275
I01
sS'Q86IC6'
p1276
I01
sS'Q55DC0'
p1277
I01
sS'Q54QW5'
p1278
I01
sS'Q86IC9'
p1279
I01
sS'Q54XA0'
p1280
I01
sS'Q54QW1'
p1281
I01
sS'B0G197'
p1282
I01
sS'Q54WW0'
p1283
I01
sS'Q86C65'
p1284
I01
sS'Q54UG4'
p1285
I01
sS'Q54FE8'
p1286
I01
sS'Q54YB5'
p1287
I01
sS'Q54FE6'
p1288
I01
sS'Q54YB2'
p1289
I01
sS'Q54FE3'
p1290
I01
sS'Q54WE9'
p1291
I01
sS'Q54WE3'
p1292
I01
sS'Q54T96'
p1293
I01
sS'Q54T94'
p1294
I01
sS'Q54FW2'
p1295
I01
sS'Q54UQ7'
p1296
I01
sS'Q54Q20'
p1297
I01
sS'Q54Q29'
p1298
I01
sS'Q556I6'
p1299
I01
sS'Q54VG4'
p1300
I01
sS'Q86IC8'
p1301
I01
sS'Q553P6'
p1302
I01
sS'Q55GC0'
p1303
I01
sS'Q54S04'
p1304
I01
sS'Q55GC5'
p1305
I01
sS'Q55GC4'
p1306
I01
sS'Q55GC7'
p1307
I01
sS'P54671'
p1308
I01
sS'P54672'
p1309
I01
sS'Q8ST07'
p1310
I01
sS'Q54SU2'
p1311
I01
sS'Q86AU4'
p1312
I01
sS'P54678'
p1313
I01
sS'P54679'
p1314
I01
sS'Q8T2K9'
p1315
I01
sS'Q86K94'
p1316
I01
sS'Q54QY8'
p1317
I01
sS'P51405'
p1318
I01
sS'Q54P13'
p1319
I01
sS'Q54U43'
p1320
I01
sS'Q54P14'
p1321
I01
sS'Q54SK8'
p1322
I01
sS'Q8T295'
p1323
I01
sS'Q8T293'
p1324
I01
sS'Q54QK0'
p1325
I01
sS'Q54QK4'
p1326
I01
sS'Q54BY8'
p1327
I01
sS'Q55F79'
p1328
I01
sS'Q55F77'
p1329
I01
sS'Q55F70'
p1330
I01
sS'Q55C26'
p1331
I01
sS'Q55C24'
p1332
I01
sS'Q55D50'
p1333
I01
sS'Q1ZXF1'
p1334
I01
sS'Q55F94'
p1335
I01
sS'Q55F90'
p1336
I01
sS'Q54JP5'
p1337
I01
sS'Q54MD1'
p1338
I01
sS'Q54X81'
p1339
I01
sS'Q75JQ1'
p1340
I01
sS'Q54PX1'
p1341
I01
sS'Q54X82'
p1342
I01
sS'Q55GQ5'
p1343
I01
sS'Q76NW7'
p1344
I01
sS'Q86AG5'
p1345
I01
sS'Q54NX3'
p1346
I01
sS'Q54L98'
p1347
I01
sS'Q54K22'
p1348
I01
sS'Q54JB8'
p1349
I01
sS'O00909'
p1350
I01
sS'Q54E41'
p1351
I01
sS'Q54E42'
p1352
I01
sS'O77257'
p1353
I01
sS'Q54E49'
p1354
I01
sS'Q54JB6'
p1355
I01
sS'Q54TS5'
p1356
I01
sS'Q54TS4'
p1357
I01
sS'O96759'
p1358
I01
sS'Q54HJ0'
p1359
I01
sS'Q552J0'
p1360
I01
sS'Q54I41'
p1361
I01
sS'Q54I40'
p1362
I01
sS'P13466'
p1363
I01
sS'Q552D1'
p1364
I01
sS'Q5TJ65'
p1365
I01
sS'Q552D9'
p1366
I01
sS'Q54IF0'
p1367
I01
sS'Q54IF7'
p1368
I01
sS'Q23858'
p1369
I01
sS'Q54IF9'
p1370
I01
sS'Q54FE7'
p1371
I01
sS'Q54DR0'
p1372
I01
sS'Q54DR1'
p1373
I01
sS'Q86J23'
p1374
I01
sS'O96621'
p1375
I01
sS'O96622'
p1376
I01
sS'O96623'
p1377
I01
sS'O96624'
p1378
I01
sS'Q54RS2'
p1379
I01
sS'O96626'
p1380
I01
sS'Q86IJ1'
p1381
I01
sS'Q54MV7'
p1382
I01
sS'Q54PK4'
p1383
I01
sS'Q54PK6'
p1384
I01
sS'Q551H6'
p1385
I01
sS'B0G0Y7'
p1386
I01
sS'Q551H5'
p1387
I01
sS'P34144'
p1388
I01
sS'P34140'
p1389
I01
sS'P34142'
p1390
I01
sS'P34143'
p1391
I01
sS'Q54YS8'
p1392
I01
sS'Q54IX6'
p1393
I01
sS'P34148'
p1394
I01
sS'P34149'
p1395
I01
sS'Q54RE9'
p1396
I01
sS'Q869Q8'
p1397
I01
sS'Q869Q3'
p1398
I01
sS'Q8T5Z7'
p1399
I01
sS'Q54RE6'
p1400
I01
sS'Q556T3'
p1401
I01
sS'Q556T4'
p1402
I01
sS'Q556T7'
p1403
I01
sS'Q54Y41'
p1404
I01
sS'Q55CV0'
p1405
I01
sS'Q55CV4'
p1406
I01
sS'Q55CV5'
p1407
I01
sS'Q54CS6'
p1408
I01
sS'Q55CD5'
p1409
I01
sS'Q86I71'
p1410
I01
sS'Q54HH9'
p1411
I01
sS'Q54X04'
p1412
I01
sS'Q556F0'
p1413
I01
sS'Q54X02'
p1414
I01
sS'Q54X03'
p1415
I01
sS'Q86KZ5'
p1416
I01
sS'Q55DL6'
p1417
I01
sS'Q54EP7'
p1418
I01
sS'Q54EP6'
p1419
I01
sS'Q54KD9'
p1420
I01
sS'Q54KD3'
p1421
I01
sS'Q54KD1'
p1422
I01
sS'Q54KD5'
p1423
I01
sS'Q86D86'
p1424
I01
sS'Q54QV8'
p1425
I01
sS'Q55DB1'
p1426
I01
sS'Q86IL9'
p1427
I01
sS'Q54TC9'
p1428
I01
sS'Q54QV0'
p1429
I01
sS'Q55DB9'
p1430
I01
sS'Q54QV4'
p1431
I01
sS'Q54KJ7'
p1432
I01
sS'Q9GRF8'
p1433
I01
sS'Q54WV6'
p1434
I01
sS'Q54KJ9'
p1435
I01
sS'Q55FR9'
p1436
I01
sS'Q55FR8'
p1437
I01
sS'P14326'
p1438
I01
sS'Q54UF7'
p1439
I01
sS'Q54UF6'
p1440
I01
sS'Q54UF3'
p1441
I01
sS'P14329'
p1442
I01
sS'Q8T869'
p1443
I01
sS'Q8WSV6'
p1444
I01
sS'Q54BN8'
p1445
I01
sS'Q54UP4'
p1446
I01
sS'Q54Q51'
p1447
I01
sS'Q55AB5'
p1448
I01
sS'Q554D9'
p1449
I01
sS'Q9XYS8'
p1450
I01
sS'Q54W90'
p1451
I01
sS'Q556H9'
p1452
I01
sS'Q54TL8'
p1453
I01
sS'P34119'
p1454
I01
sS'Q86JJ5'
p1455
I01
sS'Q54RB7'
p1456
I01
sS'Q54TL0'
p1457
I01
sS'Q54ST3'
p1458
I01
sS'P34117'
p1459
I01
sS'Q54ST0'
p1460
I01
sS'Q8T2J5'
p1461
I01
sS'Q54ST6'
p1462
I01
sS'Q54RB9'
p1463
I01
sS'P54661'
p1464
I01
sS'O60952'
p1465
I01
sS'P20609'
p1466
I01
sS'Q54QX3'
p1467
I01
sS'Q6DN52'
p1468
I01
sS'Q54WD2'
p1469
I01
sS'Q54WD1'
p1470
I01
sS'Q55DP8'
p1471
I01
sS'Q54BH6'
p1472
I01
sS'P14197'
p1473
I01
sS'Q54WD8'
p1474
I01
sS'Q54R04'
p1475
I01
sS'Q54SJ8'
p1476
I01
sS'Q8T282'
p1477
I01
sS'Q54ZR7'
p1478
I01
sS'Q54QJ9'
p1479
I01
sS'Q54QJ8'
p1480
I01
sS'Q54XZ0'
p1481
I01
sS'Q553I0'
p1482
I01
sS'Q54M57'
p1483
I01
sS'Q54H06'
p1484
I01
sS'Q54H07'
p1485
I01
sS'Q54PZ2'
p1486
I01
sS'Q54VZ4'
p1487
I01
sS'Q54VZ1'
p1488
I01
sS'Q54VZ3'
p1489
I01
sS'Q1ZXG6'
p1490
I01
sS'Q1ZXG4'
p1491
I01
sS'Q54TB6'
p1492
I01
sS'Q54CN7'
p1493
I01
sS'Q54CN9'
p1494
I01
sS'Q54MA5'
p1495
I01
sS'Q54K19'
p1496
I01
sS'Q54NY6'
p1497
I01
sS'Q54K12'
p1498
I01
sS'Q54E73'
p1499
I01
sS'O00910'
p1500
I01
sS'Q55E35'
p1501
I01
sS'Q55E34'
p1502
I01
sS'Q55E32'
p1503
I01
sS'Q55E31'
p1504
I01
sS'Q7YXD4'
p1505
I01
sS'Q54I76'
p1506
I01
sS'Q54I73'
p1507
I01
sS'Q95VZ3'
p1508
I01
sS'Q86L51'
p1509
I01
sS'Q555Q9'
p1510
I01
sS'Q86KU6'
p1511
I01
sS'Q86KU5'
p1512
I01
sS'Q54M34'
p1513
I01
sS'Q556N5'
p1514
I01
sS'Q54C73'
p1515
I01
sS'Q54C70'
p1516
I01
sS'Q23862'
p1517
I01
sS'Q54II1'
p1518
I01
sS'P13651'
p1519
I01
sS'Q54DS3'
p1520
I01
sS'Q54DS8'
p1521
I01
sS'Q55GT3'
p1522
I01
sS'Q54PH8'
p1523
I01
sS'Q54JC2'
p1524
I01
sS'Q54PH5'
p1525
I01
sS'Q551I4'
p1526
I01
sS'Q54PH3'
p1527
I01
sS'Q54RF5'
p1528
I01
sS'Q54RF6'
p1529
I01
sS'Q54YR8'
p1530
I01
sS'Q54YR4'
p1531
I01
sS'Q869R8'
p1532
I01
sS'Q54PF3'
p1533
I01
sS'Q8T674'
p1534
I01
sS'Q54DA8'
p1535
I01
sS'Q54DA7'
p1536
I01
sS'Q54DA0'
p1537
I01
sS'Q86K61'
p1538
I01
sS'Q86K67'
p1539
I01
sS'Q55CW0'
p1540
I01
sS'Q556W7'
p1541
I01
sS'Q55CW5'
p1542
I01
sS'Q556W2'
p1543
I01
sS'Q54CR4'
p1544
I01
sS'Q54X54'
p1545
I01
sS'P08800'
p1546
I01
sS'Q550W4'
p1547
I01
sS'Q54CR8'
p1548
I01
sS'Q55CE3'
p1549
I01
sS'Q556Y4'
p1550
I01
sS'Q556Y3'
p1551
I01
sS'Q556Y0'
p1552
I01
sS'Q54ES4'
p1553
I01
sS'Q54ES6'
p1554
I01
sS'Q54LN4'
p1555
I01
sS'Q54X13'
p1556
I01
sS'Q54X10'
p1557
I01
sS'Q54ES8'
p1558
I01
sS'Q54ES9'
p1559
I01
sS'Q86A67'
p1560
I01
sS'Q555C8'
p1561
I01
sS'Q552Q3'
p1562
I01
sS'Q552Q7'
p1563
I01
sS'Q55DA4'
p1564
I01
sS'Q9Y1W0'
p1565
I01
sS'Q54EM7'
p1566
I01
sS'Q54KI0'
p1567
I01
sS'Q54WU1'
p1568
I01
sS'Q55FU9'
p1569
I01
sS'Q86KI1'
p1570
I01
sS'Q54T61'
p1571
I01
sS'P14330'
p1572
I01
sS'Q54YD8'
p1573
I01
sS'Q554U7'
p1574
I01
sS'Q554U0'
p1575
I01
sS'Q54YD2'
p1576
I01
sS'Q54YD4'
p1577
I01
sS'Q54IX9'
p1578
I01
sS'Q54Q46'
p1579
I01
sS'Q7KWY3'
p1580
I01
sS'Q7KWY0'
p1581
I01
sS'Q7KWY5'
p1582
I01
sS'P54872'
p1583
I01
sS'Q55FV8'
p1584
I01
sS'Q556K7'
p1585
I01
sS'Q54W88'
p1586
I01
sS'Q7KWW4'
p1587
I01
sS'Q9NKW1'
p1588
I01
sS'Q7KWW3'
p1589
I01
sS'Q54TM2'
p1590
I01
sS'Q55AM9'
p1591
I01
sS'Q7KWW8'
p1592
I01
sS'Q869Z0'
p1593
I01
sS'Q54LL8'
p1594
I01
sS'Q54XM9'
p1595
I01
sS'Q54XM7'
p1596
I01
sS'Q54XM6'
p1597
I01
sS'Q9XYL0'
p1598
I01
sS'Q54BI8'
p1599
I01
sS'Q55BR7'
p1600
I01
sS'Q54U61'
p1601
I01
sS'Q55DW5'
p1602
I01
sS'Q54R17'
p1603
I01
sS'Q54LR4'
p1604
I01
sS'Q54SI3'
p1605
I01
sS'Q54SI5'
p1606
I01
sS'Q54QM8'
p1607
I01
sS'Q553N3'
p1608
I01
sS'Q54H18'
p1609
I01
sS'Q553N9'
p1610
I01
sS'Q553R4'
p1611
I01
sS'Q54M42'
p1612
I01
sS'Q55GP7'
p1613
I01
sS'Q54G81'
p1614
I01
sS'Q86HX0'
p1615
I01
sS'Q54MF3'
p1616
I01
sS'Q54G86'
p1617
I01
sS'Q54MF0'
p1618
I01
sS'Q55C09'
p1619
I01
sS'Q54G88'
p1620
I01
sS'Q551X7'
p1621
I01
sS'Q54JR2'
p1622
I01
sS'Q55EK2'
p1623
I01
sS'Q54TC4'
p1624
I01
sS'Q54K02'
p1625
I01
sS'Q54HZ2'
p1626
I01
sS'Q54CM0'
p1627
I01
sS'Q54CM2'
p1628
I01
sS'Q54NZ0'
p1629
I01
sS'Q8T2G9'
p1630
I01
sS'Q54CC5'
p1631
I01
sS'Q54E67'
p1632
I01
sS'Q54E62'
p1633
I01
sS'Q54VE2'
p1634
I01
sS'Q54NT2'
p1635
I01
sS'Q7KWN0'
p1636
I01
sS'Q54TQ9'
p1637
I01
sS'Q55E41'
p1638
I01
sS'Q54I61'
p1639
I01
sS'Q55E09'
p1640
I01
sS'Q55BN7'
p1641
I01
sS'Q55BN9'
p1642
I01
sS'Q54KT3'
p1643
I01
sS'Q54C69'
p1644
I01
sS'Q54C68'
p1645
I01
sS'Q557J6'
p1646
I01
sS'Q557J7'
p1647
I01
sS'Q54C61'
p1648
I01
sS'P33519'
p1649
I01
sS'Q54DP1'
p1650
I01
sS'Q551J1'
p1651
I01
sS'Q54JD2'
p1652
I01
sS'Q54JD0'
p1653
I01
sS'Q54MP2'
p1654
I01
sS'Q55EQ1'
p1655
I01
sS'Q54JD4'
p1656
I01
sS'Q54JD9'
p1657
I01
sS'Q55EQ8'
p1658
I01
sS'Q55CT1'
p1659
I01
sS'Q55GW5'
p1660
I01
sS'Q869S7'
p1661
I01
sS'Q54PG5'
p1662
I01
sS'Q55CT5'
p1663
I01
sS'Q54PG7'
p1664
I01
sS'Q55CT7'
p1665
I01
sS'Q8T665'
p1666
I01
sS'Q54B10'
p1667
I01
sS'Q54B13'
p1668
I01
sS'Q54DF1'
p1669
I01
sS'Q54DF7'
p1670
I01
sS'Q54DF4'
p1671
I01
sS'Q86K74'
p1672
I01
sS'Q556V1'
p1673
I01
sS'Q556V7'
p1674
I01
sS'Q556V6'
p1675
I01
sS'Q55CT9'
p1676
I01
sS'P34093'
p1677
I01
sS'Q54CQ7'
p1678
I01
sS'Q54CQ9'
p1679
I01
sS'P34098'
p1680
I01
sS'Q55E97'
p1681
I01
sS'Q86A77'
p1682
I01
sS'Q86A72'
p1683
I01
sS'Q55CJ9'
p1684
I01
sS'Q55E91'
p1685
I01
sS'Q55CJ5'
p1686
I01
sS'Q55CJ3'
p1687
I01
sS'Q86I17'
p1688
I01
sS'Q54KZ4'
p1689
I01
sS'Q54KZ1'
p1690
I01
sS'Q86KX9'
p1691
I01
sS'Q54KZ8'
p1692
I01
sS'Q55FB8'
p1693
I01
sS'Q23892'
p1694
I01
sS'Q54IZ9'
p1695
I01
sS'P32252'
p1696
I01
sS'P32253'
p1697
I01
sS'P32256'
p1698
I01
sS'P32254'
p1699
I01
sS'P32255'
p1700
I01
sS'Q559Q5'
p1701
I01
sS'Q54EL2'
p1702
I01
sS'Q54KH9'
p1703
I01
sS'Q54KH8'
p1704
I01
sS'Q58A42'
p1705
I01
sS'Q54YG5'
p1706
I01
sS'Q54UR0'
p1707
I01
sS'Q9NKX1'
p1708
I01
sS'Q8SSU2'
p1709
I01
sS'Q55GQ6'
p1710
I01
sS'Q8T6J5'
p1711
I01
sS'Q5FXM5'
p1712
I01
sS'Q8T6J1'
p1713
I01
sS'Q54Z09'
p1714
I01
sS'Q54Q75'
p1715
I01
sS'Q554J3'
p1716
I01
sS'Q556J9'
p1717
I01
sS'Q556J8'
p1718
I01
sS'Q556J3'
p1719
I01
sS'Q556J2'
p1720
I01
sS'Q556J0'
p1721
I01
sS'Q54Q97'
p1722
I01
sS'Q54Q95'
p1723
I01
sS'Q54NI6'
p1724
I01
sS'Q86JD4'
p1725
I01
sS'Q54LM1'
p1726
I01
sS'Q54LM9'
p1727
I01
sS'Q8T2H0'
p1728
I01
sS'Q54XJ8'
p1729
I01
sS'Q54XJ9'
p1730
I01
sS'P32073'
p1731
I01
sS'Q54QZ5'
p1732
I01
sS'Q54BR2'
p1733
I01
sS'Q55DV9'
p1734
I01
sS'Q54WB6'
p1735
I01
sS'Q9GPR7'
p1736
I01
sS'Q54WB8'
p1737
I01
sS'Q54BJ5'
p1738
I01
sS'Q54U15'
p1739
I01
sS'Q54XX1'
p1740
I01
sS'Q54XX2'
p1741
I01
sS'Q54XX3'
p1742
I01
sS'P10819'
p1743
I01
sS'P16168'
p1744
I01
sS'Q86I14'
p1745
I01
sS'P02886'
p1746
I01
sS'Q54M70'
p1747
I01
sS'P02889'
p1748
I01
sS'Q55EN7'
p1749
I01
sS'Q76NT6'
p1750
I01
sS'Q54M75'
p1751
I01
sS'Q54M76'
p1752
I01
sS'Q55EN3'
p1753
I01
sS'Q54S52'
p1754
I01
sS'Q55GN9'
p1755
I01
sS'Q55GN3'
p1756
I01
sS'Q54T29'
p1757
I01
sS'Q54JS5'
p1758
I01
sS'Q54MA6'
p1759
I01
sS'Q54PX9'
p1760
I01
sS'Q54MA4'
p1761
I01
sS'Q54JS0'
p1762
I01
sS'Q55C17'
p1763
I01
sS'Q54G77'
p1764
I01
sS'Q54PX7'
p1765
I01
sS'Q54G73'
p1766
I01
sS'Q54G71'
p1767
I01
sS'Q54N83'
p1768
I01
sS'Q54N80'
p1769
I01
sS'Q86HF6'
p1770
I01
sS'Q54VT5'
p1771
I01
sS'Q1ZXA6'
p1772
I01
sS'Q54K74'
p1773
I01
sS'Q75JE7'
p1774
I01
sS'Q54CL2'
p1775
I01
sS'Q54VK4'
p1776
I01
sS'Q54SH0'
p1777
I01
sS'Q54CB5'
p1778
I01
sS'Q54CB7'
p1779
I01
sS'Q54E19'
p1780
I01
sS'Q54HI5'
p1781
I01
sS'C7FZY2'
p1782
I01
sS'Q54NU2'
p1783
I01
sS'Q55FB3'
p1784
I01
sS'Q54TV4'
p1785
I01
sS'C7FZW3'
p1786
I01
sS'C7FZW5'
p1787
I01
sS'Q54I98'
p1788
I01
sS'Q54I93'
p1789
I01
sS'Q54I90'
p1790
I01
sS'Q55BI2'
p1791
I01
sS'Q95YL4'
p1792
I01
sS'Q54GZ0'
p1793
I01
sS'Q54D27'
p1794
I01
sS'Q55BY3'
p1795
I01
sS'P13231'
p1796
I01
sS'Q54RV6'
p1797
I01
sS'Q54IK1'
p1798
I01
sS'Q54IK3'
p1799
I01
sS'Q54RZ2'
p1800
I01
sS'B0G0Z1'
p1801
I01
sS'B0G0Z7'
p1802
I01
sS'B0G0Z6'
p1803
I01
sS'B0G0Z5'
p1804
I01
sS'Q54PV8'
p1805
I01
sS'Q54JE3'
p1806
I01
sS'Q54JE4'
p1807
I01
sS'Q86AT8'
p1808
I01
sS'Q55ER7'
p1809
I01
sS'Q54JE8'
p1810
I01
sS'O76173'
p1811
I01
sS'Q54GJ2'
p1812
I01
sS'P15808'
p1813
I01
sS'Q8I8U2'
p1814
I01
sS'Q54YT4'
p1815
I01
sS'Q9NCL7'
p1816
I01
sS'Q54PD3'
p1817
I01
sS'Q54PD4'
p1818
I01
sS'Q54PD5'
p1819
I01
sS'Q54Y98'
p1820
I01
sS'Q54DG1'
p1821
I01
sS'Q54Y95'
p1822
I01
sS'Q54DG5'
p1823
I01
sS'Q8MMR8'
p1824
I01
sS'Q54M12'
p1825
I01
sS'Q86K48'
p1826
I01
sS'P54657'
p1827
I01
sS'Q550U9'
p1828
I01
sS'Q86JI9'
p1829
I01
sS'Q54CP2'
p1830
I01
sS'Q55CK8'
p1831
I01
sS'Q86A08'
p1832
I01
sS'Q55CK0'
p1833
I01
sS'Q55CK3'
p1834
I01
sS'Q550C4'
p1835
I01
sS'Q55G38'
p1836
I01
sS'Q55FE3'
p1837
I01
sS'Q55FE0'
p1838
I01
sS'Q552S7'
p1839
I01
sS'Q552S0'
p1840
I01
sS'Q552S1'
p1841
I01
sS'Q54KY9'
p1842
I01
sS'Q55FE8'
p1843
I01
sS'Q55FE9'
p1844
I01
sS'Q552S8'
p1845
I01
sS'Q555E8'
p1846
I01
sS'Q54HE3'
p1847
I01
sS'Q555E5'
p1848
I01
sS'Q55DG8'
p1849
I01
sS'Q55DG0'
p1850
I01
sS'Q54UC1'
p1851
I01
sS'Q54WT8'
p1852
I01
sS'Q54YF7'
p1853
I01
sS'Q54YF6'
p1854
I01
sS'Q54YF5'
p1855
I01
sS'Q54FA9'
p1856
I01
sS'Q54YF9'
p1857
I01
sS'Q86I20'
p1858
I01
sS'Q86I22'
p1859
I01
sS'Q75JH8'
p1860
I01
sS'P27133'
p1861
I01
sS'Q27563'
p1862
I01
sS'Q8T8M2'
p1863
I01
sS'Q54Q68'
p1864
I01
sS'Q54Z13'
p1865
I01
sS'Q86KT5'
p1866
I01
sS'Q556M2'
p1867
I01
sS'P20054'
p1868
I01
sS'Q556M4'
p1869
I01
sS'Q556M5'
p1870
I01
sS'Q54Q84'
p1871
I01
sS'Q54NJ8'
p1872
I01
sS'P54632'
p1873
I01
sS'Q54B68'
p1874
I01
sS'Q86JG3'
p1875
I01
sS'P54638'
p1876
I01
sS'P54639'
p1877
I01
sS'Q86JG6'
p1878
I01
sS'Q54LB8'
p1879
I01
sS'Q54LB9'
p1880
I01
sS'Q55GL2'
p1881
I01
sS'Q54XK9'
p1882
I01
sS'Q54BK2'
p1883
I01
sS'Q558Z2'
p1884
I01
sS'Q54XK2'
p1885
I01
sS'Q55FY1'
p1886
I01
sS'Q54WA4'
p1887
I01
sS'Q54U07'
p1888
I01
sS'Q54LP8'
p1889
I01
sS'Q54XY5'
p1890
I01
sS'Q54LP3'
p1891
I01
sS'Q54GK6'
p1892
I01
sS'Q54X73'
p1893
I01
sS'P46800'
p1894
I01
sS'Q86HW7'
p1895
I01
sS'Q86HW2'
p1896
I01
sS'Q553L4'
p1897
I01
sS'Q1ZXP3'
p1898
I01
sS'Q76NU3'
p1899
I01
sS'P26199'
p1900
I01
sS'Q769F9'
p1901
I01
sS'Q769F7'
p1902
I01
sS'Q769F6'
p1903
I01
sS'Q553B6'
p1904
I01
sS'Q54JT0'
p1905
I01
sS'Q54JT6'
p1906
I01
sS'Q54JT7'
p1907
I01
sS'Q55D90'
p1908
I01
sS'Q54G54'
p1909
I01
sS'Q54PY7'
p1910
I01
sS'Q55D96'
p1911
I01
sS'Q54VU3'
p1912
I01
sS'P36967'
p1913
I01
sS'Q54ND5'
p1914
I01
sS'P48160'
p1915
I01
sS'Q54ND0'
p1916
I01
sS'Q54TA8'
p1917
I01
sS'Q54TA1'
p1918
I01
sS'Q55E67'
p1919
I01
sS'Q55E60'
p1920
I01
sS'Q54CA5'
p1921
I01
sS'Q54CA6'
p1922
I01
sS'Q75JK6'
p1923
I01
sS'Q54E04'
p1924
I01
sS'O96625'
p1925
I01
sS'Q54RS1'
p1926
I01
sS'Q54NV9'
p1927
I01
sS'Q54F93'
p1928
I01
sS'Q54TW5'
p1929
I01
sS'Q54F94'
p1930
I01
sS'Q54I88'
p1931
I01
sS'Q8T131'
p1932
I01
sS'Q54GY8'
p1933
I01
sS'Q95ZG4'
p1934
I01
sS'Q55BH2'
p1935
I01
sS'Q55BH7'
p1936
I01
sS'Q95ZG8'
p1937
I01
sS'Q55BP9'
p1938
I01
sS'C7FZZ5'
p1939
I01
sS'Q54C47'
p1940
I01
sS'Q54IJ2'
p1941
I01
sS'Q54IJ1'
p1942
I01
sS'Q54C49'
p1943
I01
sS'C7FZZ8'
p1944
I01
sS'C7FZZ9'
p1945
I01
sS'Q54NE6'
p1946
I01
sS'Q03479'
p1947
I01
sS'Q8MXQ2'
p1948
I01
sS'Q557H6'
p1949
I01
sS'Q557H1'
p1950
I01
sS'Q557H3'
p1951
I01
sS'Q54PW3'
p1952
I01
sS'Q54DV3'
p1953
I01
sS'Q54VG5'
p1954
I01
sS'Q54MR8'
p1955
I01
sS'Q553P4'
p1956
I01
sS'Q553P5'
p1957
I01
sS'Q54VG1'
p1958
I01
sS'Q54VG0'
p1959
I01
sS'Q54JF5'
p1960
I01
sS'Q54MR6'
p1961
I01
sS'Q54RI8'
p1962
I01
sS'Q54DD3'
p1963
I01
sS'Q54RI2'
p1964
I01
sS'Q54JH4'
p1965
I01
sS'Q54JH2'
p1966
I01
sS'Q54PE8'
p1967
I01
sS'Q54YS4'
p1968
I01
sS'Q54Y83'
p1969
I01
sS'Q86K57'
p1970
I01
sS'Q54CW1'
p1971
I01
sS'Q86A17'
p1972
I01
sS'Q55CH0'
p1973
I01
sS'Q86A18'
p1974
I01
sS'Q55CH3'
p1975
I01
sS'Q556Z3'
p1976
I01
sS'Q556Z1'
p1977
I01
sS'Q556Z0'
p1978
I01
sS'P16894'
p1979
I01
sS'Q54RN0'
p1980
I01
sS'Q552R6'
p1981
I01
sS'Q557F3'
p1982
I01
sS'Q557F0'
p1983
I01
sS'Q54YW3'
p1984
I01
sS'Q1ZXJ3'
p1985
I01
sS'Q54YW8'
p1986
I01
sS'Q54WR3'
p1987
I01
sS'Q54WR2'
p1988
I01
sS'B0G128'
p1989
I01
sS'Q54WR9'
p1990
I01
sS'B0G127'
p1991
I01
sS'Q8TA03'
p1992
I01
sS'Q55FV9'
p1993
I01
sS'Q54UB0'
p1994
I01
sS'Q54UB7'
p1995
I01
sS'Q54UB6'
p1996
I01
sS'Q54UB5'
p1997
I01
sS'Q55E77'
p1998
I01
sS'Q54KN7'
p1999
I01
sS'Q55E76'
p2000
I01
sS'Q54FB6'
p2001
I01
sS'Q869Q6'
p2002
I01
sS'Q9NIV0'
p2003
I01
sS'Q54FL2'
p2004
I01
sS'P24639'
p2005
I01
sS'C7G028'
p2006
I01
sS'Q554H5'
p2007
I01
sS'Q54Z22'
p2008
I01
sS'Q8T6H3'
p2009
I01
sS'Q54Z26'
p2010
I01
sS'Q86IH2'
p2011
I01
sS'Q54EN4'
p2012
I01
sS'Q556L1'
p2013
I01
sS'Q556L2'
p2014
I01
sS'Q1ZXD3'
p2015
I01
sS'Q54SX7'
p2016
I01
sS'Q7KWR8'
p2017
I01
sS'Q54ZD1'
p2018
I01
sS'Q54ZD6'
p2019
I01
sS'Q1ZXB1'
p2020
I01
sS'Q7KWR6'
p2021
I01
sS'Q55AH5'
p2022
I01
sS'Q55AN3'
p2023
I01
sS'P14797'
p2024
I01
sS'Q54LC0'
p2025
I01
sS'P14794'
p2026
I01
sS'Q54U34'
p2027
I01
sS'Q54BL8'
p2028
I01
sS'Q55DT8'
p2029
I01
sS'Q54U38'
p2030
I01
sS'Q86AV5'
p2031
I01
sS'Q54QN2'
p2032
I01
sS'Q54QN1'
p2033
I01
sS'Q55BY1'
p2034
I01
sS'Q54QN4'
p2035
I01
sS'Q54R41'
p2036
I01
sS'Q54R47'
p2037
I01
sS'Q54XV0'
p2038
I01
sS'Q54R45'
p2039
I01
sS'Q54WN5'
p2040
I01
sS'Q76NV5'
p2041
I01
sS'Q9U9R7'
p2042
I01
sS'Q54WN0'
p2043
I01
sS'Q54M18'
p2044
I01
sS'Q54WN8'
p2045
I01
sS'Q86HV4'
p2046
I01
sS'Q553M7'
p2047
I01
sS'Q1ZXQ4'
p2048
I01
sS'Q54T02'
p2049
I01
sS'P90529'
p2050
I01
sS'Q54T06'
p2051
I01
sS'P90526'
p2052
I01
sS'P90521'
p2053
I01
sS'Q54G58'
p2054
I01
sS'Q54JU2'
p2055
I01
sS'Q55C71'
p2056
I01
sS'Q55C70'
p2057
I01
sS'Q55C73'
p2058
I01
sS'Q54G53'
p2059
I01
sS'Q54MC0'
p2060
I01
sS'Q54G56'
p2061
I01
sS'Q75JT7'
p2062
I01
sS'Q75JT6'
p2063
I01
sS'Q54HY5'
p2064
I01
sS'Q54VV1'
p2065
I01
sS'Q8T137'
p2066
I01
sS'Q86HD3'
p2067
I01
sS'Q54NE5'
p2068
I01
sS'Q54TF9'
p2069
I01
sS'Q54K50'
p2070
I01
sS'Q55FK8'
p2071
I01
sS'Q55G99'
p2072
I01
sS'Q54SN5'
p2073
I01
sS'Q54SN4'
p2074
I01
sS'Q55G90'
p2075
I01
sS'Q75K07'
p2076
I01
sS'Q54HG9'
p2077
I01
sS'Q54HG8'
p2078
I01
sS'Q54HG2'
p2079
I01
sS'Q55G75'
p2080
I01
sS'Q55G70'
p2081
I01
sS'Q54NW9'
p2082
I01
sS'Q54NW7'
p2083
I01
sS'Q54YJ6'
p2084
I01
sS'Q55BK1'
p2085
I01
sS'Q55D85'
p2086
I01
sS'Q55D84'
p2087
I01
sS'Q54BP0'
p2088
I01
sS'O97101'
p2089
I01
sS'Q54J23'
p2090
I01
sS'Q55BK0'
p2091
I01
sS'Q54XJ0'
p2092
I01
sS'Q54J26'
p2093
I01
stbaa(lp2094
S'15473840'
p2095
ag5
(g6
g7
NtRp2096
((dp2097
S'P34145'
p2098
I01
sS'Q54QV3'
p2099
I01
sS'Q553Y7'
p2100
I01
sS'P54644'
p2101
I01
sS'P34042'
p2102
I01
sS'P35401'
p2103
I01
sS'Q03100'
p2104
I01
sS'Q8MLZ3'
p2105
I01
sS'Q54QB1'
p2106
I01
sS'P12019'
p2107
I01
sS'Q55CL6'
p2108
I01
sS'Q95ZG8'
p2109
I01
sS'P34907'
p2110
I01
sS'Q55D99'
p2111
I01
sS'Q9TX43'
p2112
I01
sS'Q54R41'
p2113
I01
sS'Q8T9S7'
p2114
I01
sS'P54673'
p2115
I01
sS'Q8MVR1'
p2116
I01
sS'Q54S40'
p2117
I01
sS'B0G0Y8'
p2118
I01
sS'Q8MM62'
p2119
I01
sS'P36408'
p2120
I01
stbaa(lp2121
S'17517120'
p2122
ag5
(g6
g7
NtRp2123
((dp2124
S'B0G108'
p2125
I01
sS'Q54BC6'
p2126
I01
sS'P27133'
p2127
I01
sS'P34123'
p2128
I01
sS'Q54UB5'
p2129
I01
sS'Q869Q3'
p2130
I01
sS'Q75J86'
p2131
I01
sS'Q55FE0'
p2132
I01
sS'O00899'
p2133
I01
sS'Q6TMJ3'
p2134
I01
sS'Q54W87'
p2135
I01
sS'Q55E30'
p2136
I01
sS'Q54BU4'
p2137
I01
sS'P13466'
p2138
I01
sS'Q86JP5'
p2139
I01
sS'Q54BD4'
p2140
I01
sS'Q86B08'
p2141
I01
sS'Q54ZC9'
p2142
I01
sS'Q6TMK2'
p2143
I01
sS'P07830'
p2144
I01
sS'Q55FW3'
p2145
I01
sS'Q54I98'
p2146
I01
sS'Q5R1U3'
p2147
I01
sS'O96621'
p2148
I01
sS'P54681'
p2149
I01
sS'Q9XYL0'
p2150
I01
sS'P26200'
p2151
I01
sS'O61122'
p2152
I01
sS'P04988'
p2153
I01
sS'Q8T673'
p2154
I01
stbaa(lp2155
S'19482547'
p2156
ag5
(g6
g7
NtRp2157
((dp2158
S'P32256'
p2159
I01
sS'Q54PX9'
p2160
I01
sS'Q54WR9'
p2161
I01
sS'P15112'
p2162
I01
sS'P27133'
p2163
I01
sS'P22887'
p2164
I01
sS'P0DJ26'
p2165
I01
sS'P0DJ27'
p2166
I01
sS'P54647'
p2167
I01
sS'Q54X53'
p2168
I01
sS'P34121'
p2169
I01
sS'Q9GRF8'
p2170
I01
sS'Q54F93'
p2171
I01
sS'Q55GQ5'
p2172
I01
sS'P42528'
p2173
I01
sS'P24639'
p2174
I01
sS'Q76NU1'
p2175
I01
sS'Q23921'
p2176
I01
sS'Q95UQ1'
p2177
I01
sS'P34093'
p2178
I01
sS'Q54VA2'
p2179
I01
sS'P90532'
p2180
I01
sS'Q54PA9'
p2181
I01
sS'Q557E0'
p2182
I01
sS'P13021'
p2183
I01
sS'P13022'
p2184
I01
sS'Q55BY1'
p2185
I01
sS'P54632'
p2186
I01
sS'Q6IMN8'
p2187
I01
sS'P29505'
p2188
I01
sS'Q54HG2'
p2189
I01
sS'P34118'
p2190
I01
sS'B0G196'
p2191
I01
sS'Q65YR8'
p2192
I01
sS'Q54UM3'
p2193
I01
sS'Q75JQ1'
p2194
I01
sS'Q54I98'
p2195
I01
sS'P02886'
p2196
I01
sS'Q86IC8'
p2197
I01
sS'P42530'
p2198
I01
sS'Q54EN4'
p2199
I01
sS'Q554U9'
p2200
I01
stbaa(lp2201
S'8710499'
p2202
ag5
(g6
g7
NtRp2203
((dp2204
S'B0M0P5'
p2205
I01
stbaa(lp2206
S'9649625'
p2207
ag5
(g6
g7
NtRp2208
((dp2209
S'Q55G81'
p2210
I01
sS'B0M0P5'
p2211
I01
sS'O00835'
p2212
I01
stbaa(lp2213
S'17659086'
p2214
ag5
(g6
g7
NtRp2215
((dp2216
S'Q54JN7'
p2217
I01
sS'Q54C50'
p2218
I01
sS'Q54E42'
p2219
I01
sS'Q54QV3'
p2220
I01
sS'Q9GV71'
p2221
I01
sS'Q54DH4'
p2222
I01
sS'Q54FI4'
p2223
I01
sS'Q54SK0'
p2224
I01
sS'Q94489'
p2225
I01
sS'Q54Q13'
p2226
I01
sS'Q54XN8'
p2227
I01
sS'Q54T91'
p2228
I01
sS'Q54TS2'
p2229
I01
sS'Q76P07'
p2230
I01
sS'Q54B33'
p2231
I01
sS'O15736'
p2232
I01
sS'Q54PE1'
p2233
I01
sS'Q551S0'
p2234
I01
sS'Q54DX3'
p2235
I01
sS'Q8T191'
p2236
I01
sS'P35401'
p2237
I01
sS'Q23925'
p2238
I01
sS'Q54RA9'
p2239
I01
sS'Q55BI3'
p2240
I01
sS'Q54XY4'
p2241
I01
sS'Q54EJ9'
p2242
I01
sS'P42525'
p2243
I01
sS'Q54YA6'
p2244
I01
sS'Q54SH6'
p2245
I01
sS'O76765'
p2246
I01
sS'Q86JF2'
p2247
I01
sS'Q54NL0'
p2248
I01
sS'Q86A78'
p2249
I01
sS'Q55BN0'
p2250
I01
sS'Q54RN4'
p2251
I01
sS'P34098'
p2252
I01
sS'Q54NL1'
p2253
I01
sS'Q1ZXJ0'
p2254
I01
sS'Q55C49'
p2255
I01
sS'P13466'
p2256
I01
sS'Q54T23'
p2257
I01
sS'Q55GV1'
p2258
I01
sS'Q54NS0'
p2259
I01
sS'O77203'
p2260
I01
sS'Q54FJ6'
p2261
I01
sS'Q86M88'
p2262
I01
sS'O00910'
p2263
I01
sS'B0M0P8'
p2264
I01
sS'Q54HP0'
p2265
I01
sS'P36417'
p2266
I01
sS'Q1ZXD6'
p2267
I01
sS'Q55AV3'
p2268
I01
sS'Q54KI3'
p2269
I01
sS'P18160'
p2270
I01
sS'Q551Y7'
p2271
I01
sS'Q54U87'
p2272
I01
sS'Q54PQ4'
p2273
I01
sS'Q54DG1'
p2274
I01
sS'Q54LY5'
p2275
I01
sS'Q54C04'
p2276
I01
sS'Q55CL6'
p2277
I01
sS'Q54HV0'
p2278
I01
sS'Q54IQ9'
p2279
I01
sS'Q553M8'
p2280
I01
sS'Q54W34'
p2281
I01
sS'Q8T6J2'
p2282
I01
sS'Q86AS3'
p2283
I01
sS'Q54K32'
p2284
I01
sS'Q54Y53'
p2285
I01
sS'Q54RQ8'
p2286
I01
sS'Q23917'
p2287
I01
sS'Q54RR8'
p2288
I01
sS'P54683'
p2289
I01
sS'Q55F68'
p2290
I01
sS'Q54G37'
p2291
I01
sS'Q54V32'
p2292
I01
sS'Q869Q6'
p2293
I01
sS'Q55GS3'
p2294
I01
sS'Q55FD8'
p2295
I01
sS'Q54DL1'
p2296
I01
sS'Q557J7'
p2297
I01
stbaa(lp2298
S'16086850'
p2299
ag5
(g6
g7
NtRp2300
((dp2301
S'B0M0P8'
p2302
I01
sS'Q8IS18'
p2303
I01
stbaa(lp2304
S'21190565'
p2305
ag5
(g6
g7
NtRp2306
((dp2307
S'P34092'
p2308
I01
sS'P42528'
p2309
I01
sS'Q54GX7'
p2310
I01
sS'Q553U6'
p2311
I01
sS'C7FZZ0'
p2312
I01
sS'O96621'
p2313
I01
sS'O96622'
p2314
I01
sS'O96623'
p2315
I01
sS'O96624'
p2316
I01
sS'O96625'
p2317
I01
sS'O96626'
p2318
I01
sS'P07829'
p2319
I01
sS'P07830'
p2320
I01
sS'P27133'
p2321
I01
stbaa(lp2322
S'21401524'
p2323
ag5
(g6
g7
NtRp2324
((dp2325
S'C7FZZ0'
p2326
I01
stbaa(lp2327
S'9171087'
p2328
ag5
(g6
g7
NtRp2329
((dp2330
S'Q55G81'
p2331
I01
sS'O00835'
p2332
I01
stbaa(lp2333
S'9765592'
p2334
ag5
(g6
g7
NtRp2335
((dp2336
S'O00835'
p2337
I01
stbaa(lp2338
S'9226443'
p2339
ag5
(g6
g7
NtRp2340
((dp2341
S'O00841'
p2342
I01
stbaa(lp2343
S'12771188'
p2344
ag5
(g6
g7
NtRp2345
((dp2346
S'P54681'
p2347
I01
sS'O00899'
p2348
I01
sS'Q54BD4'
p2349
I01
stbaa(lp2350
S'15740584'
p2351
ag5
(g6
g7
NtRp2352
((dp2353
S'P26199'
p2354
I01
sS'Q8IS21'
p2355
I01
sS'O00899'
p2356
I01
sS'P32254'
p2357
I01
sS'Q54HG2'
p2358
I01
stbaa(lp2359
S'21085675'
p2360
ag5
(g6
g7
NtRp2361
((dp2362
S'O00899'
p2363
I01
stbaa(lp2364
S'23264736'
p2365
ag5
(g6
g7
NtRp2366
((dp2367
S'O00909'
p2368
I01
sS'Q54WI0'
p2369
I01
stbaa(lp2370
S'15733068'
p2371
ag5
(g6
g7
NtRp2372
((dp2373
S'O00910'
p2374
I01
sS'Q54Z60'
p2375
I01
sS'Q557X0'
p2376
I01
stbaa(lp2377
S'15470642'
p2378
ag5
(g6
g7
NtRp2379
((dp2380
S'O00910'
p2381
I01
stbaa(lp2382
S'10393118'
p2383
ag5
(g6
g7
NtRp2384
((dp2385
S'O00910'
p2386
I01
stbaa(lp2387
S'15053873'
p2388
ag5
(g6
g7
NtRp2389
((dp2390
S'O00910'
p2391
I01
stbaa(lp2392
S'10402673'
p2393
ag5
(g6
g7
NtRp2394
((dp2395
S'Q551S0'
p2396
I01
sS'O15736'
p2397
I01
sS'Q55FG3'
p2398
I01
stbaa(lp2399
S'9585512'
p2400
ag5
(g6
g7
NtRp2401
((dp2402
S'O15743'
p2403
I01
stbaa(lp2404
S'9620859'
p2405
ag5
(g6
g7
NtRp2406
((dp2407
S'O15816'
p2408
I01
stbaa(lp2409
S'22980139'
p2410
ag5
(g6
g7
NtRp2411
((dp2412
S'Q94464'
p2413
I01
sS'Q54S83'
p2414
I01
sS'O15818'
p2415
I01
stbaa(lp2416
S'9207087'
p2417
ag5
(g6
g7
NtRp2418
((dp2419
S'O15818'
p2420
I01
stbaa(lp2421
S'11390363'
p2422
ag5
(g6
g7
NtRp2423
((dp2424
S'O60999'
p2425
I01
sS'Q9Y0T2'
p2426
I01
stbaa(lp2427
S'9582328'
p2428
ag5
(g6
g7
NtRp2429
((dp2430
S'O61122'
p2431
I01
stbaa(lp2432
S'18042625'
p2433
ag5
(g6
g7
NtRp2434
((dp2435
S'O61122'
p2436
I01
stbaa(lp2437
S'16842885'
p2438
ag5
(g6
g7
NtRp2439
((dp2440
S'O61125'
p2441
I01
stbaa(lp2442
S'17362909'
p2443
ag5
(g6
g7
NtRp2444
((dp2445
S'O61125'
p2446
I01
stbaa(lp2447
S'9802899'
p2448
ag5
(g6
g7
NtRp2449
((dp2450
S'O76187'
p2451
I01
stbaa(lp2452
S'10704840'
p2453
ag5
(g6
g7
NtRp2454
((dp2455
S'O76329'
p2456
I01
stbaa(lp2457
S'9700162'
p2458
ag5
(g6
g7
NtRp2459
((dp2460
S'O76329'
p2461
I01
stbaa(lp2462
S'11352940'
p2463
ag5
(g6
g7
NtRp2464
((dp2465
S'O76765'
p2466
I01
stbaa(lp2467
S'21169559'
p2468
ag5
(g6
g7
NtRp2469
((dp2470
S'P54644'
p2471
I01
sS'Q8T9S7'
p2472
I01
sS'O77203'
p2473
I01
sS'Q55D99'
p2474
I01
stbaa(lp2475
S'9389653'
p2476
ag5
(g6
g7
NtRp2477
((dp2478
S'O77203'
p2479
I01
stbaa(lp2480
S'12413895'
p2481
ag5
(g6
g7
NtRp2482
((dp2483
S'O77203'
p2484
I01
stbaa(lp2485
S'16079174'
p2486
ag5
(g6
g7
NtRp2487
((dp2488
S'Q54D08'
p2489
I01
sS'Q9Y0C9'
p2490
I01
sS'O77203'
p2491
I01
stbaa(lp2492
S'22266904'
p2493
ag5
(g6
g7
NtRp2494
((dp2495
S'O77203'
p2496
I01
sS'Q54D08'
p2497
I01
sS'Q554J2'
p2498
I01
sS'P54644'
p2499
I01
sS'Q55BR7'
p2500
I01
sS'Q9Y0C9'
p2501
I01
sS'Q550Q4'
p2502
I01
sS'Q54VB2'
p2503
I01
stbaa(lp2504
S'18635356'
p2505
ag5
(g6
g7
NtRp2506
((dp2507
S'P54644'
p2508
I01
sS'P28178'
p2509
I01
sS'O77203'
p2510
I01
sS'P36408'
p2511
I01
stbaa(lp2512
S'11004503'
p2513
ag5
(g6
g7
NtRp2514
((dp2515
S'O77229'
p2516
I01
sS'Q55DH8'
p2517
I01
stbaa(lp2518
S'2921242'
p2519
ag5
(g6
g7
NtRp2520
((dp2521
S'O77229'
p2522
I01
stbaa(lp2523
S'11782526'
p2524
ag5
(g6
g7
NtRp2525
((dp2526
S'O77229'
p2527
I01
stbaa(lp2528
S'20408569'
p2529
ag5
(g6
g7
NtRp2530
((dp2531
S'Q54D04'
p2532
I01
sS'Q54PX9'
p2533
I01
sS'Q54D21'
p2534
I01
sS'Q86K89'
p2535
I01
sS'Q8TA03'
p2536
I01
sS'Q54Z13'
p2537
I01
sS'Q55D61'
p2538
I01
sS'Q54KN7'
p2539
I01
sS'Q556G3'
p2540
I01
sS'Q86HW7'
p2541
I01
sS'Q54NE6'
p2542
I01
sS'Q75JR3'
p2543
I01
sS'Q94469'
p2544
I01
sS'Q23921'
p2545
I01
sS'Q54X73'
p2546
I01
sS'P54872'
p2547
I01
sS'Q95UQ1'
p2548
I01
sS'Q54F07'
p2549
I01
sS'Q54YA0'
p2550
I01
sS'Q556P4'
p2551
I01
sS'P83401'
p2552
I01
sS'Q557E0'
p2553
I01
sS'Q54P64'
p2554
I01
sS'Q55GC5'
p2555
I01
sS'P29505'
p2556
I01
sS'Q54DK1'
p2557
I01
sS'Q55FM7'
p2558
I01
sS'P54654'
p2559
I01
sS'O77229'
p2560
I01
sS'Q54DA8'
p2561
I01
sS'P0CT32'
p2562
I01
sS'Q65YR8'
p2563
I01
sS'Q54JK3'
p2564
I01
sS'Q964D8'
p2565
I01
sS'Q23919'
p2566
I01
sS'Q553V1'
p2567
I01
sS'P46794'
p2568
I01
sS'Q55GQ5'
p2569
I01
sS'P42530'
p2570
I01
sS'Q54JD9'
p2571
I01
stbaa(lp2572
S'17825085'
p2573
ag5
(g6
g7
NtRp2574
((dp2575
S'O96042'
p2576
I01
stbaa(lp2577
S'9813183'
p2578
ag5
(g6
g7
NtRp2579
((dp2580
S'O96042'
p2581
I01
stbaa(lp2582
S'10712614'
p2583
ag5
(g6
g7
NtRp2584
((dp2585
S'O96099'
p2586
I01
stbaa(lp2587
S'16573737'
p2588
ag5
(g6
g7
NtRp2589
((dp2590
S'P34145'
p2591
I01
sS'P34146'
p2592
I01
sS'O96390'
p2593
I01
sS'Q9GPS0'
p2594
I01
sS'Q9GPS3'
p2595
I01
sS'Q23862'
p2596
I01
sS'Q9GPQ8'
p2597
I01
sS'Q9GPQ9'
p2598
I01
stbaa(lp2599
S'9832508'
p2600
ag5
(g6
g7
NtRp2601
((dp2602
S'Q94490'
p2603
I01
sS'Q54R82'
p2604
I01
sS'O96612'
p2605
I01
stbaa(lp2606
S'15726806'
p2607
ag5
(g6
g7
NtRp2608
((dp2609
S'Q95UQ1'
p2610
I01
sS'P42528'
p2611
I01
sS'Q54GX7'
p2612
I01
sS'Q553U6'
p2613
I01
sS'Q95VZ3'
p2614
I01
sS'Q54NF8'
p2615
I01
sS'O96621'
p2616
I01
sS'O96622'
p2617
I01
sS'O96623'
p2618
I01
sS'O96624'
p2619
I01
sS'O96625'
p2620
I01
sS'O96626'
p2621
I01
sS'P07829'
p2622
I01
sS'P26199'
p2623
I01
sS'P26200'
p2624
I01
sS'P07830'
p2625
I01
sS'Q95UP9'
p2626
I01
sS'Q8T8M2'
p2627
I01
sS'P27133'
p2628
I01
stbaa(lp2629
S'17553489'
p2630
ag5
(g6
g7
NtRp2631
((dp2632
S'O96621'
p2633
I01
sS'O96623'
p2634
I01
stbaa(lp2635
S'23223240'
p2636
ag5
(g6
g7
NtRp2637
((dp2638
S'O96621'
p2639
I01
stbaa(lp2640
S'16624291'
p2641
ag5
(g6
g7
NtRp2642
((dp2643
S'O96621'
p2644
I01
sS'P08799'
p2645
I01
stbaa(lp2646
S'9837757'
p2647
ag5
(g6
g7
NtRp2648
((dp2649
S'O96759'
p2650
I01
stbaa(lp2651
S'10369671'
p2652
ag5
(g6
g7
NtRp2653
((dp2654
S'O96904'
p2655
I01
stbaa(lp2656
S'9880334'
p2657
ag5
(g6
g7
NtRp2658
((dp2659
S'O96923'
p2660
I01
stbaa(lp2661
S'11162086'
p2662
ag5
(g6
g7
NtRp2663
((dp2664
S'O97101'
p2665
I01
stbaa(lp2666
S'23355006'
p2667
ag5
(g6
g7
NtRp2668
((dp2669
S'O97101'
p2670
I01
stbaa(lp2671
S'10092866'
p2672
ag5
(g6
g7
NtRp2673
((dp2674
S'O97470'
p2675
I01
stbaa(lp2676
S'1493336'
p2677
ag5
(g6
g7
NtRp2678
((dp2679
S'P02599'
p2680
I01
stbaa(lp2681
S'22884799'
p2682
ag5
(g6
g7
NtRp2683
((dp2684
S'P02599'
p2685
I01
stbaa(lp2686
S'6259174'
p2687
ag5
(g6
g7
NtRp2688
((dp2689
S'P02599'
p2690
I01
stbaa(lp2691
S'6087882'
p2692
ag5
(g6
g7
NtRp2693
((dp2694
S'P02599'
p2695
I01
stbaa(lp2696
S'21402150'
p2697
ag5
(g6
g7
NtRp2698
((dp2699
S'P02599'
p2700
I01
stbaa(lp2701
S'6243626'
p2702
ag5
(g6
g7
NtRp2703
((dp2704
S'P02599'
p2705
I01
stbaa(lp2706
S'6667031'
p2707
ag5
(g6
g7
NtRp2708
((dp2709
S'P02599'
p2710
I01
stbaa(lp2711
S'23441816'
p2712
ag5
(g6
g7
NtRp2713
((dp2714
S'P02599'
p2715
I01
stbaa(lp2716
S'15947191'
p2717
ag5
(g6
g7
NtRp2718
((dp2719
S'P02886'
p2720
I01
stbaa(lp2721
S'23516620'
p2722
ag5
(g6
g7
NtRp2723
((dp2724
S'P12729'
p2725
I01
sS'P02886'
p2726
I01
sS'P42523'
p2727
I01
sS'Q54YG2'
p2728
I01
sS'P36417'
p2729
I01
sS'Q03100'
p2730
I01
sS'P13773'
p2731
I01
sS'P12019'
p2732
I01
stbaa(lp2733
S'10725225'
p2734
ag5
(g6
g7
NtRp2735
((dp2736
S'P32252'
p2737
I01
sS'P15064'
p2738
I01
sS'P03967'
p2739
I01
stbaa(lp2740
S'2885843'
p2741
ag5
(g6
g7
NtRp2742
((dp2743
S'P03967'
p2744
I01
stbaa(lp2745
S'11257439'
p2746
ag5
(g6
g7
NtRp2747
((dp2748
S'P32252'
p2749
I01
sS'P32253'
p2750
I01
sS'P32254'
p2751
I01
sS'Q55CB7'
p2752
I01
sS'P03967'
p2753
I01
sS'Q55CA9'
p2754
I01
sS'Q55CB8'
p2755
I01
stbaa(lp2756
S'10837033'
p2757
ag5
(g6
g7
NtRp2758
((dp2759
S'P03967'
p2760
I01
stbaa(lp2761
S'6746725'
p2762
ag5
(g6
g7
NtRp2763
((dp2764
S'P05095'
p2765
I01
stbaa(lp2766
S'8486739'
p2767
ag5
(g6
g7
NtRp2768
((dp2769
S'P05095'
p2770
I01
stbaa(lp2771
S'11884033'
p2772
ag5
(g6
g7
NtRp2773
((dp2774
S'P05817'
p2775
I01
stbaa(lp2776
S'11973270'
p2777
ag5
(g6
g7
NtRp2778
((dp2779
S'P05817'
p2780
I01
stbaa(lp2781
S'23126556'
p2782
ag5
(g6
g7
NtRp2783
((dp2784
S'P05817'
p2785
I01
stbaa(lp2786
S'14695060'
p2787
ag5
(g6
g7
NtRp2788
((dp2789
S'Q8WQ85'
p2790
I01
sS'Q03380'
p2791
I01
sS'P27133'
p2792
I01
sS'P05987'
p2793
I01
sS'P34092'
p2794
I01
sS'Q23858'
p2795
I01
sS'P22467'
p2796
I01
stbaa(lp2797
S'1312226'
p2798
ag5
(g6
g7
NtRp2799
((dp2800
S'P05987'
p2801
I01
stbaa(lp2802
S'15131307'
p2803
ag5
(g6
g7
NtRp2804
((dp2805
S'Q54QB1'
p2806
I01
sS'P05987'
p2807
I01
stbaa(lp2808
S'12455979'
p2809
ag5
(g6
g7
NtRp2810
((dp2811
S'Q9XZJ3'
p2812
I01
sS'P34099'
p2813
I01
sS'P05987'
p2814
I01
stbaa(lp2815
S'2996629'
p2816
ag5
(g6
g7
NtRp2817
((dp2818
S'P07670'
p2819
I01
stbaa(lp2820
S'6191197'
p2821
ag5
(g6
g7
NtRp2822
((dp2823
S'P08796'
p2824
I01
stbaa(lp2825
S'15366765'
p2826
ag5
(g6
g7
NtRp2827
((dp2828
S'Q55CT4'
p2829
I01
sS'P54657'
p2830
I01
sS'P08796'
p2831
I01
sS'P54661'
p2832
I01
sS'P51136'
p2833
I01
stbaa(lp2834
S'19285397'
p2835
ag5
(g6
g7
NtRp2836
((dp2837
S'P42523'
p2838
I01
sS'P54657'
p2839
I01
sS'P08796'
p2840
I01
sS'Q54V07'
p2841
I01
sS'Q9U8Q1'
p2842
I01
stbaa(lp2843
S'10588668'
p2844
ag5
(g6
g7
NtRp2845
((dp2846
S'P08799'
p2847
I01
sS'Q55DM1'
p2848
I01
sS'Q23862'
p2849
I01
stbaa(lp2850
S'19065153'
p2851
ag5
(g6
g7
NtRp2852
((dp2853
S'Q54MH2'
p2854
I01
sS'P08799'
p2855
I01
sS'Q8MML5'
p2856
I01
stbaa(lp2857
S'2721503'
p2858
ag5
(g6
g7
NtRp2859
((dp2860
S'P08799'
p2861
I01
stbaa(lp2862
S'3576222'
p2863
ag5
(g6
g7
NtRp2864
((dp2865
S'P08799'
p2866
I01
stbaa(lp2867
S'15259052'
p2868
ag5
(g6
g7
NtRp2869
((dp2870
S'Q95UQ1'
p2871
I01
sS'P08799'
p2872
I01
sS'Q54S20'
p2873
I01
stbaa(lp2874
S'16926192'
p2875
ag5
(g6
g7
NtRp2876
((dp2877
S'P08799'
p2878
I01
stbaa(lp2879
S'16339076'
p2880
ag5
(g6
g7
NtRp2881
((dp2882
S'P08799'
p2883
I01
sS'Q55GF9'
p2884
I01
stbaa(lp2885
S'15894626'
p2886
ag5
(g6
g7
NtRp2887
((dp2888
S'P08799'
p2889
I01
stbaa(lp2890
S'16461463'
p2891
ag5
(g6
g7
NtRp2892
((dp2893
S'Q9NHF6'
p2894
I01
sS'P08799'
p2895
I01
stbaa(lp2896
S'4278009'
p2897
ag5
(g6
g7
NtRp2898
((dp2899
S'P08799'
p2900
I01
stbaa(lp2901
S'18388319'
p2902
ag5
(g6
g7
NtRp2903
((dp2904
S'P08799'
p2905
I01
stbaa(lp2906
S'16901894'
p2907
ag5
(g6
g7
NtRp2908
((dp2909
S'P08799'
p2910
I01
stbaa(lp2911
S'19955408'
p2912
ag5
(g6
g7
NtRp2913
((dp2914
S'P08799'
p2915
I01
stbaa(lp2916
S'15855234'
p2917
ag5
(g6
g7
NtRp2918
((dp2919
S'P08799'
p2920
I01
stbaa(lp2921
S'1535025'
p2922
ag5
(g6
g7
NtRp2923
((dp2924
S'P09402'
p2925
I01
stbaa(lp2926
S'7593282'
p2927
ag5
(g6
g7
NtRp2928
((dp2929
S'P09402'
p2930
I01
stbaa(lp2931
S'2835631'
p2932
ag5
(g6
g7
NtRp2933
((dp2934
S'P09556'
p2935
I01
stbaa(lp2936
S'18515835'
p2937
ag5
(g6
g7
NtRp2938
((dp2939
S'Q54D00'
p2940
I01
sS'Q54DD4'
p2941
I01
sS'Q54XB0'
p2942
I01
sS'Q54NI7'
p2943
I01
sS'Q54SI1'
p2944
I01
sS'Q54B97'
p2945
I01
sS'Q54VV8'
p2946
I01
sS'Q54HN4'
p2947
I01
sS'Q55BA4'
p2948
I01
sS'Q54S20'
p2949
I01
sS'Q55BX7'
p2950
I01
sS'Q54KY8'
p2951
I01
sS'Q55BN0'
p2952
I01
sS'Q55DQ5'
p2953
I01
sS'Q54FL3'
p2954
I01
sS'Q54WH4'
p2955
I01
sS'Q552X2'
p2956
I01
sS'Q54PD9'
p2957
I01
sS'Q54B46'
p2958
I01
sS'Q54GV0'
p2959
I01
sS'Q54X75'
p2960
I01
sS'P0CB66'
p2961
I01
sS'Q54MR3'
p2962
I01
sS'Q54U49'
p2963
I01
sS'Q54GE5'
p2964
I01
stbaa(lp2965
S'15194808'
p2966
ag5
(g6
g7
NtRp2967
((dp2968
S'Q9U1M8'
p2969
I01
sS'P0CE94'
p2970
I01
sS'Q55FP0'
p2971
I01
sS'Q54QQ1'
p2972
I01
stbaa(lp2973
S'9230077'
p2974
ag5
(g6
g7
NtRp2975
((dp2976
S'P0CE94'
p2977
I01
stbaa(lp2978
S'18375618'
p2979
ag5
(g6
g7
NtRp2980
((dp2981
S'P0CE94'
p2982
I01
sS'Q54K81'
p2983
I01
stbaa(lp2984
S'8636212'
p2985
ag5
(g6
g7
NtRp2986
((dp2987
S'P0DJ26'
p2988
I01
stbaa(lp2989
S'10421841'
p2990
ag5
(g6
g7
NtRp2991
((dp2992
S'P0DJ26'
p2993
I01
stbaa(lp2994
S'9118250'
p2995
ag5
(g6
g7
NtRp2996
((dp2997
S'P0DJ26'
p2998
I01
stbaa(lp2999
S'10744862'
p3000
ag5
(g6
g7
NtRp3001
((dp3002
S'P0DJ26'
p3003
I01
stbaa(lp3004
S'15075287'
p3005
ag5
(g6
g7
NtRp3006
((dp3007
S'Q02465'
p3008
I01
sS'P0DJ27'
p3009
I01
sS'Q55DH8'
p3010
I01
sS'Q02158'
p3011
I01
stbaa(lp3012
S'17660362'
p3013
ag5
(g6
g7
NtRp3014
((dp3015
S'P0DJ29'
p3016
I01
stbaa(lp3017
S'6897549'
p3018
ag5
(g6
g7
NtRp3019
((dp3020
S'P10733'
p3021
I01
stbaa(lp3022
S'17172447'
p3023
ag5
(g6
g7
NtRp3024
((dp3025
S'P10819'
p3026
I01
stbaa(lp3027
S'1310316'
p3028
ag5
(g6
g7
NtRp3029
((dp3030
S'P10901'
p3031
I01
stbaa(lp3032
S'8016318'
p3033
ag5
(g6
g7
NtRp3034
((dp3035
S'Q54YG2'
p3036
I01
sS'P11976'
p3037
I01
stbaa(lp3038
S'17040207'
p3039
ag5
(g6
g7
NtRp3040
((dp3041
S'Q54HY0'
p3042
I01
sS'P12019'
p3043
I01
stbaa(lp3044
S'2049870'
p3045
ag5
(g6
g7
NtRp3046
((dp3047
S'P12019'
p3048
I01
stbaa(lp3049
S'3243026'
p3050
ag5
(g6
g7
NtRp3051
((dp3052
S'P12729'
p3053
I01
stbaa(lp3054
S'2914932'
p3055
ag5
(g6
g7
NtRp3056
((dp3057
S'P13231'
p3058
I01
stbaa(lp3059
S'17121815'
p3060
ag5
(g6
g7
NtRp3061
((dp3062
S'P13466'
p3063
I01
stbaa(lp3064
S'9480045'
p3065
ag5
(g6
g7
NtRp3066
((dp3067
S'P13466'
p3068
I01
stbaa(lp3069
S'15574880'
p3070
ag5
(g6
g7
NtRp3071
((dp3072
S'P13773'
p3073
I01
stbaa(lp3074
S'15507682'
p3075
ag5
(g6
g7
NtRp3076
((dp3077
S'Q03100'
p3078
I01
sS'P13773'
p3079
I01
stbaa(lp3080
S'9578623'
p3081
ag5
(g6
g7
NtRp3082
((dp3083
S'P13773'
p3084
I01
sS'P35352'
p3085
I01
stbaa(lp3086
S'11264536'
p3087
ag5
(g6
g7
NtRp3088
((dp3089
S'P13773'
p3090
I01
stbaa(lp3091
S'17630977'
p3092
ag5
(g6
g7
NtRp3093
((dp3094
S'P13773'
p3095
I01
stbaa(lp3096
S'1849108'
p3097
ag5
(g6
g7
NtRp3098
((dp3099
S'P13773'
p3100
I01
stbaa(lp3101
S'21103944'
p3102
ag5
(g6
g7
NtRp3103
((dp3104
S'P13773'
p3105
I01
sS'P35352'
p3106
I01
sS'P16051'
p3107
I01
stbaa(lp3108
S'15143344'
p3109
ag5
(g6
g7
NtRp3110
((dp3111
S'P32253'
p3112
I01
sS'P15064'
p3113
I01
sS'P13773'
p3114
I01
sS'P35352'
p3115
I01
sS'P16051'
p3116
I01
sS'P36408'
p3117
I01
stbaa(lp3118
S'17905919'
p3119
ag5
(g6
g7
NtRp3120
((dp3121
S'P13773'
p3122
I01
stbaa(lp3123
S'7806571'
p3124
ag5
(g6
g7
NtRp3125
((dp3126
S'P13833'
p3127
I01
stbaa(lp3128
S'16822579'
p3129
ag5
(g6
g7
NtRp3130
((dp3131
S'P15064'
p3132
I01
sS'Q6UK63'
p3133
I01
sS'P32254'
p3134
I01
stbaa(lp3135
S'15352238'
p3136
ag5
(g6
g7
NtRp3137
((dp3138
S'P15064'
p3139
I01
stbaa(lp3140
S'16622066'
p3141
ag5
(g6
g7
NtRp3142
((dp3143
S'P54657'
p3144
I01
sS'P15064'
p3145
I01
stbaa(lp3146
S'18180289'
p3147
ag5
(g6
g7
NtRp3148
((dp3149
S'P32253'
p3150
I01
sS'P15064'
p3151
I01
stbaa(lp3152
S'23132928'
p3153
ag5
(g6
g7
NtRp3154
((dp3155
S'P32253'
p3156
I01
sS'P15064'
p3157
I01
sS'Q02158'
p3158
I01
stbaa(lp3159
S'16885420'
p3160
ag5
(g6
g7
NtRp3161
((dp3162
S'P32253'
p3163
I01
sS'P15064'
p3164
I01
stbaa(lp3165
S'15261655'
p3166
ag5
(g6
g7
NtRp3167
((dp3168
S'Q7YTA6'
p3169
I01
sS'P15270'
p3170
I01
stbaa(lp3171
S'2161991'
p3172
ag5
(g6
g7
NtRp3173
((dp3174
S'P15648'
p3175
I01
sS'P15649'
p3176
I01
stbaa(lp3177
S'18204858'
p3178
ag5
(g6
g7
NtRp3179
((dp3180
S'Q54BX4'
p3181
I01
sS'Q54BX5'
p3182
I01
sS'P15649'
p3183
I01
stbaa(lp3184
S'2813371'
p3185
ag5
(g6
g7
NtRp3186
((dp3187
S'P15808'
p3188
I01
stbaa(lp3189
S'15715993'
p3190
ag5
(g6
g7
NtRp3191
((dp3192
S'P16051'
p3193
I01
stbaa(lp3194
S'15563608'
p3195
ag5
(g6
g7
NtRp3196
((dp3197
S'P36408'
p3198
I01
sS'P35401'
p3199
I01
sS'Q95ZG8'
p3200
I01
sS'P16051'
p3201
I01
stbaa(lp3202
S'17878305'
p3203
ag5
(g6
g7
NtRp3204
((dp3205
S'Q558X5'
p3206
I01
sS'Q5FXM5'
p3207
I01
sS'Q86CR8'
p3208
I01
sS'P16643'
p3209
I01
sS'P16642'
p3210
I01
sS'P54661'
p3211
I01
stbaa(lp3212
S'7821221'
p3213
ag5
(g6
g7
NtRp3214
((dp3215
S'P16894'
p3216
I01
stbaa(lp3217
S'8280098'
p3218
ag5
(g6
g7
NtRp3219
((dp3220
S'P16894'
p3221
I01
stbaa(lp3222
S'9015266'
p3223
ag5
(g6
g7
NtRp3224
((dp3225
S'P16894'
p3226
I01
stbaa(lp3227
S'17481898'
p3228
ag5
(g6
g7
NtRp3229
((dp3230
S'Q86D86'
p3231
I01
sS'P16894'
p3232
I01
stbaa(lp3233
S'8898241'
p3234
ag5
(g6
g7
NtRp3235
((dp3236
S'P18160'
p3237
I01
stbaa(lp3238
S'1972546'
p3239
ag5
(g6
g7
NtRp3240
((dp3241
S'P18160'
p3242
I01
stbaa(lp3243
S'22699506'
p3244
ag5
(g6
g7
NtRp3245
((dp3246
S'P18161'
p3247
I01
stbaa(lp3248
S'17371831'
p3249
ag5
(g6
g7
NtRp3250
((dp3251
S'P18613'
p3252
I01
sS'Q54QQ1'
p3253
I01
stbaa(lp3254
S'12186953'
p3255
ag5
(g6
g7
NtRp3256
((dp3257
S'P18613'
p3258
I01
stbaa(lp3259
S'18039932'
p3260
ag5
(g6
g7
NtRp3261
((dp3262
S'P18613'
p3263
I01
sS'Q550R2'
p3264
I01
sS'Q75J96'
p3265
I01
sS'Q54HG2'
p3266
I01
stbaa(lp3267
S'2568162'
p3268
ag5
(g6
g7
NtRp3269
((dp3270
S'P20054'
p3271
I01
stbaa(lp3272
S'2156849'
p3273
ag5
(g6
g7
NtRp3274
((dp3275
S'P20425'
p3276
I01
stbaa(lp3277
S'8703943'
p3278
ag5
(g6
g7
NtRp3279
((dp3280
S'P20425'
p3281
I01
stbaa(lp3282
S'15289548'
p3283
ag5
(g6
g7
NtRp3284
((dp3285
S'P20790'
p3286
I01
sS'P20791'
p3287
I01
stbaa(lp3288
S'18636095'
p3289
ag5
(g6
g7
NtRp3290
((dp3291
S'P36412'
p3292
I01
sS'Q54UM5'
p3293
I01
sS'P20790'
p3294
I01
sS'Q55AV3'
p3295
I01
sS'Q55DM1'
p3296
I01
stbaa(lp3297
S'1989999'
p3298
ag5
(g6
g7
NtRp3299
((dp3300
S'P21900'
p3301
I01
stbaa(lp3302
S'2161830'
p3303
ag5
(g6
g7
NtRp3304
((dp3305
S'P22887'
p3306
I01
stbaa(lp3307
S'7733916'
p3308
ag5
(g6
g7
NtRp3309
((dp3310
S'P22887'
p3311
I01
stbaa(lp3312
S'8389692'
p3313
ag5
(g6
g7
NtRp3314
((dp3315
S'P22887'
p3316
I01
stbaa(lp3317
S'21991393'
p3318
ag5
(g6
g7
NtRp3319
((dp3320
S'P22887'
p3321
I01
stbaa(lp3322
S'8816286'
p3323
ag5
(g6
g7
NtRp3324
((dp3325
S'P22887'
p3326
I01
stbaa(lp3327
S'6707016'
p3328
ag5
(g6
g7
NtRp3329
((dp3330
S'P24005'
p3331
I01
stbaa(lp3332
S'16762449'
p3333
ag5
(g6
g7
NtRp3334
((dp3335
S'P24639'
p3336
I01
stbaa(lp3337
S'7657724'
p3338
ag5
(g6
g7
NtRp3339
((dp3340
S'P24639'
p3341
I01
stbaa(lp3342
S'8901579'
p3343
ag5
(g6
g7
NtRp3344
((dp3345
S'P25323'
p3346
I01
stbaa(lp3347
S'3029131'
p3348
ag5
(g6
g7
NtRp3349
((dp3350
S'P25323'
p3351
I01
stbaa(lp3352
S'9789030'
p3353
ag5
(g6
g7
NtRp3354
((dp3355
S'P25323'
p3356
I01
stbaa(lp3357
S'8947030'
p3358
ag5
(g6
g7
NtRp3359
((dp3360
S'P25323'
p3361
I01
stbaa(lp3362
S'16546177'
p3363
ag5
(g6
g7
NtRp3364
((dp3365
S'P25323'
p3366
I01
sS'Q8MVR1'
p3367
I01
stbaa(lp3368
S'11223952'
p3369
ag5
(g6
g7
NtRp3370
((dp3371
S'P25870'
p3372
I01
sS'Q8MN58'
p3373
I01
stbaa(lp3374
S'9238018'
p3375
ag5
(g6
g7
NtRp3376
((dp3377
S'P25870'
p3378
I01
stbaa(lp3379
S'1522112'
p3380
ag5
(g6
g7
NtRp3381
((dp3382
S'P25870'
p3383
I01
stbaa(lp3384
S'14617352'
p3385
ag5
(g6
g7
NtRp3386
((dp3387
S'P25870'
p3388
I01
sS'Q8MN58'
p3389
I01
stbaa(lp3390
S'8034739'
p3391
ag5
(g6
g7
NtRp3392
((dp3393
S'P25870'
p3394
I01
stbaa(lp3395
S'9053320'
p3396
ag5
(g6
g7
NtRp3397
((dp3398
S'P25870'
p3399
I01
stbaa(lp3400
S'22992464'
p3401
ag5
(g6
g7
NtRp3402
((dp3403
S'P25870'
p3404
I01
stbaa(lp3405
S'7954798'
p3406
ag5
(g6
g7
NtRp3407
((dp3408
S'P26199'
p3409
I01
sS'P26200'
p3410
I01
stbaa(lp3411
S'17467078'
p3412
ag5
(g6
g7
NtRp3413
((dp3414
S'P26199'
p3415
I01
sS'Q8T8M2'
p3416
I01
sS'P26200'
p3417
I01
stbaa(lp3418
S'15769249'
p3419
ag5
(g6
g7
NtRp3420
((dp3421
S'P26355'
p3422
I01
stbaa(lp3423
S'8380174'
p3424
ag5
(g6
g7
NtRp3425
((dp3426
S'P27133'
p3427
I01
stbaa(lp3428
S'10873800'
p3429
ag5
(g6
g7
NtRp3430
((dp3431
S'P54644'
p3432
I01
sS'P28178'
p3433
I01
stbaa(lp3434
S'1885577'
p3435
ag5
(g6
g7
NtRp3436
((dp3437
S'P32073'
p3438
I01
stbaa(lp3439
S'11606416'
p3440
ag5
(g6
g7
NtRp3441
((dp3442
S'P32252'
p3443
I01
stbaa(lp3444
S'15878331'
p3445
ag5
(g6
g7
NtRp3446
((dp3447
S'P32253'
p3448
I01
stbaa(lp3449
S'11500376'
p3450
ag5
(g6
g7
NtRp3451
((dp3452
S'P32253'
p3453
I01
sS'Q8IS21'
p3454
I01
sS'Q54PQ4'
p3455
I01
stbaa(lp3456
S'16023096'
p3457
ag5
(g6
g7
NtRp3458
((dp3459
S'P32253'
p3460
I01
sS'P54677'
p3461
I01
stbaa(lp3462
S'10652263'
p3463
ag5
(g6
g7
NtRp3464
((dp3465
S'P32254'
p3466
I01
stbaa(lp3467
S'12211111'
p3468
ag5
(g6
g7
NtRp3469
((dp3470
S'Q8IS21'
p3471
I01
sS'P32254'
p3472
I01
stbaa(lp3473
S'12854977'
p3474
ag5
(g6
g7
NtRp3475
((dp3476
S'Q8IS21'
p3477
I01
sS'P32254'
p3478
I01
stbaa(lp3479
S'15527790'
p3480
ag5
(g6
g7
NtRp3481
((dp3482
S'P32255'
p3483
I01
stbaa(lp3484
S'17548361'
p3485
ag5
(g6
g7
NtRp3486
((dp3487
S'P34036'
p3488
I01
stbaa(lp3489
S'8816999'
p3490
ag5
(g6
g7
NtRp3491
((dp3492
S'P34036'
p3493
I01
stbaa(lp3494
S'18430243'
p3495
ag5
(g6
g7
NtRp3496
((dp3497
S'Q6S002'
p3498
I01
sS'Q6S003'
p3499
I01
sS'P34036'
p3500
I01
sS'Q54NP8'
p3501
I01
stbaa(lp3502
S'1730409'
p3503
ag5
(g6
g7
NtRp3504
((dp3505
S'P34042'
p3506
I01
stbaa(lp3507
S'18028904'
p3508
ag5
(g6
g7
NtRp3509
((dp3510
S'P34042'
p3511
I01
stbaa(lp3512
S'8620848'
p3513
ag5
(g6
g7
NtRp3514
((dp3515
S'P34043'
p3516
I01
stbaa(lp3517
S'19176583'
p3518
ag5
(g6
g7
NtRp3519
((dp3520
S'P34045'
p3521
I01
stbaa(lp3522
S'8609164'
p3523
ag5
(g6
g7
NtRp3524
((dp3525
S'P34092'
p3526
I01
sS'P42522'
p3527
I01
stbaa(lp3528
S'18089562'
p3529
ag5
(g6
g7
NtRp3530
((dp3531
S'P34092'
p3532
I01
stbaa(lp3533
S'22008230'
p3534
ag5
(g6
g7
NtRp3535
((dp3536
S'P34092'
p3537
I01
sS'Q94464'
p3538
I01
sS'Q557J6'
p3539
I01
stbaa(lp3540
S'2163458'
p3541
ag5
(g6
g7
NtRp3542
((dp3543
S'P34093'
p3544
I01
stbaa(lp3545
S'23473502'
p3546
ag5
(g6
g7
NtRp3547
((dp3548
S'Q03100'
p3549
I01
sS'P34099'
p3550
I01
sS'Q54PQ4'
p3551
I01
stbaa(lp3552
S'14680693'
p3553
ag5
(g6
g7
NtRp3554
((dp3555
S'P34099'
p3556
I01
stbaa(lp3557
S'10102987'
p3558
ag5
(g6
g7
NtRp3559
((dp3560
S'P34117'
p3561
I01
sS'P34112'
p3562
I01
stbaa(lp3563
S'12074548'
p3564
ag5
(g6
g7
NtRp3565
((dp3566
S'P34117'
p3567
I01
sS'P34112'
p3568
I01
stbaa(lp3569
S'3110159'
p3570
ag5
(g6
g7
NtRp3571
((dp3572
S'P34114'
p3573
I01
sS'Q00766'
p3574
I01
stbaa(lp3575
S'8130037'
p3576
ag5
(g6
g7
NtRp3577
((dp3578
S'Q55G04'
p3579
I01
sS'Q55GJ6'
p3580
I01
sS'P34119'
p3581
I01
sS'Q54BC8'
p3582
I01
sS'Q54XM7'
p3583
I01
sS'Q86A21'
p3584
I01
sS'Q55DY7'
p3585
I01
sS'Q27563'
p3586
I01
sS'Q27562'
p3587
I01
sS'P34120'
p3588
I01
sS'Q55D66'
p3589
I01
sS'Q54DM7'
p3590
I01
sS'Q556Q0'
p3591
I01
sS'Q54QR2'
p3592
I01
stbaa(lp3593
S'7589554'
p3594
ag5
(g6
g7
NtRp3595
((dp3596
S'P34121'
p3597
I01
stbaa(lp3598
S'16854454'
p3599
ag5
(g6
g7
NtRp3600
((dp3601
S'P34125'
p3602
I01
stbaa(lp3603
S'8557714'
p3604
ag5
(g6
g7
NtRp3605
((dp3606
S'P34125'
p3607
I01
stbaa(lp3608
S'2549052'
p3609
ag5
(g6
g7
NtRp3610
((dp3611
S'P34125'
p3612
I01
stbaa(lp3613
S'9334183'
p3614
ag5
(g6
g7
NtRp3615
((dp3616
S'P34127'
p3617
I01
stbaa(lp3618
S'8226777'
p3619
ag5
(g6
g7
NtRp3620
((dp3621
S'P34138'
p3622
I01
stbaa(lp3623
S'15962002'
p3624
ag5
(g6
g7
NtRp3625
((dp3626
S'Q86I44'
p3627
I01
sS'P34142'
p3628
I01
sS'Q55GV9'
p3629
I01
stbaa(lp3630
S'22302991'
p3631
ag5
(g6
g7
NtRp3632
((dp3633
S'P34144'
p3634
I01
stbaa(lp3635
S'16968699'
p3636
ag5
(g6
g7
NtRp3637
((dp3638
S'P34144'
p3639
I01
sS'P34145'
p3640
I01
sS'P34149'
p3641
I01
stbaa(lp3642
S'16415044'
p3643
ag5
(g6
g7
NtRp3644
((dp3645
S'P34145'
p3646
I01
stbaa(lp3647
S'15817229'
p3648
ag5
(g6
g7
NtRp3649
((dp3650
S'P34145'
p3651
I01
sS'Q869W9'
p3652
I01
sS'Q54GM7'
p3653
I01
sS'Q54BC0'
p3654
I01
sS'Q55CA9'
p3655
I01
sS'Q5FBC4'
p3656
I01
sS'Q54WK1'
p3657
I01
sS'Q5FBC3'
p3658
I01
sS'Q54ME1'
p3659
I01
sS'Q54GD5'
p3660
I01
sS'Q54EU5'
p3661
I01
sS'Q54X71'
p3662
I01
sS'Q557G4'
p3663
I01
sS'Q9GPS3'
p3664
I01
sS'Q54C82'
p3665
I01
sS'Q86HI2'
p3666
I01
sS'Q54TI1'
p3667
I01
sS'Q55BT7'
p3668
I01
sS'Q54P69'
p3669
I01
sS'Q55CG7'
p3670
I01
sS'Q55BT6'
p3671
I01
sS'Q54W35'
p3672
I01
sS'P54680'
p3673
I01
sS'Q54RK5'
p3674
I01
sS'Q54EN4'
p3675
I01
stbaa(lp3676
S'15470506'
p3677
ag5
(g6
g7
NtRp3678
((dp3679
S'Q54YZ6'
p3680
I01
sS'P34148'
p3681
I01
stbaa(lp3682
S'15668169'
p3683
ag5
(g6
g7
NtRp3684
((dp3685
S'P35401'
p3686
I01
stbaa(lp3687
S'9778249'
p3688
ag5
(g6
g7
NtRp3689
((dp3690
S'P35401'
p3691
I01
stbaa(lp3692
S'17606871'
p3693
ag5
(g6
g7
NtRp3694
((dp3695
S'Q8T9S7'
p3696
I01
sS'P35401'
p3697
I01
stbaa(lp3698
S'8089184'
p3699
ag5
(g6
g7
NtRp3700
((dp3701
S'P35401'
p3702
I01
stbaa(lp3703
S'15366706'
p3704
ag5
(g6
g7
NtRp3705
((dp3706
S'P54644'
p3707
I01
sS'Q8T9S7'
p3708
I01
sS'P54673'
p3709
I01
sS'P35401'
p3710
I01
stbaa(lp3711
S'7790362'
p3712
ag5
(g6
g7
NtRp3713
((dp3714
S'P36408'
p3715
I01
stbaa(lp3716
S'8099335'
p3717
ag5
(g6
g7
NtRp3718
((dp3719
S'P36408'
p3720
I01
stbaa(lp3721
S'17635933'
p3722
ag5
(g6
g7
NtRp3723
((dp3724
S'P36408'
p3725
I01
stbaa(lp3726
S'9422733'
p3727
ag5
(g6
g7
NtRp3728
((dp3729
S'P36411'
p3730
I01
stbaa(lp3731
S'11686306'
p3732
ag5
(g6
g7
NtRp3733
((dp3734
S'P36412'
p3735
I01
stbaa(lp3736
S'8125261'
p3737
ag5
(g6
g7
NtRp3738
((dp3739
S'P36417'
p3740
I01
stbaa(lp3741
S'9698452'
p3742
ag5
(g6
g7
NtRp3743
((dp3744
S'P36417'
p3745
I01
stbaa(lp3746
S'19133302'
p3747
ag5
(g6
g7
NtRp3748
((dp3749
S'Q54K81'
p3750
I01
sS'P36417'
p3751
I01
stbaa(lp3752
S'8448193'
p3753
ag5
(g6
g7
NtRp3754
((dp3755
S'P36967'
p3756
I01
stbaa(lp3757
S'8950185'
p3758
ag5
(g6
g7
NtRp3759
((dp3760
S'P42521'
p3761
I01
stbaa(lp3762
S'14651934'
p3763
ag5
(g6
g7
NtRp3764
((dp3765
S'P42523'
p3766
I01
sS'Q9U8Q1'
p3767
I01
stbaa(lp3768
S'7926779'
p3769
ag5
(g6
g7
NtRp3770
((dp3771
S'P42523'
p3772
I01
stbaa(lp3773
S'12062087'
p3774
ag5
(g6
g7
NtRp3775
((dp3776
S'Q55CL6'
p3777
I01
sS'Q557I6'
p3778
I01
sS'P42525'
p3779
I01
sS'Q8N0B4'
p3780
I01
stbaa(lp3781
S'15987738'
p3782
ag5
(g6
g7
NtRp3783
((dp3784
S'Q54SF9'
p3785
I01
sS'Q54DK4'
p3786
I01
sS'P42527'
p3787
I01
sS'P90648'
p3788
I01
sS'Q8MY12'
p3789
I01
stbaa(lp3790
S'20197546'
p3791
ag5
(g6
g7
NtRp3792
((dp3793
S'P42527'
p3794
I01
stbaa(lp3795
S'3027076'
p3796
ag5
(g6
g7
NtRp3797
((dp3798
S'P42527'
p3799
I01
stbaa(lp3800
S'11278493'
p3801
ag5
(g6
g7
NtRp3802
((dp3803
S'P42527'
p3804
I01
sS'P90648'
p3805
I01
sS'Q8MY12'
p3806
I01
stbaa(lp3807
S'18381083'
p3808
ag5
(g6
g7
NtRp3809
((dp3810
S'P42527'
p3811
I01
sS'P90648'
p3812
I01
sS'Q6B9X6'
p3813
I01
stbaa(lp3814
S'8567716'
p3815
ag5
(g6
g7
NtRp3816
((dp3817
S'P42527'
p3818
I01
stbaa(lp3819
S'2176841'
p3820
ag5
(g6
g7
NtRp3821
((dp3822
S'P42527'
p3823
I01
stbaa(lp3824
S'16372899'
p3825
ag5
(g6
g7
NtRp3826
((dp3827
S'P42527'
p3828
I01
stbaa(lp3829
S'9201999'
p3830
ag5
(g6
g7
NtRp3831
((dp3832
S'P42527'
p3833
I01
stbaa(lp3834
S'16950926'
p3835
ag5
(g6
g7
NtRp3836
((dp3837
S'Q9GPS0'
p3838
I01
sS'P42528'
p3839
I01
stbaa(lp3840
S'10896781'
p3841
ag5
(g6
g7
NtRp3842
((dp3843
S'P42529'
p3844
I01
stbaa(lp3845
S'9836437'
p3846
ag5
(g6
g7
NtRp3847
((dp3848
S'Q54UG4'
p3849
I01
sS'P48160'
p3850
I01
stbaa(lp3851
S'23787121'
p3852
ag5
(g6
g7
NtRp3853
((dp3854
S'P51136'
p3855
I01
stbaa(lp3856
S'11032815'
p3857
ag5
(g6
g7
NtRp3858
((dp3859
S'P51136'
p3860
I01
stbaa(lp3861
S'9784196'
p3862
ag5
(g6
g7
NtRp3863
((dp3864
S'P51136'
p3865
I01
stbaa(lp3866
S'7813009'
p3867
ag5
(g6
g7
NtRp3868
((dp3869
S'P51136'
p3870
I01
stbaa(lp3871
S'15342480'
p3872
ag5
(g6
g7
NtRp3873
((dp3874
S'P51136'
p3875
I01
stbaa(lp3876
S'10571182'
p3877
ag5
(g6
g7
NtRp3878
((dp3879
S'Q75JK0'
p3880
I01
sS'P51136'
p3881
I01
stbaa(lp3882
S'22944283'
p3883
ag5
(g6
g7
NtRp3884
((dp3885
S'Q54BD4'
p3886
I01
sS'P51136'
p3887
I01
sS'Q54ET8'
p3888
I01
stbaa(lp3889
S'21205787'
p3890
ag5
(g6
g7
NtRp3891
((dp3892
S'Q552C6'
p3893
I01
sS'Q75JK0'
p3894
I01
sS'P51136'
p3895
I01
stbaa(lp3896
S'2580557'
p3897
ag5
(g6
g7
NtRp3898
((dp3899
S'P51173'
p3900
I01
stbaa(lp3901
S'9660787'
p3902
ag5
(g6
g7
NtRp3903
((dp3904
S'Q557E4'
p3905
I01
sS'P52285'
p3906
I01
stbaa(lp3907
S'12678488'
p3908
ag5
(g6
g7
NtRp3909
((dp3910
S'Q557E4'
p3911
I01
sS'P52285'
p3912
I01
stbaa(lp3913
S'20951045'
p3914
ag5
(g6
g7
NtRp3915
((dp3916
S'Q23862'
p3917
I01
sS'P54632'
p3918
I01
stbaa(lp3919
S'18305004'
p3920
ag5
(g6
g7
NtRp3921
((dp3922
S'P54637'
p3923
I01
stbaa(lp3924
S'8838672'
p3925
ag5
(g6
g7
NtRp3926
((dp3927
S'P54642'
p3928
I01
stbaa(lp3929
S'18718841'
p3930
ag5
(g6
g7
NtRp3931
((dp3932
S'P54651'
p3933
I01
stbaa(lp3934
S'17057715'
p3935
ag5
(g6
g7
NtRp3936
((dp3937
S'P54657'
p3938
I01
stbaa(lp3939
S'18522444'
p3940
ag5
(g6
g7
NtRp3941
((dp3942
S'P54660'
p3943
I01
stbaa(lp3944
S'8089176'
p3945
ag5
(g6
g7
NtRp3946
((dp3947
S'P54660'
p3948
I01
stbaa(lp3949
S'8432731'
p3950
ag5
(g6
g7
NtRp3951
((dp3952
S'P54660'
p3953
I01
stbaa(lp3954
S'8787732'
p3955
ag5
(g6
g7
NtRp3956
((dp3957
S'P54661'
p3958
I01
stbaa(lp3959
S'16606621'
p3960
ag5
(g6
g7
NtRp3961
((dp3962
S'Q86IV5'
p3963
I01
sS'P54661'
p3964
I01
stbaa(lp3965
S'15643062'
p3966
ag5
(g6
g7
NtRp3967
((dp3968
S'Q86IV5'
p3969
I01
sS'P54661'
p3970
I01
sS'Q54K22'
p3971
I01
stbaa(lp3972
S'17462897'
p3973
ag5
(g6
g7
NtRp3974
((dp3975
S'Q54S78'
p3976
I01
sS'Q55FX5'
p3977
I01
sS'Q8T9S7'
p3978
I01
sS'P54673'
p3979
I01
sS'P54674'
p3980
I01
sS'P54675'
p3981
I01
stbaa(lp3982
S'16267269'
p3983
ag5
(g6
g7
NtRp3984
((dp3985
S'Q8T9S7'
p3986
I01
sS'P54673'
p3987
I01
sS'P54674'
p3988
I01
stbaa(lp3989
S'21045112'
p3990
ag5
(g6
g7
NtRp3991
((dp3992
S'Q54S78'
p3993
I01
sS'Q54F55'
p3994
I01
sS'Q55FX5'
p3995
I01
sS'P54673'
p3996
I01
sS'P54674'
p3997
I01
sS'P54675'
p3998
I01
stbaa(lp3999
S'19011688'
p4000
ag5
(g6
g7
NtRp4001
((dp4002
S'Q8T9S7'
p4003
I01
sS'P54673'
p4004
I01
sS'P54674'
p4005
I01
stbaa(lp4006
S'17535967'
p4007
ag5
(g6
g7
NtRp4008
((dp4009
S'Q02158'
p4010
I01
sS'P54673'
p4011
I01
sS'P54674'
p4012
I01
stbaa(lp4013
S'17517960'
p4014
ag5
(g6
g7
NtRp4015
((dp4016
S'Q02158'
p4017
I01
sS'Q8T9S7'
p4018
I01
sS'P54673'
p4019
I01
sS'P54674'
p4020
I01
stbaa(lp4021
S'16421252'
p4022
ag5
(g6
g7
NtRp4023
((dp4024
S'P54673'
p4025
I01
sS'P54674'
p4026
I01
stbaa(lp4027
S'10878573'
p4028
ag5
(g6
g7
NtRp4029
((dp4030
S'P54675'
p4031
I01
stbaa(lp4032
S'7499325'
p4033
ag5
(g6
g7
NtRp4034
((dp4035
S'P54678'
p4036
I01
stbaa(lp4037
S'9885293'
p4038
ag5
(g6
g7
NtRp4039
((dp4040
S'P54678'
p4041
I01
stbaa(lp4042
S'9421912'
p4043
ag5
(g6
g7
NtRp4044
((dp4045
S'P54679'
p4046
I01
stbaa(lp4047
S'9017597'
p4048
ag5
(g6
g7
NtRp4049
((dp4050
S'P54680'
p4051
I01
stbaa(lp4052
S'11330860'
p4053
ag5
(g6
g7
NtRp4054
((dp4055
S'P54681'
p4056
I01
stbaa(lp4057
S'10747962'
p4058
ag5
(g6
g7
NtRp4059
((dp4060
S'P54681'
p4061
I01
stbaa(lp4062
S'15679845'
p4063
ag5
(g6
g7
NtRp4064
((dp4065
S'P54681'
p4066
I01
stbaa(lp4067
S'8643519'
p4068
ag5
(g6
g7
NtRp4069
((dp4070
S'P54681'
p4071
I01
sS'Q54SM3'
p4072
I01
stbaa(lp4073
S'11719559'
p4074
ag5
(g6
g7
NtRp4075
((dp4076
S'P54681'
p4077
I01
sS'Q8ST66'
p4078
I01
sS'Q9NGP5'
p4079
I01
stbaa(lp4080
S'8951083'
p4081
ag5
(g6
g7
NtRp4082
((dp4083
S'P54681'
p4084
I01
stbaa(lp4085
S'7744252'
p4086
ag5
(g6
g7
NtRp4087
((dp4088
S'P54683'
p4089
I01
sS'Q23868'
p4090
I01
stbaa(lp4091
S'10427097'
p4092
ag5
(g6
g7
NtRp4093
((dp4094
S'P54686'
p4095
I01
stbaa(lp4096
S'20668166'
p4097
ag5
(g6
g7
NtRp4098
((dp4099
S'Q552S0'
p4100
I01
sS'P54686'
p4101
I01
stbaa(lp4102
S'18650439'
p4103
ag5
(g6
g7
NtRp4104
((dp4105
S'P54697'
p4106
I01
stbaa(lp4107
S'9177484'
p4108
ag5
(g6
g7
NtRp4109
((dp4110
S'P90520'
p4111
I01
stbaa(lp4112
S'7813455'
p4113
ag5
(g6
g7
NtRp4114
((dp4115
S'P90521'
p4116
I01
stbaa(lp4117
S'7589492'
p4118
ag5
(g6
g7
NtRp4119
((dp4120
S'P90521'
p4121
I01
stbaa(lp4122
S'10026266'
p4123
ag5
(g6
g7
NtRp4124
((dp4125
S'P90521'
p4126
I01
stbaa(lp4127
S'12532328'
p4128
ag5
(g6
g7
NtRp4129
((dp4130
S'P90648'
p4131
I01
stbaa(lp4132
S'11106661'
p4133
ag5
(g6
g7
NtRp4134
((dp4135
S'P90648'
p4136
I01
stbaa(lp4137
S'1328220'
p4138
ag5
(g6
g7
NtRp4139
((dp4140
S'Q01501'
p4141
I01
stbaa(lp4142
S'8156999'
p4143
ag5
(g6
g7
NtRp4144
((dp4145
S'Q02158'
p4146
I01
stbaa(lp4147
S'1448100'
p4148
ag5
(g6
g7
NtRp4149
((dp4150
S'Q02720'
p4151
I01
stbaa(lp4152
S'10556070'
p4153
ag5
(g6
g7
NtRp4154
((dp4155
S'Q03100'
p4156
I01
sS'Q55F68'
p4157
I01
stbaa(lp4158
S'15821137'
p4159
ag5
(g6
g7
NtRp4160
((dp4161
S'Q03100'
p4162
I01
stbaa(lp4163
S'20670432'
p4164
ag5
(g6
g7
NtRp4165
((dp4166
S'Q54QV3'
p4167
I01
sS'Q03100'
p4168
I01
sS'Q86AD8'
p4169
I01
stbaa(lp4170
S'9582274'
p4171
ag5
(g6
g7
NtRp4172
((dp4173
S'Q54RR8'
p4174
I01
sS'Q03100'
p4175
I01
stbaa(lp4176
S'22928977'
p4177
ag5
(g6
g7
NtRp4178
((dp4179
S'Q03100'
p4180
I01
sS'Q86H13'
p4181
I01
stbaa(lp4182
S'14718564'
p4183
ag5
(g6
g7
NtRp4184
((dp4185
S'Q03101'
p4186
I01
sS'Q23917'
p4187
I01
stbaa(lp4188
S'18640994'
p4189
ag5
(g6
g7
NtRp4190
((dp4191
S'Q03101'
p4192
I01
stbaa(lp4193
S'17267449'
p4194
ag5
(g6
g7
NtRp4195
((dp4196
S'Q03101'
p4197
I01
stbaa(lp4198
S'8224535'
p4199
ag5
(g6
g7
NtRp4200
((dp4201
S'Q03101'
p4202
I01
stbaa(lp4203
S'8635456'
p4204
ag5
(g6
g7
NtRp4205
((dp4206
S'Q03380'
p4207
I01
stbaa(lp4208
S'8408201'
p4209
ag5
(g6
g7
NtRp4210
((dp4211
S'Q03380'
p4212
I01
stbaa(lp4213
S'16443752'
p4214
ag5
(g6
g7
NtRp4215
((dp4216
S'Q03479'
p4217
I01
stbaa(lp4218
S'17971415'
p4219
ag5
(g6
g7
NtRp4220
((dp4221
S'Q54EH1'
p4222
I01
sS'Q1ZXE9'
p4223
I01
stbaa(lp4224
S'17584488'
p4225
ag5
(g6
g7
NtRp4226
((dp4227
S'Q1ZXH8'
p4228
I01
stbaa(lp4229
S'23433110'
p4230
ag5
(g6
g7
NtRp4231
((dp4232
S'Q54GP3'
p4233
I01
sS'Q1ZXI0'
p4234
I01
sS'Q94465'
p4235
I01
stbaa(lp4236
S'8660315'
p4237
ag5
(g6
g7
NtRp4238
((dp4239
S'Q54GP3'
p4240
I01
sS'Q1ZXI0'
p4241
I01
sS'Q94465'
p4242
I01
stbaa(lp4243
S'22647904'
p4244
ag5
(g6
g7
NtRp4245
((dp4246
S'Q1ZXQ4'
p4247
I01
stbaa(lp4248
S'14629118'
p4249
ag5
(g6
g7
NtRp4250
((dp4251
S'Q55DR6'
p4252
I01
sS'Q1ZXQ4'
p4253
I01
stbaa(lp4254
S'15186508'
p4255
ag5
(g6
g7
NtRp4256
((dp4257
S'Q1ZXQ8'
p4258
I01
stbaa(lp4259
S'10769206'
p4260
ag5
(g6
g7
NtRp4261
((dp4262
S'Q1ZXQ8'
p4263
I01
stbaa(lp4264
S'14517319'
p4265
ag5
(g6
g7
NtRp4266
((dp4267
S'Q1ZXQ8'
p4268
I01
stbaa(lp4269
S'11726513'
p4270
ag5
(g6
g7
NtRp4271
((dp4272
S'Q23858'
p4273
I01
sS'Q55BA8'
p4274
I01
stbaa(lp4275
S'15897458'
p4276
ag5
(g6
g7
NtRp4277
((dp4278
S'Q5FXM5'
p4279
I01
sS'Q23868'
p4280
I01
sS'Q54U87'
p4281
I01
stbaa(lp4282
S'8986798'
p4283
ag5
(g6
g7
NtRp4284
((dp4285
S'Q54MY9'
p4286
I01
sS'Q23868'
p4287
I01
stbaa(lp4288
S'9435289'
p4289
ag5
(g6
g7
NtRp4290
((dp4291
S'Q23917'
p4292
I01
stbaa(lp4293
S'10974109'
p4294
ag5
(g6
g7
NtRp4295
((dp4296
S'Q54RV9'
p4297
I01
sS'Q23917'
p4298
I01
stbaa(lp4299
S'12796307'
p4300
ag5
(g6
g7
NtRp4301
((dp4302
S'Q9Y0T2'
p4303
I01
sS'Q54U87'
p4304
I01
sS'Q23917'
p4305
I01
stbaa(lp4306
S'10930471'
p4307
ag5
(g6
g7
NtRp4308
((dp4309
S'Q23917'
p4310
I01
stbaa(lp4311
S'15752425'
p4312
ag5
(g6
g7
NtRp4313
((dp4314
S'Q23917'
p4315
I01
stbaa(lp4316
S'16234315'
p4317
ag5
(g6
g7
NtRp4318
((dp4319
S'Q54CF9'
p4320
I01
sS'Q55DA7'
p4321
I01
sS'Q23925'
p4322
I01
sS'Q54XG7'
p4323
I01
sS'Q8T8P2'
p4324
I01
sS'Q54BU4'
p4325
I01
stbaa(lp4326
S'9254905'
p4327
ag5
(g6
g7
NtRp4328
((dp4329
S'Q23925'
p4330
I01
sS'Q54B10'
p4331
I01
stbaa(lp4332
S'15883042'
p4333
ag5
(g6
g7
NtRp4334
((dp4335
S'Q27564'
p4336
I01
stbaa(lp4337
S'17448496'
p4338
ag5
(g6
g7
NtRp4339
((dp4340
S'Q54YL2'
p4341
I01
sS'Q27564'
p4342
I01
sS'Q54UT2'
p4343
I01
stbaa(lp4344
S'17207566'
p4345
ag5
(g6
g7
NtRp4346
((dp4347
S'Q3ZE13'
p4348
I01
stbaa(lp4349
S'18603769'
p4350
ag5
(g6
g7
NtRp4351
((dp4352
S'Q4W6B5'
p4353
I01
stbaa(lp4354
S'16051212'
p4355
ag5
(g6
g7
NtRp4356
((dp4357
S'Q54AX5'
p4358
I01
stbaa(lp4359
S'18218133'
p4360
ag5
(g6
g7
NtRp4361
((dp4362
S'Q54B10'
p4363
I01
stbaa(lp4364
S'18252726'
p4365
ag5
(g6
g7
NtRp4366
((dp4367
S'Q54B59'
p4368
I01
sS'Q55E72'
p4369
I01
stbaa(lp4370
S'11336701'
p4371
ag5
(g6
g7
NtRp4372
((dp4373
S'Q54BD4'
p4374
I01
stbaa(lp4375
S'14871937'
p4376
ag5
(g6
g7
NtRp4377
((dp4378
S'Q7Z1I0'
p4379
I01
sS'Q54BF5'
p4380
I01
sS'Q7Z202'
p4381
I01
sS'Q7Z203'
p4382
I01
sS'Q7Z1Z9'
p4383
I01
sS'Q55FW5'
p4384
I01
stbaa(lp4385
S'15701689'
p4386
ag5
(g6
g7
NtRp4387
((dp4388
S'Q54BM7'
p4389
I01
stbaa(lp4390
S'17940044'
p4391
ag5
(g6
g7
NtRp4392
((dp4393
S'Q54BM7'
p4394
I01
stbaa(lp4395
S'16582628'
p4396
ag5
(g6
g7
NtRp4397
((dp4398
S'Q54U78'
p4399
I01
sS'Q54BN2'
p4400
I01
sS'Q54CS9'
p4401
I01
stbaa(lp4402
S'19763158'
p4403
ag5
(g6
g7
NtRp4404
((dp4405
S'Q54PN5'
p4406
I01
sS'Q55AZ3'
p4407
I01
sS'Q8T145'
p4408
I01
sS'Q54WG5'
p4409
I01
sS'Q54F00'
p4410
I01
sS'Q54BR4'
p4411
I01
sS'Q54CR0'
p4412
I01
sS'Q55F81'
p4413
I01
stbaa(lp4414
S'12456012'
p4415
ag5
(g6
g7
NtRp4416
((dp4417
S'Q8T675'
p4418
I01
sS'Q55BC0'
p4419
I01
sS'Q9GTN7'
p4420
I01
sS'Q9NGP5'
p4421
I01
sS'Q54CG0'
p4422
I01
sS'Q54R52'
p4423
I01
sS'Q54LE6'
p4424
I01
sS'Q8T9W1'
p4425
I01
sS'Q8T663'
p4426
I01
sS'Q8T662'
p4427
I01
sS'Q8T665'
p4428
I01
sS'Q8T664'
p4429
I01
sS'Q86HQ2'
p4430
I01
sS'Q8T8P3'
p4431
I01
sS'Q8T5Z7'
p4432
I01
sS'Q54W20'
p4433
I01
sS'Q8T9W2'
p4434
I01
sS'Q54W24'
p4435
I01
sS'Q8T690'
p4436
I01
sS'Q8T6J0'
p4437
I01
sS'Q55DR1'
p4438
I01
sS'Q8T689'
p4439
I01
sS'Q8T686'
p4440
I01
sS'Q8T685'
p4441
I01
sS'Q54HM0'
p4442
I01
sS'Q8T683'
p4443
I01
sS'Q54BU4'
p4444
I01
sS'Q54EK2'
p4445
I01
sS'Q8T6J5'
p4446
I01
sS'Q55GB1'
p4447
I01
sS'Q54VJ0'
p4448
I01
sS'Q8ST87'
p4449
I01
sS'Q54V86'
p4450
I01
sS'Q8T673'
p4451
I01
sS'Q54DT1'
p4452
I01
sS'Q8T674'
p4453
I01
sS'Q54BT3'
p4454
I01
sS'Q54TV2'
p4455
I01
sS'Q8T6B4'
p4456
I01
sS'Q54JR2'
p4457
I01
sS'Q54TV1'
p4458
I01
sS'Q8T9W4'
p4459
I01
sS'Q8T6B8'
p4460
I01
sS'Q54NL1'
p4461
I01
sS'Q8ST66'
p4462
I01
sS'Q8T6J1'
p4463
I01
sS'Q54W19'
p4464
I01
sS'Q8T6H8'
p4465
I01
sS'Q8T6J2'
p4466
I01
sS'Q8T6H3'
p4467
I01
sS'Q556W2'
p4468
I01
sS'Q555Z5'
p4469
I01
sS'Q54P13'
p4470
I01
sS'Q54U44'
p4471
I01
sS'Q55DQ2'
p4472
I01
sS'Q54K24'
p4473
I01
sS'Q552P3'
p4474
I01
sS'Q55DW4'
p4475
I01
sS'Q54BT5'
p4476
I01
stbaa(lp4477
S'23967067'
p4478
ag5
(g6
g7
NtRp4479
((dp4480
S'Q9NGP5'
p4481
I01
sS'Q54CG0'
p4482
I01
sS'Q54R52'
p4483
I01
sS'Q8T664'
p4484
I01
sS'Q8T8P3'
p4485
I01
sS'Q8T6B7'
p4486
I01
sS'Q8T9W2'
p4487
I01
sS'Q54W24'
p4488
I01
sS'Q8T686'
p4489
I01
sS'Q555Z5'
p4490
I01
sS'Q55DA0'
p4491
I01
sS'Q55GB1'
p4492
I01
sS'Q54VJ0'
p4493
I01
sS'Q54V86'
p4494
I01
sS'Q54DT1'
p4495
I01
sS'Q8T675'
p4496
I01
sS'Q54TV2'
p4497
I01
sS'Q8T6B4'
p4498
I01
sS'Q54JR2'
p4499
I01
sS'Q54TV1'
p4500
I01
sS'Q8T6B8'
p4501
I01
sS'Q54HM0'
p4502
I01
sS'Q8ST66'
p4503
I01
sS'Q8T6J1'
p4504
I01
sS'Q8T6J0'
p4505
I01
sS'Q8T6J2'
p4506
I01
sS'Q8T6H3'
p4507
I01
sS'Q556W2'
p4508
I01
sS'Q54BU4'
p4509
I01
sS'Q54P13'
p4510
I01
sS'Q54T02'
p4511
I01
sS'Q54K24'
p4512
I01
sS'Q54BT5'
p4513
I01
stbaa(lp4514
S'17655921'
p4515
ag5
(g6
g7
NtRp4516
((dp4517
S'Q54C46'
p4518
I01
stbaa(lp4519
S'22366457'
p4520
ag5
(g6
g7
NtRp4521
((dp4522
S'Q54CA8'
p4523
I01
stbaa(lp4524
S'23548898'
p4525
ag5
(g6
g7
NtRp4526
((dp4527
S'Q86HH3'
p4528
I01
sS'Q54IJ3'
p4529
I01
sS'Q54CB3'
p4530
I01
stbaa(lp4531
S'18621026'
p4532
ag5
(g6
g7
NtRp4533
((dp4534
S'Q54CJ4'
p4535
I01
stbaa(lp4536
S'12175335'
p4537
ag5
(g6
g7
NtRp4538
((dp4539
S'Q54JY7'
p4540
I01
sS'Q86AQ7'
p4541
I01
sS'Q54IX6'
p4542
I01
sS'Q54X86'
p4543
I01
sS'Q54NW7'
p4544
I01
sS'Q553P5'
p4545
I01
sS'Q54CK6'
p4546
I01
stbaa(lp4547
S'21606208'
p4548
ag5
(g6
g7
NtRp4549
((dp4550
S'Q54CK9'
p4551
I01
stbaa(lp4552
S'16112620'
p4553
ag5
(g6
g7
NtRp4554
((dp4555
S'Q86KS1'
p4556
I01
sS'Q54MA9'
p4557
I01
sS'Q54YJ7'
p4558
I01
sS'Q54UC0'
p4559
I01
sS'Q54LY5'
p4560
I01
sS'Q54CR9'
p4561
I01
stbaa(lp4562
S'18164290'
p4563
ag5
(g6
g7
NtRp4564
((dp4565
S'Q55DA0'
p4566
I01
sS'Q54P41'
p4567
I01
sS'Q54CT1'
p4568
I01
sS'Q54I71'
p4569
I01
sS'Q54UT6'
p4570
I01
sS'Q556S4'
p4571
I01
sS'Q54Z78'
p4572
I01
sS'Q869S5'
p4573
I01
sS'Q55B61'
p4574
I01
sS'Q54WR4'
p4575
I01
sS'Q54RL3'
p4576
I01
sS'Q557Q0'
p4577
I01
sS'Q54FQ2'
p4578
I01
sS'Q553P4'
p4579
I01
sS'Q557G6'
p4580
I01
sS'Q86AT9'
p4581
I01
sS'Q54HV7'
p4582
I01
sS'Q54DT8'
p4583
I01
sS'Q54V07'
p4584
I01
stbaa(lp4585
S'16368684'
p4586
ag5
(g6
g7
NtRp4587
((dp4588
S'Q54CW7'
p4589
I01
stbaa(lp4590
S'19878291'
p4591
ag5
(g6
g7
NtRp4592
((dp4593
S'Q54D84'
p4594
I01
stbaa(lp4595
S'17177856'
p4596
ag5
(g6
g7
NtRp4597
((dp4598
S'Q54D84'
p4599
I01
stbaa(lp4600
S'12464622'
p4601
ag5
(g6
g7
NtRp4602
((dp4603
S'Q54D97'
p4604
I01
sS'Q8I7P3'
p4605
I01
sS'Q54W40'
p4606
I01
sS'Q54PV1'
p4607
I01
stbaa(lp4608
S'11784104'
p4609
ag5
(g6
g7
NtRp4610
((dp4611
S'Q54DD0'
p4612
I01
stbaa(lp4613
S'12871696'
p4614
ag5
(g6
g7
NtRp4615
((dp4616
S'Q54V32'
p4617
I01
sS'Q557B8'
p4618
I01
sS'Q54T92'
p4619
I01
sS'Q54TS2'
p4620
I01
sS'Q54DG1'
p4621
I01
sS'Q86M88'
p4622
I01
stbaa(lp4623
S'23576747'
p4624
ag5
(g6
g7
NtRp4625
((dp4626
S'Q54DU0'
p4627
I01
stbaa(lp4628
S'24137657'
p4629
ag5
(g6
g7
NtRp4630
((dp4631
S'Q54DU0'
p4632
I01
stbaa(lp4633
S'11956322'
p4634
ag5
(g6
g7
NtRp4635
((dp4636
S'Q54E04'
p4637
I01
stbaa(lp4638
S'18827012'
p4639
ag5
(g6
g7
NtRp4640
((dp4641
S'Q54EH1'
p4642
I01
stbaa(lp4643
S'16243037'
p4644
ag5
(g6
g7
NtRp4645
((dp4646
S'Q54WG6'
p4647
I01
sS'Q54MA9'
p4648
I01
sS'Q54T85'
p4649
I01
sS'Q54UC0'
p4650
I01
sS'Q54ER4'
p4651
I01
sS'Q54LY5'
p4652
I01
stbaa(lp4653
S'21458438'
p4654
ag5
(g6
g7
NtRp4655
((dp4656
S'Q54ER9'
p4657
I01
stbaa(lp4658
S'20080085'
p4659
ag5
(g6
g7
NtRp4660
((dp4661
S'Q54T71'
p4662
I01
sS'Q54ER9'
p4663
I01
stbaa(lp4664
S'20300194'
p4665
ag5
(g6
g7
NtRp4666
((dp4667
S'Q54FX2'
p4668
I01
sS'Q54NU5'
p4669
I01
sS'Q54ER9'
p4670
I01
sS'Q54T71'
p4671
I01
stbaa(lp4672
S'22253818'
p4673
ag5
(g6
g7
NtRp4674
((dp4675
S'Q54ER9'
p4676
I01
stbaa(lp4677
S'16396914'
p4678
ag5
(g6
g7
NtRp4679
((dp4680
S'Q54ER9'
p4681
I01
stbaa(lp4682
S'16410410'
p4683
ag5
(g6
g7
NtRp4684
((dp4685
S'Q54ER9'
p4686
I01
sS'Q54XG7'
p4687
I01
stbaa(lp4688
S'16672332'
p4689
ag5
(g6
g7
NtRp4690
((dp4691
S'Q54ET0'
p4692
I01
stbaa(lp4693
S'16527814'
p4694
ag5
(g6
g7
NtRp4695
((dp4696
S'Q54ET0'
p4697
I01
stbaa(lp4698
S'18349074'
p4699
ag5
(g6
g7
NtRp4700
((dp4701
S'Q54EW0'
p4702
I01
stbaa(lp4703
S'19002378'
p4704
ag5
(g6
g7
NtRp4705
((dp4706
S'Q54EW0'
p4707
I01
stbaa(lp4708
S'15003488'
p4709
ag5
(g6
g7
NtRp4710
((dp4711
S'Q54EW8'
p4712
I01
sS'Q6RYT0'
p4713
I01
stbaa(lp4714
S'22357942'
p4715
ag5
(g6
g7
NtRp4716
((dp4717
S'Q54EY0'
p4718
I01
stbaa(lp4719
S'12697064'
p4720
ag5
(g6
g7
NtRp4721
((dp4722
S'Q54EY2'
p4723
I01
sS'Q558U1'
p4724
I01
sS'Q869N9'
p4725
I01
sS'Q550L8'
p4726
I01
stbaa(lp4727
S'15950752'
p4728
ag5
(g6
g7
NtRp4729
((dp4730
S'Q9XYS3'
p4731
I01
sS'Q54F44'
p4732
I01
sS'Q86GL4'
p4733
I01
sS'Q867T7'
p4734
I01
sS'Q867X6'
p4735
I01
sS'Q95YL4'
p4736
I01
stbaa(lp4737
S'9486804'
p4738
ag5
(g6
g7
NtRp4739
((dp4740
S'Q54F46'
p4741
I01
stbaa(lp4742
S'24132237'
p4743
ag5
(g6
g7
NtRp4744
((dp4745
S'Q54F87'
p4746
I01
stbaa(lp4747
S'16906151'
p4748
ag5
(g6
g7
NtRp4749
((dp4750
S'Q55E72'
p4751
I01
sS'Q54FI3'
p4752
I01
stbaa(lp4753
S'18402932'
p4754
ag5
(g6
g7
NtRp4755
((dp4756
S'Q54FI3'
p4757
I01
sS'Q8T638'
p4758
I01
stbaa(lp4759
S'24096661'
p4760
ag5
(g6
g7
NtRp4761
((dp4762
S'Q55E72'
p4763
I01
sS'Q54FI3'
p4764
I01
stbaa(lp4765
S'20231486'
p4766
ag5
(g6
g7
NtRp4767
((dp4768
S'Q54FI4'
p4769
I01
stbaa(lp4770
S'16495312'
p4771
ag5
(g6
g7
NtRp4772
((dp4773
S'Q54FX2'
p4774
I01
stbaa(lp4775
S'22744750'
p4776
ag5
(g6
g7
NtRp4777
((dp4778
S'Q54G01'
p4779
I01
stbaa(lp4780
S'16356468'
p4781
ag5
(g6
g7
NtRp4782
((dp4783
S'Q54G53'
p4784
I01
stbaa(lp4785
S'18334553'
p4786
ag5
(g6
g7
NtRp4787
((dp4788
S'Q55CK2'
p4789
I01
sS'Q54GD0'
p4790
I01
stbaa(lp4791
S'10987137'
p4792
ag5
(g6
g7
NtRp4793
((dp4794
S'Q54GP3'
p4795
I01
stbaa(lp4796
S'15896778'
p4797
ag5
(g6
g7
NtRp4798
((dp4799
S'Q54GP3'
p4800
I01
stbaa(lp4801
S'16678813'
p4802
ag5
(g6
g7
NtRp4803
((dp4804
S'Q8T137'
p4805
I01
sS'Q54GP8'
p4806
I01
stbaa(lp4807
S'12626495'
p4808
ag5
(g6
g7
NtRp4809
((dp4810
S'Q86CR6'
p4811
I01
sS'Q54NA3'
p4812
I01
sS'Q557H7'
p4813
I01
sS'Q54GT9'
p4814
I01
sS'Q86CR9'
p4815
I01
stbaa(lp4816
S'11854403'
p4817
ag5
(g6
g7
NtRp4818
((dp4819
S'Q54H25'
p4820
I01
stbaa(lp4821
S'14597204'
p4822
ag5
(g6
g7
NtRp4823
((dp4824
S'Q54HC6'
p4825
I01
stbaa(lp4826
S'17050732'
p4827
ag5
(g6
g7
NtRp4828
((dp4829
S'Q75JH9'
p4830
I01
sS'Q54HG2'
p4831
I01
stbaa(lp4832
S'8752217'
p4833
ag5
(g6
g7
NtRp4834
((dp4835
S'Q550R2'
p4836
I01
sS'Q54HG2'
p4837
I01
stbaa(lp4838
S'9927418'
p4839
ag5
(g6
g7
NtRp4840
((dp4841
S'Q550R2'
p4842
I01
sS'Q54HG2'
p4843
I01
stbaa(lp4844
S'22114350'
p4845
ag5
(g6
g7
NtRp4846
((dp4847
S'Q550R2'
p4848
I01
sS'Q54HG2'
p4849
I01
stbaa(lp4850
S'22902739'
p4851
ag5
(g6
g7
NtRp4852
((dp4853
S'Q54MH2'
p4854
I01
sS'Q54K32'
p4855
I01
sS'Q54I71'
p4856
I01
sS'Q54HG2'
p4857
I01
stbaa(lp4858
S'22311068'
p4859
ag5
(g6
g7
NtRp4860
((dp4861
S'Q54HH2'
p4862
I01
stbaa(lp4863
S'22090348'
p4864
ag5
(g6
g7
NtRp4865
((dp4866
S'Q54HI5'
p4867
I01
stbaa(lp4868
S'16469305'
p4869
ag5
(g6
g7
NtRp4870
((dp4871
S'Q54HS3'
p4872
I01
stbaa(lp4873
S'12802059'
p4874
ag5
(g6
g7
NtRp4875
((dp4876
S'Q54HS9'
p4877
I01
sS'Q8I8U2'
p4878
I01
stbaa(lp4879
S'17673666'
p4880
ag5
(g6
g7
NtRp4881
((dp4882
S'Q54HT1'
p4883
I01
stbaa(lp4884
S'17611045'
p4885
ag5
(g6
g7
NtRp4886
((dp4887
S'Q54W23'
p4888
I01
sS'Q54HY6'
p4889
I01
stbaa(lp4890
S'16107728'
p4891
ag5
(g6
g7
NtRp4892
((dp4893
S'Q54I18'
p4894
I01
stbaa(lp4895
S'18657170'
p4896
ag5
(g6
g7
NtRp4897
((dp4898
S'Q54I36'
p4899
I01
stbaa(lp4900
S'8898113'
p4901
ag5
(g6
g7
NtRp4902
((dp4903
S'Q552C6'
p4904
I01
sS'Q54I36'
p4905
I01
stbaa(lp4906
S'21393547'
p4907
ag5
(g6
g7
NtRp4908
((dp4909
S'Q54MH2'
p4910
I01
sS'Q54I71'
p4911
I01
stbaa(lp4912
S'15496465'
p4913
ag5
(g6
g7
NtRp4914
((dp4915
S'Q54I79'
p4916
I01
stbaa(lp4917
S'10224056'
p4918
ag5
(g6
g7
NtRp4919
((dp4920
S'Q54IL5'
p4921
I01
stbaa(lp4922
S'23369714'
p4923
ag5
(g6
g7
NtRp4924
((dp4925
S'Q55FU3'
p4926
I01
sS'Q54R74'
p4927
I01
sS'Q552E2'
p4928
I01
sS'Q54IR8'
p4929
I01
stbaa(lp4930
S'22389384'
p4931
ag5
(g6
g7
NtRp4932
((dp4933
S'Q54IT4'
p4934
I01
stbaa(lp4935
S'19833731'
p4936
ag5
(g6
g7
NtRp4937
((dp4938
S'Q86JM7'
p4939
I01
sS'Q54JH4'
p4940
I01
sS'Q54J33'
p4941
I01
sS'Q553Y1'
p4942
I01
sS'Q553Y0'
p4943
I01
stbaa(lp4944
S'19207182'
p4945
ag5
(g6
g7
NtRp4946
((dp4947
S'Q54J35'
p4948
I01
stbaa(lp4949
S'17725968'
p4950
ag5
(g6
g7
NtRp4951
((dp4952
S'Q9U3X4'
p4953
I01
sS'Q54J97'
p4954
I01
stbaa(lp4955
S'12952082'
p4956
ag5
(g6
g7
NtRp4957
((dp4958
S'Q54J97'
p4959
I01
stbaa(lp4960
S'18676957'
p4961
ag5
(g6
g7
NtRp4962
((dp4963
S'Q54JA5'
p4964
I01
sS'Q54KF7'
p4965
I01
stbaa(lp4966
S'15689527'
p4967
ag5
(g6
g7
NtRp4968
((dp4969
S'Q54JH6'
p4970
I01
stbaa(lp4971
S'16400165'
p4972
ag5
(g6
g7
NtRp4973
((dp4974
S'Q54JH6'
p4975
I01
stbaa(lp4976
S'16282589'
p4977
ag5
(g6
g7
NtRp4978
((dp4979
S'Q54JH6'
p4980
I01
stbaa(lp4981
S'23998118'
p4982
ag5
(g6
g7
NtRp4983
((dp4984
S'Q54JI6'
p4985
I01
stbaa(lp4986
S'18676953'
p4987
ag5
(g6
g7
NtRp4988
((dp4989
S'Q54JL7'
p4990
I01
stbaa(lp4991
S'20457612'
p4992
ag5
(g6
g7
NtRp4993
((dp4994
S'Q54JS2'
p4995
I01
stbaa(lp4996
S'17560550'
p4997
ag5
(g6
g7
NtRp4998
((dp4999
S'Q54JV1'
p5000
I01
stbaa(lp5001
S'23536703'
p5002
ag5
(g6
g7
NtRp5003
((dp5004
S'Q54JW0'
p5005
I01
sS'Q54S83'
p5006
I01
stbaa(lp5007
S'10978342'
p5008
ag5
(g6
g7
NtRp5009
((dp5010
S'Q54JY7'
p5011
I01
stbaa(lp5012
S'8830653'
p5013
ag5
(g6
g7
NtRp5014
((dp5015
S'Q54K32'
p5016
I01
stbaa(lp5017
S'9056774'
p5018
ag5
(g6
g7
NtRp5019
((dp5020
S'Q54K32'
p5021
I01
stbaa(lp5022
S'9739079'
p5023
ag5
(g6
g7
NtRp5024
((dp5025
S'Q54K32'
p5026
I01
stbaa(lp5027
S'9813063'
p5028
ag5
(g6
g7
NtRp5029
((dp5030
S'Q54K50'
p5031
I01
stbaa(lp5032
S'10209124'
p5033
ag5
(g6
g7
NtRp5034
((dp5035
S'Q54K81'
p5036
I01
stbaa(lp5037
S'15141168'
p5038
ag5
(g6
g7
NtRp5039
((dp5040
S'Q54K81'
p5041
I01
stbaa(lp5042
S'20186335'
p5043
ag5
(g6
g7
NtRp5044
((dp5045
S'Q54KA7'
p5046
I01
stbaa(lp5047
S'12538772'
p5048
ag5
(g6
g7
NtRp5049
((dp5050
S'Q54KF1'
p5051
I01
stbaa(lp5052
S'16699495'
p5053
ag5
(g6
g7
NtRp5054
((dp5055
S'Q54KF7'
p5056
I01
stbaa(lp5057
S'21871890'
p5058
ag5
(g6
g7
NtRp5059
((dp5060
S'Q86A17'
p5061
I01
sS'Q54LA0'
p5062
I01
stbaa(lp5063
S'7729573'
p5064
ag5
(g6
g7
NtRp5065
((dp5066
S'Q54LG5'
p5067
I01
sS'Q54LF5'
p5068
I01
stbaa(lp5069
S'16766083'
p5070
ag5
(g6
g7
NtRp5071
((dp5072
S'Q54LJ3'
p5073
I01
stbaa(lp5074
S'21760904'
p5075
ag5
(g6
g7
NtRp5076
((dp5077
S'Q8SSS9'
p5078
I01
sS'Q5XM24'
p5079
I01
sS'Q54LU5'
p5080
I01
sS'Q54TR1'
p5081
I01
stbaa(lp5082
S'23773804'
p5083
ag5
(g6
g7
NtRp5084
((dp5085
S'Q54LW0'
p5086
I01
stbaa(lp5087
S'18638468'
p5088
ag5
(g6
g7
NtRp5089
((dp5090
S'Q54LW0'
p5091
I01
stbaa(lp5092
S'18367554'
p5093
ag5
(g6
g7
NtRp5094
((dp5095
S'Q54LY5'
p5096
I01
sS'Q54UC0'
p5097
I01
stbaa(lp5098
S'23923009'
p5099
ag5
(g6
g7
NtRp5100
((dp5101
S'Q54M56'
p5102
I01
stbaa(lp5103
S'12963116'
p5104
ag5
(g6
g7
NtRp5105
((dp5106
S'Q54ME1'
p5107
I01
stbaa(lp5108
S'18809930'
p5109
ag5
(g6
g7
NtRp5110
((dp5111
S'Q54MH8'
p5112
I01
sS'Q55AX0'
p5113
I01
sS'Q55F94'
p5114
I01
stbaa(lp5115
S'23679940'
p5116
ag5
(g6
g7
NtRp5117
((dp5118
S'Q54MH8'
p5119
I01
sS'Q55F94'
p5120
I01
sS'Q94464'
p5121
I01
stbaa(lp5122
S'20887559'
p5123
ag5
(g6
g7
NtRp5124
((dp5125
S'Q54MI3'
p5126
I01
stbaa(lp5127
S'20170636'
p5128
ag5
(g6
g7
NtRp5129
((dp5130
S'Q54MP1'
p5131
I01
stbaa(lp5132
S'20057961'
p5133
ag5
(g6
g7
NtRp5134
((dp5135
S'Q54N00'
p5136
I01
stbaa(lp5137
S'15908944'
p5138
ag5
(g6
g7
NtRp5139
((dp5140
S'Q54N00'
p5141
I01
stbaa(lp5142
S'16675552'
p5143
ag5
(g6
g7
NtRp5144
((dp5145
S'Q5TJ65'
p5146
I01
sS'Q54N00'
p5147
I01
stbaa(lp5148
S'16599905'
p5149
ag5
(g6
g7
NtRp5150
((dp5151
S'Q54N49'
p5152
I01
stbaa(lp5153
S'16087752'
p5154
ag5
(g6
g7
NtRp5155
((dp5156
S'Q54N80'
p5157
I01
sS'Q54N81'
p5158
I01
stbaa(lp5159
S'20070309'
p5160
ag5
(g6
g7
NtRp5161
((dp5162
S'Q54NA3'
p5163
I01
stbaa(lp5164
S'18413611'
p5165
ag5
(g6
g7
NtRp5166
((dp5167
S'Q54ND5'
p5168
I01
stbaa(lp5169
S'17314411'
p5170
ag5
(g6
g7
NtRp5171
((dp5172
S'Q54NF8'
p5173
I01
stbaa(lp5174
S'20530573'
p5175
ag5
(g6
g7
NtRp5176
((dp5177
S'Q54NF8'
p5178
I01
sS'Q8WQ86'
p5179
I01
stbaa(lp5180
S'9732292'
p5181
ag5
(g6
g7
NtRp5182
((dp5183
S'Q54NF8'
p5184
I01
stbaa(lp5185
S'16581519'
p5186
ag5
(g6
g7
NtRp5187
((dp5188
S'Q54NF8'
p5189
I01
sS'Q869Q3'
p5190
I01
sS'Q6UK63'
p5191
I01
stbaa(lp5192
S'16597702'
p5193
ag5
(g6
g7
NtRp5194
((dp5195
S'Q54NF8'
p5196
I01
sS'Q869Q3'
p5197
I01
stbaa(lp5198
S'18550798'
p5199
ag5
(g6
g7
NtRp5200
((dp5201
S'Q54NL4'
p5202
I01
stbaa(lp5203
S'10749929'
p5204
ag5
(g6
g7
NtRp5205
((dp5206
S'Q54NW4'
p5207
I01
stbaa(lp5208
S'10888671'
p5209
ag5
(g6
g7
NtRp5210
((dp5211
S'Q54NW7'
p5212
I01
stbaa(lp5213
S'14704357'
p5214
ag5
(g6
g7
NtRp5215
((dp5216
S'Q54P04'
p5217
I01
stbaa(lp5218
S'15993406'
p5219
ag5
(g6
g7
NtRp5220
((dp5221
S'Q54PC2'
p5222
I01
stbaa(lp5223
S'16781008'
p5224
ag5
(g6
g7
NtRp5225
((dp5226
S'Q54PF3'
p5227
I01
sS'Q54QX3'
p5228
I01
stbaa(lp5229
S'16003496'
p5230
ag5
(g6
g7
NtRp5231
((dp5232
S'Q54PN9'
p5233
I01
stbaa(lp5234
S'8793298'
p5235
ag5
(g6
g7
NtRp5236
((dp5237
S'Q54PQ4'
p5238
I01
stbaa(lp5239
S'10473630'
p5240
ag5
(g6
g7
NtRp5241
((dp5242
S'Q9Y0C9'
p5243
I01
sS'Q54PQ4'
p5244
I01
stbaa(lp5245
S'17380187'
p5246
ag5
(g6
g7
NtRp5247
((dp5248
S'Q8SSQ0'
p5249
I01
sS'Q54PQ4'
p5250
I01
stbaa(lp5251
S'16963635'
p5252
ag5
(g6
g7
NtRp5253
((dp5254
S'Q54PR9'
p5255
I01
stbaa(lp5256
S'22811266'
p5257
ag5
(g6
g7
NtRp5258
((dp5259
S'Q54PT9'
p5260
I01
stbaa(lp5261
S'10491107'
p5262
ag5
(g6
g7
NtRp5263
((dp5264
S'Q9XZE5'
p5265
I01
sS'Q54QR9'
p5266
I01
sS'Q54Q99'
p5267
I01
stbaa(lp5268
S'15333995'
p5269
ag5
(g6
g7
NtRp5270
((dp5271
S'Q54QB1'
p5272
I01
stbaa(lp5273
S'17684569'
p5274
ag5
(g6
g7
NtRp5275
((dp5276
S'Q54QC8'
p5277
I01
stbaa(lp5278
S'17998288'
p5279
ag5
(g6
g7
NtRp5280
((dp5281
S'Q54QC8'
p5282
I01
stbaa(lp5283
S'11423539'
p5284
ag5
(g6
g7
NtRp5285
((dp5286
S'Q54QG0'
p5287
I01
stbaa(lp5288
S'12244067'
p5289
ag5
(g6
g7
NtRp5290
((dp5291
S'Q54QG0'
p5292
I01
stbaa(lp5293
S'8662604'
p5294
ag5
(g6
g7
NtRp5295
((dp5296
S'Q54QG0'
p5297
I01
stbaa(lp5298
S'15351882'
p5299
ag5
(g6
g7
NtRp5300
((dp5301
S'Q54QM6'
p5302
I01
stbaa(lp5303
S'16987957'
p5304
ag5
(g6
g7
NtRp5305
((dp5306
S'Q556N5'
p5307
I01
sS'Q54QQ1'
p5308
I01
stbaa(lp5309
S'15843041'
p5310
ag5
(g6
g7
NtRp5311
((dp5312
S'Q54QT7'
p5313
I01
stbaa(lp5314
S'22864416'
p5315
ag5
(g6
g7
NtRp5316
((dp5317
S'Q54R09'
p5318
I01
stbaa(lp5319
S'15059962'
p5320
ag5
(g6
g7
NtRp5321
((dp5322
S'Q54R41'
p5323
I01
stbaa(lp5324
S'12176329'
p5325
ag5
(g6
g7
NtRp5326
((dp5327
S'Q54R41'
p5328
I01
stbaa(lp5329
S'11274054'
p5330
ag5
(g6
g7
NtRp5331
((dp5332
S'Q54RB7'
p5333
I01
stbaa(lp5334
S'17442478'
p5335
ag5
(g6
g7
NtRp5336
((dp5337
S'Q54RB9'
p5338
I01
stbaa(lp5339
S'16835457'
p5340
ag5
(g6
g7
NtRp5341
((dp5342
S'Q54RC0'
p5343
I01
stbaa(lp5344
S'16524908'
p5345
ag5
(g6
g7
NtRp5346
((dp5347
S'Q54RQ4'
p5348
I01
sS'Q54RN0'
p5349
I01
stbaa(lp5350
S'12913271'
p5351
ag5
(g6
g7
NtRp5352
((dp5353
S'Q54RQ1'
p5354
I01
sS'Q54RN1'
p5355
I01
sS'Q55GQ5'
p5356
I01
stbaa(lp5357
S'16495217'
p5358
ag5
(g6
g7
NtRp5359
((dp5360
S'Q54RP0'
p5361
I01
stbaa(lp5362
S'18768936'
p5363
ag5
(g6
g7
NtRp5364
((dp5365
S'Q54RQ1'
p5366
I01
stbaa(lp5367
S'15476260'
p5368
ag5
(g6
g7
NtRp5369
((dp5370
S'Q54RV9'
p5371
I01
stbaa(lp5372
S'11566853'
p5373
ag5
(g6
g7
NtRp5374
((dp5375
S'Q54RV9'
p5376
I01
stbaa(lp5377
S'18339368'
p5378
ag5
(g6
g7
NtRp5379
((dp5380
S'Q54RY6'
p5381
I01
stbaa(lp5382
S'15155803'
p5383
ag5
(g6
g7
NtRp5384
((dp5385
S'Q54RZ5'
p5386
I01
stbaa(lp5387
S'18992223'
p5388
ag5
(g6
g7
NtRp5389
((dp5390
S'Q54S04'
p5391
I01
stbaa(lp5392
S'10651904'
p5393
ag5
(g6
g7
NtRp5394
((dp5395
S'Q54S20'
p5396
I01
stbaa(lp5397
S'15827084'
p5398
ag5
(g6
g7
NtRp5399
((dp5400
S'Q54S40'
p5401
I01
sS'Q8MVR1'
p5402
I01
stbaa(lp5403
S'16507593'
p5404
ag5
(g6
g7
NtRp5405
((dp5406
S'Q54S83'
p5407
I01
stbaa(lp5408
S'20406883'
p5409
ag5
(g6
g7
NtRp5410
((dp5411
S'Q54S83'
p5412
I01
stbaa(lp5413
S'12952069'
p5414
ag5
(g6
g7
NtRp5415
((dp5416
S'Q54SF9'
p5417
I01
stbaa(lp5418
S'20375146'
p5419
ag5
(g6
g7
NtRp5420
((dp5421
S'Q54SK5'
p5422
I01
stbaa(lp5423
S'16741867'
p5424
ag5
(g6
g7
NtRp5425
((dp5426
S'Q54T47'
p5427
I01
stbaa(lp5428
S'16571632'
p5429
ag5
(g6
g7
NtRp5430
((dp5431
S'Q54T71'
p5432
I01
stbaa(lp5433
S'14595117'
p5434
ag5
(g6
g7
NtRp5435
((dp5436
S'Q54T86'
p5437
I01
stbaa(lp5438
S'17664333'
p5439
ag5
(g6
g7
NtRp5440
((dp5441
S'Q54TA1'
p5442
I01
stbaa(lp5443
S'22307974'
p5444
ag5
(g6
g7
NtRp5445
((dp5446
S'Q54TM2'
p5447
I01
stbaa(lp5448
S'10331990'
p5449
ag5
(g6
g7
NtRp5450
((dp5451
S'Q54TN2'
p5452
I01
stbaa(lp5453
S'23616924'
p5454
ag5
(g6
g7
NtRp5455
((dp5456
S'Q54TP5'
p5457
I01
stbaa(lp5458
S'18611962'
p5459
ag5
(g6
g7
NtRp5460
((dp5461
S'Q54TR1'
p5462
I01
stbaa(lp5463
S'14665466'
p5464
ag5
(g6
g7
NtRp5465
((dp5466
S'Q54TY7'
p5467
I01
stbaa(lp5468
S'9729488'
p5469
ag5
(g6
g7
NtRp5470
((dp5471
S'Q54TY7'
p5472
I01
stbaa(lp5473
S'14706699'
p5474
ag5
(g6
g7
NtRp5475
((dp5476
S'Q54TY7'
p5477
I01
stbaa(lp5478
S'11437439'
p5479
ag5
(g6
g7
NtRp5480
((dp5481
S'Q54TY7'
p5482
I01
stbaa(lp5483
S'14732403'
p5484
ag5
(g6
g7
NtRp5485
((dp5486
S'Q54U75'
p5487
I01
stbaa(lp5488
S'17923679'
p5489
ag5
(g6
g7
NtRp5490
((dp5491
S'Q54U85'
p5492
I01
stbaa(lp5493
S'8670894'
p5494
ag5
(g6
g7
NtRp5495
((dp5496
S'Q54U87'
p5497
I01
stbaa(lp5498
S'12204259'
p5499
ag5
(g6
g7
NtRp5500
((dp5501
S'Q54U87'
p5502
I01
stbaa(lp5503
S'18160177'
p5504
ag5
(g6
g7
NtRp5505
((dp5506
S'Q54UC9'
p5507
I01
stbaa(lp5508
S'17916577'
p5509
ag5
(g6
g7
NtRp5510
((dp5511
S'Q55FS1'
p5512
I01
sS'Q54UI6'
p5513
I01
stbaa(lp5514
S'22875808'
p5515
ag5
(g6
g7
NtRp5516
((dp5517
S'Q55FS1'
p5518
I01
sS'Q54UI6'
p5519
I01
stbaa(lp5520
S'23724097'
p5521
ag5
(g6
g7
NtRp5522
((dp5523
S'Q55FS1'
p5524
I01
sS'Q54UI6'
p5525
I01
stbaa(lp5526
S'16899077'
p5527
ag5
(g6
g7
NtRp5528
((dp5529
S'Q54UU8'
p5530
I01
stbaa(lp5531
S'18673380'
p5532
ag5
(g6
g7
NtRp5533
((dp5534
S'Q54VB6'
p5535
I01
stbaa(lp5536
S'22869547'
p5537
ag5
(g6
g7
NtRp5538
((dp5539
S'Q54VL5'
p5540
I01
stbaa(lp5541
S'22264729'
p5542
ag5
(g6
g7
NtRp5543
((dp5544
S'Q54WH5'
p5545
I01
stbaa(lp5546
S'20062541'
p5547
ag5
(g6
g7
NtRp5548
((dp5549
S'Q551Q8'
p5550
I01
sS'Q54WI0'
p5551
I01
stbaa(lp5552
S'22020250'
p5553
ag5
(g6
g7
NtRp5554
((dp5555
S'Q54WJ0'
p5556
I01
stbaa(lp5557
S'15821129'
p5558
ag5
(g6
g7
NtRp5559
((dp5560
S'Q54WR4'
p5561
I01
stbaa(lp5562
S'21531871'
p5563
ag5
(g6
g7
NtRp5564
((dp5565
S'Q54WR4'
p5566
I01
sS'Q8MML5'
p5567
I01
stbaa(lp5568
S'23320427'
p5569
ag5
(g6
g7
NtRp5570
((dp5571
S'Q54WW9'
p5572
I01
stbaa(lp5573
S'9394012'
p5574
ag5
(g6
g7
NtRp5575
((dp5576
S'Q54WZ2'
p5577
I01
stbaa(lp5578
S'17587329'
p5579
ag5
(g6
g7
NtRp5580
((dp5581
S'Q9GPR7'
p5582
I01
sS'Q54WZ2'
p5583
I01
stbaa(lp5584
S'17086450'
p5585
ag5
(g6
g7
NtRp5586
((dp5587
S'Q54WZ6'
p5588
I01
stbaa(lp5589
S'21040356'
p5590
ag5
(g6
g7
NtRp5591
((dp5592
S'Q54X63'
p5593
I01
stbaa(lp5594
S'15506982'
p5595
ag5
(g6
g7
NtRp5596
((dp5597
S'Q55FT9'
p5598
I01
sS'Q869Q3'
p5599
I01
sS'Q54X65'
p5600
I01
stbaa(lp5601
S'19465563'
p5602
ag5
(g6
g7
NtRp5603
((dp5604
S'Q54X77'
p5605
I01
stbaa(lp5606
S'14729573'
p5607
ag5
(g6
g7
NtRp5608
((dp5609
S'Q54XG7'
p5610
I01
stbaa(lp5611
S'15470429'
p5612
ag5
(g6
g7
NtRp5613
((dp5614
S'Q54XG7'
p5615
I01
stbaa(lp5616
S'22223109'
p5617
ag5
(g6
g7
NtRp5618
((dp5619
S'Q54XP9'
p5620
I01
stbaa(lp5621
S'12686622'
p5622
ag5
(g6
g7
NtRp5623
((dp5624
S'Q54XQ2'
p5625
I01
stbaa(lp5626
S'18835579'
p5627
ag5
(g6
g7
NtRp5628
((dp5629
S'Q54XS1'
p5630
I01
stbaa(lp5631
S'23017206'
p5632
ag5
(g6
g7
NtRp5633
((dp5634
S'Q54XS1'
p5635
I01
stbaa(lp5636
S'10793140'
p5637
ag5
(g6
g7
NtRp5638
((dp5639
S'Q54XS3'
p5640
I01
stbaa(lp5641
S'17419997'
p5642
ag5
(g6
g7
NtRp5643
((dp5644
S'Q54XY1'
p5645
I01
stbaa(lp5646
S'22896810'
p5647
ag5
(g6
g7
NtRp5648
((dp5649
S'Q54XY1'
p5650
I01
stbaa(lp5651
S'21134080'
p5652
ag5
(g6
g7
NtRp5653
((dp5654
S'Q54Y26'
p5655
I01
stbaa(lp5656
S'17050736'
p5657
ag5
(g6
g7
NtRp5658
((dp5659
S'Q54Y50'
p5660
I01
stbaa(lp5661
S'19692567'
p5662
ag5
(g6
g7
NtRp5663
((dp5664
S'Q54Y50'
p5665
I01
sS'Q86KI1'
p5666
I01
stbaa(lp5667
S'17332500'
p5668
ag5
(g6
g7
NtRp5669
((dp5670
S'Q54YF2'
p5671
I01
stbaa(lp5672
S'11493573'
p5673
ag5
(g6
g7
NtRp5674
((dp5675
S'Q54YU6'
p5676
I01
stbaa(lp5677
S'9716534'
p5678
ag5
(g6
g7
NtRp5679
((dp5680
S'Q54YU6'
p5681
I01
stbaa(lp5682
S'18854143'
p5683
ag5
(g6
g7
NtRp5684
((dp5685
S'Q54YW1'
p5686
I01
stbaa(lp5687
S'18424909'
p5688
ag5
(g6
g7
NtRp5689
((dp5690
S'Q55GH4'
p5691
I01
sS'Q54YZ0'
p5692
I01
stbaa(lp5693
S'14665465'
p5694
ag5
(g6
g7
NtRp5695
((dp5696
S'Q9GPZ7'
p5697
I01
sS'Q54Z54'
p5698
I01
stbaa(lp5699
S'12857872'
p5700
ag5
(g6
g7
NtRp5701
((dp5702
S'Q54ZW0'
p5703
I01
sS'Q55FP0'
p5704
I01
stbaa(lp5705
S'18178563'
p5706
ag5
(g6
g7
NtRp5707
((dp5708
S'Q54ZW0'
p5709
I01
sS'Q55FP0'
p5710
I01
stbaa(lp5711
S'23301051'
p5712
ag5
(g6
g7
NtRp5713
((dp5714
S'Q54ZW0'
p5715
I01
sS'Q55FP0'
p5716
I01
stbaa(lp5717
S'8898200'
p5718
ag5
(g6
g7
NtRp5719
((dp5720
S'Q550D5'
p5721
I01
stbaa(lp5722
S'21034843'
p5723
ag5
(g6
g7
NtRp5724
((dp5725
S'Q8I0F4'
p5726
I01
sS'Q550F6'
p5727
I01
stbaa(lp5728
S'21193547'
p5729
ag5
(g6
g7
NtRp5730
((dp5731
S'Q550K3'
p5732
I01
stbaa(lp5733
S'17177855'
p5734
ag5
(g6
g7
NtRp5735
((dp5736
S'Q558U1'
p5737
I01
sS'Q550L8'
p5738
I01
stbaa(lp5739
S'15193148'
p5740
ag5
(g6
g7
NtRp5741
((dp5742
S'Q550U9'
p5743
I01
stbaa(lp5744
S'16814427'
p5745
ag5
(g6
g7
NtRp5746
((dp5747
S'Q551M2'
p5748
I01
stbaa(lp5749
S'16790492'
p5750
ag5
(g6
g7
NtRp5751
((dp5752
S'Q551V8'
p5753
I01
sS'Q553Y7'
p5754
I01
stbaa(lp5755
S'18073238'
p5756
ag5
(g6
g7
NtRp5757
((dp5758
S'Q551V8'
p5759
I01
sS'Q553Y7'
p5760
I01
stbaa(lp5761
S'14710184'
p5762
ag5
(g6
g7
NtRp5763
((dp5764
S'Q551V8'
p5765
I01
sS'Q553Y7'
p5766
I01
stbaa(lp5767
S'15851518'
p5768
ag5
(g6
g7
NtRp5769
((dp5770
S'Q552S0'
p5771
I01
stbaa(lp5772
S'21239624'
p5773
ag5
(g6
g7
NtRp5774
((dp5775
S'Q552S0'
p5776
I01
stbaa(lp5777
S'17880704'
p5778
ag5
(g6
g7
NtRp5779
((dp5780
S'Q552Y2'
p5781
I01
sS'Q55FV9'
p5782
I01
sS'Q94497'
p5783
I01
sS'Q86KP5'
p5784
I01
stbaa(lp5785
S'22992462'
p5786
ag5
(g6
g7
NtRp5787
((dp5788
S'Q553K4'
p5789
I01
stbaa(lp5790
S'20658257'
p5791
ag5
(g6
g7
NtRp5792
((dp5793
S'Q553N8'
p5794
I01
stbaa(lp5795
S'15629062'
p5796
ag5
(g6
g7
NtRp5797
((dp5798
S'Q554C5'
p5799
I01
stbaa(lp5800
S'16299590'
p5801
ag5
(g6
g7
NtRp5802
((dp5803
S'Q86KM0'
p5804
I01
sS'Q555B5'
p5805
I01
sS'Q556A8'
p5806
I01
stbaa(lp5807
S'23161062'
p5808
ag5
(g6
g7
NtRp5809
((dp5810
S'Q555I8'
p5811
I01
stbaa(lp5812
S'23213391'
p5813
ag5
(g6
g7
NtRp5814
((dp5815
S'Q555I8'
p5816
I01
stbaa(lp5817
S'17588537'
p5818
ag5
(g6
g7
NtRp5819
((dp5820
S'Q555X4'
p5821
I01
stbaa(lp5822
S'21933174'
p5823
ag5
(g6
g7
NtRp5824
((dp5825
S'Q555X5'
p5826
I01
stbaa(lp5827
S'12117815'
p5828
ag5
(g6
g7
NtRp5829
((dp5830
S'Q556R7'
p5831
I01
stbaa(lp5832
S'12912898'
p5833
ag5
(g6
g7
NtRp5834
((dp5835
S'Q556R7'
p5836
I01
sS'Q86HE5'
p5837
I01
sS'Q86IV5'
p5838
I01
stbaa(lp5839
S'15383615'
p5840
ag5
(g6
g7
NtRp5841
((dp5842
S'Q556T3'
p5843
I01
stbaa(lp5844
S'10880352'
p5845
ag5
(g6
g7
NtRp5846
((dp5847
S'Q556Y4'
p5848
I01
stbaa(lp5849
S'15640146'
p5850
ag5
(g6
g7
NtRp5851
((dp5852
S'Q556Y7'
p5853
I01
sS'Q8T1G5'
p5854
I01
sS'Q8T1G4'
p5855
I01
sS'Q8T1G6'
p5856
I01
stbaa(lp5857
S'18840649'
p5858
ag5
(g6
g7
NtRp5859
((dp5860
S'Q557E7'
p5861
I01
stbaa(lp5862
S'16449327'
p5863
ag5
(g6
g7
NtRp5864
((dp5865
S'Q557J6'
p5866
I01
stbaa(lp5867
S'20200225'
p5868
ag5
(g6
g7
NtRp5869
((dp5870
S'Q869N2'
p5871
I01
sS'Q557J6'
p5872
I01
sS'Q9XXV8'
p5873
I01
stbaa(lp5874
S'17699599'
p5875
ag5
(g6
g7
NtRp5876
((dp5877
S'Q558K8'
p5878
I01
stbaa(lp5879
S'22572958'
p5880
ag5
(g6
g7
NtRp5881
((dp5882
S'Q558K8'
p5883
I01
stbaa(lp5884
S'20940261'
p5885
ag5
(g6
g7
NtRp5886
((dp5887
S'Q558Y7'
p5888
I01
stbaa(lp5889
S'18266910'
p5890
ag5
(g6
g7
NtRp5891
((dp5892
S'Q558Z2'
p5893
I01
stbaa(lp5894
S'19632001'
p5895
ag5
(g6
g7
NtRp5896
((dp5897
S'Q558Z2'
p5898
I01
stbaa(lp5899
S'15073273'
p5900
ag5
(g6
g7
NtRp5901
((dp5902
S'Q55A48'
p5903
I01
stbaa(lp5904
S'23391225'
p5905
ag5
(g6
g7
NtRp5906
((dp5907
S'Q55AA6'
p5908
I01
stbaa(lp5909
S'17950724'
p5910
ag5
(g6
g7
NtRp5911
((dp5912
S'Q55AP1'
p5913
I01
stbaa(lp5914
S'18948008'
p5915
ag5
(g6
g7
NtRp5916
((dp5917
S'Q55AR6'
p5918
I01
stbaa(lp5919
S'21187070'
p5920
ag5
(g6
g7
NtRp5921
((dp5922
S'Q55AX2'
p5923
I01
stbaa(lp5924
S'9630545'
p5925
ag5
(g6
g7
NtRp5926
((dp5927
S'Q55BM4'
p5928
I01
stbaa(lp5929
S'16899512'
p5930
ag5
(g6
g7
NtRp5931
((dp5932
S'Q55BN3'
p5933
I01
stbaa(lp5934
S'11956323'
p5935
ag5
(g6
g7
NtRp5936
((dp5937
S'Q55BN8'
p5938
I01
stbaa(lp5939
S'7862164'
p5940
ag5
(g6
g7
NtRp5941
((dp5942
S'Q55BV5'
p5943
I01
stbaa(lp5944
S'19576222'
p5945
ag5
(g6
g7
NtRp5946
((dp5947
S'Q55BW2'
p5948
I01
stbaa(lp5949
S'14736886'
p5950
ag5
(g6
g7
NtRp5951
((dp5952
S'Q55CC5'
p5953
I01
sS'Q86CR8'
p5954
I01
sS'Q86CS2'
p5955
I01
stbaa(lp5956
S'16962888'
p5957
ag5
(g6
g7
NtRp5958
((dp5959
S'Q55CL6'
p5960
I01
sS'Q95ZG8'
p5961
I01
stbaa(lp5962
S'18408056'
p5963
ag5
(g6
g7
NtRp5964
((dp5965
S'Q55CS7'
p5966
I01
stbaa(lp5967
S'22345351'
p5968
ag5
(g6
g7
NtRp5969
((dp5970
S'Q55CT4'
p5971
I01
stbaa(lp5972
S'15236669'
p5973
ag5
(g6
g7
NtRp5974
((dp5975
S'Q55CZ1'
p5976
I01
stbaa(lp5977
S'10545500'
p5978
ag5
(g6
g7
NtRp5979
((dp5980
S'Q55D99'
p5981
I01
stbaa(lp5982
S'12626710'
p5983
ag5
(g6
g7
NtRp5984
((dp5985
S'Q55DL0'
p5986
I01
stbaa(lp5987
S'16787542'
p5988
ag5
(g6
g7
NtRp5989
((dp5990
S'Q55DM1'
p5991
I01
stbaa(lp5992
S'11865029'
p5993
ag5
(g6
g7
NtRp5994
((dp5995
S'Q55DM1'
p5996
I01
sS'Q86JF2'
p5997
I01
stbaa(lp5998
S'11872142'
p5999
ag5
(g6
g7
NtRp6000
((dp6001
S'Q55DM1'
p6002
I01
sS'Q86JF2'
p6003
I01
stbaa(lp6004
S'16781009'
p6005
ag5
(g6
g7
NtRp6006
((dp6007
S'Q55E26'
p6008
I01
stbaa(lp6009
S'20071332'
p6010
ag5
(g6
g7
NtRp6011
((dp6012
S'Q55E54'
p6013
I01
stbaa(lp6014
S'12529423'
p6015
ag5
(g6
g7
NtRp6016
((dp6017
S'Q55E58'
p6018
I01
stbaa(lp6019
S'10930737'
p6020
ag5
(g6
g7
NtRp6021
((dp6022
S'Q55EK9'
p6023
I01
stbaa(lp6024
S'23577638'
p6025
ag5
(g6
g7
NtRp6026
((dp6027
S'Q55F37'
p6028
I01
stbaa(lp6029
S'20966074'
p6030
ag5
(g6
g7
NtRp6031
((dp6032
S'Q55F68'
p6033
I01
stbaa(lp6034
S'9636072'
p6035
ag5
(g6
g7
NtRp6036
((dp6037
S'Q55FB8'
p6038
I01
stbaa(lp6039
S'22682495'
p6040
ag5
(g6
g7
NtRp6041
((dp6042
S'Q55FC8'
p6043
I01
stbaa(lp6044
S'24240571'
p6045
ag5
(g6
g7
NtRp6046
((dp6047
S'Q55FE6'
p6048
I01
stbaa(lp6049
S'22219373'
p6050
ag5
(g6
g7
NtRp6051
((dp6052
S'Q55FP0'
p6053
I01
sS'Q8I7T3'
p6054
I01
stbaa(lp6055
S'16367873'
p6056
ag5
(g6
g7
NtRp6057
((dp6058
S'Q55GK8'
p6059
I01
sS'Q55FP0'
p6060
I01
stbaa(lp6061
S'18708585'
p6062
ag5
(g6
g7
NtRp6063
((dp6064
S'Q55FT4'
p6065
I01
stbaa(lp6066
S'18261908'
p6067
ag5
(g6
g7
NtRp6068
((dp6069
S'Q55FT9'
p6070
I01
stbaa(lp6071
S'21131095'
p6072
ag5
(g6
g7
NtRp6073
((dp6074
S'Q55G45'
p6075
I01
stbaa(lp6076
S'11352578'
p6077
ag5
(g6
g7
NtRp6078
((dp6079
S'Q55G87'
p6080
I01
stbaa(lp6081
S'16512895'
p6082
ag5
(g6
g7
NtRp6083
((dp6084
S'Q55G87'
p6085
I01
stbaa(lp6086
S'23686520'
p6087
ag5
(g6
g7
NtRp6088
((dp6089
S'Q55G87'
p6090
I01
sS'Q7YSW8'
p6091
I01
stbaa(lp6092
S'9023987'
p6093
ag5
(g6
g7
NtRp6094
((dp6095
S'Q55GH4'
p6096
I01
stbaa(lp6097
S'12840076'
p6098
ag5
(g6
g7
NtRp6099
((dp6100
S'Q55GQ5'
p6101
I01
stbaa(lp6102
S'15483055'
p6103
ag5
(g6
g7
NtRp6104
((dp6105
S'Q55GV3'
p6106
I01
stbaa(lp6107
S'15255188'
p6108
ag5
(g6
g7
NtRp6109
((dp6110
S'Q65YR8'
p6111
I01
sS'Q65YR7'
p6112
I01
sS'Q5R1U3'
p6113
I01
stbaa(lp6114
S'12388544'
p6115
ag5
(g6
g7
NtRp6116
((dp6117
S'Q5TJ65'
p6118
I01
stbaa(lp6119
S'16176950'
p6120
ag5
(g6
g7
NtRp6121
((dp6122
S'Q5XM24'
p6123
I01
stbaa(lp6124
S'15643073'
p6125
ag5
(g6
g7
NtRp6126
((dp6127
S'Q86KF9'
p6128
I01
sS'Q6B516'
p6129
I01
stbaa(lp6130
S'15728726'
p6131
ag5
(g6
g7
NtRp6132
((dp6133
S'Q6B9X6'
p6134
I01
stbaa(lp6135
S'14551196'
p6136
ag5
(g6
g7
NtRp6137
((dp6138
S'Q6IMN8'
p6139
I01
stbaa(lp6140
S'18990192'
p6141
ag5
(g6
g7
NtRp6142
((dp6143
S'Q6IMN8'
p6144
I01
stbaa(lp6145
S'4308724'
p6146
ag5
(g6
g7
NtRp6147
((dp6148
S'Q6RYT0'
p6149
I01
stbaa(lp6150
S'18712789'
p6151
ag5
(g6
g7
NtRp6152
((dp6153
S'Q6RZZ9'
p6154
I01
stbaa(lp6155
S'15546981'
p6156
ag5
(g6
g7
NtRp6157
((dp6158
S'Q6S000'
p6159
I01
stbaa(lp6160
S'23333327'
p6161
ag5
(g6
g7
NtRp6162
((dp6163
S'Q6S001'
p6164
I01
stbaa(lp6165
S'17031003'
p6166
ag5
(g6
g7
NtRp6167
((dp6168
S'Q6T486'
p6169
I01
stbaa(lp6170
S'12956949'
p6171
ag5
(g6
g7
NtRp6172
((dp6173
S'Q6UK63'
p6174
I01
stbaa(lp6175
S'20348387'
p6176
ag5
(g6
g7
NtRp6177
((dp6178
S'Q6XHA5'
p6179
I01
sS'Q6XHB2'
p6180
I01
stbaa(lp6181
S'14701681'
p6182
ag5
(g6
g7
NtRp6183
((dp6184
S'Q70GP4'
p6185
I01
stbaa(lp6186
S'14517243'
p6187
ag5
(g6
g7
NtRp6188
((dp6189
S'Q71A39'
p6190
I01
sS'Q71A38'
p6191
I01
stbaa(lp6192
S'16135826'
p6193
ag5
(g6
g7
NtRp6194
((dp6195
S'Q71A39'
p6196
I01
stbaa(lp6197
S'12183371'
p6198
ag5
(g6
g7
NtRp6199
((dp6200
S'Q75JI3'
p6201
I01
stbaa(lp6202
S'17606987'
p6203
ag5
(g6
g7
NtRp6204
((dp6205
S'Q75JI3'
p6206
I01
stbaa(lp6207
S'20472692'
p6208
ag5
(g6
g7
NtRp6209
((dp6210
S'Q75JI3'
p6211
I01
stbaa(lp6212
S'17085634'
p6213
ag5
(g6
g7
NtRp6214
((dp6215
S'Q75JK0'
p6216
I01
stbaa(lp6217
S'15084313'
p6218
ag5
(g6
g7
NtRp6219
((dp6220
S'Q75JL2'
p6221
I01
stbaa(lp6222
S'17501984'
p6223
ag5
(g6
g7
NtRp6224
((dp6225
S'Q75JT4'
p6226
I01
stbaa(lp6227
S'18367552'
p6228
ag5
(g6
g7
NtRp6229
((dp6230
S'Q75JZ1'
p6231
I01
stbaa(lp6232
S'15606490'
p6233
ag5
(g6
g7
NtRp6234
((dp6235
S'Q75K28'
p6236
I01
stbaa(lp6237
S'17499244'
p6238
ag5
(g6
g7
NtRp6239
((dp6240
S'Q76NT9'
p6241
I01
stbaa(lp6242
S'21552328'
p6243
ag5
(g6
g7
NtRp6244
((dp6245
S'Q76P24'
p6246
I01
stbaa(lp6247
S'21562226'
p6248
ag5
(g6
g7
NtRp6249
((dp6250
S'Q76P24'
p6251
I01
stbaa(lp6252
S'9765812'
p6253
ag5
(g6
g7
NtRp6254
((dp6255
S'Q7YSW8'
p6256
I01
stbaa(lp6257
S'17259548'
p6258
ag5
(g6
g7
NtRp6259
((dp6260
S'Q7YXU4'
p6261
I01
stbaa(lp6262
S'20525180'
p6263
ag5
(g6
g7
NtRp6264
((dp6265
S'Q7YXU4'
p6266
I01
stbaa(lp6267
S'21950343'
p6268
ag5
(g6
g7
NtRp6269
((dp6270
S'Q7YXU4'
p6271
I01
stbaa(lp6272
S'15509655'
p6273
ag5
(g6
g7
NtRp6274
((dp6275
S'Q869N2'
p6276
I01
stbaa(lp6277
S'8670893'
p6278
ag5
(g6
g7
NtRp6279
((dp6280
S'Q869S5'
p6281
I01
stbaa(lp6282
S'16445684'
p6283
ag5
(g6
g7
NtRp6284
((dp6285
S'Q869V1'
p6286
I01
stbaa(lp6287
S'11689442'
p6288
ag5
(g6
g7
NtRp6289
((dp6290
S'Q86A02'
p6291
I01
stbaa(lp6292
S'20019080'
p6293
ag5
(g6
g7
NtRp6294
((dp6295
S'Q86A84'
p6296
I01
stbaa(lp6297
S'20351273'
p6298
ag5
(g6
g7
NtRp6299
((dp6300
S'Q86AC8'
p6301
I01
stbaa(lp6302
S'10329620'
p6303
ag5
(g6
g7
NtRp6304
((dp6305
S'Q86AS5'
p6306
I01
stbaa(lp6307
S'14593072'
p6308
ag5
(g6
g7
NtRp6309
((dp6310
S'Q86AT8'
p6311
I01
stbaa(lp6312
S'15225305'
p6313
ag5
(g6
g7
NtRp6314
((dp6315
S'Q8MQU6'
p6316
I01
sS'Q86AV6'
p6317
I01
stbaa(lp6318
S'17031001'
p6319
ag5
(g6
g7
NtRp6320
((dp6321
S'Q86CS2'
p6322
I01
stbaa(lp6323
S'15358773'
p6324
ag5
(g6
g7
NtRp6325
((dp6326
S'Q86CS2'
p6327
I01
stbaa(lp6328
S'17150370'
p6329
ag5
(g6
g7
NtRp6330
((dp6331
S'Q86CS2'
p6332
I01
stbaa(lp6333
S'16473345'
p6334
ag5
(g6
g7
NtRp6335
((dp6336
S'Q86CZ2'
p6337
I01
stbaa(lp6338
S'22073313'
p6339
ag5
(g6
g7
NtRp6340
((dp6341
S'Q86D86'
p6342
I01
stbaa(lp6343
S'18504297'
p6344
ag5
(g6
g7
NtRp6345
((dp6346
S'Q86G47'
p6347
I01
stbaa(lp6348
S'16644729'
p6349
ag5
(g6
g7
NtRp6350
((dp6351
S'Q86H13'
p6352
I01
stbaa(lp6353
S'15708561'
p6354
ag5
(g6
g7
NtRp6355
((dp6356
S'Q86H98'
p6357
I01
sS'Q8T7K0'
p6358
I01
stbaa(lp6359
S'12385972'
p6360
ag5
(g6
g7
NtRp6361
((dp6362
S'Q86HV8'
p6363
I01
stbaa(lp6364
S'16490188'
p6365
ag5
(g6
g7
NtRp6366
((dp6367
S'Q86I19'
p6368
I01
stbaa(lp6369
S'12843630'
p6370
ag5
(g6
g7
NtRp6371
((dp6372
S'Q86I79'
p6373
I01
stbaa(lp6374
S'9428745'
p6375
ag5
(g6
g7
NtRp6376
((dp6377
S'Q86IA3'
p6378
I01
stbaa(lp6379
S'12878591'
p6380
ag5
(g6
g7
NtRp6381
((dp6382
S'Q86IG3'
p6383
I01
stbaa(lp6384
S'12070154'
p6385
ag5
(g6
g7
NtRp6386
((dp6387
S'Q86IV5'
p6388
I01
stbaa(lp6389
S'11090633'
p6390
ag5
(g6
g7
NtRp6391
((dp6392
S'Q86IV5'
p6393
I01
stbaa(lp6394
S'10444594'
p6395
ag5
(g6
g7
NtRp6396
((dp6397
S'Q86IV5'
p6398
I01
stbaa(lp6399
S'11371560'
p6400
ag5
(g6
g7
NtRp6401
((dp6402
S'Q86IV5'
p6403
I01
stbaa(lp6404
S'17336445'
p6405
ag5
(g6
g7
NtRp6406
((dp6407
S'Q86IZ4'
p6408
I01
stbaa(lp6409
S'17488289'
p6410
ag5
(g6
g7
NtRp6411
((dp6412
S'Q86JF2'
p6413
I01
stbaa(lp6414
S'17606989'
p6415
ag5
(g6
g7
NtRp6416
((dp6417
S'Q86JF2'
p6418
I01
stbaa(lp6419
S'11854420'
p6420
ag5
(g6
g7
NtRp6421
((dp6422
S'Q86JF2'
p6423
I01
stbaa(lp6424
S'20097741'
p6425
ag5
(g6
g7
NtRp6426
((dp6427
S'Q9GPF1'
p6428
I01
sS'Q86JF2'
p6429
I01
stbaa(lp6430
S'17625565'
p6431
ag5
(g6
g7
NtRp6432
((dp6433
S'Q86JM7'
p6434
I01
stbaa(lp6435
S'24128258'
p6436
ag5
(g6
g7
NtRp6437
((dp6438
S'Q86K54'
p6439
I01
stbaa(lp6440
S'18216168'
p6441
ag5
(g6
g7
NtRp6442
((dp6443
S'Q86K86'
p6444
I01
stbaa(lp6445
S'12060071'
p6446
ag5
(g6
g7
NtRp6447
((dp6448
S'Q86KE7'
p6449
I01
sS'Q95YH0'
p6450
I01
stbaa(lp6451
S'20479885'
p6452
ag5
(g6
g7
NtRp6453
((dp6454
S'Q86KE7'
p6455
I01
sS'Q95YH0'
p6456
I01
stbaa(lp6457
S'23915312'
p6458
ag5
(g6
g7
NtRp6459
((dp6460
S'Q86KG9'
p6461
I01
stbaa(lp6462
S'15705570'
p6463
ag5
(g6
g7
NtRp6464
((dp6465
S'Q86KR9'
p6466
I01
stbaa(lp6467
S'21247092'
p6468
ag5
(g6
g7
NtRp6469
((dp6470
S'Q86KR9'
p6471
I01
stbaa(lp6472
S'17699611'
p6473
ag5
(g6
g7
NtRp6474
((dp6475
S'Q86KR9'
p6476
I01
stbaa(lp6477
S'22809629'
p6478
ag5
(g6
g7
NtRp6479
((dp6480
S'Q86KX8'
p6481
I01
stbaa(lp6482
S'16410554'
p6483
ag5
(g6
g7
NtRp6484
((dp6485
S'Q86KZ5'
p6486
I01
stbaa(lp6487
S'15507488'
p6488
ag5
(g6
g7
NtRp6489
((dp6490
S'Q86L04'
p6491
I01
stbaa(lp6492
S'15652354'
p6493
ag5
(g6
g7
NtRp6494
((dp6495
S'Q86L04'
p6496
I01
stbaa(lp6497
S'16456031'
p6498
ag5
(g6
g7
NtRp6499
((dp6500
S'Q86L44'
p6501
I01
stbaa(lp6502
S'15800059'
p6503
ag5
(g6
g7
NtRp6504
((dp6505
S'Q8I0F4'
p6506
I01
stbaa(lp6507
S'17343681'
p6508
ag5
(g6
g7
NtRp6509
((dp6510
S'Q8I7P3'
p6511
I01
stbaa(lp6512
S'12499361'
p6513
ag5
(g6
g7
NtRp6514
((dp6515
S'Q8I7T3'
p6516
I01
stbaa(lp6517
S'21441344'
p6518
ag5
(g6
g7
NtRp6519
((dp6520
S'Q8I7T3'
p6521
I01
stbaa(lp6522
S'11102804'
p6523
ag5
(g6
g7
NtRp6524
((dp6525
S'Q8IS21'
p6526
I01
stbaa(lp6527
S'12429831'
p6528
ag5
(g6
g7
NtRp6529
((dp6530
S'Q8MLZ3'
p6531
I01
stbaa(lp6532
S'12429832'
p6533
ag5
(g6
g7
NtRp6534
((dp6535
S'Q8MLZ3'
p6536
I01
stbaa(lp6537
S'19213599'
p6538
ag5
(g6
g7
NtRp6539
((dp6540
S'Q8MML5'
p6541
I01
stbaa(lp6542
S'16155255'
p6543
ag5
(g6
g7
NtRp6544
((dp6545
S'Q8MML5'
p6546
I01
stbaa(lp6547
S'23187822'
p6548
ag5
(g6
g7
NtRp6549
((dp6550
S'Q8MMR8'
p6551
I01
stbaa(lp6552
S'12220630'
p6553
ag5
(g6
g7
NtRp6554
((dp6555
S'Q8MPQ7'
p6556
I01
stbaa(lp6557
S'22119747'
p6558
ag5
(g6
g7
NtRp6559
((dp6560
S'Q8MVR1'
p6561
I01
stbaa(lp6562
S'18703517'
p6563
ag5
(g6
g7
NtRp6564
((dp6565
S'Q8MVR1'
p6566
I01
stbaa(lp6567
S'18673369'
p6568
ag5
(g6
g7
NtRp6569
((dp6570
S'Q8MVR1'
p6571
I01
stbaa(lp6572
S'14686953'
p6573
ag5
(g6
g7
NtRp6574
((dp6575
S'Q9BLG3'
p6576
I01
sS'Q8MXY0'
p6577
I01
stbaa(lp6578
S'16188250'
p6579
ag5
(g6
g7
NtRp6580
((dp6581
S'Q8MXY0'
p6582
I01
stbaa(lp6583
S'12475956'
p6584
ag5
(g6
g7
NtRp6585
((dp6586
S'Q8MY12'
p6587
I01
stbaa(lp6588
S'16336640'
p6589
ag5
(g6
g7
NtRp6590
((dp6591
S'Q8SSQ3'
p6592
I01
stbaa(lp6593
S'20709790'
p6594
ag5
(g6
g7
NtRp6595
((dp6596
S'Q8SSS9'
p6597
I01
stbaa(lp6598
S'12954783'
p6599
ag5
(g6
g7
NtRp6600
((dp6601
S'Q8SSS9'
p6602
I01
stbaa(lp6603
S'11157987'
p6604
ag5
(g6
g7
NtRp6605
((dp6606
S'Q8T133'
p6607
I01
stbaa(lp6608
S'14623897'
p6609
ag5
(g6
g7
NtRp6610
((dp6611
S'Q8T135'
p6612
I01
stbaa(lp6613
S'12244115'
p6614
ag5
(g6
g7
NtRp6615
((dp6616
S'Q8T1C6'
p6617
I01
stbaa(lp6618
S'11163223'
p6619
ag5
(g6
g7
NtRp6620
((dp6621
S'Q8T638'
p6622
I01
stbaa(lp6623
S'15276209'
p6624
ag5
(g6
g7
NtRp6625
((dp6626
S'Q8T7K0'
p6627
I01
stbaa(lp6628
S'15757670'
p6629
ag5
(g6
g7
NtRp6630
((dp6631
S'Q8T7K0'
p6632
I01
stbaa(lp6633
S'17623773'
p6634
ag5
(g6
g7
NtRp6635
((dp6636
S'Q8T9S7'
p6637
I01
stbaa(lp6638
S'12134070'
p6639
ag5
(g6
g7
NtRp6640
((dp6641
S'Q8WQ86'
p6642
I01
stbaa(lp6643
S'11737154'
p6644
ag5
(g6
g7
NtRp6645
((dp6646
S'Q8WSR7'
p6647
I01
stbaa(lp6648
S'9880338'
p6649
ag5
(g6
g7
NtRp6650
((dp6651
S'Q94464'
p6652
I01
stbaa(lp6653
S'11823417'
p6654
ag5
(g6
g7
NtRp6655
((dp6656
S'Q94464'
p6657
I01
stbaa(lp6658
S'16527408'
p6659
ag5
(g6
g7
NtRp6660
((dp6661
S'Q94465'
p6662
I01
stbaa(lp6663
S'8870645'
p6664
ag5
(g6
g7
NtRp6665
((dp6666
S'Q94465'
p6667
I01
stbaa(lp6668
S'8619862'
p6669
ag5
(g6
g7
NtRp6670
((dp6671
S'Q94465'
p6672
I01
stbaa(lp6673
S'9169048'
p6674
ag5
(g6
g7
NtRp6675
((dp6676
S'Q94489'
p6677
I01
stbaa(lp6678
S'9348538'
p6679
ag5
(g6
g7
NtRp6680
((dp6681
S'Q94490'
p6682
I01
stbaa(lp6683
S'9102307'
p6684
ag5
(g6
g7
NtRp6685
((dp6686
S'Q94491'
p6687
I01
stbaa(lp6688
S'9397534'
p6689
ag5
(g6
g7
NtRp6690
((dp6691
S'Q94502'
p6692
I01
stbaa(lp6693
S'19861424'
p6694
ag5
(g6
g7
NtRp6695
((dp6696
S'Q95NZ8'
p6697
I01
stbaa(lp6698
S'9808785'
p6699
ag5
(g6
g7
NtRp6700
((dp6701
S'Q95PI2'
p6702
I01
stbaa(lp6703
S'15788570'
p6704
ag5
(g6
g7
NtRp6705
((dp6706
S'Q95US4'
p6707
I01
stbaa(lp6708
S'15196949'
p6709
ag5
(g6
g7
NtRp6710
((dp6711
S'Q95YH0'
p6712
I01
stbaa(lp6713
S'11683919'
p6714
ag5
(g6
g7
NtRp6715
((dp6716
S'Q966T6'
p6717
I01
stbaa(lp6718
S'19411624'
p6719
ag5
(g6
g7
NtRp6720
((dp6721
S'Q967U1'
p6722
I01
stbaa(lp6723
S'15367206'
p6724
ag5
(g6
g7
NtRp6725
((dp6726
S'Q968Z6'
p6727
I01
stbaa(lp6728
S'16835443'
p6729
ag5
(g6
g7
NtRp6730
((dp6731
S'Q9BLG4'
p6732
I01
stbaa(lp6733
S'17951519'
p6734
ag5
(g6
g7
NtRp6735
((dp6736
S'Q9BLG4'
p6737
I01
stbaa(lp6738
S'11179674'
p6739
ag5
(g6
g7
NtRp6740
((dp6741
S'Q9GPF1'
p6742
I01
stbaa(lp6743
S'17010123'
p6744
ag5
(g6
g7
NtRp6745
((dp6746
S'Q9GPF1'
p6747
I01
stbaa(lp6748
S'22391412'
p6749
ag5
(g6
g7
NtRp6750
((dp6751
S'Q9GPK9'
p6752
I01
stbaa(lp6753
S'23938384'
p6754
ag5
(g6
g7
NtRp6755
((dp6756
S'Q9GPM2'
p6757
I01
stbaa(lp6758
S'17889831'
p6759
ag5
(g6
g7
NtRp6760
((dp6761
S'Q9GPM2'
p6762
I01
stbaa(lp6763
S'15363631'
p6764
ag5
(g6
g7
NtRp6765
((dp6766
S'Q9GPM4'
p6767
I01
stbaa(lp6768
S'17004322'
p6769
ag5
(g6
g7
NtRp6770
((dp6771
S'Q9GPR7'
p6772
I01
stbaa(lp6773
S'19325115'
p6774
ag5
(g6
g7
NtRp6775
((dp6776
S'Q9GPR7'
p6777
I01
stbaa(lp6778
S'9546041'
p6779
ag5
(g6
g7
NtRp6780
((dp6781
S'Q9GRF8'
p6782
I01
stbaa(lp6783
S'11479029'
p6784
ag5
(g6
g7
NtRp6785
((dp6786
S'Q9GRF8'
p6787
I01
stbaa(lp6788
S'11598188'
p6789
ag5
(g6
g7
NtRp6790
((dp6791
S'Q9GRX6'
p6792
I01
stbaa(lp6793
S'15728724'
p6794
ag5
(g6
g7
NtRp6795
((dp6796
S'Q9GSG9'
p6797
I01
stbaa(lp6798
S'12756178'
p6799
ag5
(g6
g7
NtRp6800
((dp6801
S'Q9GTN7'
p6802
I01
stbaa(lp6803
S'17056744'
p6804
ag5
(g6
g7
NtRp6805
((dp6806
S'Q9GTN7'
p6807
I01
stbaa(lp6808
S'10970875'
p6809
ag5
(g6
g7
NtRp6810
((dp6811
S'Q9NA13'
p6812
I01
stbaa(lp6813
S'17077123'
p6814
ag5
(g6
g7
NtRp6815
((dp6816
S'Q9NA13'
p6817
I01
stbaa(lp6818
S'18077554'
p6819
ag5
(g6
g7
NtRp6820
((dp6821
S'Q9NA13'
p6822
I01
stbaa(lp6823
S'18202452'
p6824
ag5
(g6
g7
NtRp6825
((dp6826
S'Q9NA13'
p6827
I01
stbaa(lp6828
S'18359017'
p6829
ag5
(g6
g7
NtRp6830
((dp6831
S'Q9NA13'
p6832
I01
stbaa(lp6833
S'17416892'
p6834
ag5
(g6
g7
NtRp6835
((dp6836
S'Q9NAX4'
p6837
I01
stbaa(lp6838
S'16005849'
p6839
ag5
(g6
g7
NtRp6840
((dp6841
S'Q9NH03'
p6842
I01
stbaa(lp6843
S'22849378'
p6844
ag5
(g6
g7
NtRp6845
((dp6846
S'Q9NH03'
p6847
I01
stbaa(lp6848
S'10804029'
p6849
ag5
(g6
g7
NtRp6850
((dp6851
S'Q9NH03'
p6852
I01
stbaa(lp6853
S'15014435'
p6854
ag5
(g6
g7
NtRp6855
((dp6856
S'Q9NHF6'
p6857
I01
stbaa(lp6858
S'11690648'
p6859
ag5
(g6
g7
NtRp6860
((dp6861
S'Q9NI62'
p6862
I01
stbaa(lp6863
S'11220631'
p6864
ag5
(g6
g7
NtRp6865
((dp6866
S'Q9NIV0'
p6867
I01
stbaa(lp6868
S'11208126'
p6869
ag5
(g6
g7
NtRp6870
((dp6871
S'Q9TW28'
p6872
I01
stbaa(lp6873
S'10574761'
p6874
ag5
(g6
g7
NtRp6875
((dp6876
S'Q9U1M8'
p6877
I01
stbaa(lp6878
S'15470238'
p6879
ag5
(g6
g7
NtRp6880
((dp6881
S'Q9U1M8'
p6882
I01
stbaa(lp6883
S'11267868'
p6884
ag5
(g6
g7
NtRp6885
((dp6886
S'Q9U1M8'
p6887
I01
stbaa(lp6888
S'21086149'
p6889
ag5
(g6
g7
NtRp6890
((dp6891
S'Q9U1M9'
p6892
I01
stbaa(lp6893
S'10681463'
p6894
ag5
(g6
g7
NtRp6895
((dp6896
S'Q9U720'
p6897
I01
stbaa(lp6898
S'11428129'
p6899
ag5
(g6
g7
NtRp6900
((dp6901
S'Q9U720'
p6902
I01
stbaa(lp6903
S'12654899'
p6904
ag5
(g6
g7
NtRp6905
((dp6906
S'Q9U720'
p6907
I01
stbaa(lp6908
S'11919178'
p6909
ag5
(g6
g7
NtRp6910
((dp6911
S'Q9U7C9'
p6912
I01
stbaa(lp6913
S'10652255'
p6914
ag5
(g6
g7
NtRp6915
((dp6916
S'Q9XXV8'
p6917
I01
stbaa(lp6918
S'17353263'
p6919
ag5
(g6
g7
NtRp6920
((dp6921
S'Q9Y0B7'
p6922
I01
stbaa(lp6923
S'10898960'
p6924
ag5
(g6
g7
NtRp6925
((dp6926
S'Q9Y0T2'
p6927
I01
stbaa(lp6928
S'10725352'
p6929
ag5
(g6
g7
NtRp6930
((dp6931
S'Q9Y0T2'
p6932
I01
stbaa(lp6933
S'10504413'
p6934
ag5
(g6
g7
NtRp6935
((dp6936
S'Q9Y1W0'
p6937
I01
stbaa(lp6938
S'15632431'
p6939
ag5
(g6
g7
NtRp6940
((dp6941
S'Q9Y1W0'
p6942
I01
stbaatRp6943
.