ccollections
OrderedDict
p1
((lp2
(lp3
S'15473840'
p4
accopy_reg
_reconstructor
p5
(csets
Set
p6
c__builtin__
object
p7
NtRp8
((dp9
S'GO:0030552'
p10
I01
sS'GO:0019887'
p11
I01
sS'GO:0047555'
p12
I01
sS'GO:0004115'
p13
I01
sS'GO:0004383'
p14
I01
sS'GO:0016314'
p15
I01
sS'GO:0001646'
p16
I01
sS'GO:0004871'
p17
I01
sS'GO:0004672'
p18
I01
sS'GO:0004691'
p19
I01
sS'GO:0005524'
p20
I01
stbaa(lp21
S'8710499'
p22
ag5
(g6
g7
NtRp23
((dp24
S'GO:0003684'
p25
I01
stbaa(lp26
S'21193547'
p27
ag5
(g6
g7
NtRp28
((dp29
S'GO:0005515'
p30
I01
stbaa(lp31
S'9171087'
p32
ag5
(g6
g7
NtRp33
((dp34
S'GO:0043141'
p35
I01
sS'GO:0000287'
p36
I01
sS'GO:0003684'
p37
I01
sS'GO:0043140'
p38
I01
sS'GO:0005524'
p39
I01
stbaa(lp40
S'18701541'
p41
ag5
(g6
g7
NtRp42
((dp43
S'GO:0043565'
p44
I01
stbaa(lp45
S'21085675'
p46
ag5
(g6
g7
NtRp47
((dp48
S'GO:0005515'
p49
I01
stbaa(lp50
S'15193148'
p51
ag5
(g6
g7
NtRp52
((dp53
S'GO:0004620'
p54
I01
sS'GO:0005515'
p55
I01
stbaa(lp56
S'18634783'
p57
ag5
(g6
g7
NtRp58
((dp59
S'GO:0005515'
p60
I01
stbaa(lp61
S'20071332'
p62
ag5
(g6
g7
NtRp63
((dp64
S'GO:0051015'
p65
I01
sS'GO:0005525'
p66
I01
stbaa(lp67
S'15053873'
p68
ag5
(g6
g7
NtRp69
((dp70
S'GO:0042803'
p71
I01
sS'GO:0003677'
p72
I01
stbaa(lp73
S'9200609'
p74
ag5
(g6
g7
NtRp75
((dp76
S'GO:0003677'
p77
I01
stbaa(lp78
S'16750281'
p79
ag5
(g6
g7
NtRp80
((dp81
S'GO:0042802'
p82
I01
sS'GO:0005515'
p83
I01
stbaa(lp84
S'9585512'
p85
ag5
(g6
g7
NtRp86
((dp87
S'GO:0030145'
p88
I01
sS'GO:0000287'
p89
I01
sS'GO:0004722'
p90
I01
sS'GO:0005525'
p91
I01
stbaa(lp92
S'9620859'
p93
ag5
(g6
g7
NtRp94
((dp95
S'GO:0003677'
p96
I01
stbaa(lp97
S'11390363'
p98
ag5
(g6
g7
NtRp99
((dp100
S'GO:0004842'
p101
I01
stbaa(lp102
S'9582328'
p103
ag5
(g6
g7
NtRp104
((dp105
S'GO:0004674'
p106
I01
sS'GO:0004672'
p107
I01
stbaa(lp108
S'16842885'
p109
ag5
(g6
g7
NtRp110
((dp111
S'GO:0005524'
p112
I01
sS'GO:0004672'
p113
I01
stbaa(lp114
S'9802899'
p115
ag5
(g6
g7
NtRp116
((dp117
S'GO:0048365'
p118
I01
sS'GO:0005515'
p119
I01
stbaa(lp120
S'9700162'
p121
ag5
(g6
g7
NtRp122
((dp123
S'GO:0003779'
p124
I01
stbaa(lp125
S'7916591'
p126
ag5
(g6
g7
NtRp127
((dp128
S'GO:0000822'
p129
I01
stbaa(lp130
S'16079174'
p131
ag5
(g6
g7
NtRp132
((dp133
S'GO:0005515'
p134
I01
stbaa(lp135
S'9389653'
p136
ag5
(g6
g7
NtRp137
((dp138
S'GO:0008047'
p139
I01
stbaa(lp140
S'11004503'
p141
ag5
(g6
g7
NtRp142
((dp143
S'GO:0004096'
p144
I01
stbaa(lp145
S'2921242'
p146
ag5
(g6
g7
NtRp147
((dp148
S'GO:0004096'
p149
I01
stbaa(lp150
S'10712614'
p151
ag5
(g6
g7
NtRp152
((dp153
S'GO:0016491'
p154
I01
stbaa(lp155
S'15509655'
p156
ag5
(g6
g7
NtRp157
((dp158
S'GO:0019901'
p159
I01
sS'GO:0004674'
p160
I01
sS'GO:0048365'
p161
I01
sS'GO:0005515'
p162
I01
stbaa(lp163
S'15496465'
p164
ag5
(g6
g7
NtRp165
((dp166
S'GO:0008976'
p167
I01
stbaa(lp168
S'15726806'
p169
ag5
(g6
g7
NtRp170
((dp171
S'GO:0017024'
p172
I01
sS'GO:0017048'
p173
I01
sS'GO:0003779'
p174
I01
sS'GO:0051015'
p175
I01
sS'GO:0005094'
p176
I01
sS'GO:0003785'
p177
I01
stbaa(lp178
S'22366457'
p179
ag5
(g6
g7
NtRp180
((dp181
S'GO:0005515'
p182
I01
stbaa(lp183
S'17562315'
p184
ag5
(g6
g7
NtRp185
((dp186
S'GO:0008609'
p187
I01
sS'GO:0050660'
p188
I01
sS'GO:0043178'
p189
I01
stbaa(lp190
S'9837757'
p191
ag5
(g6
g7
NtRp192
((dp193
S'GO:0008609'
p194
I01
stbaa(lp195
S'17606910'
p196
ag5
(g6
g7
NtRp197
((dp198
S'GO:0050660'
p199
I01
stbaa(lp200
S'18636095'
p201
ag5
(g6
g7
NtRp202
((dp203
S'GO:0032794'
p204
I01
sS'GO:0017137'
p205
I01
sS'GO:0005515'
p206
I01
sS'GO:0005097'
p207
I01
stbaa(lp208
S'16735078'
p209
ag5
(g6
g7
NtRp210
((dp211
S'GO:0005515'
p212
I01
stbaa(lp213
S'10491202'
p214
ag5
(g6
g7
NtRp215
((dp216
S'GO:0003677'
p217
I01
stbaa(lp218
S'16607013'
p219
ag5
(g6
g7
NtRp220
((dp221
S'GO:0043565'
p222
I01
stbaa(lp223
S'10092866'
p224
ag5
(g6
g7
NtRp225
((dp226
S'GO:0005471'
p227
I01
stbaa(lp228
S'12175335'
p229
ag5
(g6
g7
NtRp230
((dp231
S'GO:0005515'
p232
I01
stbaa(lp233
S'15606490'
p234
ag5
(g6
g7
NtRp235
((dp236
S'GO:0005509'
p237
I01
stbaa(lp238
S'6243626'
p239
ag5
(g6
g7
NtRp240
((dp241
S'GO:0005509'
p242
I01
stbaa(lp243
S'6667031'
p244
ag5
(g6
g7
NtRp245
((dp246
S'GO:0005509'
p247
I01
sS'GO:0031013'
p248
I01
stbaa(lp249
S'11919178'
p250
ag5
(g6
g7
NtRp251
((dp252
S'GO:0005516'
p253
I01
sS'GO:0005515'
p254
I01
stbaa(lp255
S'15883042'
p256
ag5
(g6
g7
NtRp257
((dp258
S'GO:0004797'
p259
I01
sS'GO:0005524'
p260
I01
sS'GO:0005516'
p261
I01
sS'GO:0005515'
p262
I01
sS'GO:0004683'
p263
I01
stbaa(lp264
S'15896312'
p265
ag5
(g6
g7
NtRp266
((dp267
S'GO:0005516'
p268
I01
sS'GO:0005515'
p269
I01
stbaa(lp270
S'21402150'
p271
ag5
(g6
g7
NtRp272
((dp273
S'GO:0005516'
p274
I01
sS'GO:0005515'
p275
I01
stbaa(lp276
S'22391412'
p277
ag5
(g6
g7
NtRp278
((dp279
S'GO:0005515'
p280
I01
stbaa(lp281
S'23441816'
p282
ag5
(g6
g7
NtRp283
((dp284
S'GO:0050839'
p285
I01
sS'GO:0005516'
p286
I01
sS'GO:0005515'
p287
I01
stbaa(lp288
S'23063531'
p289
ag5
(g6
g7
NtRp290
((dp291
S'GO:0019901'
p292
I01
sS'GO:0005516'
p293
I01
sS'GO:0005515'
p294
I01
stbaa(lp295
S'6259174'
p296
ag5
(g6
g7
NtRp297
((dp298
S'GO:0031013'
p299
I01
stbaa(lp300
S'15947191'
p301
ag5
(g6
g7
NtRp302
((dp303
S'GO:0046871'
p304
I01
stbaa(lp305
S'20580724'
p306
ag5
(g6
g7
NtRp307
((dp308
S'GO:0070492'
p309
I01
stbaa(lp310
S'11257439'
p311
ag5
(g6
g7
NtRp312
((dp313
S'GO:0003924'
p314
I01
sS'GO:0005525'
p315
I01
stbaa(lp316
S'6746725'
p317
ag5
(g6
g7
NtRp318
((dp319
S'GO:0030674'
p320
I01
sS'GO:0005200'
p321
I01
sS'GO:0051015'
p322
I01
stbaa(lp323
S'8486739'
p324
ag5
(g6
g7
NtRp325
((dp326
S'GO:0005509'
p327
I01
stbaa(lp328
S'1312226'
p329
ag5
(g6
g7
NtRp330
((dp331
S'GO:0030552'
p332
I01
sS'GO:0008603'
p333
I01
stbaa(lp334
S'2996629'
p335
ag5
(g6
g7
NtRp336
((dp337
S'GO:0004152'
p338
I01
stbaa(lp339
S'3003365'
p340
ag5
(g6
g7
NtRp341
((dp342
S'GO:0005200'
p343
I01
stbaa(lp344
S'6707016'
p345
ag5
(g6
g7
NtRp346
((dp347
S'GO:0051015'
p348
I01
sS'GO:0005515'
p349
I01
stbaa(lp350
S'1057168'
p351
ag5
(g6
g7
NtRp352
((dp353
S'GO:0005200'
p354
I01
sS'GO:0017022'
p355
I01
stbaa(lp356
S'15843041'
p357
ag5
(g6
g7
NtRp358
((dp359
S'GO:0003779'
p360
I01
sS'GO:0005515'
p361
I01
stbaa(lp362
S'15366765'
p363
ag5
(g6
g7
NtRp364
((dp365
S'GO:0005516'
p366
I01
sS'GO:0042803'
p367
I01
stbaa(lp368
S'16982629'
p369
ag5
(g6
g7
NtRp370
((dp371
S'GO:0030898'
p372
I01
sS'GO:0051015'
p373
I01
sS'GO:0000146'
p374
I01
sS'GO:0005524'
p375
I01
stbaa(lp376
S'19955408'
p377
ag5
(g6
g7
NtRp378
((dp379
S'GO:0000146'
p380
I01
sS'GO:0030898'
p381
I01
stbaa(lp382
S'15910751'
p383
ag5
(g6
g7
NtRp384
((dp385
S'GO:0003774'
p386
I01
stbaa(lp387
S'11106661'
p388
ag5
(g6
g7
NtRp389
((dp390
S'GO:0045159'
p391
I01
sS'GO:0005515'
p392
I01
stbaa(lp393
S'18504297'
p394
ag5
(g6
g7
NtRp395
((dp396
S'GO:0005088'
p397
I01
sS'GO:0051015'
p398
I01
sS'GO:0045159'
p399
I01
sS'GO:0005515'
p400
I01
stbaa(lp401
S'18854143'
p402
ag5
(g6
g7
NtRp403
((dp404
S'GO:0045159'
p405
I01
sS'GO:0005515'
p406
I01
stbaa(lp407
S'4278009'
p408
ag5
(g6
g7
NtRp409
((dp410
S'GO:0030898'
p411
I01
sS'GO:0005524'
p412
I01
stbaa(lp413
S'14620745'
p414
ag5
(g6
g7
NtRp415
((dp416
S'GO:0030554'
p417
I01
stbaa(lp418
S'18067324'
p419
ag5
(g6
g7
NtRp420
((dp421
S'GO:0051015'
p422
I01
sS'GO:0030898'
p423
I01
stbaa(lp424
S'2745547'
p425
ag5
(g6
g7
NtRp426
((dp427
S'GO:0042803'
p428
I01
stbaa(lp429
S'20951045'
p430
ag5
(g6
g7
NtRp431
((dp432
S'GO:0071889'
p433
I01
sS'GO:0032038'
p434
I01
stbaa(lp435
S'2451126'
p436
ag5
(g6
g7
NtRp437
((dp438
S'GO:0005509'
p439
I01
stbaa(lp440
S'1535025'
p441
ag5
(g6
g7
NtRp442
((dp443
S'GO:0030898'
p444
I01
stbaa(lp445
S'2835631'
p446
ag5
(g6
g7
NtRp447
((dp448
S'GO:0004590'
p449
I01
sS'GO:0004588'
p450
I01
stbaa(lp451
S'8500761'
p452
ag5
(g6
g7
NtRp453
((dp454
S'GO:0004590'
p455
I01
sS'GO:0004588'
p456
I01
stbaa(lp457
S'2017144'
p458
ag5
(g6
g7
NtRp459
((dp460
S'GO:0004590'
p461
I01
stbaa(lp462
S'15826949'
p463
ag5
(g6
g7
NtRp464
((dp465
S'GO:0005515'
p466
I01
stbaa(lp467
S'16699495'
p468
ag5
(g6
g7
NtRp469
((dp470
S'GO:0005515'
p471
I01
stbaa(lp472
S'17671169'
p473
ag5
(g6
g7
NtRp474
((dp475
S'GO:0005515'
p476
I01
stbaa(lp477
S'9118250'
p478
ag5
(g6
g7
NtRp479
((dp480
S'GO:0003785'
p481
I01
sS'GO:0051015'
p482
I01
stbaa(lp483
S'2191567'
p484
ag5
(g6
g7
NtRp485
((dp486
S'GO:0048306'
p487
I01
stbaa(lp488
S'15060630'
p489
ag5
(g6
g7
NtRp490
((dp491
S'GO:0051015'
p492
I01
stbaa(lp493
S'3139100'
p494
ag5
(g6
g7
NtRp495
((dp496
S'GO:0004013'
p497
I01
stbaa(lp498
S'3288206'
p499
ag5
(g6
g7
NtRp500
((dp501
S'GO:0004013'
p502
I01
stbaa(lp503
S'6299402'
p504
ag5
(g6
g7
NtRp505
((dp506
S'GO:0030552'
p507
I01
sS'GO:0004013'
p508
I01
stbaa(lp509
S'1310316'
p510
ag5
(g6
g7
NtRp511
((dp512
S'GO:0004560'
p513
I01
sS'GO:0033938'
p514
I01
stbaa(lp515
S'8016318'
p516
ag5
(g6
g7
NtRp517
((dp518
S'GO:0005198'
p519
I01
stbaa(lp520
S'17040207'
p521
ag5
(g6
g7
NtRp522
((dp523
S'GO:0047555'
p524
I01
sS'GO:0004115'
p525
I01
stbaa(lp526
S'2049870'
p527
ag5
(g6
g7
NtRp528
((dp529
S'GO:0047555'
p530
I01
stbaa(lp531
S'23369714'
p532
ag5
(g6
g7
NtRp533
((dp534
S'GO:0005515'
p535
I01
stbaa(lp536
S'2914932'
p537
ag5
(g6
g7
NtRp538
((dp539
S'GO:0003785'
p540
I01
sS'GO:0051015'
p541
I01
stbaa(lp542
S'7822284'
p543
ag5
(g6
g7
NtRp544
((dp545
S'GO:0005504'
p546
I01
stbaa(lp547
S'15383615'
p548
ag5
(g6
g7
NtRp549
((dp550
S'GO:0031005'
p551
I01
sS'GO:0005515'
p552
I01
stbaa(lp553
S'16781869'
p554
ag5
(g6
g7
NtRp555
((dp556
S'GO:0042803'
p557
I01
stbaa(lp558
S'14711408'
p559
ag5
(g6
g7
NtRp560
((dp561
S'GO:0051015'
p562
I01
stbaa(lp563
S'9670017'
p564
ag5
(g6
g7
NtRp565
((dp566
S'GO:0001637'
p567
I01
stbaa(lp568
S'9578623'
p569
ag5
(g6
g7
NtRp570
((dp571
S'GO:0001646'
p572
I01
sS'GO:0004871'
p573
I01
sS'GO:0030552'
p574
I01
stbaa(lp575
S'15507682'
p576
ag5
(g6
g7
NtRp577
((dp578
S'GO:0030552'
p579
I01
sS'GO:0004016'
p580
I01
stbaa(lp581
S'17630977'
p582
ag5
(g6
g7
NtRp583
((dp584
S'GO:0030552'
p585
I01
stbaa(lp586
S'17380187'
p587
ag5
(g6
g7
NtRp588
((dp589
S'GO:0005088'
p590
I01
sS'GO:0003924'
p591
I01
stbaa(lp592
S'23132928'
p593
ag5
(g6
g7
NtRp594
((dp595
S'GO:0003924'
p596
I01
stbaa(lp597
S'10473630'
p598
ag5
(g6
g7
NtRp599
((dp600
S'GO:0019900'
p601
I01
sS'GO:0030250'
p602
I01
sS'GO:0005515'
p603
I01
sS'GO:0017016'
p604
I01
stbaa(lp605
S'15194808'
p606
ag5
(g6
g7
NtRp607
((dp608
S'GO:0004674'
p609
I01
sS'GO:0005524'
p610
I01
sS'GO:0005515'
p611
I01
sS'GO:0017016'
p612
I01
stbaa(lp613
S'15143344'
p614
ag5
(g6
g7
NtRp615
((dp616
S'GO:0005525'
p617
I01
stbaa(lp618
S'2813371'
p619
ag5
(g6
g7
NtRp620
((dp621
S'GO:0050797'
p622
I01
stbaa(lp623
S'11264536'
p624
ag5
(g6
g7
NtRp625
((dp626
S'GO:0001664'
p627
I01
stbaa(lp628
S'8280098'
p629
ag5
(g6
g7
NtRp630
((dp631
S'GO:0003924'
p632
I01
sS'GO:0004871'
p633
I01
sS'GO:0005525'
p634
I01
stbaa(lp635
S'15563608'
p636
ag5
(g6
g7
NtRp637
((dp638
S'GO:0031681'
p639
I01
sS'GO:0031682'
p640
I01
sS'GO:0008047'
p641
I01
sS'GO:0005515'
p642
I01
stbaa(lp643
S'23576747'
p644
ag5
(g6
g7
NtRp645
((dp646
S'GO:0001965'
p647
I01
sS'GO:0005085'
p648
I01
sS'GO:0005515'
p649
I01
stbaa(lp650
S'7821221'
p651
ag5
(g6
g7
NtRp652
((dp653
S'GO:0003924'
p654
I01
stbaa(lp655
S'8898241'
p656
ag5
(g6
g7
NtRp657
((dp658
S'GO:0004712'
p659
I01
stbaa(lp660
S'1972546'
p661
ag5
(g6
g7
NtRp662
((dp663
S'GO:0004713'
p664
I01
stbaa(lp665
S'22699506'
p666
ag5
(g6
g7
NtRp667
((dp668
S'GO:0005515'
p669
I01
stbaa(lp670
S'17371831'
p671
ag5
(g6
g7
NtRp672
((dp673
S'GO:0003924'
p674
I01
stbaa(lp675
S'22644079'
p676
ag5
(g6
g7
NtRp677
((dp678
S'GO:0005515'
p679
I01
stbaa(lp680
S'12186953'
p681
ag5
(g6
g7
NtRp682
((dp683
S'GO:0017160'
p684
I01
sS'GO:0005525'
p685
I01
stbaa(lp686
S'2568162'
p687
ag5
(g6
g7
NtRp688
((dp689
S'GO:0004151'
p690
I01
sS'GO:0004088'
p691
I01
sS'GO:0004070'
p692
I01
stbaa(lp693
S'8703943'
p694
ag5
(g6
g7
NtRp695
((dp696
S'GO:0000287'
p697
I01
sS'GO:0005524'
p698
I01
stbaa(lp699
S'2156849'
p700
ag5
(g6
g7
NtRp701
((dp702
S'GO:0033862'
p703
I01
sS'GO:0005524'
p704
I01
sS'GO:0004127'
p705
I01
sS'GO:0016776'
p706
I01
stbaa(lp707
S'15289548'
p708
ag5
(g6
g7
NtRp709
((dp710
S'GO:0005525'
p711
I01
stbaa(lp712
S'1989999'
p713
ag5
(g6
g7
NtRp714
((dp715
S'GO:0004019'
p716
I01
sS'GO:0005525'
p717
I01
stbaa(lp718
S'15653432'
p719
ag5
(g6
g7
NtRp720
((dp721
S'GO:0005515'
p722
I01
stbaa(lp723
S'2161830'
p724
ag5
(g6
g7
NtRp725
((dp726
S'GO:0004550'
p727
I01
sS'GO:0005524'
p728
I01
stbaa(lp729
S'1832674'
p730
ag5
(g6
g7
NtRp731
((dp732
S'GO:0005509'
p733
I01
stbaa(lp734
S'16762449'
p735
ag5
(g6
g7
NtRp736
((dp737
S'GO:0005509'
p738
I01
sS'GO:0005515'
p739
I01
stbaa(lp740
S'1824843'
p741
ag5
(g6
g7
NtRp742
((dp743
S'GO:0005544'
p744
I01
stbaa(lp745
S'3029131'
p746
ag5
(g6
g7
NtRp747
((dp748
S'GO:0004674'
p749
I01
stbaa(lp750
S'16546177'
p751
ag5
(g6
g7
NtRp752
((dp753
S'GO:0004687'
p754
I01
stbaa(lp755
S'3032987'
p756
ag5
(g6
g7
NtRp757
((dp758
S'GO:0004687'
p759
I01
sS'GO:0030898'
p760
I01
sS'GO:0005524'
p761
I01
sS'GO:0004683'
p762
I01
stbaa(lp763
S'1651931'
p764
ag5
(g6
g7
NtRp765
((dp766
S'GO:0005516'
p767
I01
stbaa(lp768
S'12802059'
p769
ag5
(g6
g7
NtRp770
((dp771
S'GO:0008565'
p772
I01
sS'GO:0030276'
p773
I01
sS'GO:0005515'
p774
I01
stbaa(lp775
S'20200225'
p776
ag5
(g6
g7
NtRp777
((dp778
S'GO:0005522'
p779
I01
sS'GO:0032037'
p780
I01
sS'GO:0019901'
p781
I01
sS'GO:0005515'
p782
I01
sS'GO:0016905'
p783
I01
stbaa(lp784
S'15908944'
p785
ag5
(g6
g7
NtRp786
((dp787
S'GO:0005522'
p788
I01
sS'GO:0051015'
p789
I01
sS'GO:0005515'
p790
I01
sS'GO:0017049'
p791
I01
stbaa(lp792
S'23915312'
p793
ag5
(g6
g7
NtRp794
((dp795
S'GO:0043325'
p796
I01
sS'GO:0005546'
p797
I01
sS'GO:0005515'
p798
I01
sS'GO:0005547'
p799
I01
stbaa(lp800
S'1661669'
p801
ag5
(g6
g7
NtRp802
((dp803
S'GO:0051015'
p804
I01
stbaa(lp805
S'10873800'
p806
ag5
(g6
g7
NtRp807
((dp808
S'GO:0004691'
p809
I01
stbaa(lp810
S'1885577'
p811
ag5
(g6
g7
NtRp812
((dp813
S'GO:0003922'
p814
I01
sS'GO:0005524'
p815
I01
stbaa(lp816
S'14597204'
p817
ag5
(g6
g7
NtRp818
((dp819
S'GO:0005515'
p820
I01
stbaa(lp821
S'8455930'
p822
ag5
(g6
g7
NtRp823
((dp824
S'GO:0005525'
p825
I01
stbaa(lp826
S'11500376'
p827
ag5
(g6
g7
NtRp828
((dp829
S'GO:0003924'
p830
I01
stbaa(lp831
S'8290260'
p832
ag5
(g6
g7
NtRp833
((dp834
S'GO:0005525'
p835
I01
stbaa(lp836
S'15800059'
p837
ag5
(g6
g7
NtRp838
((dp839
S'GO:0045504'
p840
I01
sS'GO:0017048'
p841
I01
sS'GO:0005515'
p842
I01
stbaa(lp843
S'8816999'
p844
ag5
(g6
g7
NtRp845
((dp846
S'GO:0015631'
p847
I01
sS'GO:0005515'
p848
I01
stbaa(lp849
S'15366936'
p850
ag5
(g6
g7
NtRp851
((dp852
S'GO:0005524'
p853
I01
sS'GO:0042623'
p854
I01
stbaa(lp855
S'17761194'
p856
ag5
(g6
g7
NtRp857
((dp858
S'GO:0015631'
p859
I01
stbaa(lp860
S'17548361'
p861
ag5
(g6
g7
NtRp862
((dp863
S'GO:0016887'
p864
I01
stbaa(lp865
S'19765570'
p866
ag5
(g6
g7
NtRp867
((dp868
S'GO:0005515'
p869
I01
stbaa(lp870
S'19176583'
p871
ag5
(g6
g7
NtRp872
((dp873
S'GO:0004871'
p874
I01
stbaa(lp875
S'18089562'
p876
ag5
(g6
g7
NtRp877
((dp878
S'GO:0030898'
p879
I01
sS'GO:0051015'
p880
I01
sS'GO:0000146'
p881
I01
sS'GO:0005524'
p882
I01
stbaa(lp883
S'16415352'
p884
ag5
(g6
g7
NtRp885
((dp886
S'GO:0017024'
p887
I01
sS'GO:0005509'
p888
I01
sS'GO:0005515'
p889
I01
sS'GO:0032031'
p890
I01
stbaa(lp891
S'2163458'
p892
ag5
(g6
g7
NtRp893
((dp894
S'GO:0004550'
p895
I01
stbaa(lp896
S'10102987'
p897
ag5
(g6
g7
NtRp898
((dp899
S'GO:0004693'
p900
I01
sS'GO:0005515'
p901
I01
stbaa(lp902
S'12074548'
p903
ag5
(g6
g7
NtRp904
((dp905
S'GO:0004693'
p906
I01
sS'GO:0005524'
p907
I01
stbaa(lp908
S'3110159'
p909
ag5
(g6
g7
NtRp910
((dp911
S'GO:0008184'
p912
I01
stbaa(lp913
S'21766205'
p914
ag5
(g6
g7
NtRp915
((dp916
S'GO:0019901'
p917
I01
sS'GO:0005515'
p918
I01
stbaa(lp919
S'8130037'
p920
ag5
(g6
g7
NtRp921
((dp922
S'GO:0008233'
p923
I01
stbaa(lp924
S'8293475'
p925
ag5
(g6
g7
NtRp926
((dp927
S'GO:0051015'
p928
I01
stbaa(lp929
S'16042397'
p930
ag5
(g6
g7
NtRp931
((dp932
S'GO:0019992'
p933
I01
sS'GO:0004143'
p934
I01
sS'GO:0005524'
p935
I01
sS'GO:0000166'
p936
I01
stbaa(lp937
S'12952069'
p938
ag5
(g6
g7
NtRp939
((dp940
S'GO:0004674'
p941
I01
sS'GO:0004143'
p942
I01
sS'GO:0016905'
p943
I01
stbaa(lp944
S'16854454'
p945
ag5
(g6
g7
NtRp946
((dp947
S'GO:0004143'
p948
I01
stbaa(lp949
S'8769416'
p950
ag5
(g6
g7
NtRp951
((dp952
S'GO:0004672'
p953
I01
stbaa(lp954
S'1549373'
p955
ag5
(g6
g7
NtRp956
((dp957
S'GO:0003677'
p958
I01
stbaa(lp959
S'8226777'
p960
ag5
(g6
g7
NtRp961
((dp962
S'GO:0004725'
p963
I01
sS'GO:0016791'
p964
I01
stbaa(lp965
S'15962002'
p966
ag5
(g6
g7
NtRp967
((dp968
S'GO:0005083'
p969
I01
sS'GO:0008270'
p970
I01
sS'GO:0005515'
p971
I01
stbaa(lp972
S'11447112'
p973
ag5
(g6
g7
NtRp974
((dp975
S'GO:0005515'
p976
I01
stbaa(lp977
S'9739079'
p978
ag5
(g6
g7
NtRp979
((dp980
S'GO:0048365'
p981
I01
sS'GO:0005099'
p982
I01
sS'GO:0005515'
p983
I01
stbaa(lp984
S'16968699'
p985
ag5
(g6
g7
NtRp986
((dp987
S'GO:0048365'
p988
I01
sS'GO:0019904'
p989
I01
sS'GO:0005515'
p990
I01
stbaa(lp991
S'15470506'
p992
ag5
(g6
g7
NtRp993
((dp994
S'GO:0030676'
p995
I01
sS'GO:0048365'
p996
I01
sS'GO:0005515'
p997
I01
stbaa(lp998
S'22264729'
p999
ag5
(g6
g7
NtRp1000
((dp1001
S'GO:0031681'
p1002
I01
sS'GO:0048365'
p1003
I01
sS'GO:0005515'
p1004
I01
stbaa(lp1005
S'16781008'
p1006
ag5
(g6
g7
NtRp1007
((dp1008
S'GO:0005515'
p1009
I01
stbaa(lp1010
S'15668169'
p1011
ag5
(g6
g7
NtRp1012
((dp1013
S'GO:0043325'
p1014
I01
sS'GO:0005547'
p1015
I01
stbaa(lp1016
S'8089184'
p1017
ag5
(g6
g7
NtRp1018
((dp1019
S'GO:0008047'
p1020
I01
stbaa(lp1021
S'11686306'
p1022
ag5
(g6
g7
NtRp1023
((dp1024
S'GO:0005525'
p1025
I01
sS'GO:0000166'
p1026
I01
stbaa(lp1027
S'8065317'
p1028
ag5
(g6
g7
NtRp1029
((dp1030
S'GO:0003677'
p1031
I01
stbaa(lp1032
S'8125261'
p1033
ag5
(g6
g7
NtRp1034
((dp1035
S'GO:0003700'
p1036
I01
stbaa(lp1037
S'8448193'
p1038
ag5
(g6
g7
NtRp1039
((dp1040
S'GO:0004776'
p1041
I01
stbaa(lp1042
S'8950185'
p1043
ag5
(g6
g7
NtRp1044
((dp1045
S'GO:0004748'
p1046
I01
stbaa(lp1047
S'12062087'
p1048
ag5
(g6
g7
NtRp1049
((dp1050
S'GO:0031434'
p1051
I01
sS'GO:0004708'
p1052
I01
sS'GO:0005515'
p1053
I01
sS'GO:0004672'
p1054
I01
stbaa(lp1055
S'20197546'
p1056
ag5
(g6
g7
NtRp1057
((dp1058
S'GO:0016887'
p1059
I01
sS'GO:0004672'
p1060
I01
stbaa(lp1061
S'11278493'
p1062
ag5
(g6
g7
NtRp1063
((dp1064
S'GO:0004674'
p1065
I01
sS'GO:0005524'
p1066
I01
stbaa(lp1067
S'3027076'
p1068
ag5
(g6
g7
NtRp1069
((dp1070
S'GO:0016905'
p1071
I01
stbaa(lp1072
S'7822274'
p1073
ag5
(g6
g7
NtRp1074
((dp1075
S'GO:0016905'
p1076
I01
stbaa(lp1077
S'11959103'
p1078
ag5
(g6
g7
NtRp1079
((dp1080
S'GO:0051015'
p1081
I01
stbaa(lp1082
S'15545285'
p1083
ag5
(g6
g7
NtRp1084
((dp1085
S'GO:0051015'
p1086
I01
stbaa(lp1087
S'16372899'
p1088
ag5
(g6
g7
NtRp1089
((dp1090
S'GO:0051015'
p1091
I01
stbaa(lp1092
S'7729526'
p1093
ag5
(g6
g7
NtRp1094
((dp1095
S'GO:0005509'
p1096
I01
stbaa(lp1097
S'10771103'
p1098
ag5
(g6
g7
NtRp1099
((dp1100
S'GO:0005509'
p1101
I01
sS'GO:0005515'
p1102
I01
stbaa(lp1103
S'10896781'
p1104
ag5
(g6
g7
NtRp1105
((dp1106
S'GO:0005515'
p1107
I01
stbaa(lp1108
S'18384150'
p1109
ag5
(g6
g7
NtRp1110
((dp1111
S'GO:0046871'
p1112
I01
sS'GO:0016936'
p1113
I01
stbaa(lp1114
S'9836437'
p1115
ag5
(g6
g7
NtRp1116
((dp1117
S'GO:0003735'
p1118
I01
stbaa(lp1119
S'11032815'
p1120
ag5
(g6
g7
NtRp1121
((dp1122
S'GO:0004674'
p1123
I01
stbaa(lp1124
S'22020250'
p1125
ag5
(g6
g7
NtRp1126
((dp1127
S'GO:0004674'
p1128
I01
sS'GO:0004672'
p1129
I01
stbaa(lp1130
S'9784196'
p1131
ag5
(g6
g7
NtRp1132
((dp1133
S'GO:0005524'
p1134
I01
stbaa(lp1135
S'2580557'
p1136
ag5
(g6
g7
NtRp1137
((dp1138
S'GO:0016889'
p1139
I01
stbaa(lp1140
S'21247092'
p1141
ag5
(g6
g7
NtRp1142
((dp1143
S'GO:0031545'
p1144
I01
sS'GO:0033830'
p1145
I01
sS'GO:0005515'
p1146
I01
stbaa(lp1147
S'20457612'
p1148
ag5
(g6
g7
NtRp1149
((dp1150
S'GO:0005515'
p1151
I01
stbaa(lp1152
S'12220630'
p1153
ag5
(g6
g7
NtRp1154
((dp1155
S'GO:0005515'
p1156
I01
stbaa(lp1157
S'18305004'
p1158
ag5
(g6
g7
NtRp1159
((dp1160
S'GO:0016791'
p1161
I01
sS'GO:0005515'
p1162
I01
stbaa(lp1163
S'8838672'
p1164
ag5
(g6
g7
NtRp1165
((dp1166
S'GO:0046961'
p1167
I01
stbaa(lp1168
S'10205164'
p1169
ag5
(g6
g7
NtRp1170
((dp1171
S'GO:0004674'
p1172
I01
stbaa(lp1173
S'17635933'
p1174
ag5
(g6
g7
NtRp1175
((dp1176
S'GO:0004674'
p1177
I01
stbaa(lp1178
S'9226449'
p1179
ag5
(g6
g7
NtRp1180
((dp1181
S'GO:0005524'
p1182
I01
stbaa(lp1183
S'16138906'
p1184
ag5
(g6
g7
NtRp1185
((dp1186
S'GO:0005515'
p1187
I01
stbaa(lp1188
S'22073313'
p1189
ag5
(g6
g7
NtRp1190
((dp1191
S'GO:0070273'
p1192
I01
sS'GO:0001786'
p1193
I01
sS'GO:0032266'
p1194
I01
sS'GO:0005515'
p1195
I01
sS'GO:0010314'
p1196
I01
stbaa(lp1197
S'14706075'
p1198
ag5
(g6
g7
NtRp1199
((dp1200
S'GO:0005509'
p1201
I01
stbaa(lp1202
S'17057715'
p1203
ag5
(g6
g7
NtRp1204
((dp1205
S'GO:0005509'
p1206
I01
sS'GO:0042803'
p1207
I01
stbaa(lp1208
S'9639652'
p1209
ag5
(g6
g7
NtRp1210
((dp1211
S'GO:0000182'
p1212
I01
stbaa(lp1213
S'3312238'
p1214
ag5
(g6
g7
NtRp1215
((dp1216
S'GO:0030246'
p1217
I01
sS'GO:0051015'
p1218
I01
stbaa(lp1219
S'18522444'
p1220
ag5
(g6
g7
NtRp1221
((dp1222
S'GO:0043495'
p1223
I01
sS'GO:0051015'
p1224
I01
stbaa(lp1225
S'2060029'
p1226
ag5
(g6
g7
NtRp1227
((dp1228
S'GO:0051015'
p1229
I01
stbaa(lp1230
S'8432731'
p1231
ag5
(g6
g7
NtRp1232
((dp1233
S'GO:0051015'
p1234
I01
stbaa(lp1235
S'17897809'
p1236
ag5
(g6
g7
NtRp1237
((dp1238
S'GO:0048365'
p1239
I01
sS'GO:0005516'
p1240
I01
stbaa(lp1241
S'22050483'
p1242
ag5
(g6
g7
NtRp1243
((dp1244
S'GO:0005515'
p1245
I01
stbaa(lp1246
S'22992464'
p1247
ag5
(g6
g7
NtRp1248
((dp1249
S'GO:0005515'
p1250
I01
stbaa(lp1251
S'10878573'
p1252
ag5
(g6
g7
NtRp1253
((dp1254
S'GO:0016303'
p1255
I01
stbaa(lp1256
S'7499325'
p1257
ag5
(g6
g7
NtRp1258
((dp1259
S'GO:0015085'
p1260
I01
sS'GO:0005388'
p1261
I01
sS'GO:0005509'
p1262
I01
sS'GO:0005524'
p1263
I01
stbaa(lp1264
S'9885293'
p1265
ag5
(g6
g7
NtRp1266
((dp1267
S'GO:0005388'
p1268
I01
stbaa(lp1269
S'9421912'
p1270
ag5
(g6
g7
NtRp1271
((dp1272
S'GO:0008553'
p1273
I01
sS'GO:0016887'
p1274
I01
sS'GO:0005524'
p1275
I01
stbaa(lp1276
S'9017597'
p1277
ag5
(g6
g7
NtRp1278
((dp1279
S'GO:0005509'
p1280
I01
sS'GO:0051015'
p1281
I01
stbaa(lp1282
S'11719559'
p1283
ag5
(g6
g7
NtRp1284
((dp1285
S'GO:0042626'
p1286
I01
sS'GO:0031210'
p1287
I01
stbaa(lp1288
S'10747962'
p1289
ag5
(g6
g7
NtRp1290
((dp1291
S'GO:0005509'
p1292
I01
stbaa(lp1293
S'7744252'
p1294
ag5
(g6
g7
NtRp1295
((dp1296
S'GO:0042626'
p1297
I01
sS'GO:0008236'
p1298
I01
stbaa(lp1299
S'20668166'
p1300
ag5
(g6
g7
NtRp1301
((dp1302
S'GO:0051015'
p1303
I01
sS'GO:0005515'
p1304
I01
stbaa(lp1305
S'18650439'
p1306
ag5
(g6
g7
NtRp1307
((dp1308
S'GO:0030898'
p1309
I01
sS'GO:0051015'
p1310
I01
sS'GO:0043531'
p1311
I01
sS'GO:0000146'
p1312
I01
sS'GO:0005524'
p1313
I01
stbaa(lp1314
S'10564654'
p1315
ag5
(g6
g7
NtRp1316
((dp1317
S'GO:0005515'
p1318
I01
stbaa(lp1319
S'17416892'
p1320
ag5
(g6
g7
NtRp1321
((dp1322
S'GO:0005199'
p1323
I01
sS'GO:0005515'
p1324
I01
stbaa(lp1325
S'11690648'
p1326
ag5
(g6
g7
NtRp1327
((dp1328
S'GO:0003755'
p1329
I01
sS'GO:0005515'
p1330
I01
stbaa(lp1331
S'9177484'
p1332
ag5
(g6
g7
NtRp1333
((dp1334
S'GO:0003918'
p1335
I01
sS'GO:0005524'
p1336
I01
sS'GO:0003677'
p1337
I01
stbaa(lp1338
S'4300706'
p1339
ag5
(g6
g7
NtRp1340
((dp1341
S'GO:0003872'
p1342
I01
stbaa(lp1343
S'7589492'
p1344
ag5
(g6
g7
NtRp1345
((dp1346
S'GO:0003872'
p1347
I01
stbaa(lp1348
S'7813455'
p1349
ag5
(g6
g7
NtRp1350
((dp1351
S'GO:0003872'
p1352
I01
stbaa(lp1353
S'10026266'
p1354
ag5
(g6
g7
NtRp1355
((dp1356
S'GO:0015631'
p1357
I01
stbaa(lp1358
S'9115238'
p1359
ag5
(g6
g7
NtRp1360
((dp1361
S'GO:0016905'
p1362
I01
stbaa(lp1363
S'1328220'
p1364
ag5
(g6
g7
NtRp1365
((dp1366
S'GO:0005244'
p1367
I01
sS'GO:0015288'
p1368
I01
stbaa(lp1369
S'1326523'
p1370
ag5
(g6
g7
NtRp1371
((dp1372
S'GO:0004435'
p1373
I01
stbaa(lp1374
S'8156999'
p1375
ag5
(g6
g7
NtRp1376
((dp1377
S'GO:0004435'
p1378
I01
stbaa(lp1379
S'1448100'
p1380
ag5
(g6
g7
NtRp1381
((dp1382
S'GO:0004674'
p1383
I01
stbaa(lp1384
S'10556070'
p1385
ag5
(g6
g7
NtRp1386
((dp1387
S'GO:0004016'
p1388
I01
stbaa(lp1389
S'8619862'
p1390
ag5
(g6
g7
NtRp1391
((dp1392
S'GO:0004016'
p1393
I01
stbaa(lp1394
S'14718564'
p1395
ag5
(g6
g7
NtRp1396
((dp1397
S'GO:0046982'
p1398
I01
sS'GO:0004016'
p1399
I01
stbaa(lp1400
S'3972891'
p1401
ag5
(g6
g7
NtRp1402
((dp1403
S'GO:0003785'
p1404
I01
sS'GO:0051015'
p1405
I01
stbaa(lp1406
S'8635456'
p1407
ag5
(g6
g7
NtRp1408
((dp1409
S'GO:0051015'
p1410
I01
sS'GO:0005537'
p1411
I01
sS'GO:0042803'
p1412
I01
stbaa(lp1413
S'8408201'
p1414
ag5
(g6
g7
NtRp1415
((dp1416
S'GO:0051015'
p1417
I01
stbaa(lp1418
S'16443752'
p1419
ag5
(g6
g7
NtRp1420
((dp1421
S'GO:0030898'
p1422
I01
sS'GO:0000146'
p1423
I01
sS'GO:0005524'
p1424
I01
stbaa(lp1425
S'12032065'
p1426
ag5
(g6
g7
NtRp1427
((dp1428
S'GO:0003779'
p1429
I01
sS'GO:0005524'
p1430
I01
stbaa(lp1431
S'17584488'
p1432
ag5
(g6
g7
NtRp1433
((dp1434
S'GO:0048365'
p1435
I01
stbaa(lp1436
S'8660315'
p1437
ag5
(g6
g7
NtRp1438
((dp1439
S'GO:0003934'
p1440
I01
sS'GO:0004757'
p1441
I01
sS'GO:0003874'
p1442
I01
stbaa(lp1443
S'15740615'
p1444
ag5
(g6
g7
NtRp1445
((dp1446
S'GO:0005522'
p1447
I01
stbaa(lp1448
S'22647904'
p1449
ag5
(g6
g7
NtRp1450
((dp1451
S'GO:0004467'
p1452
I01
stbaa(lp1453
S'12134070'
p1454
ag5
(g6
g7
NtRp1455
((dp1456
S'GO:0008017'
p1457
I01
sS'GO:0005515'
p1458
I01
sS'GO:0042803'
p1459
I01
stbaa(lp1460
S'15186508'
p1461
ag5
(g6
g7
NtRp1462
((dp1463
S'GO:0045502'
p1464
I01
sS'GO:0005515'
p1465
I01
stbaa(lp1466
S'11726513'
p1467
ag5
(g6
g7
NtRp1468
((dp1469
S'GO:0005509'
p1470
I01
stbaa(lp1471
S'15897458'
p1472
ag5
(g6
g7
NtRp1473
((dp1474
S'GO:0004860'
p1475
I01
sS'GO:0019901'
p1476
I01
sS'GO:0000062'
p1477
I01
sS'GO:0009784'
p1478
I01
sS'GO:0008236'
p1479
I01
stbaa(lp1480
S'8986798'
p1481
ag5
(g6
g7
NtRp1482
((dp1483
S'GO:0004674'
p1484
I01
sS'GO:0042626'
p1485
I01
sS'GO:0008236'
p1486
I01
stbaa(lp1487
S'15752425'
p1488
ag5
(g6
g7
NtRp1489
((dp1490
S'GO:0004115'
p1491
I01
stbaa(lp1492
S'9435289'
p1493
ag5
(g6
g7
NtRp1494
((dp1495
S'GO:0047555'
p1496
I01
sS'GO:0004115'
p1497
I01
stbaa(lp1498
S'17448496'
p1499
ag5
(g6
g7
NtRp1500
((dp1501
S'GO:0004797'
p1502
I01
sS'GO:0004138'
p1503
I01
sS'GO:0004136'
p1504
I01
stbaa(lp1505
S'23351158'
p1506
ag5
(g6
g7
NtRp1507
((dp1508
S'GO:0042803'
p1509
I01
stbaa(lp1510
S'17207566'
p1511
ag5
(g6
g7
NtRp1512
((dp1513
S'GO:0004526'
p1514
I01
sS'GO:0000049'
p1515
I01
sS'GO:0003723'
p1516
I01
stbaa(lp1517
S'18603769'
p1518
ag5
(g6
g7
NtRp1519
((dp1520
S'GO:0004222'
p1521
I01
stbaa(lp1522
S'18218133'
p1523
ag5
(g6
g7
NtRp1524
((dp1525
S'GO:0003958'
p1526
I01
sS'GO:0050661'
p1527
I01
sS'GO:0050660'
p1528
I01
sS'GO:0010181'
p1529
I01
stbaa(lp1530
S'18252726'
p1531
ag5
(g6
g7
NtRp1532
((dp1533
S'GO:0008168'
p1534
I01
stbaa(lp1535
S'22035794'
p1536
ag5
(g6
g7
NtRp1537
((dp1538
S'GO:0016740'
p1539
I01
stbaa(lp1540
S'11336701'
p1541
ag5
(g6
g7
NtRp1542
((dp1543
S'GO:0042803'
p1544
I01
stbaa(lp1545
S'17940044'
p1546
ag5
(g6
g7
NtRp1547
((dp1548
S'GO:0008976'
p1549
I01
stbaa(lp1550
S'12456012'
p1551
ag5
(g6
g7
NtRp1552
((dp1553
S'GO:0005215'
p1554
I01
sS'GO:0042626'
p1555
I01
sS'GO:0015446'
p1556
I01
sS'GO:0005524'
p1557
I01
sS'GO:0008236'
p1558
I01
stbaa(lp1559
S'18621026'
p1560
ag5
(g6
g7
NtRp1561
((dp1562
S'GO:0009922'
p1563
I01
stbaa(lp1564
S'21606208'
p1565
ag5
(g6
g7
NtRp1566
((dp1567
S'GO:0003779'
p1568
I01
stbaa(lp1569
S'21134080'
p1570
ag5
(g6
g7
NtRp1571
((dp1572
S'GO:0005515'
p1573
I01
stbaa(lp1574
S'16112620'
p1575
ag5
(g6
g7
NtRp1576
((dp1577
S'GO:0008408'
p1578
I01
sS'GO:0004003'
p1579
I01
sS'GO:0003677'
p1580
I01
sS'GO:0003910'
p1581
I01
sS'GO:0004672'
p1582
I01
sS'GO:0003690'
p1583
I01
sS'GO:0005524'
p1584
I01
stbaa(lp1585
S'16368684'
p1586
ag5
(g6
g7
NtRp1587
((dp1588
S'GO:0004748'
p1589
I01
stbaa(lp1590
S'12464622'
p1591
ag5
(g6
g7
NtRp1592
((dp1593
S'GO:0034485'
p1594
I01
sS'GO:0004439'
p1595
I01
sS'GO:0004445'
p1596
I01
stbaa(lp1597
S'11784104'
p1598
ag5
(g6
g7
NtRp1599
((dp1600
S'GO:0003876'
p1601
I01
stbaa(lp1602
S'18515835'
p1603
ag5
(g6
g7
NtRp1604
((dp1605
S'GO:0001104'
p1606
I01
sS'GO:0003713'
p1607
I01
stbaa(lp1608
S'12871696'
p1609
ag5
(g6
g7
NtRp1610
((dp1611
S'GO:0005215'
p1612
I01
sS'GO:0004028'
p1613
I01
sS'GO:0005525'
p1614
I01
stbaa(lp1615
S'11488929'
p1616
ag5
(g6
g7
NtRp1617
((dp1618
S'GO:0030248'
p1619
I01
stbaa(lp1620
S'15309638'
p1621
ag5
(g6
g7
NtRp1622
((dp1623
S'GO:0030248'
p1624
I01
stbaa(lp1625
S'15987738'
p1626
ag5
(g6
g7
NtRp1627
((dp1628
S'GO:0004674'
p1629
I01
sS'GO:0005524'
p1630
I01
stbaa(lp1631
S'23938384'
p1632
ag5
(g6
g7
NtRp1633
((dp1634
S'GO:0005515'
p1635
I01
stbaa(lp1636
S'18827012'
p1637
ag5
(g6
g7
NtRp1638
((dp1639
S'GO:0030276'
p1640
I01
sS'GO:0005546'
p1641
I01
stbaa(lp1642
S'16243037'
p1643
ag5
(g6
g7
NtRp1644
((dp1645
S'GO:0004003'
p1646
I01
sS'GO:0004672'
p1647
I01
sS'GO:0003712'
p1648
I01
sS'GO:0003677'
p1649
I01
sS'GO:0003690'
p1650
I01
sS'GO:0005524'
p1651
I01
stbaa(lp1652
S'21458438'
p1653
ag5
(g6
g7
NtRp1654
((dp1655
S'GO:0000976'
p1656
I01
stbaa(lp1657
S'16410410'
p1658
ag5
(g6
g7
NtRp1659
((dp1660
S'GO:0046982'
p1661
I01
sS'GO:0042803'
p1662
I01
stbaa(lp1663
S'16396914'
p1664
ag5
(g6
g7
NtRp1665
((dp1666
S'GO:0043565'
p1667
I01
stbaa(lp1668
S'22253818'
p1669
ag5
(g6
g7
NtRp1670
((dp1671
S'GO:0044212'
p1672
I01
stbaa(lp1673
S'16672332'
p1674
ag5
(g6
g7
NtRp1675
((dp1676
S'GO:0004965'
p1677
I01
sS'GO:0008066'
p1678
I01
stbaa(lp1679
S'15003488'
p1680
ag5
(g6
g7
NtRp1681
((dp1682
S'GO:0004148'
p1683
I01
stbaa(lp1684
S'16151245'
p1685
ag5
(g6
g7
NtRp1686
((dp1687
S'GO:0005261'
p1688
I01
sS'GO:0005262'
p1689
I01
stbaa(lp1690
S'12697064'
p1691
ag5
(g6
g7
NtRp1692
((dp1693
S'GO:0004694'
p1694
I01
sS'GO:0003743'
p1695
I01
sS'GO:0005085'
p1696
I01
sS'GO:0005524'
p1697
I01
sS'GO:0005525'
p1698
I01
stbaa(lp1699
S'15950752'
p1700
ag5
(g6
g7
NtRp1701
((dp1702
S'GO:0050661'
p1703
I01
sS'GO:0050660'
p1704
I01
sS'GO:0016175'
p1705
I01
sS'GO:0020037'
p1706
I01
sS'GO:0016176'
p1707
I01
stbaa(lp1708
S'20231486'
p1709
ag5
(g6
g7
NtRp1710
((dp1711
S'GO:0003824'
p1712
I01
stbaa(lp1713
S'15073273'
p1714
ag5
(g6
g7
NtRp1715
((dp1716
S'GO:0051219'
p1717
I01
sS'GO:0003723'
p1718
I01
sS'GO:0003677'
p1719
I01
stbaa(lp1720
S'16356468'
p1721
ag5
(g6
g7
NtRp1722
((dp1723
S'GO:0043565'
p1724
I01
sS'GO:0004329'
p1725
I01
sS'GO:0005524'
p1726
I01
stbaa(lp1727
S'10987137'
p1728
ag5
(g6
g7
NtRp1729
((dp1730
S'GO:0004757'
p1731
I01
stbaa(lp1732
S'15896778'
p1733
ag5
(g6
g7
NtRp1734
((dp1735
S'GO:0004757'
p1736
I01
stbaa(lp1737
S'16678813'
p1738
ag5
(g6
g7
NtRp1739
((dp1740
S'GO:0050661'
p1741
I01
sS'GO:0004364'
p1742
I01
sS'GO:0004362'
p1743
I01
sS'GO:0043295'
p1744
I01
stbaa(lp1745
S'18039932'
p1746
ag5
(g6
g7
NtRp1747
((dp1748
S'GO:0005515'
p1749
I01
sS'GO:0046582'
p1750
I01
stbaa(lp1751
S'21441344'
p1752
ag5
(g6
g7
NtRp1753
((dp1754
S'GO:0005515'
p1755
I01
stbaa(lp1756
S'22902739'
p1757
ag5
(g6
g7
NtRp1758
((dp1759
S'GO:0005515'
p1760
I01
stbaa(lp1761
S'15014435'
p1762
ag5
(g6
g7
NtRp1763
((dp1764
S'GO:0051015'
p1765
I01
sS'GO:0042803'
p1766
I01
stbaa(lp1767
S'8752217'
p1768
ag5
(g6
g7
NtRp1769
((dp1770
S'GO:0051015'
p1771
I01
sS'GO:0042803'
p1772
I01
stbaa(lp1773
S'22311068'
p1774
ag5
(g6
g7
NtRp1775
((dp1776
S'GO:0000287'
p1777
I01
sS'GO:0030378'
p1778
I01
stbaa(lp1779
S'23269477'
p1780
ag5
(g6
g7
NtRp1781
((dp1782
S'GO:0030170'
p1783
I01
stbaa(lp1784
S'22090348'
p1785
ag5
(g6
g7
NtRp1786
((dp1787
S'GO:0030527'
p1788
I01
stbaa(lp1789
S'16469305'
p1790
ag5
(g6
g7
NtRp1791
((dp1792
S'GO:0042800'
p1793
I01
stbaa(lp1794
S'16571632'
p1795
ag5
(g6
g7
NtRp1796
((dp1797
S'GO:0043565'
p1798
I01
sS'GO:0003677'
p1799
I01
stbaa(lp1800
S'17611045'
p1801
ag5
(g6
g7
NtRp1802
((dp1803
S'GO:0004526'
p1804
I01
stbaa(lp1805
S'17353263'
p1806
ag5
(g6
g7
NtRp1807
((dp1808
S'GO:0004722'
p1809
I01
sS'GO:0005515'
p1810
I01
stbaa(lp1811
S'18657170'
p1812
ag5
(g6
g7
NtRp1813
((dp1814
S'GO:0004672'
p1815
I01
stbaa(lp1816
S'8898113'
p1817
ag5
(g6
g7
NtRp1818
((dp1819
S'GO:0004713'
p1820
I01
sS'GO:0005524'
p1821
I01
stbaa(lp1822
S'21393547'
p1823
ag5
(g6
g7
NtRp1824
((dp1825
S'GO:0045294'
p1826
I01
sS'GO:0051015'
p1827
I01
sS'GO:0008013'
p1828
I01
stbaa(lp1829
S'10224056'
p1830
ag5
(g6
g7
NtRp1831
((dp1832
S'GO:0051509'
p1833
I01
sS'GO:0051508'
p1834
I01
sS'GO:0051505'
p1835
I01
sS'GO:0051507'
p1836
I01
sS'GO:0051506'
p1837
I01
stbaa(lp1838
S'21087028'
p1839
ag5
(g6
g7
NtRp1840
((dp1841
S'GO:0033204'
p1842
I01
stbaa(lp1843
S'19833731'
p1844
ag5
(g6
g7
NtRp1845
((dp1846
S'GO:0004931'
p1847
I01
sS'GO:0015276'
p1848
I01
stbaa(lp1849
S'16777069'
p1850
ag5
(g6
g7
NtRp1851
((dp1852
S'GO:0005516'
p1853
I01
stbaa(lp1854
S'15689527'
p1855
ag5
(g6
g7
NtRp1856
((dp1857
S'GO:0003886'
p1858
I01
sS'GO:0003677'
p1859
I01
stbaa(lp1860
S'16282589'
p1861
ag5
(g6
g7
NtRp1862
((dp1863
S'GO:0003886'
p1864
I01
stbaa(lp1865
S'16400165'
p1866
ag5
(g6
g7
NtRp1867
((dp1868
S'GO:0003886'
p1869
I01
stbaa(lp1870
S'18676953'
p1871
ag5
(g6
g7
NtRp1872
((dp1873
S'GO:0016791'
p1874
I01
stbaa(lp1875
S'10978342'
p1876
ag5
(g6
g7
NtRp1877
((dp1878
S'GO:0005515'
p1879
I01
stbaa(lp1880
S'15643062'
p1881
ag5
(g6
g7
NtRp1882
((dp1883
S'GO:0004340'
p1884
I01
stbaa(lp1885
S'9056774'
p1886
ag5
(g6
g7
NtRp1887
((dp1888
S'GO:0005099'
p1889
I01
stbaa(lp1890
S'9813063'
p1891
ag5
(g6
g7
NtRp1892
((dp1893
S'GO:0004630'
p1894
I01
stbaa(lp1895
S'21871890'
p1896
ag5
(g6
g7
NtRp1897
((dp1898
S'GO:0004146'
p1899
I01
sS'GO:0004155'
p1900
I01
stbaa(lp1901
S'7729573'
p1902
ag5
(g6
g7
NtRp1903
((dp1904
S'GO:0005201'
p1905
I01
sS'GO:0030248'
p1906
I01
stbaa(lp1907
S'18638468'
p1908
ag5
(g6
g7
NtRp1909
((dp1910
S'GO:0051287'
p1911
I01
sS'GO:0070402'
p1912
I01
stbaa(lp1913
S'12890554'
p1914
ag5
(g6
g7
NtRp1915
((dp1916
S'GO:0030246'
p1917
I01
sS'GO:0051015'
p1918
I01
stbaa(lp1919
S'23923009'
p1920
ag5
(g6
g7
NtRp1921
((dp1922
S'GO:0008649'
p1923
I01
stbaa(lp1924
S'12963116'
p1925
ag5
(g6
g7
NtRp1926
((dp1927
S'GO:0008234'
p1928
I01
stbaa(lp1929
S'20170636'
p1930
ag5
(g6
g7
NtRp1931
((dp1932
S'GO:0003976'
p1933
I01
stbaa(lp1934
S'16675552'
p1935
ag5
(g6
g7
NtRp1936
((dp1937
S'GO:0005515'
p1938
I01
stbaa(lp1939
S'16599905'
p1940
ag5
(g6
g7
NtRp1941
((dp1942
S'GO:0004512'
p1943
I01
stbaa(lp1944
S'18413611'
p1945
ag5
(g6
g7
NtRp1946
((dp1947
S'GO:0034416'
p1948
I01
sS'GO:0034417'
p1949
I01
stbaa(lp1950
S'17314411'
p1951
ag5
(g6
g7
NtRp1952
((dp1953
S'GO:0005515'
p1954
I01
stbaa(lp1955
S'18261908'
p1956
ag5
(g6
g7
NtRp1957
((dp1958
S'GO:0005515'
p1959
I01
stbaa(lp1960
S'10727946'
p1961
ag5
(g6
g7
NtRp1962
((dp1963
S'GO:0005515'
p1964
I01
sS'GO:0005483'
p1965
I01
stbaa(lp1966
S'10749929'
p1967
ag5
(g6
g7
NtRp1968
((dp1969
S'GO:0008270'
p1970
I01
stbaa(lp1971
S'14704357'
p1972
ag5
(g6
g7
NtRp1973
((dp1974
S'GO:0003899'
p1975
I01
sS'GO:0003697'
p1976
I01
stbaa(lp1977
S'15993406'
p1978
ag5
(g6
g7
NtRp1979
((dp1980
S'GO:0004357'
p1981
I01
stbaa(lp1982
S'16003496'
p1983
ag5
(g6
g7
NtRp1984
((dp1985
S'GO:0003677'
p1986
I01
stbaa(lp1987
S'16963635'
p1988
ag5
(g6
g7
NtRp1989
((dp1990
S'GO:0003993'
p1991
I01
stbaa(lp1992
S'22811266'
p1993
ag5
(g6
g7
NtRp1994
((dp1995
S'GO:0003700'
p1996
I01
sS'GO:0043565'
p1997
I01
stbaa(lp1998
S'10491107'
p1999
ag5
(g6
g7
NtRp2000
((dp2001
S'GO:0008601'
p2002
I01
sS'GO:0004722'
p2003
I01
sS'GO:0017018'
p2004
I01
stbaa(lp2005
S'21562226'
p2006
ag5
(g6
g7
NtRp2007
((dp2008
S'GO:0004722'
p2009
I01
stbaa(lp2010
S'8662604'
p2011
ag5
(g6
g7
NtRp2012
((dp2013
S'GO:0008417'
p2014
I01
stbaa(lp2015
S'12244067'
p2016
ag5
(g6
g7
NtRp2017
((dp2018
S'GO:0016263'
p2019
I01
stbaa(lp2020
S'11423539'
p2021
ag5
(g6
g7
NtRp2022
((dp2023
S'GO:0031127'
p2024
I01
stbaa(lp2025
S'15351882'
p2026
ag5
(g6
g7
NtRp2027
((dp2028
S'GO:0004725'
p2029
I01
stbaa(lp2030
S'16987957'
p2031
ag5
(g6
g7
NtRp2032
((dp2033
S'GO:0005515'
p2034
I01
stbaa(lp2035
S'16325504'
p2036
ag5
(g6
g7
NtRp2037
((dp2038
S'GO:0005546'
p2039
I01
stbaa(lp2040
S'15769592'
p2041
ag5
(g6
g7
NtRp2042
((dp2043
S'GO:0005509'
p2044
I01
stbaa(lp2045
S'9883904'
p2046
ag5
(g6
g7
NtRp2047
((dp2048
S'GO:0005509'
p2049
I01
stbaa(lp2050
S'22864416'
p2051
ag5
(g6
g7
NtRp2052
((dp2053
S'GO:0052621'
p2054
I01
stbaa(lp2055
S'9832508'
p2056
ag5
(g6
g7
NtRp2057
((dp2058
S'GO:0004709'
p2059
I01
stbaa(lp2060
S'11274054'
p2061
ag5
(g6
g7
NtRp2062
((dp2063
S'GO:0004674'
p2064
I01
sS'GO:0004713'
p2065
I01
stbaa(lp2066
S'17442478'
p2067
ag5
(g6
g7
NtRp2068
((dp2069
S'GO:0005313'
p2070
I01
sS'GO:0005509'
p2071
I01
sS'GO:0015183'
p2072
I01
stbaa(lp2073
S'15325281'
p2074
ag5
(g6
g7
NtRp2075
((dp2076
S'GO:0005515'
p2077
I01
stbaa(lp2078
S'17391056'
p2079
ag5
(g6
g7
NtRp2080
((dp2081
S'GO:0003723'
p2082
I01
sS'GO:0003677'
p2083
I01
stbaa(lp2084
S'16524908'
p2085
ag5
(g6
g7
NtRp2086
((dp2087
S'GO:0046982'
p2088
I01
stbaa(lp2089
S'16495217'
p2090
ag5
(g6
g7
NtRp2091
((dp2092
S'GO:0035250'
p2093
I01
stbaa(lp2094
S'18768936'
p2095
ag5
(g6
g7
NtRp2096
((dp2097
S'GO:0004784'
p2098
I01
stbaa(lp2099
S'10974109'
p2100
ag5
(g6
g7
NtRp2101
((dp2102
S'GO:0008117'
p2103
I01
stbaa(lp2104
S'18339368'
p2105
ag5
(g6
g7
NtRp2106
((dp2107
S'GO:0003700'
p2108
I01
sS'GO:0043565'
p2109
I01
stbaa(lp2110
S'15155803'
p2111
ag5
(g6
g7
NtRp2112
((dp2113
S'GO:0015450'
p2114
I01
stbaa(lp2115
S'18992223'
p2116
ag5
(g6
g7
NtRp2117
((dp2118
S'GO:0003899'
p2119
I01
stbaa(lp2120
S'16769729'
p2121
ag5
(g6
g7
NtRp2122
((dp2123
S'GO:0017034'
p2124
I01
stbaa(lp2125
S'15827084'
p2126
ag5
(g6
g7
NtRp2127
((dp2128
S'GO:0030553'
p2129
I01
sS'GO:0030552'
p2130
I01
stbaa(lp2131
S'20406883'
p2132
ag5
(g6
g7
NtRp2133
((dp2134
S'GO:0005515'
p2135
I01
stbaa(lp2136
S'16741867'
p2137
ag5
(g6
g7
NtRp2138
((dp2139
S'GO:0003779'
p2140
I01
stbaa(lp2141
S'17237363'
p2142
ag5
(g6
g7
NtRp2143
((dp2144
S'GO:0043565'
p2145
I01
stbaa(lp2146
S'14595117'
p2147
ag5
(g6
g7
NtRp2148
((dp2149
S'GO:0005516'
p2150
I01
stbaa(lp2151
S'17664333'
p2152
ag5
(g6
g7
NtRp2153
((dp2154
S'GO:0004713'
p2155
I01
sS'GO:0005524'
p2156
I01
stbaa(lp2157
S'10331990'
p2158
ag5
(g6
g7
NtRp2159
((dp2160
S'GO:0003700'
p2161
I01
stbaa(lp2162
S'18611962'
p2163
ag5
(g6
g7
NtRp2164
((dp2165
S'GO:0008234'
p2166
I01
sS'GO:0005515'
p2167
I01
stbaa(lp2168
S'9729488'
p2169
ag5
(g6
g7
NtRp2170
((dp2171
S'GO:0003700'
p2172
I01
stbaa(lp2173
S'14732403'
p2174
ag5
(g6
g7
NtRp2175
((dp2176
S'GO:0001646'
p2177
I01
stbaa(lp2178
S'9191038'
p2179
ag5
(g6
g7
NtRp2180
((dp2181
S'GO:0005524'
p2182
I01
stbaa(lp2183
S'18160177'
p2184
ag5
(g6
g7
NtRp2185
((dp2186
S'GO:0016887'
p2187
I01
sS'GO:0003777'
p2188
I01
sS'GO:0042803'
p2189
I01
stbaa(lp2190
S'16899077'
p2191
ag5
(g6
g7
NtRp2192
((dp2193
S'GO:0004791'
p2194
I01
stbaa(lp2195
S'18673380'
p2196
ag5
(g6
g7
NtRp2197
((dp2198
S'GO:0008601'
p2199
I01
stbaa(lp2200
S'15821735'
p2201
ag5
(g6
g7
NtRp2202
((dp2203
S'GO:0003723'
p2204
I01
stbaa(lp2205
S'20062541'
p2206
ag5
(g6
g7
NtRp2207
((dp2208
S'GO:0005096'
p2209
I01
stbaa(lp2210
S'15821129'
p2211
ag5
(g6
g7
NtRp2212
((dp2213
S'GO:0004630'
p2214
I01
stbaa(lp2215
S'16339076'
p2216
ag5
(g6
g7
NtRp2217
((dp2218
S'GO:0005515'
p2219
I01
stbaa(lp2220
S'18326585'
p2221
ag5
(g6
g7
NtRp2222
((dp2223
S'GO:0005515'
p2224
I01
stbaa(lp2225
S'17086450'
p2226
ag5
(g6
g7
NtRp2227
((dp2228
S'GO:0015085'
p2229
I01
stbaa(lp2230
S'561722'
p2231
ag5
(g6
g7
NtRp2232
((dp2233
S'GO:0030515'
p2234
I01
stbaa(lp2235
S'14729573'
p2236
ag5
(g6
g7
NtRp2237
((dp2238
S'GO:0043565'
p2239
I01
stbaa(lp2240
S'12686622'
p2241
ag5
(g6
g7
NtRp2242
((dp2243
S'GO:0004672'
p2244
I01
stbaa(lp2245
S'18835579'
p2246
ag5
(g6
g7
NtRp2247
((dp2248
S'GO:0004505'
p2249
I01
sS'GO:0034617'
p2250
I01
stbaa(lp2251
S'23017206'
p2252
ag5
(g6
g7
NtRp2253
((dp2254
S'GO:0004505'
p2255
I01
sS'GO:0042802'
p2256
I01
stbaa(lp2257
S'16265631'
p2258
ag5
(g6
g7
NtRp2259
((dp2260
S'GO:0051015'
p2261
I01
stbaa(lp2262
S'17419997'
p2263
ag5
(g6
g7
NtRp2264
((dp2265
S'GO:0047499'
p2266
I01
stbaa(lp2267
S'12717731'
p2268
ag5
(g6
g7
NtRp2269
((dp2270
S'GO:0004035'
p2271
I01
stbaa(lp2272
S'6273404'
p2273
ag5
(g6
g7
NtRp2274
((dp2275
S'GO:0004035'
p2276
I01
stbaa(lp2277
S'19692567'
p2278
ag5
(g6
g7
NtRp2279
((dp2280
S'GO:0000149'
p2281
I01
sS'GO:0005515'
p2282
I01
stbaa(lp2283
S'17050736'
p2284
ag5
(g6
g7
NtRp2285
((dp2286
S'GO:0005543'
p2287
I01
sS'GO:0030276'
p2288
I01
stbaa(lp2289
S'9716534'
p2290
ag5
(g6
g7
NtRp2291
((dp2292
S'GO:0003677'
p2293
I01
stbaa(lp2294
S'14665465'
p2295
ag5
(g6
g7
NtRp2296
((dp2297
S'GO:0003924'
p2298
I01
sS'GO:0042802'
p2299
I01
sS'GO:0005525'
p2300
I01
stbaa(lp2301
S'15733068'
p2302
ag5
(g6
g7
NtRp2303
((dp2304
S'GO:0003987'
p2305
I01
sS'GO:0016208'
p2306
I01
stbaa(lp2307
S'15261655'
p2308
ag5
(g6
g7
NtRp2309
((dp2310
S'GO:0004888'
p2311
I01
stbaa(lp2312
S'8898200'
p2313
ag5
(g6
g7
NtRp2314
((dp2315
S'GO:0003700'
p2316
I01
stbaa(lp2317
S'16814427'
p2318
ag5
(g6
g7
NtRp2319
((dp2320
S'GO:0043023'
p2321
I01
stbaa(lp2322
S'16790492'
p2323
ag5
(g6
g7
NtRp2324
((dp2325
S'GO:0004383'
p2326
I01
stbaa(lp2327
S'21205787'
p2328
ag5
(g6
g7
NtRp2329
((dp2330
S'GO:0004713'
p2331
I01
stbaa(lp2332
S'15629062'
p2333
ag5
(g6
g7
NtRp2334
((dp2335
S'GO:0008270'
p2336
I01
sS'GO:0003677'
p2337
I01
stbaa(lp2338
S'293714'
p2339
ag5
(g6
g7
NtRp2340
((dp2341
S'GO:0005200'
p2342
I01
stbaa(lp2343
S'12117815'
p2344
ag5
(g6
g7
NtRp2345
((dp2346
S'GO:0004871'
p2347
I01
stbaa(lp2348
S'10880352'
p2349
ag5
(g6
g7
NtRp2350
((dp2351
S'GO:0004674'
p2352
I01
stbaa(lp2353
S'15640146'
p2354
ag5
(g6
g7
NtRp2355
((dp2356
S'GO:0003796'
p2357
I01
stbaa(lp2358
S'16449327'
p2359
ag5
(g6
g7
NtRp2360
((dp2361
S'GO:0003779'
p2362
I01
stbaa(lp2363
S'17699599'
p2364
ag5
(g6
g7
NtRp2365
((dp2366
S'GO:0004671'
p2367
I01
stbaa(lp2368
S'18266910'
p2369
ag5
(g6
g7
NtRp2370
((dp2371
S'GO:0042803'
p2372
I01
sS'GO:0003682'
p2373
I01
sS'GO:0003677'
p2374
I01
stbaa(lp2375
S'15059942'
p2376
ag5
(g6
g7
NtRp2377
((dp2378
S'GO:0042392'
p2379
I01
stbaa(lp2380
S'18948008'
p2381
ag5
(g6
g7
NtRp2382
((dp2383
S'GO:0005099'
p2384
I01
stbaa(lp2385
S'21187070'
p2386
ag5
(g6
g7
NtRp2387
((dp2388
S'GO:0031151'
p2389
I01
stbaa(lp2390
S'16899512'
p2391
ag5
(g6
g7
NtRp2392
((dp2393
S'GO:0005515'
p2394
I01
stbaa(lp2395
S'11956323'
p2396
ag5
(g6
g7
NtRp2397
((dp2398
S'GO:0004674'
p2399
I01
stbaa(lp2400
S'19576222'
p2401
ag5
(g6
g7
NtRp2402
((dp2403
S'GO:0004407'
p2404
I01
stbaa(lp2405
S'16962888'
p2406
ag5
(g6
g7
NtRp2407
((dp2408
S'GO:0004672'
p2409
I01
stbaa(lp2410
S'18408056'
p2411
ag5
(g6
g7
NtRp2412
((dp2413
S'GO:0016791'
p2414
I01
sS'GO:0008138'
p2415
I01
stbaa(lp2416
S'22345351'
p2417
ag5
(g6
g7
NtRp2418
((dp2419
S'GO:0004177'
p2420
I01
sS'GO:0008270'
p2421
I01
stbaa(lp2422
S'10545500'
p2423
ag5
(g6
g7
NtRp2424
((dp2425
S'GO:0045159'
p2426
I01
stbaa(lp2427
S'12626710'
p2428
ag5
(g6
g7
NtRp2429
((dp2430
S'GO:0008270'
p2431
I01
sS'GO:0004157'
p2432
I01
stbaa(lp2433
S'15086784'
p2434
ag5
(g6
g7
NtRp2435
((dp2436
S'GO:0005543'
p2437
I01
stbaa(lp2438
S'14629118'
p2439
ag5
(g6
g7
NtRp2440
((dp2441
S'GO:0004467'
p2442
I01
stbaa(lp2443
S'16781009'
p2444
ag5
(g6
g7
NtRp2445
((dp2446
S'GO:0051015'
p2447
I01
stbaa(lp2448
S'12529423'
p2449
ag5
(g6
g7
NtRp2450
((dp2451
S'GO:0004721'
p2452
I01
stbaa(lp2453
S'10930737'
p2454
ag5
(g6
g7
NtRp2455
((dp2456
S'GO:0008478'
p2457
I01
stbaa(lp2458
S'20966074'
p2459
ag5
(g6
g7
NtRp2460
((dp2461
S'GO:0004016'
p2462
I01
stbaa(lp2463
S'22682495'
p2464
ag5
(g6
g7
NtRp2465
((dp2466
S'GO:0003810'
p2467
I01
sS'GO:0000224'
p2468
I01
stbaa(lp2469
S'24240571'
p2470
ag5
(g6
g7
NtRp2471
((dp2472
S'GO:0016162'
p2473
I01
sS'GO:0030248'
p2474
I01
stbaa(lp2475
S'18708585'
p2476
ag5
(g6
g7
NtRp2477
((dp2478
S'GO:0004674'
p2479
I01
stbaa(lp2480
S'11352578'
p2481
ag5
(g6
g7
NtRp2482
((dp2483
S'GO:0033192'
p2484
I01
sS'GO:0005515'
p2485
I01
stbaa(lp2486
S'9023987'
p2487
ag5
(g6
g7
NtRp2488
((dp2489
S'GO:0004373'
p2490
I01
stbaa(lp2491
S'16367873'
p2492
ag5
(g6
g7
NtRp2493
((dp2494
S'GO:0008146'
p2495
I01
stbaa(lp2496
S'12840076'
p2497
ag5
(g6
g7
NtRp2498
((dp2499
S'GO:0004784'
p2500
I01
stbaa(lp2501
S'15255188'
p2502
ag5
(g6
g7
NtRp2503
((dp2504
S'GO:0004869'
p2505
I01
stbaa(lp2506
S'17467078'
p2507
ag5
(g6
g7
NtRp2508
((dp2509
S'GO:0005546'
p2510
I01
sS'GO:0005515'
p2511
I01
stbaa(lp2512
S'15643073'
p2513
ag5
(g6
g7
NtRp2514
((dp2515
S'GO:0017050'
p2516
I01
sS'GO:0005524'
p2517
I01
stbaa(lp2518
S'15728726'
p2519
ag5
(g6
g7
NtRp2520
((dp2521
S'GO:0016905'
p2522
I01
sS'GO:0005516'
p2523
I01
sS'GO:0004672'
p2524
I01
stbaa(lp2525
S'18381083'
p2526
ag5
(g6
g7
NtRp2527
((dp2528
S'GO:0004674'
p2529
I01
sS'GO:0005524'
p2530
I01
stbaa(lp2531
S'14551196'
p2532
ag5
(g6
g7
NtRp2533
((dp2534
S'GO:0004032'
p2535
I01
stbaa(lp2536
S'3024983'
p2537
ag5
(g6
g7
NtRp2538
((dp2539
S'GO:0042132'
p2540
I01
stbaa(lp2541
S'4308724'
p2542
ag5
(g6
g7
NtRp2543
((dp2544
S'GO:0042132'
p2545
I01
stbaa(lp2546
S'15546981'
p2547
ag5
(g6
g7
NtRp2548
((dp2549
S'GO:0003777'
p2550
I01
stbaa(lp2551
S'23333327'
p2552
ag5
(g6
g7
NtRp2553
((dp2554
S'GO:0003777'
p2555
I01
stbaa(lp2556
S'15075287'
p2557
ag5
(g6
g7
NtRp2558
((dp2559
S'GO:0003723'
p2560
I01
sS'GO:0051082'
p2561
I01
stbaa(lp2562
S'14665466'
p2563
ag5
(g6
g7
NtRp2564
((dp2565
S'GO:0004470'
p2566
I01
stbaa(lp2567
S'22689969'
p2568
ag5
(g6
g7
NtRp2569
((dp2570
S'GO:0004672'
p2571
I01
stbaa(lp2572
S'14701681'
p2573
ag5
(g6
g7
NtRp2574
((dp2575
S'GO:0042803'
p2576
I01
stbaa(lp2577
S'14517243'
p2578
ag5
(g6
g7
NtRp2579
((dp2580
S'GO:0031683'
p2581
I01
stbaa(lp2582
S'17085634'
p2583
ag5
(g6
g7
NtRp2584
((dp2585
S'GO:0004691'
p2586
I01
stbaa(lp2587
S'10571182'
p2588
ag5
(g6
g7
NtRp2589
((dp2590
S'GO:0004713'
p2591
I01
stbaa(lp2592
S'17499244'
p2593
ag5
(g6
g7
NtRp2594
((dp2595
S'GO:0009815'
p2596
I01
stbaa(lp2597
S'9765812'
p2598
ag5
(g6
g7
NtRp2599
((dp2600
S'GO:0004722'
p2601
I01
stbaa(lp2602
S'8681950'
p2603
ag5
(g6
g7
NtRp2604
((dp2605
S'GO:0005516'
p2606
I01
stbaa(lp2607
S'16343335'
p2608
ag5
(g6
g7
NtRp2609
((dp2610
S'GO:0005544'
p2611
I01
stbaa(lp2612
S'8670893'
p2613
ag5
(g6
g7
NtRp2614
((dp2615
S'GO:0000155'
p2616
I01
sS'GO:0000156'
p2617
I01
stbaa(lp2618
S'2830141'
p2619
ag5
(g6
g7
NtRp2620
((dp2621
S'GO:0009927'
p2622
I01
stbaa(lp2623
S'16445684'
p2624
ag5
(g6
g7
NtRp2625
((dp2626
S'GO:0005381'
p2627
I01
stbaa(lp2628
S'11689442'
p2629
ag5
(g6
g7
NtRp2630
((dp2631
S'GO:0019992'
p2632
I01
sS'GO:0016307'
p2633
I01
stbaa(lp2634
S'21819985'
p2635
ag5
(g6
g7
NtRp2636
((dp2637
S'GO:0051287'
p2638
I01
sS'GO:0004155'
p2639
I01
stbaa(lp2640
S'18997329'
p2641
ag5
(g6
g7
NtRp2642
((dp2643
S'GO:0042803'
p2644
I01
stbaa(lp2645
S'20019080'
p2646
ag5
(g6
g7
NtRp2647
((dp2648
S'GO:0004175'
p2649
I01
stbaa(lp2650
S'21209787'
p2651
ag5
(g6
g7
NtRp2652
((dp2653
S'GO:0003985'
p2654
I01
stbaa(lp2655
S'10329620'
p2656
ag5
(g6
g7
NtRp2657
((dp2658
S'GO:0070012'
p2659
I01
stbaa(lp2660
S'14593072'
p2661
ag5
(g6
g7
NtRp2662
((dp2663
S'GO:0004672'
p2664
I01
stbaa(lp2665
S'15225305'
p2666
ag5
(g6
g7
NtRp2667
((dp2668
S'GO:0004108'
p2669
I01
stbaa(lp2670
S'12626495'
p2671
ag5
(g6
g7
NtRp2672
((dp2673
S'GO:0019787'
p2674
I01
stbaa(lp2675
S'17031001'
p2676
ag5
(g6
g7
NtRp2677
((dp2678
S'GO:0004672'
p2679
I01
stbaa(lp2680
S'14736886'
p2681
ag5
(g6
g7
NtRp2682
((dp2683
S'GO:0004674'
p2684
I01
stbaa(lp2685
S'16644729'
p2686
ag5
(g6
g7
NtRp2687
((dp2688
S'GO:0004115'
p2689
I01
stbaa(lp2690
S'15708561'
p2691
ag5
(g6
g7
NtRp2692
((dp2693
S'GO:0008565'
p2694
I01
stbaa(lp2695
S'12912898'
p2696
ag5
(g6
g7
NtRp2697
((dp2698
S'GO:0004871'
p2699
I01
stbaa(lp2700
S'23548898'
p2701
ag5
(g6
g7
NtRp2702
((dp2703
S'GO:0016917'
p2704
I01
stbaa(lp2705
S'12843630'
p2706
ag5
(g6
g7
NtRp2707
((dp2708
S'GO:0004185'
p2709
I01
stbaa(lp2710
S'11029049'
p2711
ag5
(g6
g7
NtRp2712
((dp2713
S'GO:0003756'
p2714
I01
stbaa(lp2715
S'12878591'
p2716
ag5
(g6
g7
NtRp2717
((dp2718
S'GO:0004439'
p2719
I01
stbaa(lp2720
S'10444594'
p2721
ag5
(g6
g7
NtRp2722
((dp2723
S'GO:0004871'
p2724
I01
stbaa(lp2725
S'17336445'
p2726
ag5
(g6
g7
NtRp2727
((dp2728
S'GO:0004864'
p2729
I01
stbaa(lp2730
S'17625565'
p2731
ag5
(g6
g7
NtRp2732
((dp2733
S'GO:0015276'
p2734
I01
sS'GO:0005524'
p2735
I01
stbaa(lp2736
S'15705570'
p2737
ag5
(g6
g7
NtRp2738
((dp2739
S'GO:0031545'
p2740
I01
stbaa(lp2741
S'16478785'
p2742
ag5
(g6
g7
NtRp2743
((dp2744
S'GO:0005515'
p2745
I01
stbaa(lp2746
S'11102804'
p2747
ag5
(g6
g7
NtRp2748
((dp2749
S'GO:0005085'
p2750
I01
stbaa(lp2751
S'12429831'
p2752
ag5
(g6
g7
NtRp2753
((dp2754
S'GO:0047555'
p2755
I01
stbaa(lp2756
S'22730904'
p2757
ag5
(g6
g7
NtRp2758
((dp2759
S'GO:0017064'
p2760
I01
stbaa(lp2761
S'9425628'
p2762
ag5
(g6
g7
NtRp2763
((dp2764
S'GO:0005515'
p2765
I01
stbaa(lp2766
S'18703517'
p2767
ag5
(g6
g7
NtRp2768
((dp2769
S'GO:0005088'
p2770
I01
stbaa(lp2771
S'22119747'
p2772
ag5
(g6
g7
NtRp2773
((dp2774
S'GO:0005543'
p2775
I01
sS'GO:0005525'
p2776
I01
stbaa(lp2777
S'18673369'
p2778
ag5
(g6
g7
NtRp2779
((dp2780
S'GO:0030553'
p2781
I01
stbaa(lp2782
S'14686953'
p2783
ag5
(g6
g7
NtRp2784
((dp2785
S'GO:0008519'
p2786
I01
stbaa(lp2787
S'12475956'
p2788
ag5
(g6
g7
NtRp2789
((dp2790
S'GO:0004674'
p2791
I01
sS'GO:0016905'
p2792
I01
stbaa(lp2793
S'14623897'
p2794
ag5
(g6
g7
NtRp2795
((dp2796
S'GO:0008017'
p2797
I01
sS'GO:0051015'
p2798
I01
stbaa(lp2799
S'10593934'
p2800
ag5
(g6
g7
NtRp2801
((dp2802
S'GO:0008375'
p2803
I01
stbaa(lp2804
S'12244115'
p2805
ag5
(g6
g7
NtRp2806
((dp2807
S'GO:0008375'
p2808
I01
stbaa(lp2809
S'11163223'
p2810
ag5
(g6
g7
NtRp2811
((dp2812
S'GO:0008757'
p2813
I01
sS'GO:0008171'
p2814
I01
stbaa(lp2815
S'11823417'
p2816
ag5
(g6
g7
NtRp2817
((dp2818
S'GO:0005543'
p2819
I01
sS'GO:0003924'
p2820
I01
sS'GO:0042802'
p2821
I01
sS'GO:0005525'
p2822
I01
stbaa(lp2823
S'16527408'
p2824
ag5
(g6
g7
NtRp2825
((dp2826
S'GO:0003934'
p2827
I01
stbaa(lp2828
S'8870645'
p2829
ag5
(g6
g7
NtRp2830
((dp2831
S'GO:0003934'
p2832
I01
stbaa(lp2833
S'9348538'
p2834
ag5
(g6
g7
NtRp2835
((dp2836
S'GO:0004842'
p2837
I01
stbaa(lp2838
S'9102307'
p2839
ag5
(g6
g7
NtRp2840
((dp2841
S'GO:0017124'
p2842
I01
sS'GO:0042803'
p2843
I01
stbaa(lp2844
S'19861424'
p2845
ag5
(g6
g7
NtRp2846
((dp2847
S'GO:0003899'
p2848
I01
sS'GO:0003677'
p2849
I01
stbaa(lp2850
S'15196949'
p2851
ag5
(g6
g7
NtRp2852
((dp2853
S'GO:0008353'
p2854
I01
sS'GO:0005524'
p2855
I01
stbaa(lp2856
S'11481037'
p2857
ag5
(g6
g7
NtRp2858
((dp2859
S'GO:0005509'
p2860
I01
stbaa(lp2861
S'11927596'
p2862
ag5
(g6
g7
NtRp2863
((dp2864
S'GO:0046982'
p2865
I01
sS'GO:0005509'
p2866
I01
sS'GO:0005515'
p2867
I01
sS'GO:0042803'
p2868
I01
stbaa(lp2869
S'12018385'
p2870
ag5
(g6
g7
NtRp2871
((dp2872
S'GO:0043015'
p2873
I01
stbaa(lp2874
S'11683919'
p2875
ag5
(g6
g7
NtRp2876
((dp2877
S'GO:0003779'
p2878
I01
stbaa(lp2879
S'15363631'
p2880
ag5
(g6
g7
NtRp2881
((dp2882
S'GO:0004618'
p2883
I01
sS'GO:0005516'
p2884
I01
stbaa(lp2885
S'9546041'
p2886
ag5
(g6
g7
NtRp2887
((dp2888
S'GO:0003746'
p2889
I01
stbaa(lp2890
S'11479029'
p2891
ag5
(g6
g7
NtRp2892
((dp2893
S'GO:0003785'
p2894
I01
stbaa(lp2895
S'15728724'
p2896
ag5
(g6
g7
NtRp2897
((dp2898
S'GO:0017048'
p2899
I01
sS'GO:0005546'
p2900
I01
sS'GO:0005547'
p2901
I01
stbaa(lp2902
S'10970875'
p2903
ag5
(g6
g7
NtRp2904
((dp2905
S'GO:0005220'
p2906
I01
sS'GO:0015085'
p2907
I01
stbaa(lp2908
S'10804029'
p2909
ag5
(g6
g7
NtRp2910
((dp2911
S'GO:0004337'
p2912
I01
stbaa(lp2913
S'10828443'
p2914
ag5
(g6
g7
NtRp2915
((dp2916
S'GO:0030676'
p2917
I01
sS'GO:0000146'
p2918
I01
stbaa(lp2919
S'11208126'
p2920
ag5
(g6
g7
NtRp2921
((dp2922
S'GO:0030676'
p2923
I01
sS'GO:0016887'
p2924
I01
sS'GO:0051015'
p2925
I01
sS'GO:0000146'
p2926
I01
sS'GO:0005524'
p2927
I01
stbaa(lp2928
S'17189480'
p2929
ag5
(g6
g7
NtRp2930
((dp2931
S'GO:0043621'
p2932
I01
stbaa(lp2933
S'10681463'
p2934
ag5
(g6
g7
NtRp2935
((dp2936
S'GO:0016760'
p2937
I01
stbaa(lp2938
S'10652255'
p2939
ag5
(g6
g7
NtRp2940
((dp2941
S'GO:0051015'
p2942
I01
stbaa(lp2943
S'10898960'
p2944
ag5
(g6
g7
NtRp2945
((dp2946
S'GO:0004842'
p2947
I01
stbaa(lp2948
S'10504413'
p2949
ag5
(g6
g7
NtRp2950
((dp2951
S'GO:0016491'
p2952
I01
stbaatRp2953
.