ccollections
OrderedDict
p1
((lp2
(lp3
S'18673382'
p4
accopy_reg
_reconstructor
p5
(csets
Set
p6
c__builtin__
object
p7
NtRp8
((dp9
S'GO:0030435'
p10
I01
sS'GO:0031288'
p11
I01
sS'GO:0042594'
p12
I01
sS'GO:0031152'
p13
I01
stbaa(lp14
S'22120990'
p15
ag5
(g6
g7
NtRp16
((dp17
S'GO:0044351'
p18
I01
stbaa(lp19
S'15473840'
p20
ag5
(g6
g7
NtRp21
((dp22
S'GO:0031036'
p23
I01
sS'GO:0006909'
p24
I01
sS'GO:0006198'
p25
I01
sS'GO:0031154'
p26
I01
sS'GO:0007163'
p27
I01
sS'GO:0007165'
p28
I01
sS'GO:0030010'
p29
I01
sS'GO:0046069'
p30
I01
sS'GO:0030833'
p31
I01
sS'GO:0043326'
p32
I01
sS'GO:0046856'
p33
I01
sS'GO:0006468'
p34
I01
sS'GO:0006935'
p35
I01
sS'GO:0030826'
p36
I01
sS'GO:0045859'
p37
I01
sS'GO:0030435'
p38
I01
sS'GO:0031152'
p39
I01
sS'GO:0006182'
p40
I01
sS'GO:0051093'
p41
I01
sS'GO:0051272'
p42
I01
sS'GO:0007015'
p43
I01
sS'GO:0007190'
p44
I01
stbaa(lp45
S'17517120'
p46
ag5
(g6
g7
NtRp47
((dp48
S'GO:0006972'
p49
I01
stbaa(lp50
S'19482547'
p51
ag5
(g6
g7
NtRp52
((dp53
S'GO:0009617'
p54
I01
stbaa(lp55
S'8710499'
p56
ag5
(g6
g7
NtRp57
((dp58
S'GO:0006289'
p59
I01
stbaa(lp60
S'9649625'
p61
ag5
(g6
g7
NtRp62
((dp63
S'GO:0006974'
p64
I01
stbaa(lp65
S'17659086'
p66
ag5
(g6
g7
NtRp67
((dp68
S'GO:0031153'
p69
I01
sS'GO:0031154'
p70
I01
sS'GO:0019933'
p71
I01
sS'GO:0030587'
p72
I01
stbaa(lp73
S'16086850'
p74
ag5
(g6
g7
NtRp75
((dp76
S'GO:0046956'
p77
I01
sS'GO:0043052'
p78
I01
stbaa(lp79
S'21190565'
p80
ag5
(g6
g7
NtRp81
((dp82
S'GO:0006887'
p83
I01
sS'GO:0006909'
p84
I01
stbaa(lp85
S'21401524'
p86
ag5
(g6
g7
NtRp87
((dp88
S'GO:0046847'
p89
I01
sS'GO:0031150'
p90
I01
sS'GO:0072583'
p91
I01
stbaa(lp92
S'9171087'
p93
ag5
(g6
g7
NtRp94
((dp95
S'GO:0006366'
p96
I01
sS'GO:0006289'
p97
I01
stbaa(lp98
S'9765592'
p99
ag5
(g6
g7
NtRp100
((dp101
S'GO:0006974'
p102
I01
sS'GO:0009650'
p103
I01
stbaa(lp104
S'9226443'
p105
ag5
(g6
g7
NtRp106
((dp107
S'GO:0031154'
p108
I01
sS'GO:0030435'
p109
I01
sS'GO:0030154'
p110
I01
sS'GO:0007275'
p111
I01
stbaa(lp112
S'12771188'
p113
ag5
(g6
g7
NtRp114
((dp115
S'GO:0009408'
p116
I01
sS'GO:0006979'
p117
I01
sS'GO:0006972'
p118
I01
sS'GO:0047484'
p119
I01
stbaa(lp120
S'15740584'
p121
ag5
(g6
g7
NtRp122
((dp123
S'GO:0019953'
p124
I01
stbaa(lp125
S'21085675'
p126
ag5
(g6
g7
NtRp127
((dp128
S'GO:0051259'
p129
I01
sS'GO:0032956'
p130
I01
stbaa(lp131
S'23264736'
p132
ag5
(g6
g7
NtRp133
((dp134
S'GO:0051489'
p135
I01
sS'GO:0000281'
p136
I01
sS'GO:0030036'
p137
I01
sS'GO:0048870'
p138
I01
stbaa(lp139
S'15733068'
p140
ag5
(g6
g7
NtRp141
((dp142
S'GO:0006085'
p143
I01
sS'GO:0010468'
p144
I01
stbaa(lp145
S'15470642'
p146
ag5
(g6
g7
NtRp147
((dp148
S'GO:0010628'
p149
I01
stbaa(lp150
S'10393118'
p151
ag5
(g6
g7
NtRp152
((dp153
S'GO:0031154'
p154
I01
sS'GO:0031149'
p155
I01
sS'GO:0045892'
p156
I01
stbaa(lp157
S'15053873'
p158
ag5
(g6
g7
NtRp159
((dp160
S'GO:0031154'
p161
I01
stbaa(lp162
S'10402673'
p163
ag5
(g6
g7
NtRp164
((dp165
S'GO:0031154'
p166
I01
sS'GO:0045324'
p167
I01
stbaa(lp168
S'9585512'
p169
ag5
(g6
g7
NtRp170
((dp171
S'GO:0030154'
p172
I01
sS'GO:0006470'
p173
I01
sS'GO:0009653'
p174
I01
stbaa(lp175
S'9620859'
p176
ag5
(g6
g7
NtRp177
((dp178
S'GO:0031152'
p179
I01
stbaa(lp180
S'22980139'
p181
ag5
(g6
g7
NtRp182
((dp183
S'GO:0000266'
p184
I01
sS'GO:0048312'
p185
I01
sS'GO:0008053'
p186
I01
sS'GO:0090141'
p187
I01
stbaa(lp188
S'9207087'
p189
ag5
(g6
g7
NtRp190
((dp191
S'GO:0048312'
p192
I01
sS'GO:0000281'
p193
I01
stbaa(lp194
S'11390363'
p195
ag5
(g6
g7
NtRp196
((dp197
S'GO:0006511'
p198
I01
sS'GO:0030154'
p199
I01
sS'GO:0000082'
p200
I01
sS'GO:0006935'
p201
I01
sS'GO:0030587'
p202
I01
stbaa(lp203
S'9582328'
p204
ag5
(g6
g7
NtRp205
((dp206
S'GO:0006468'
p207
I01
sS'GO:0051781'
p208
I01
sS'GO:0046777'
p209
I01
sS'GO:0032956'
p210
I01
stbaa(lp211
S'18042625'
p212
ag5
(g6
g7
NtRp213
((dp214
S'GO:0010590'
p215
I01
sS'GO:0031156'
p216
I01
stbaa(lp217
S'16842885'
p218
ag5
(g6
g7
NtRp219
((dp220
S'GO:0006468'
p221
I01
sS'GO:0046777'
p222
I01
stbaa(lp223
S'17362909'
p224
ag5
(g6
g7
NtRp225
((dp226
S'GO:0031152'
p227
I01
sS'GO:0007165'
p228
I01
sS'GO:0006972'
p229
I01
sS'GO:0045762'
p230
I01
stbaa(lp231
S'9802899'
p232
ag5
(g6
g7
NtRp233
((dp234
S'GO:0051056'
p235
I01
sS'GO:0007163'
p236
I01
sS'GO:0016477'
p237
I01
sS'GO:0031152'
p238
I01
stbaa(lp239
S'10704840'
p240
ag5
(g6
g7
NtRp241
((dp242
S'GO:0007275'
p243
I01
sS'GO:0009847'
p244
I01
stbaa(lp245
S'9700162'
p246
ag5
(g6
g7
NtRp247
((dp248
S'GO:0016337'
p249
I01
stbaa(lp250
S'11352940'
p251
ag5
(g6
g7
NtRp252
((dp253
S'GO:0030041'
p254
I01
sS'GO:0007163'
p255
I01
sS'GO:0000281'
p256
I01
sS'GO:0031152'
p257
I01
sS'GO:0031269'
p258
I01
stbaa(lp259
S'21169559'
p260
ag5
(g6
g7
NtRp261
((dp262
S'GO:0006468'
p263
I01
sS'GO:0032148'
p264
I01
sS'GO:0000281'
p265
I01
sS'GO:0043327'
p266
I01
sS'GO:0031156'
p267
I01
sS'GO:0030010'
p268
I01
sS'GO:0036051'
p269
I01
sS'GO:0071902'
p270
I01
sS'GO:0071901'
p271
I01
stbaa(lp272
S'9389653'
p273
ag5
(g6
g7
NtRp274
((dp275
S'GO:0007190'
p276
I01
sS'GO:0006935'
p277
I01
sS'GO:0031152'
p278
I01
stbaa(lp279
S'12413895'
p280
ag5
(g6
g7
NtRp281
((dp282
S'GO:0007190'
p283
I01
sS'GO:0031152'
p284
I01
stbaa(lp285
S'16079174'
p286
ag5
(g6
g7
NtRp287
((dp288
S'GO:0032148'
p289
I01
sS'GO:0030838'
p290
I01
sS'GO:0043520'
p291
I01
sS'GO:0043327'
p292
I01
sS'GO:0031152'
p293
I01
sS'GO:0007190'
p294
I01
stbaa(lp295
S'22266904'
p296
ag5
(g6
g7
NtRp297
((dp298
S'GO:0050766'
p299
I01
sS'GO:0008284'
p300
I01
sS'GO:0044351'
p301
I01
sS'GO:0050765'
p302
I01
sS'GO:1901355'
p303
I01
stbaa(lp304
S'18635356'
p305
ag5
(g6
g7
NtRp306
((dp307
S'GO:0006468'
p308
I01
sS'GO:0051897'
p309
I01
sS'GO:0019933'
p310
I01
stbaa(lp311
S'11004503'
p312
ag5
(g6
g7
NtRp313
((dp314
S'GO:0042744'
p315
I01
sS'GO:0006979'
p316
I01
stbaa(lp317
S'2921242'
p318
ag5
(g6
g7
NtRp319
((dp320
S'GO:0042744'
p321
I01
sS'GO:0006979'
p322
I01
stbaa(lp323
S'11782526'
p324
ag5
(g6
g7
NtRp325
((dp326
S'GO:0033986'
p327
I01
stbaa(lp328
S'20408569'
p329
ag5
(g6
g7
NtRp330
((dp331
S'GO:0000302'
p332
I01
sS'GO:0046689'
p333
I01
stbaa(lp334
S'17825085'
p335
ag5
(g6
g7
NtRp336
((dp337
S'GO:0031154'
p338
I01
sS'GO:0031152'
p339
I01
sS'GO:0019933'
p340
I01
stbaa(lp341
S'9813183'
p342
ag5
(g6
g7
NtRp343
((dp344
S'GO:0031152'
p345
I01
stbaa(lp346
S'10712614'
p347
ag5
(g6
g7
NtRp348
((dp349
S'GO:0006636'
p350
I01
stbaa(lp351
S'16573737'
p352
ag5
(g6
g7
NtRp353
((dp354
S'GO:0016337'
p355
I01
sS'GO:0019953'
p356
I01
sS'GO:0031152'
p357
I01
stbaa(lp358
S'9832508'
p359
ag5
(g6
g7
NtRp360
((dp361
S'GO:0000186'
p362
I01
sS'GO:0030587'
p363
I01
sS'GO:0000165'
p364
I01
sS'GO:0016567'
p365
I01
sS'GO:0009653'
p366
I01
sS'GO:0016579'
p367
I01
stbaa(lp368
S'15726806'
p369
ag5
(g6
g7
NtRp370
((dp371
S'GO:0007015'
p372
I01
sS'GO:0050765'
p373
I01
sS'GO:0006897'
p374
I01
sS'GO:0000902'
p375
I01
sS'GO:0045010'
p376
I01
sS'GO:0042331'
p377
I01
sS'GO:0006907'
p378
I01
sS'GO:0006887'
p379
I01
sS'GO:0051126'
p380
I01
sS'GO:0000281'
p381
I01
sS'GO:0006928'
p382
I01
sS'GO:0030837'
p383
I01
sS'GO:0042989'
p384
I01
sS'GO:0035023'
p385
I01
sS'GO:0030041'
p386
I01
sS'GO:0006909'
p387
I01
sS'GO:0030042'
p388
I01
sS'GO:0016192'
p389
I01
sS'GO:0006935'
p390
I01
stbaa(lp391
S'17553489'
p392
ag5
(g6
g7
NtRp393
((dp394
S'GO:0030041'
p395
I01
stbaa(lp396
S'23223240'
p397
ag5
(g6
g7
NtRp398
((dp399
S'GO:0043327'
p400
I01
sS'GO:0031152'
p401
I01
stbaa(lp402
S'16624291'
p403
ag5
(g6
g7
NtRp404
((dp405
S'GO:0032060'
p406
I01
stbaa(lp407
S'9837757'
p408
ag5
(g6
g7
NtRp409
((dp410
S'GO:0008611'
p411
I01
stbaa(lp412
S'10369671'
p413
ag5
(g6
g7
NtRp414
((dp415
S'GO:0033298'
p416
I01
sS'GO:0006971'
p417
I01
stbaa(lp418
S'9880334'
p419
ag5
(g6
g7
NtRp420
((dp421
S'GO:0042331'
p422
I01
stbaa(lp423
S'11162086'
p424
ag5
(g6
g7
NtRp425
((dp426
S'GO:0006907'
p427
I01
sS'GO:0006909'
p428
I01
sS'GO:0031152'
p429
I01
stbaa(lp430
S'23355006'
p431
ag5
(g6
g7
NtRp432
((dp433
S'GO:0010629'
p434
I01
sS'GO:0010628'
p435
I01
stbaa(lp436
S'10092866'
p437
ag5
(g6
g7
NtRp438
((dp439
S'GO:0015866'
p440
I01
sS'GO:0015867'
p441
I01
stbaa(lp442
S'1493336'
p443
ag5
(g6
g7
NtRp444
((dp445
S'GO:0000281'
p446
I01
stbaa(lp447
S'22884799'
p448
ag5
(g6
g7
NtRp449
((dp450
S'GO:0008285'
p451
I01
sS'GO:0061122'
p452
I01
stbaa(lp453
S'6259174'
p454
ag5
(g6
g7
NtRp455
((dp456
S'GO:0051343'
p457
I01
sS'GO:0032781'
p458
I01
stbaa(lp459
S'6087882'
p460
ag5
(g6
g7
NtRp461
((dp462
S'GO:0051343'
p463
I01
sS'GO:0043549'
p464
I01
stbaa(lp465
S'21402150'
p466
ag5
(g6
g7
NtRp467
((dp468
S'GO:0045861'
p469
I01
stbaa(lp470
S'6243626'
p471
ag5
(g6
g7
NtRp472
((dp473
S'GO:0051343'
p474
I01
stbaa(lp475
S'6667031'
p476
ag5
(g6
g7
NtRp477
((dp478
S'GO:0051343'
p479
I01
stbaa(lp480
S'23441816'
p481
ag5
(g6
g7
NtRp482
((dp483
S'GO:0072666'
p484
I01
stbaa(lp485
S'15947191'
p486
ag5
(g6
g7
NtRp487
((dp488
S'GO:0007010'
p489
I01
sS'GO:0006928'
p490
I01
stbaa(lp491
S'23516620'
p492
ag5
(g6
g7
NtRp493
((dp494
S'GO:1902168'
p495
I01
stbaa(lp496
S'10725225'
p497
ag5
(g6
g7
NtRp498
((dp499
S'GO:0008284'
p500
I01
sS'GO:0042127'
p501
I01
sS'GO:0051270'
p502
I01
sS'GO:0000281'
p503
I01
sS'GO:0006928'
p504
I01
sS'GO:0050927'
p505
I01
sS'GO:0045806'
p506
I01
stbaa(lp507
S'2885843'
p508
ag5
(g6
g7
NtRp509
((dp510
S'GO:0006935'
p511
I01
sS'GO:0007275'
p512
I01
stbaa(lp513
S'11257439'
p514
ag5
(g6
g7
NtRp515
((dp516
S'GO:0007265'
p517
I01
stbaa(lp518
S'10837033'
p519
ag5
(g6
g7
NtRp520
((dp521
S'GO:0043052'
p522
I01
sS'GO:0042331'
p523
I01
stbaa(lp524
S'6746725'
p525
ag5
(g6
g7
NtRp526
((dp527
S'GO:0051017'
p528
I01
stbaa(lp529
S'8486739'
p530
ag5
(g6
g7
NtRp531
((dp532
S'GO:0051764'
p533
I01
stbaa(lp534
S'11884033'
p535
ag5
(g6
g7
NtRp536
((dp537
S'GO:0007155'
p538
I01
sS'GO:0031288'
p539
I01
sS'GO:0016337'
p540
I01
sS'GO:0030587'
p541
I01
stbaa(lp542
S'11973270'
p543
ag5
(g6
g7
NtRp544
((dp545
S'GO:0007389'
p546
I01
sS'GO:0016477'
p547
I01
stbaa(lp548
S'23126556'
p549
ag5
(g6
g7
NtRp550
((dp551
S'GO:0030041'
p552
I01
sS'GO:0043326'
p553
I01
sS'GO:0031589'
p554
I01
sS'GO:0016477'
p555
I01
sS'GO:0044351'
p556
I01
stbaa(lp557
S'14695060'
p558
ag5
(g6
g7
NtRp559
((dp560
S'GO:0030435'
p561
I01
sS'GO:0051707'
p562
I01
stbaa(lp563
S'1312226'
p564
ag5
(g6
g7
NtRp565
((dp566
S'GO:0030817'
p567
I01
stbaa(lp568
S'15131307'
p569
ag5
(g6
g7
NtRp570
((dp571
S'GO:0019933'
p572
I01
sS'GO:0051344'
p573
I01
sS'GO:0030819'
p574
I01
stbaa(lp575
S'12455979'
p576
ag5
(g6
g7
NtRp577
((dp578
S'GO:0031285'
p579
I01
sS'GO:0031286'
p580
I01
stbaa(lp581
S'2996629'
p582
ag5
(g6
g7
NtRp583
((dp584
S'GO:0006207'
p585
I01
stbaa(lp586
S'6191197'
p587
ag5
(g6
g7
NtRp588
((dp589
S'GO:0016337'
p590
I01
stbaa(lp591
S'15366765'
p592
ag5
(g6
g7
NtRp593
((dp594
S'GO:0016337'
p595
I01
sS'GO:0030155'
p596
I01
sS'GO:0051260'
p597
I01
sS'GO:0030866'
p598
I01
sS'GO:0031152'
p599
I01
sS'GO:0031159'
p600
I01
stbaa(lp601
S'19285397'
p602
ag5
(g6
g7
NtRp603
((dp604
S'GO:0016337'
p605
I01
sS'GO:0009988'
p606
I01
stbaa(lp607
S'10588668'
p608
ag5
(g6
g7
NtRp609
((dp610
S'GO:0006907'
p611
I01
sS'GO:0000281'
p612
I01
sS'GO:0007041'
p613
I01
sS'GO:0000915'
p614
I01
stbaa(lp615
S'19065153'
p616
ag5
(g6
g7
NtRp617
((dp618
S'GO:0031589'
p619
I01
sS'GO:0007109'
p620
I01
sS'GO:0000281'
p621
I01
sS'GO:0048870'
p622
I01
stbaa(lp623
S'2721503'
p624
ag5
(g6
g7
NtRp625
((dp626
S'GO:0031154'
p627
I01
sS'GO:0000281'
p628
I01
stbaa(lp629
S'3576222'
p630
ag5
(g6
g7
NtRp631
((dp632
S'GO:0031154'
p633
I01
sS'GO:0000281'
p634
I01
stbaa(lp635
S'15259052'
p636
ag5
(g6
g7
NtRp637
((dp638
S'GO:0030036'
p639
I01
sS'GO:0006928'
p640
I01
stbaa(lp641
S'16926192'
p642
ag5
(g6
g7
NtRp643
((dp644
S'GO:0032060'
p645
I01
sS'GO:0006935'
p646
I01
stbaa(lp647
S'16339076'
p648
ag5
(g6
g7
NtRp649
((dp650
S'GO:0030472'
p651
I01
sS'GO:0007059'
p652
I01
sS'GO:0007067'
p653
I01
sS'GO:0008104'
p654
I01
sS'GO:0000281'
p655
I01
stbaa(lp656
S'15894626'
p657
ag5
(g6
g7
NtRp658
((dp659
S'GO:0030038'
p660
I01
sS'GO:0030837'
p661
I01
stbaa(lp662
S'16461463'
p663
ag5
(g6
g7
NtRp664
((dp665
S'GO:0030866'
p666
I01
stbaa(lp667
S'4278009'
p668
ag5
(g6
g7
NtRp669
((dp670
S'GO:0031034'
p671
I01
stbaa(lp672
S'18388319'
p673
ag5
(g6
g7
NtRp674
((dp675
S'GO:0060328'
p676
I01
sS'GO:0034461'
p677
I01
sS'GO:0031270'
p678
I01
stbaa(lp679
S'16901894'
p680
ag5
(g6
g7
NtRp681
((dp682
S'GO:0033275'
p683
I01
stbaa(lp684
S'19955408'
p685
ag5
(g6
g7
NtRp686
((dp687
S'GO:0033275'
p688
I01
stbaa(lp689
S'15855234'
p690
ag5
(g6
g7
NtRp691
((dp692
S'GO:0046847'
p693
I01
stbaa(lp694
S'1535025'
p695
ag5
(g6
g7
NtRp696
((dp697
S'GO:0000281'
p698
I01
stbaa(lp699
S'7593282'
p700
ag5
(g6
g7
NtRp701
((dp702
S'GO:0030587'
p703
I01
sS'GO:0016477'
p704
I01
sS'GO:0006928'
p705
I01
stbaa(lp706
S'2835631'
p707
ag5
(g6
g7
NtRp708
((dp709
S'GO:0019856'
p710
I01
stbaa(lp711
S'18515835'
p712
ag5
(g6
g7
NtRp713
((dp714
S'GO:0006355'
p715
I01
sS'GO:0006357'
p716
I01
sS'GO:0006367'
p717
I01
sS'GO:0006366'
p718
I01
stbaa(lp719
S'15194808'
p720
ag5
(g6
g7
NtRp721
((dp722
S'GO:0007015'
p723
I01
sS'GO:0006468'
p724
I01
sS'GO:0006909'
p725
I01
sS'GO:0000902'
p726
I01
sS'GO:0031589'
p727
I01
sS'GO:0006928'
p728
I01
sS'GO:0000281'
p729
I01
stbaa(lp730
S'9230077'
p731
ag5
(g6
g7
NtRp732
((dp733
S'GO:0016337'
p734
I01
sS'GO:0031589'
p735
I01
sS'GO:0006909'
p736
I01
sS'GO:0000281'
p737
I01
stbaa(lp738
S'18375618'
p739
ag5
(g6
g7
NtRp740
((dp741
S'GO:0031589'
p742
I01
sS'GO:0030587'
p743
I01
stbaa(lp744
S'8636212'
p745
ag5
(g6
g7
NtRp746
((dp747
S'GO:0051017'
p748
I01
sS'GO:0006928'
p749
I01
stbaa(lp750
S'10421841'
p751
ag5
(g6
g7
NtRp752
((dp753
S'GO:0006972'
p754
I01
stbaa(lp755
S'9118250'
p756
ag5
(g6
g7
NtRp757
((dp758
S'GO:0030042'
p759
I01
stbaa(lp760
S'10744862'
p761
ag5
(g6
g7
NtRp762
((dp763
S'GO:0051014'
p764
I01
stbaa(lp765
S'15075287'
p766
ag5
(g6
g7
NtRp767
((dp768
S'GO:0030587'
p769
I01
stbaa(lp770
S'17660362'
p771
ag5
(g6
g7
NtRp772
((dp773
S'GO:0031159'
p774
I01
sS'GO:0043950'
p775
I01
stbaa(lp776
S'6897549'
p777
ag5
(g6
g7
NtRp778
((dp779
S'GO:0030043'
p780
I01
sS'GO:0051014'
p781
I01
stbaa(lp782
S'17172447'
p783
ag5
(g6
g7
NtRp784
((dp785
S'GO:0007163'
p786
I01
stbaa(lp787
S'1310316'
p788
ag5
(g6
g7
NtRp789
((dp790
S'GO:0006004'
p791
I01
stbaa(lp792
S'8016318'
p793
ag5
(g6
g7
NtRp794
((dp795
S'GO:0030198'
p796
I01
stbaa(lp797
S'17040207'
p798
ag5
(g6
g7
NtRp799
((dp800
S'GO:0046069'
p801
I01
sS'GO:0006198'
p802
I01
stbaa(lp803
S'2049870'
p804
ag5
(g6
g7
NtRp805
((dp806
S'GO:0046069'
p807
I01
stbaa(lp808
S'3243026'
p809
ag5
(g6
g7
NtRp810
((dp811
S'GO:0007155'
p812
I01
stbaa(lp813
S'2914932'
p814
ag5
(g6
g7
NtRp815
((dp816
S'GO:0030041'
p817
I01
stbaa(lp818
S'17121815'
p819
ag5
(g6
g7
NtRp820
((dp821
S'GO:0030036'
p822
I01
sS'GO:0042331'
p823
I01
stbaa(lp824
S'9480045'
p825
ag5
(g6
g7
NtRp826
((dp827
S'GO:0043052'
p828
I01
sS'GO:0042331'
p829
I01
stbaa(lp830
S'15574880'
p831
ag5
(g6
g7
NtRp832
((dp833
S'GO:0002029'
p834
I01
stbaa(lp835
S'15507682'
p836
ag5
(g6
g7
NtRp837
((dp838
S'GO:0045860'
p839
I01
sS'GO:0006935'
p840
I01
sS'GO:0031152'
p841
I01
sS'GO:0006171'
p842
I01
stbaa(lp843
S'9578623'
p844
ag5
(g6
g7
NtRp845
((dp846
S'GO:0007190'
p847
I01
sS'GO:0006935'
p848
I01
sS'GO:0031152'
p849
I01
stbaa(lp850
S'11264536'
p851
ag5
(g6
g7
NtRp852
((dp853
S'GO:0008277'
p854
I01
stbaa(lp855
S'17630977'
p856
ag5
(g6
g7
NtRp857
((dp858
S'GO:0032148'
p859
I01
sS'GO:0031152'
p860
I01
stbaa(lp861
S'1849108'
p862
ag5
(g6
g7
NtRp863
((dp864
S'GO:0031152'
p865
I01
stbaa(lp866
S'21103944'
p867
ag5
(g6
g7
NtRp868
((dp869
S'GO:0032861'
p870
I01
stbaa(lp871
S'15143344'
p872
ag5
(g6
g7
NtRp873
((dp874
S'GO:0007188'
p875
I01
sS'GO:0046578'
p876
I01
sS'GO:0007265'
p877
I01
stbaa(lp878
S'17905919'
p879
ag5
(g6
g7
NtRp880
((dp881
S'GO:0050764'
p882
I01
stbaa(lp883
S'7806571'
p884
ag5
(g6
g7
NtRp885
((dp886
S'GO:0000281'
p887
I01
sS'GO:0030587'
p888
I01
stbaa(lp889
S'16822579'
p890
ag5
(g6
g7
NtRp891
((dp892
S'GO:0031589'
p893
I01
sS'GO:0006928'
p894
I01
sS'GO:0000281'
p895
I01
sS'GO:0000902'
p896
I01
stbaa(lp897
S'15352238'
p898
ag5
(g6
g7
NtRp899
((dp900
S'GO:0001932'
p901
I01
stbaa(lp902
S'16622066'
p903
ag5
(g6
g7
NtRp904
((dp905
S'GO:0016339'
p906
I01
sS'GO:0001932'
p907
I01
sS'GO:0046586'
p908
I01
stbaa(lp909
S'18180289'
p910
ag5
(g6
g7
NtRp911
((dp912
S'GO:0031284'
p913
I01
sS'GO:0008283'
p914
I01
sS'GO:0032861'
p915
I01
sS'GO:0043327'
p916
I01
sS'GO:0007190'
p917
I01
sS'GO:0051897'
p918
I01
stbaa(lp919
S'23132928'
p920
ag5
(g6
g7
NtRp921
((dp922
S'GO:0043326'
p923
I01
sS'GO:0045184'
p924
I01
sS'GO:0007265'
p925
I01
sS'GO:0043552'
p926
I01
stbaa(lp927
S'16885420'
p928
ag5
(g6
g7
NtRp929
((dp930
S'GO:0043327'
p931
I01
sS'GO:0051897'
p932
I01
sS'GO:0031152'
p933
I01
sS'GO:0030828'
p934
I01
stbaa(lp935
S'15261655'
p936
ag5
(g6
g7
NtRp937
((dp938
S'GO:0006909'
p939
I01
sS'GO:0031152'
p940
I01
stbaa(lp941
S'2161991'
p942
ag5
(g6
g7
NtRp943
((dp944
S'GO:0031154'
p945
I01
sS'GO:0031153'
p946
I01
stbaa(lp947
S'18204858'
p948
ag5
(g6
g7
NtRp949
((dp950
S'GO:0030587'
p951
I01
stbaa(lp952
S'2813371'
p953
ag5
(g6
g7
NtRp954
((dp955
S'GO:0006231'
p956
I01
stbaa(lp957
S'15715993'
p958
ag5
(g6
g7
NtRp959
((dp960
S'GO:0031284'
p961
I01
sS'GO:0045762'
p962
I01
sS'GO:0007189'
p963
I01
sS'GO:0006935'
p964
I01
sS'GO:0031152'
p965
I01
stbaa(lp966
S'15563608'
p967
ag5
(g6
g7
NtRp968
((dp969
S'GO:0007188'
p970
I01
sS'GO:0043085'
p971
I01
stbaa(lp972
S'17878305'
p973
ag5
(g6
g7
NtRp974
((dp975
S'GO:0006974'
p976
I01
stbaa(lp977
S'7821221'
p978
ag5
(g6
g7
NtRp979
((dp980
S'GO:0006184'
p981
I01
stbaa(lp982
S'8280098'
p983
ag5
(g6
g7
NtRp984
((dp985
S'GO:0007186'
p986
I01
sS'GO:0007165'
p987
I01
stbaa(lp988
S'9015266'
p989
ag5
(g6
g7
NtRp990
((dp991
S'GO:0030154'
p992
I01
stbaa(lp993
S'17481898'
p994
ag5
(g6
g7
NtRp995
((dp996
S'GO:0043327'
p997
I01
sS'GO:0007186'
p998
I01
sS'GO:0007165'
p999
I01
sS'GO:0030587'
p1000
I01
stbaa(lp1001
S'8898241'
p1002
ag5
(g6
g7
NtRp1003
((dp1004
S'GO:0030435'
p1005
I01
sS'GO:0009653'
p1006
I01
stbaa(lp1007
S'1972546'
p1008
ag5
(g6
g7
NtRp1009
((dp1010
S'GO:0018108'
p1011
I01
stbaa(lp1012
S'22699506'
p1013
ag5
(g6
g7
NtRp1014
((dp1015
S'GO:2000366'
p1016
I01
sS'GO:0007260'
p1017
I01
stbaa(lp1018
S'17371831'
p1019
ag5
(g6
g7
NtRp1020
((dp1021
S'GO:0043520'
p1022
I01
sS'GO:0051489'
p1023
I01
sS'GO:0031589'
p1024
I01
sS'GO:0030833'
p1025
I01
sS'GO:0006935'
p1026
I01
stbaa(lp1027
S'12186953'
p1028
ag5
(g6
g7
NtRp1029
((dp1030
S'GO:0009409'
p1031
I01
sS'GO:0031284'
p1032
I01
sS'GO:0046578'
p1033
I01
sS'GO:0031289'
p1034
I01
sS'GO:0006972'
p1035
I01
stbaa(lp1036
S'18039932'
p1037
ag5
(g6
g7
NtRp1038
((dp1039
S'GO:0032854'
p1040
I01
sS'GO:0031589'
p1041
I01
sS'GO:0051270'
p1042
I01
sS'GO:0030837'
p1043
I01
sS'GO:0030838'
p1044
I01
sS'GO:0032317'
p1045
I01
sS'GO:0032861'
p1046
I01
sS'GO:0045184'
p1047
I01
sS'GO:0051591'
p1048
I01
sS'GO:0007163'
p1049
I01
sS'GO:0043520'
p1050
I01
stbaa(lp1051
S'2568162'
p1052
ag5
(g6
g7
NtRp1053
((dp1054
S'GO:0006541'
p1055
I01
stbaa(lp1056
S'2156849'
p1057
ag5
(g6
g7
NtRp1058
((dp1059
S'GO:0046705'
p1060
I01
sS'GO:0043173'
p1061
I01
sS'GO:0006225'
p1062
I01
stbaa(lp1063
S'8703943'
p1064
ag5
(g6
g7
NtRp1065
((dp1066
S'GO:0043100'
p1067
I01
stbaa(lp1068
S'15289548'
p1069
ag5
(g6
g7
NtRp1070
((dp1071
S'GO:0016339'
p1072
I01
sS'GO:0031157'
p1073
I01
sS'GO:0050708'
p1074
I01
sS'GO:0030036'
p1075
I01
stbaa(lp1076
S'18636095'
p1077
ag5
(g6
g7
NtRp1078
((dp1079
S'GO:0033298'
p1080
I01
sS'GO:0032858'
p1081
I01
sS'GO:0034394'
p1082
I01
sS'GO:0006971'
p1083
I01
stbaa(lp1084
S'1989999'
p1085
ag5
(g6
g7
NtRp1086
((dp1087
S'GO:0046086'
p1088
I01
sS'GO:0006164'
p1089
I01
stbaa(lp1090
S'2161830'
p1091
ag5
(g6
g7
NtRp1092
((dp1093
S'GO:0006187'
p1094
I01
sS'GO:0006186'
p1095
I01
sS'GO:0009142'
p1096
I01
stbaa(lp1097
S'7733916'
p1098
ag5
(g6
g7
NtRp1099
((dp1100
S'GO:0006414'
p1101
I01
stbaa(lp1102
S'8389692'
p1103
ag5
(g6
g7
NtRp1104
((dp1105
S'GO:0007186'
p1106
I01
stbaa(lp1107
S'21991393'
p1108
ag5
(g6
g7
NtRp1109
((dp1110
S'GO:0048550'
p1111
I01
sS'GO:0045920'
p1112
I01
sS'GO:0050765'
p1113
I01
sS'GO:0016049'
p1114
I01
stbaa(lp1115
S'8816286'
p1116
ag5
(g6
g7
NtRp1117
((dp1118
S'GO:0030036'
p1119
I01
stbaa(lp1120
S'6707016'
p1121
ag5
(g6
g7
NtRp1122
((dp1123
S'GO:0051764'
p1124
I01
sS'GO:0051017'
p1125
I01
stbaa(lp1126
S'16762449'
p1127
ag5
(g6
g7
NtRp1128
((dp1129
S'GO:0006874'
p1130
I01
stbaa(lp1131
S'7657724'
p1132
ag5
(g6
g7
NtRp1133
((dp1134
S'GO:0006874'
p1135
I01
sS'GO:0030587'
p1136
I01
stbaa(lp1137
S'8901579'
p1138
ag5
(g6
g7
NtRp1139
((dp1140
S'GO:0000281'
p1141
I01
stbaa(lp1142
S'3029131'
p1143
ag5
(g6
g7
NtRp1144
((dp1145
S'GO:0019933'
p1146
I01
stbaa(lp1147
S'9789030'
p1148
ag5
(g6
g7
NtRp1149
((dp1150
S'GO:0019934'
p1151
I01
stbaa(lp1152
S'8947030'
p1153
ag5
(g6
g7
NtRp1154
((dp1155
S'GO:0046777'
p1156
I01
stbaa(lp1157
S'16546177'
p1158
ag5
(g6
g7
NtRp1159
((dp1160
S'GO:0045860'
p1161
I01
sS'GO:0050920'
p1162
I01
stbaa(lp1163
S'11223952'
p1164
ag5
(g6
g7
NtRp1165
((dp1166
S'GO:0006898'
p1167
I01
sS'GO:0000281'
p1168
I01
stbaa(lp1169
S'9238018'
p1170
ag5
(g6
g7
NtRp1171
((dp1172
S'GO:0000281'
p1173
I01
sS'GO:0000915'
p1174
I01
stbaa(lp1175
S'1522112'
p1176
ag5
(g6
g7
NtRp1177
((dp1178
S'GO:0007033'
p1179
I01
sS'GO:0006909'
p1180
I01
sS'GO:0006907'
p1181
I01
sS'GO:0006898'
p1182
I01
sS'GO:0006970'
p1183
I01
sS'GO:0031152'
p1184
I01
stbaa(lp1185
S'14617352'
p1186
ag5
(g6
g7
NtRp1187
((dp1188
S'GO:0009992'
p1189
I01
sS'GO:0006897'
p1190
I01
sS'GO:0006869'
p1191
I01
sS'GO:0006886'
p1192
I01
sS'GO:0000281'
p1193
I01
sS'GO:0031154'
p1194
I01
sS'GO:0048268'
p1195
I01
sS'GO:0006970'
p1196
I01
sS'GO:0006907'
p1197
I01
stbaa(lp1198
S'8034739'
p1199
ag5
(g6
g7
NtRp1200
((dp1201
S'GO:0007041'
p1202
I01
stbaa(lp1203
S'9053320'
p1204
ag5
(g6
g7
NtRp1205
((dp1206
S'GO:0030435'
p1207
I01
sS'GO:0031152'
p1208
I01
stbaa(lp1209
S'22992464'
p1210
ag5
(g6
g7
NtRp1211
((dp1212
S'GO:0072583'
p1213
I01
stbaa(lp1214
S'7954798'
p1215
ag5
(g6
g7
NtRp1216
((dp1217
S'GO:0030587'
p1218
I01
sS'GO:0030837'
p1219
I01
sS'GO:0000281'
p1220
I01
sS'GO:0006928'
p1221
I01
stbaa(lp1222
S'17467078'
p1223
ag5
(g6
g7
NtRp1224
((dp1225
S'GO:0043327'
p1226
I01
sS'GO:0030837'
p1227
I01
stbaa(lp1228
S'15769249'
p1229
ag5
(g6
g7
NtRp1230
((dp1231
S'GO:0006383'
p1232
I01
stbaa(lp1233
S'8380174'
p1234
ag5
(g6
g7
NtRp1235
((dp1236
S'GO:0043327'
p1237
I01
sS'GO:0000281'
p1238
I01
sS'GO:0006928'
p1239
I01
stbaa(lp1240
S'10873800'
p1241
ag5
(g6
g7
NtRp1242
((dp1243
S'GO:0043327'
p1244
I01
sS'GO:0006468'
p1245
I01
sS'GO:0031288'
p1246
I01
stbaa(lp1247
S'1885577'
p1248
ag5
(g6
g7
NtRp1249
((dp1250
S'GO:0006177'
p1251
I01
stbaa(lp1252
S'11606416'
p1253
ag5
(g6
g7
NtRp1254
((dp1255
S'GO:0042127'
p1256
I01
sS'GO:0000281'
p1257
I01
sS'GO:0051726'
p1258
I01
stbaa(lp1259
S'15878331'
p1260
ag5
(g6
g7
NtRp1261
((dp1262
S'GO:0031276'
p1263
I01
sS'GO:0043491'
p1264
I01
sS'GO:0001558'
p1265
I01
sS'GO:0030036'
p1266
I01
sS'GO:0006928'
p1267
I01
sS'GO:0043326'
p1268
I01
sS'GO:0043406'
p1269
I01
sS'GO:0007163'
p1270
I01
sS'GO:0051491'
p1271
I01
sS'GO:0007265'
p1272
I01
stbaa(lp1273
S'11500376'
p1274
ag5
(g6
g7
NtRp1275
((dp1276
S'GO:0045762'
p1277
I01
sS'GO:0051897'
p1278
I01
sS'GO:0007165'
p1279
I01
sS'GO:0031152'
p1280
I01
sS'GO:0030819'
p1281
I01
stbaa(lp1282
S'16023096'
p1283
ag5
(g6
g7
NtRp1284
((dp1285
S'GO:0043327'
p1286
I01
sS'GO:0031152'
p1287
I01
stbaa(lp1288
S'10652263'
p1289
ag5
(g6
g7
NtRp1290
((dp1291
S'GO:0042127'
p1292
I01
sS'GO:0051271'
p1293
I01
sS'GO:0006907'
p1294
I01
sS'GO:0030866'
p1295
I01
sS'GO:0006928'
p1296
I01
sS'GO:0045807'
p1297
I01
stbaa(lp1298
S'12211111'
p1299
ag5
(g6
g7
NtRp1300
((dp1301
S'GO:0007015'
p1302
I01
sS'GO:0006928'
p1303
I01
stbaa(lp1304
S'12854977'
p1305
ag5
(g6
g7
NtRp1306
((dp1307
S'GO:0050766'
p1308
I01
sS'GO:0051271'
p1309
I01
stbaa(lp1310
S'15527790'
p1311
ag5
(g6
g7
NtRp1312
((dp1313
S'GO:0007059'
p1314
I01
stbaa(lp1315
S'17548361'
p1316
ag5
(g6
g7
NtRp1317
((dp1318
S'GO:0006200'
p1319
I01
stbaa(lp1320
S'8816999'
p1321
ag5
(g6
g7
NtRp1322
((dp1323
S'GO:0031122'
p1324
I01
stbaa(lp1325
S'18430243'
p1326
ag5
(g6
g7
NtRp1327
((dp1328
S'GO:0090307'
p1329
I01
sS'GO:0031122'
p1330
I01
stbaa(lp1331
S'1730409'
p1332
ag5
(g6
g7
NtRp1333
((dp1334
S'GO:0030435'
p1335
I01
stbaa(lp1336
S'18028904'
p1337
ag5
(g6
g7
NtRp1338
((dp1339
S'GO:0043326'
p1340
I01
stbaa(lp1341
S'8620848'
p1342
ag5
(g6
g7
NtRp1343
((dp1344
S'GO:0030587'
p1345
I01
stbaa(lp1346
S'19176583'
p1347
ag5
(g6
g7
NtRp1348
((dp1349
S'GO:0007214'
p1350
I01
stbaa(lp1351
S'8609164'
p1352
ag5
(g6
g7
NtRp1353
((dp1354
S'GO:0006909'
p1355
I01
sS'GO:0006928'
p1356
I01
stbaa(lp1357
S'18089562'
p1358
ag5
(g6
g7
NtRp1359
((dp1360
S'GO:0033275'
p1361
I01
stbaa(lp1362
S'22008230'
p1363
ag5
(g6
g7
NtRp1364
((dp1365
S'GO:1900756'
p1366
I01
sS'GO:0090383'
p1367
I01
sS'GO:0044656'
p1368
I01
sS'GO:0044655'
p1369
I01
sS'GO:0090382'
p1370
I01
stbaa(lp1371
S'2163458'
p1372
ag5
(g6
g7
NtRp1373
((dp1374
S'GO:0009142'
p1375
I01
stbaa(lp1376
S'23473502'
p1377
ag5
(g6
g7
NtRp1378
((dp1379
S'GO:0010629'
p1380
I01
sS'GO:0010628'
p1381
I01
stbaa(lp1382
S'14680693'
p1383
ag5
(g6
g7
NtRp1384
((dp1385
S'GO:0030435'
p1386
I01
sS'GO:0042173'
p1387
I01
stbaa(lp1388
S'10102987'
p1389
ag5
(g6
g7
NtRp1390
((dp1391
S'GO:0006468'
p1392
I01
stbaa(lp1393
S'12074548'
p1394
ag5
(g6
g7
NtRp1395
((dp1396
S'GO:0006468'
p1397
I01
sS'GO:0006909'
p1398
I01
sS'GO:0008283'
p1399
I01
sS'GO:0006907'
p1400
I01
sS'GO:0030435'
p1401
I01
sS'GO:0031157'
p1402
I01
sS'GO:0031152'
p1403
I01
stbaa(lp1404
S'3110159'
p1405
ag5
(g6
g7
NtRp1406
((dp1407
S'GO:0005980'
p1408
I01
stbaa(lp1409
S'8130037'
p1410
ag5
(g6
g7
NtRp1411
((dp1412
S'GO:0006508'
p1413
I01
stbaa(lp1414
S'7589554'
p1415
ag5
(g6
g7
NtRp1416
((dp1417
S'GO:0030833'
p1418
I01
stbaa(lp1419
S'16854454'
p1420
ag5
(g6
g7
NtRp1421
((dp1422
S'GO:0035556'
p1423
I01
sS'GO:0007205'
p1424
I01
stbaa(lp1425
S'8557714'
p1426
ag5
(g6
g7
NtRp1427
((dp1428
S'GO:0050926'
p1429
I01
sS'GO:0009653'
p1430
I01
stbaa(lp1431
S'2549052'
p1432
ag5
(g6
g7
NtRp1433
((dp1434
S'GO:0046777'
p1435
I01
stbaa(lp1436
S'9334183'
p1437
ag5
(g6
g7
NtRp1438
((dp1439
S'GO:0000122'
p1440
I01
stbaa(lp1441
S'8226777'
p1442
ag5
(g6
g7
NtRp1443
((dp1444
S'GO:0006470'
p1445
I01
sS'GO:0031152'
p1446
I01
sS'GO:0035335'
p1447
I01
stbaa(lp1448
S'15962002'
p1449
ag5
(g6
g7
NtRp1450
((dp1451
S'GO:0050766'
p1452
I01
sS'GO:0007015'
p1453
I01
sS'GO:0050765'
p1454
I01
sS'GO:0006907'
p1455
I01
sS'GO:0030866'
p1456
I01
sS'GO:0046847'
p1457
I01
stbaa(lp1458
S'22302991'
p1459
ag5
(g6
g7
NtRp1460
((dp1461
S'GO:0016601'
p1462
I01
stbaa(lp1463
S'16968699'
p1464
ag5
(g6
g7
NtRp1465
((dp1466
S'GO:0030838'
p1467
I01
sS'GO:0014065'
p1468
I01
sS'GO:0016477'
p1469
I01
sS'GO:0045184'
p1470
I01
sS'GO:0006935'
p1471
I01
stbaa(lp1472
S'16415044'
p1473
ag5
(g6
g7
NtRp1474
((dp1475
S'GO:0008360'
p1476
I01
sS'GO:0006897'
p1477
I01
sS'GO:0000281'
p1478
I01
sS'GO:0031152'
p1479
I01
stbaa(lp1480
S'15817229'
p1481
ag5
(g6
g7
NtRp1482
((dp1483
S'GO:0046999'
p1484
I01
sS'GO:0019953'
p1485
I01
stbaa(lp1486
S'15470506'
p1487
ag5
(g6
g7
NtRp1488
((dp1489
S'GO:0030041'
p1490
I01
sS'GO:0035020'
p1491
I01
sS'GO:0006935'
p1492
I01
sS'GO:0031152'
p1493
I01
stbaa(lp1494
S'15668169'
p1495
ag5
(g6
g7
NtRp1496
((dp1497
S'GO:0008064'
p1498
I01
sS'GO:0045762'
p1499
I01
sS'GO:0006935'
p1500
I01
sS'GO:0031152'
p1501
I01
stbaa(lp1502
S'9778249'
p1503
ag5
(g6
g7
NtRp1504
((dp1505
S'GO:0006935'
p1506
I01
stbaa(lp1507
S'17606871'
p1508
ag5
(g6
g7
NtRp1509
((dp1510
S'GO:0007188'
p1511
I01
stbaa(lp1512
S'8089184'
p1513
ag5
(g6
g7
NtRp1514
((dp1515
S'GO:0045762'
p1516
I01
sS'GO:0031152'
p1517
I01
stbaa(lp1518
S'15366706'
p1519
ag5
(g6
g7
NtRp1520
((dp1521
S'GO:0048015'
p1522
I01
stbaa(lp1523
S'7790362'
p1524
ag5
(g6
g7
NtRp1525
((dp1526
S'GO:0043326'
p1527
I01
sS'GO:0043327'
p1528
I01
sS'GO:0031152'
p1529
I01
stbaa(lp1530
S'8099335'
p1531
ag5
(g6
g7
NtRp1532
((dp1533
S'GO:0031152'
p1534
I01
stbaa(lp1535
S'17635933'
p1536
ag5
(g6
g7
NtRp1537
((dp1538
S'GO:0032320'
p1539
I01
stbaa(lp1540
S'9422733'
p1541
ag5
(g6
g7
NtRp1542
((dp1543
S'GO:0006909'
p1544
I01
stbaa(lp1545
S'11686306'
p1546
ag5
(g6
g7
NtRp1547
((dp1548
S'GO:0007264'
p1549
I01
sS'GO:0007231'
p1550
I01
stbaa(lp1551
S'8125261'
p1552
ag5
(g6
g7
NtRp1553
((dp1554
S'GO:0006357'
p1555
I01
sS'GO:0007275'
p1556
I01
stbaa(lp1557
S'9698452'
p1558
ag5
(g6
g7
NtRp1559
((dp1560
S'GO:0007275'
p1561
I01
stbaa(lp1562
S'19133302'
p1563
ag5
(g6
g7
NtRp1564
((dp1565
S'GO:0048102'
p1566
I01
stbaa(lp1567
S'8448193'
p1568
ag5
(g6
g7
NtRp1569
((dp1570
S'GO:0006104'
p1571
I01
stbaa(lp1572
S'8950185'
p1573
ag5
(g6
g7
NtRp1574
((dp1575
S'GO:0006260'
p1576
I01
stbaa(lp1577
S'14651934'
p1578
ag5
(g6
g7
NtRp1579
((dp1580
S'GO:0031152'
p1581
I01
stbaa(lp1582
S'7926779'
p1583
ag5
(g6
g7
NtRp1584
((dp1585
S'GO:0031152'
p1586
I01
stbaa(lp1587
S'12062087'
p1588
ag5
(g6
g7
NtRp1589
((dp1590
S'GO:0000187'
p1591
I01
sS'GO:0006468'
p1592
I01
sS'GO:0031152'
p1593
I01
sS'GO:0016567'
p1594
I01
sS'GO:0000165'
p1595
I01
sS'GO:0043327'
p1596
I01
sS'GO:0030010'
p1597
I01
sS'GO:0016925'
p1598
I01
stbaa(lp1599
S'15987738'
p1600
ag5
(g6
g7
NtRp1601
((dp1602
S'GO:0031037'
p1603
I01
sS'GO:0006468'
p1604
I01
sS'GO:0000281'
p1605
I01
stbaa(lp1606
S'20197546'
p1607
ag5
(g6
g7
NtRp1608
((dp1609
S'GO:0006468'
p1610
I01
sS'GO:0006200'
p1611
I01
stbaa(lp1612
S'3027076'
p1613
ag5
(g6
g7
NtRp1614
((dp1615
S'GO:0031037'
p1616
I01
sS'GO:0006468'
p1617
I01
stbaa(lp1618
S'11278493'
p1619
ag5
(g6
g7
NtRp1620
((dp1621
S'GO:0018107'
p1622
I01
stbaa(lp1623
S'18381083'
p1624
ag5
(g6
g7
NtRp1625
((dp1626
S'GO:0018107'
p1627
I01
sS'GO:0018209'
p1628
I01
stbaa(lp1629
S'8567716'
p1630
ag5
(g6
g7
NtRp1631
((dp1632
S'GO:0031037'
p1633
I01
stbaa(lp1634
S'2176841'
p1635
ag5
(g6
g7
NtRp1636
((dp1637
S'GO:0046777'
p1638
I01
stbaa(lp1639
S'16372899'
p1640
ag5
(g6
g7
NtRp1641
((dp1642
S'GO:0051260'
p1643
I01
sS'GO:0051017'
p1644
I01
sS'GO:0051764'
p1645
I01
stbaa(lp1646
S'9201999'
p1647
ag5
(g6
g7
NtRp1648
((dp1649
S'GO:0051260'
p1650
I01
stbaa(lp1651
S'16950926'
p1652
ag5
(g6
g7
NtRp1653
((dp1654
S'GO:0030838'
p1655
I01
sS'GO:0046847'
p1656
I01
sS'GO:0032314'
p1657
I01
sS'GO:0006909'
p1658
I01
sS'GO:0006928'
p1659
I01
stbaa(lp1660
S'10896781'
p1661
ag5
(g6
g7
NtRp1662
((dp1663
S'GO:0031152'
p1664
I01
sS'GO:0006928'
p1665
I01
stbaa(lp1666
S'9836437'
p1667
ag5
(g6
g7
NtRp1668
((dp1669
S'GO:0006412'
p1670
I01
stbaa(lp1671
S'23787121'
p1672
ag5
(g6
g7
NtRp1673
((dp1674
S'GO:0007059'
p1675
I01
sS'GO:0000281'
p1676
I01
sS'GO:0051231'
p1677
I01
stbaa(lp1678
S'11032815'
p1679
ag5
(g6
g7
NtRp1680
((dp1681
S'GO:0018107'
p1682
I01
sS'GO:0006468'
p1683
I01
sS'GO:0046827'
p1684
I01
stbaa(lp1685
S'9784196'
p1686
ag5
(g6
g7
NtRp1687
((dp1688
S'GO:0006468'
p1689
I01
stbaa(lp1690
S'7813009'
p1691
ag5
(g6
g7
NtRp1692
((dp1693
S'GO:0030154'
p1694
I01
sS'GO:0031288'
p1695
I01
sS'GO:0007165'
p1696
I01
stbaa(lp1697
S'15342480'
p1698
ag5
(g6
g7
NtRp1699
((dp1700
S'GO:0031154'
p1701
I01
sS'GO:0030435'
p1702
I01
sS'GO:0007275'
p1703
I01
stbaa(lp1704
S'10571182'
p1705
ag5
(g6
g7
NtRp1706
((dp1707
S'GO:0006468'
p1708
I01
sS'GO:0033674'
p1709
I01
sS'GO:0001708'
p1710
I01
sS'GO:0031288'
p1711
I01
sS'GO:0018108'
p1712
I01
sS'GO:0030435'
p1713
I01
sS'GO:0007165'
p1714
I01
sS'GO:0046777'
p1715
I01
stbaa(lp1716
S'22944283'
p1717
ag5
(g6
g7
NtRp1718
((dp1719
S'GO:0071285'
p1720
I01
sS'GO:0010629'
p1721
I01
sS'GO:0046827'
p1722
I01
sS'GO:0043157'
p1723
I01
sS'GO:0006970'
p1724
I01
sS'GO:0031150'
p1725
I01
stbaa(lp1726
S'21205787'
p1727
ag5
(g6
g7
NtRp1728
((dp1729
S'GO:0006468'
p1730
I01
sS'GO:0030154'
p1731
I01
sS'GO:0031288'
p1732
I01
sS'GO:0018108'
p1733
I01
sS'GO:0010468'
p1734
I01
sS'GO:0030435'
p1735
I01
sS'GO:0042659'
p1736
I01
sS'GO:0060176'
p1737
I01
sS'GO:0045860'
p1738
I01
sS'GO:0061118'
p1739
I01
stbaa(lp1740
S'2580557'
p1741
ag5
(g6
g7
NtRp1742
((dp1743
S'GO:0006284'
p1744
I01
stbaa(lp1745
S'9660787'
p1746
ag5
(g6
g7
NtRp1747
((dp1748
S'GO:0016567'
p1749
I01
stbaa(lp1750
S'12678488'
p1751
ag5
(g6
g7
NtRp1752
((dp1753
S'GO:0030587'
p1754
I01
stbaa(lp1755
S'20951045'
p1756
ag5
(g6
g7
NtRp1757
((dp1758
S'GO:0072697'
p1759
I01
sS'GO:0008104'
p1760
I01
sS'GO:0030865'
p1761
I01
sS'GO:0036090'
p1762
I01
sS'GO:0000226'
p1763
I01
sS'GO:0032467'
p1764
I01
stbaa(lp1765
S'18305004'
p1766
ag5
(g6
g7
NtRp1767
((dp1768
S'GO:0016311'
p1769
I01
sS'GO:0034504'
p1770
I01
sS'GO:0035556'
p1771
I01
sS'GO:0006970'
p1772
I01
sS'GO:0042501'
p1773
I01
stbaa(lp1774
S'8838672'
p1775
ag5
(g6
g7
NtRp1776
((dp1777
S'GO:0030587'
p1778
I01
sS'GO:0006816'
p1779
I01
sS'GO:0008283'
p1780
I01
stbaa(lp1781
S'18718841'
p1782
ag5
(g6
g7
NtRp1783
((dp1784
S'GO:0031152'
p1785
I01
stbaa(lp1786
S'17057715'
p1787
ag5
(g6
g7
NtRp1788
((dp1789
S'GO:0016339'
p1790
I01
stbaa(lp1791
S'18522444'
p1792
ag5
(g6
g7
NtRp1793
((dp1794
S'GO:0007016'
p1795
I01
stbaa(lp1796
S'8089176'
p1797
ag5
(g6
g7
NtRp1798
((dp1799
S'GO:0030587'
p1800
I01
stbaa(lp1801
S'8432731'
p1802
ag5
(g6
g7
NtRp1803
((dp1804
S'GO:0045010'
p1805
I01
stbaa(lp1806
S'8787732'
p1807
ag5
(g6
g7
NtRp1808
((dp1809
S'GO:0050708'
p1810
I01
sS'GO:0007165'
p1811
I01
sS'GO:0007275'
p1812
I01
stbaa(lp1813
S'16606621'
p1814
ag5
(g6
g7
NtRp1815
((dp1816
S'GO:0032114'
p1817
I01
stbaa(lp1818
S'15643062'
p1819
ag5
(g6
g7
NtRp1820
((dp1821
S'GO:0042593'
p1822
I01
sS'GO:0051156'
p1823
I01
sS'GO:0006096'
p1824
I01
sS'GO:0006110'
p1825
I01
stbaa(lp1826
S'17462897'
p1827
ag5
(g6
g7
NtRp1828
((dp1829
S'GO:0030041'
p1830
I01
sS'GO:0006935'
p1831
I01
sS'GO:0006928'
p1832
I01
stbaa(lp1833
S'16267269'
p1834
ag5
(g6
g7
NtRp1835
((dp1836
S'GO:0045761'
p1837
I01
sS'GO:0007186'
p1838
I01
sS'GO:0006935'
p1839
I01
stbaa(lp1840
S'21045112'
p1841
ag5
(g6
g7
NtRp1842
((dp1843
S'GO:0009617'
p1844
I01
stbaa(lp1845
S'19011688'
p1846
ag5
(g6
g7
NtRp1847
((dp1848
S'GO:0022604'
p1849
I01
sS'GO:0031272'
p1850
I01
stbaa(lp1851
S'17535967'
p1852
ag5
(g6
g7
NtRp1853
((dp1854
S'GO:0032959'
p1855
I01
sS'GO:0043327'
p1856
I01
stbaa(lp1857
S'17517960'
p1858
ag5
(g6
g7
NtRp1859
((dp1860
S'GO:0050919'
p1861
I01
sS'GO:0050922'
p1862
I01
stbaa(lp1863
S'16421252'
p1864
ag5
(g6
g7
NtRp1865
((dp1866
S'GO:0051591'
p1867
I01
stbaa(lp1868
S'10878573'
p1869
ag5
(g6
g7
NtRp1870
((dp1871
S'GO:0036092'
p1872
I01
stbaa(lp1873
S'7499325'
p1874
ag5
(g6
g7
NtRp1875
((dp1876
S'GO:0006816'
p1877
I01
stbaa(lp1878
S'9885293'
p1879
ag5
(g6
g7
NtRp1880
((dp1881
S'GO:0006816'
p1882
I01
stbaa(lp1883
S'9421912'
p1884
ag5
(g6
g7
NtRp1885
((dp1886
S'GO:0015992'
p1887
I01
stbaa(lp1888
S'9017597'
p1889
ag5
(g6
g7
NtRp1890
((dp1891
S'GO:0051017'
p1892
I01
stbaa(lp1893
S'11330860'
p1894
ag5
(g6
g7
NtRp1895
((dp1896
S'GO:0006874'
p1897
I01
stbaa(lp1898
S'10747962'
p1899
ag5
(g6
g7
NtRp1900
((dp1901
S'GO:0006906'
p1902
I01
sS'GO:0006885'
p1903
I01
sS'GO:0006887'
p1904
I01
sS'GO:0006970'
p1905
I01
sS'GO:0061025'
p1906
I01
stbaa(lp1907
S'15679845'
p1908
ag5
(g6
g7
NtRp1909
((dp1910
S'GO:0006906'
p1911
I01
stbaa(lp1912
S'8643519'
p1913
ag5
(g6
g7
NtRp1914
((dp1915
S'GO:0030587'
p1916
I01
stbaa(lp1917
S'11719559'
p1918
ag5
(g6
g7
NtRp1919
((dp1920
S'GO:0031154'
p1921
I01
sS'GO:0048388'
p1922
I01
sS'GO:0030154'
p1923
I01
sS'GO:0006897'
p1924
I01
sS'GO:0006887'
p1925
I01
stbaa(lp1926
S'8951083'
p1927
ag5
(g6
g7
NtRp1928
((dp1929
S'GO:0031154'
p1930
I01
sS'GO:0045595'
p1931
I01
sS'GO:0051726'
p1932
I01
stbaa(lp1933
S'7744252'
p1934
ag5
(g6
g7
NtRp1935
((dp1936
S'GO:0030154'
p1937
I01
sS'GO:0006508'
p1938
I01
sS'GO:0045595'
p1939
I01
sS'GO:0006810'
p1940
I01
sS'GO:0007275'
p1941
I01
stbaa(lp1942
S'10427097'
p1943
ag5
(g6
g7
NtRp1944
((dp1945
S'GO:0006907'
p1946
I01
sS'GO:0030042'
p1947
I01
sS'GO:0006909'
p1948
I01
sS'GO:0006935'
p1949
I01
sS'GO:0008283'
p1950
I01
stbaa(lp1951
S'20668166'
p1952
ag5
(g6
g7
NtRp1953
((dp1954
S'GO:0030041'
p1955
I01
sS'GO:0043327'
p1956
I01
sS'GO:0030010'
p1957
I01
stbaa(lp1958
S'18650439'
p1959
ag5
(g6
g7
NtRp1960
((dp1961
S'GO:0033275'
p1962
I01
stbaa(lp1963
S'9177484'
p1964
ag5
(g6
g7
NtRp1965
((dp1966
S'GO:0006265'
p1967
I01
stbaa(lp1968
S'7813455'
p1969
ag5
(g6
g7
NtRp1970
((dp1971
S'GO:0006002'
p1972
I01
stbaa(lp1973
S'7589492'
p1974
ag5
(g6
g7
NtRp1975
((dp1976
S'GO:0006007'
p1977
I01
stbaa(lp1978
S'10026266'
p1979
ag5
(g6
g7
NtRp1980
((dp1981
S'GO:0031115'
p1982
I01
stbaa(lp1983
S'12532328'
p1984
ag5
(g6
g7
NtRp1985
((dp1986
S'GO:0000281'
p1987
I01
stbaa(lp1988
S'11106661'
p1989
ag5
(g6
g7
NtRp1990
((dp1991
S'GO:0046777'
p1992
I01
stbaa(lp1993
S'1328220'
p1994
ag5
(g6
g7
NtRp1995
((dp1996
S'GO:0034765'
p1997
I01
stbaa(lp1998
S'8156999'
p1999
ag5
(g6
g7
NtRp2000
((dp2001
S'GO:0032959'
p2002
I01
stbaa(lp2003
S'1448100'
p2004
ag5
(g6
g7
NtRp2005
((dp2006
S'GO:0006468'
p2007
I01
stbaa(lp2008
S'10556070'
p2009
ag5
(g6
g7
NtRp2010
((dp2011
S'GO:0030435'
p2012
I01
sS'GO:0006171'
p2013
I01
stbaa(lp2014
S'15821137'
p2015
ag5
(g6
g7
NtRp2016
((dp2017
S'GO:0031275'
p2018
I01
sS'GO:0007015'
p2019
I01
sS'GO:0008360'
p2020
I01
sS'GO:0050920'
p2021
I01
stbaa(lp2022
S'20670432'
p2023
ag5
(g6
g7
NtRp2024
((dp2025
S'GO:0008283'
p2026
I01
sS'GO:0051591'
p2027
I01
sS'GO:0010628'
p2028
I01
sS'GO:0031152'
p2029
I01
sS'GO:0019933'
p2030
I01
sS'GO:0051409'
p2031
I01
sS'GO:0006979'
p2032
I01
stbaa(lp2033
S'9582274'
p2034
ag5
(g6
g7
NtRp2035
((dp2036
S'GO:0030435'
p2037
I01
stbaa(lp2038
S'22928977'
p2039
ag5
(g6
g7
NtRp2040
((dp2041
S'GO:0031000'
p2042
I01
stbaa(lp2043
S'14718564'
p2044
ag5
(g6
g7
NtRp2045
((dp2046
S'GO:0045859'
p2047
I01
sS'GO:0006970'
p2048
I01
sS'GO:0006171'
p2049
I01
sS'GO:0009847'
p2050
I01
stbaa(lp2051
S'18640994'
p2052
ag5
(g6
g7
NtRp2053
((dp2054
S'GO:0006970'
p2055
I01
stbaa(lp2056
S'17267449'
p2057
ag5
(g6
g7
NtRp2058
((dp2059
S'GO:0030435'
p2060
I01
stbaa(lp2061
S'8224535'
p2062
ag5
(g6
g7
NtRp2063
((dp2064
S'GO:0045859'
p2065
I01
stbaa(lp2066
S'8635456'
p2067
ag5
(g6
g7
NtRp2068
((dp2069
S'GO:0051017'
p2070
I01
stbaa(lp2071
S'8408201'
p2072
ag5
(g6
g7
NtRp2073
((dp2074
S'GO:0051645'
p2075
I01
stbaa(lp2076
S'16443752'
p2077
ag5
(g6
g7
NtRp2078
((dp2079
S'GO:0006909'
p2080
I01
stbaa(lp2081
S'17971415'
p2082
ag5
(g6
g7
NtRp2083
((dp2084
S'GO:0042244'
p2085
I01
sS'GO:0009847'
p2086
I01
sS'GO:0035304'
p2087
I01
stbaa(lp2088
S'17584488'
p2089
ag5
(g6
g7
NtRp2090
((dp2091
S'GO:0031152'
p2092
I01
sS'GO:0030587'
p2093
I01
stbaa(lp2094
S'23433110'
p2095
ag5
(g6
g7
NtRp2096
((dp2097
S'GO:0006979'
p2098
I01
stbaa(lp2099
S'8660315'
p2100
ag5
(g6
g7
NtRp2101
((dp2102
S'GO:0006729'
p2103
I01
sS'GO:0046656'
p2104
I01
stbaa(lp2105
S'22647904'
p2106
ag5
(g6
g7
NtRp2107
((dp2108
S'GO:0001676'
p2109
I01
sS'GO:0050766'
p2110
I01
stbaa(lp2111
S'14629118'
p2112
ag5
(g6
g7
NtRp2113
((dp2114
S'GO:0001676'
p2115
I01
sS'GO:0006631'
p2116
I01
stbaa(lp2117
S'15186508'
p2118
ag5
(g6
g7
NtRp2119
((dp2120
S'GO:0007030'
p2121
I01
sS'GO:0000226'
p2122
I01
stbaa(lp2123
S'10769206'
p2124
ag5
(g6
g7
NtRp2125
((dp2126
S'GO:0000281'
p2127
I01
sS'GO:0051298'
p2128
I01
stbaa(lp2129
S'14517319'
p2130
ag5
(g6
g7
NtRp2131
((dp2132
S'GO:0046785'
p2133
I01
stbaa(lp2134
S'11726513'
p2135
ag5
(g6
g7
NtRp2136
((dp2137
S'GO:0006911'
p2138
I01
stbaa(lp2139
S'15897458'
p2140
ag5
(g6
g7
NtRp2141
((dp2142
S'GO:0006508'
p2143
I01
sS'GO:0006468'
p2144
I01
sS'GO:0006469'
p2145
I01
sS'GO:0030435'
p2146
I01
stbaa(lp2147
S'8986798'
p2148
ag5
(g6
g7
NtRp2149
((dp2150
S'GO:0006508'
p2151
I01
sS'GO:0045595'
p2152
I01
sS'GO:0006810'
p2153
I01
stbaa(lp2154
S'9435289'
p2155
ag5
(g6
g7
NtRp2156
((dp2157
S'GO:0006198'
p2158
I01
stbaa(lp2159
S'10974109'
p2160
ag5
(g6
g7
NtRp2161
((dp2162
S'GO:0030149'
p2163
I01
sS'GO:0030587'
p2164
I01
sS'GO:0007275'
p2165
I01
sS'GO:0006672'
p2166
I01
stbaa(lp2167
S'12796307'
p2168
ag5
(g6
g7
NtRp2169
((dp2170
S'GO:0031154'
p2171
I01
sS'GO:0030435'
p2172
I01
sS'GO:0019933'
p2173
I01
sS'GO:0030587'
p2174
I01
stbaa(lp2175
S'10930471'
p2176
ag5
(g6
g7
NtRp2177
((dp2178
S'GO:0031276'
p2179
I01
stbaa(lp2180
S'15752425'
p2181
ag5
(g6
g7
NtRp2182
((dp2183
S'GO:0051279'
p2184
I01
sS'GO:0031276'
p2185
I01
sS'GO:0046058'
p2186
I01
sS'GO:0051281'
p2187
I01
stbaa(lp2188
S'16234315'
p2189
ag5
(g6
g7
NtRp2190
((dp2191
S'GO:0006935'
p2192
I01
stbaa(lp2193
S'9254905'
p2194
ag5
(g6
g7
NtRp2195
((dp2196
S'GO:0030435'
p2197
I01
sS'GO:0009653'
p2198
I01
sS'GO:0030587'
p2199
I01
stbaa(lp2200
S'15883042'
p2201
ag5
(g6
g7
NtRp2202
((dp2203
S'GO:0006139'
p2204
I01
stbaa(lp2205
S'17448496'
p2206
ag5
(g6
g7
NtRp2207
((dp2208
S'GO:0006139'
p2209
I01
sS'GO:0006170'
p2210
I01
sS'GO:0006180'
p2211
I01
stbaa(lp2212
S'17207566'
p2213
ag5
(g6
g7
NtRp2214
((dp2215
S'GO:0008033'
p2216
I01
stbaa(lp2217
S'18603769'
p2218
ag5
(g6
g7
NtRp2219
((dp2220
S'GO:0006627'
p2221
I01
sS'GO:0031930'
p2222
I01
stbaa(lp2223
S'16051212'
p2224
ag5
(g6
g7
NtRp2225
((dp2226
S'GO:0043326'
p2227
I01
sS'GO:0031589'
p2228
I01
sS'GO:0030833'
p2229
I01
sS'GO:0016337'
p2230
I01
sS'GO:0031154'
p2231
I01
sS'GO:0043327'
p2232
I01
sS'GO:0007163'
p2233
I01
sS'GO:0031152'
p2234
I01
stbaa(lp2235
S'18218133'
p2236
ag5
(g6
g7
NtRp2237
((dp2238
S'GO:0030587'
p2239
I01
stbaa(lp2240
S'18252726'
p2241
ag5
(g6
g7
NtRp2242
((dp2243
S'GO:0019505'
p2244
I01
sS'GO:0019438'
p2245
I01
sS'GO:0030639'
p2246
I01
stbaa(lp2247
S'11336701'
p2248
ag5
(g6
g7
NtRp2249
((dp2250
S'GO:0045892'
p2251
I01
sS'GO:0007275'
p2252
I01
stbaa(lp2253
S'14871937'
p2254
ag5
(g6
g7
NtRp2255
((dp2256
S'GO:0043157'
p2257
I01
sS'GO:0007275'
p2258
I01
stbaa(lp2259
S'15701689'
p2260
ag5
(g6
g7
NtRp2261
((dp2262
S'GO:0030435'
p2263
I01
sS'GO:0006797'
p2264
I01
sS'GO:0006909'
p2265
I01
stbaa(lp2266
S'17940044'
p2267
ag5
(g6
g7
NtRp2268
((dp2269
S'GO:0007109'
p2270
I01
sS'GO:0006799'
p2271
I01
stbaa(lp2272
S'16582628'
p2273
ag5
(g6
g7
NtRp2274
((dp2275
S'GO:0006303'
p2276
I01
stbaa(lp2277
S'19763158'
p2278
ag5
(g6
g7
NtRp2279
((dp2280
S'GO:0006974'
p2281
I01
sS'GO:0000724'
p2282
I01
stbaa(lp2283
S'12456012'
p2284
ag5
(g6
g7
NtRp2285
((dp2286
S'GO:0006508'
p2287
I01
sS'GO:0006810'
p2288
I01
sS'GO:0006448'
p2289
I01
sS'GO:0015910'
p2290
I01
stbaa(lp2291
S'23967067'
p2292
ag5
(g6
g7
NtRp2293
((dp2294
S'GO:0031154'
p2295
I01
sS'GO:0031288'
p2296
I01
sS'GO:0031152'
p2297
I01
sS'GO:0030587'
p2298
I01
stbaa(lp2299
S'17655921'
p2300
ag5
(g6
g7
NtRp2301
((dp2302
S'GO:0009306'
p2303
I01
sS'GO:0009847'
p2304
I01
stbaa(lp2305
S'22366457'
p2306
ag5
(g6
g7
NtRp2307
((dp2308
S'GO:0043327'
p2309
I01
sS'GO:0048870'
p2310
I01
sS'GO:0046847'
p2311
I01
sS'GO:0000281'
p2312
I01
sS'GO:0030587'
p2313
I01
stbaa(lp2314
S'23548898'
p2315
ag5
(g6
g7
NtRp2316
((dp2317
S'GO:0031152'
p2318
I01
stbaa(lp2319
S'18621026'
p2320
ag5
(g6
g7
NtRp2321
((dp2322
S'GO:0034625'
p2323
I01
stbaa(lp2324
S'12175335'
p2325
ag5
(g6
g7
NtRp2326
((dp2327
S'GO:0008333'
p2328
I01
sS'GO:0006906'
p2329
I01
sS'GO:0016192'
p2330
I01
sS'GO:0006810'
p2331
I01
stbaa(lp2332
S'21606208'
p2333
ag5
(g6
g7
NtRp2334
((dp2335
S'GO:0006887'
p2336
I01
sS'GO:0045010'
p2337
I01
sS'GO:0044655'
p2338
I01
stbaa(lp2339
S'16112620'
p2340
ag5
(g6
g7
NtRp2341
((dp2342
S'GO:0006310'
p2343
I01
sS'GO:0006468'
p2344
I01
sS'GO:0006303'
p2345
I01
sS'GO:0006302'
p2346
I01
sS'GO:0000012'
p2347
I01
sS'GO:0006289'
p2348
I01
sS'GO:0006974'
p2349
I01
sS'GO:0006266'
p2350
I01
sS'GO:0045893'
p2351
I01
stbaa(lp2352
S'18164290'
p2353
ag5
(g6
g7
NtRp2354
((dp2355
S'GO:0006928'
p2356
I01
stbaa(lp2357
S'16368684'
p2358
ag5
(g6
g7
NtRp2359
((dp2360
S'GO:0009142'
p2361
I01
stbaa(lp2362
S'19878291'
p2363
ag5
(g6
g7
NtRp2364
((dp2365
S'GO:0001709'
p2366
I01
stbaa(lp2367
S'17177856'
p2368
ag5
(g6
g7
NtRp2369
((dp2370
S'GO:0031154'
p2371
I01
sS'GO:0030435'
p2372
I01
sS'GO:0016338'
p2373
I01
sS'GO:0031152'
p2374
I01
sS'GO:0045165'
p2375
I01
stbaa(lp2376
S'12464622'
p2377
ag5
(g6
g7
NtRp2378
((dp2379
S'GO:0031152'
p2380
I01
sS'GO:0046856'
p2381
I01
sS'GO:0046855'
p2382
I01
sS'GO:0008283'
p2383
I01
stbaa(lp2384
S'11784104'
p2385
ag5
(g6
g7
NtRp2386
((dp2387
S'GO:0009167'
p2388
I01
sS'GO:0030435'
p2389
I01
stbaa(lp2390
S'12871696'
p2391
ag5
(g6
g7
NtRp2392
((dp2393
S'GO:0031154'
p2394
I01
sS'GO:0006810'
p2395
I01
sS'GO:0031152'
p2396
I01
sS'GO:0030587'
p2397
I01
stbaa(lp2398
S'23576747'
p2399
ag5
(g6
g7
NtRp2400
((dp2401
S'GO:0031684'
p2402
I01
sS'GO:0061122'
p2403
I01
sS'GO:0046579'
p2404
I01
sS'GO:0043326'
p2405
I01
sS'GO:0010628'
p2406
I01
sS'GO:0007186'
p2407
I01
stbaa(lp2408
S'24137657'
p2409
ag5
(g6
g7
NtRp2410
((dp2411
S'GO:0061077'
p2412
I01
stbaa(lp2413
S'11956322'
p2414
ag5
(g6
g7
NtRp2415
((dp2416
S'GO:0051453'
p2417
I01
sS'GO:0006911'
p2418
I01
stbaa(lp2419
S'18827012'
p2420
ag5
(g6
g7
NtRp2421
((dp2422
S'GO:0030435'
p2423
I01
sS'GO:0000281'
p2424
I01
stbaa(lp2425
S'16243037'
p2426
ag5
(g6
g7
NtRp2427
((dp2428
S'GO:0006310'
p2429
I01
sS'GO:0006468'
p2430
I01
sS'GO:0006303'
p2431
I01
sS'GO:0006302'
p2432
I01
sS'GO:0006334'
p2433
I01
sS'GO:0006974'
p2434
I01
sS'GO:0006975'
p2435
I01
sS'GO:0006266'
p2436
I01
sS'GO:0045893'
p2437
I01
sS'GO:0016573'
p2438
I01
sS'GO:0051276'
p2439
I01
stbaa(lp2440
S'21458438'
p2441
ag5
(g6
g7
NtRp2442
((dp2443
S'GO:0010628'
p2444
I01
stbaa(lp2445
S'20080085'
p2446
ag5
(g6
g7
NtRp2447
((dp2448
S'GO:0010629'
p2449
I01
stbaa(lp2450
S'20300194'
p2451
ag5
(g6
g7
NtRp2452
((dp2453
S'GO:0010629'
p2454
I01
sS'GO:0010628'
p2455
I01
sS'GO:0045165'
p2456
I01
stbaa(lp2457
S'22253818'
p2458
ag5
(g6
g7
NtRp2459
((dp2460
S'GO:0010629'
p2461
I01
stbaa(lp2462
S'16396914'
p2463
ag5
(g6
g7
NtRp2464
((dp2465
S'GO:0040011'
p2466
I01
sS'GO:0031149'
p2467
I01
stbaa(lp2468
S'16410410'
p2469
ag5
(g6
g7
NtRp2470
((dp2471
S'GO:0045184'
p2472
I01
sS'GO:0012501'
p2473
I01
sS'GO:0031149'
p2474
I01
stbaa(lp2475
S'16672332'
p2476
ag5
(g6
g7
NtRp2477
((dp2478
S'GO:0007214'
p2479
I01
stbaa(lp2480
S'16527814'
p2481
ag5
(g6
g7
NtRp2482
((dp2483
S'GO:0043327'
p2484
I01
sS'GO:0031152'
p2485
I01
stbaa(lp2486
S'18349074'
p2487
ag5
(g6
g7
NtRp2488
((dp2489
S'GO:0010812'
p2490
I01
sS'GO:0030036'
p2491
I01
sS'GO:0048870'
p2492
I01
stbaa(lp2493
S'19002378'
p2494
ag5
(g6
g7
NtRp2495
((dp2496
S'GO:0046956'
p2497
I01
sS'GO:0031288'
p2498
I01
sS'GO:0022408'
p2499
I01
stbaa(lp2500
S'15003488'
p2501
ag5
(g6
g7
NtRp2502
((dp2503
S'GO:0006086'
p2504
I01
sS'GO:0006564'
p2505
I01
sS'GO:0006574'
p2506
I01
sS'GO:0006546'
p2507
I01
sS'GO:0006552'
p2508
I01
sS'GO:0006550'
p2509
I01
sS'GO:0006094'
p2510
I01
stbaa(lp2511
S'22357942'
p2512
ag5
(g6
g7
NtRp2513
((dp2514
S'GO:0006874'
p2515
I01
sS'GO:0001845'
p2516
I01
sS'GO:0017157'
p2517
I01
stbaa(lp2518
S'12697064'
p2519
ag5
(g6
g7
NtRp2520
((dp2521
S'GO:0006468'
p2522
I01
sS'GO:0048255'
p2523
I01
sS'GO:0006446'
p2524
I01
sS'GO:0031152'
p2525
I01
sS'GO:0019933'
p2526
I01
sS'GO:0006417'
p2527
I01
sS'GO:0031158'
p2528
I01
stbaa(lp2529
S'15950752'
p2530
ag5
(g6
g7
NtRp2531
((dp2532
S'GO:0030435'
p2533
I01
sS'GO:0042554'
p2534
I01
sS'GO:0006801'
p2535
I01
sS'GO:0030587'
p2536
I01
stbaa(lp2537
S'9486804'
p2538
ag5
(g6
g7
NtRp2539
((dp2540
S'GO:0045595'
p2541
I01
sS'GO:0009653'
p2542
I01
stbaa(lp2543
S'24132237'
p2544
ag5
(g6
g7
NtRp2545
((dp2546
S'GO:0030336'
p2547
I01
sS'GO:0016477'
p2548
I01
sS'GO:0033058'
p2549
I01
stbaa(lp2550
S'16906151'
p2551
ag5
(g6
g7
NtRp2552
((dp2553
S'GO:0031148'
p2554
I01
sS'GO:0030639'
p2555
I01
stbaa(lp2556
S'18402932'
p2557
ag5
(g6
g7
NtRp2558
((dp2559
S'GO:0031149'
p2560
I01
sS'GO:0031288'
p2561
I01
stbaa(lp2562
S'24096661'
p2563
ag5
(g6
g7
NtRp2564
((dp2565
S'GO:0044671'
p2566
I01
sS'GO:0031149'
p2567
I01
stbaa(lp2568
S'20231486'
p2569
ag5
(g6
g7
NtRp2570
((dp2571
S'GO:0031154'
p2572
I01
sS'GO:0031148'
p2573
I01
sS'GO:0031153'
p2574
I01
stbaa(lp2575
S'16495312'
p2576
ag5
(g6
g7
NtRp2577
((dp2578
S'GO:0000122'
p2579
I01
stbaa(lp2580
S'22744750'
p2581
ag5
(g6
g7
NtRp2582
((dp2583
S'GO:0010824'
p2584
I01
sS'GO:0090307'
p2585
I01
sS'GO:0051645'
p2586
I01
sS'GO:0016049'
p2587
I01
sS'GO:0071988'
p2588
I01
stbaa(lp2589
S'16356468'
p2590
ag5
(g6
g7
NtRp2591
((dp2592
S'GO:0006355'
p2593
I01
sS'GO:0009396'
p2594
I01
stbaa(lp2595
S'18334553'
p2596
ag5
(g6
g7
NtRp2597
((dp2598
S'GO:0051270'
p2599
I01
sS'GO:0030587'
p2600
I01
sS'GO:0042331'
p2601
I01
sS'GO:0006887'
p2602
I01
sS'GO:0051490'
p2603
I01
sS'GO:0033298'
p2604
I01
stbaa(lp2605
S'10987137'
p2606
ag5
(g6
g7
NtRp2607
((dp2608
S'GO:0006729'
p2609
I01
stbaa(lp2610
S'15896778'
p2611
ag5
(g6
g7
NtRp2612
((dp2613
S'GO:0042559'
p2614
I01
stbaa(lp2615
S'16678813'
p2616
ag5
(g6
g7
NtRp2617
((dp2618
S'GO:0031154'
p2619
I01
sS'GO:0045454'
p2620
I01
sS'GO:0006979'
p2621
I01
sS'GO:0006749'
p2622
I01
stbaa(lp2623
S'12626495'
p2624
ag5
(g6
g7
NtRp2625
((dp2626
S'GO:0006995'
p2627
I01
sS'GO:0030587'
p2628
I01
sS'GO:0016236'
p2629
I01
sS'GO:0006914'
p2630
I01
sS'GO:0031288'
p2631
I01
sS'GO:0030435'
p2632
I01
stbaa(lp2633
S'11854403'
p2634
ag5
(g6
g7
NtRp2635
((dp2636
S'GO:0035194'
p2637
I01
sS'GO:0010586'
p2638
I01
sS'GO:0070918'
p2639
I01
stbaa(lp2640
S'14597204'
p2641
ag5
(g6
g7
NtRp2642
((dp2643
S'GO:0007275'
p2644
I01
stbaa(lp2645
S'17050732'
p2646
ag5
(g6
g7
NtRp2647
((dp2648
S'GO:0031589'
p2649
I01
sS'GO:0000281'
p2650
I01
sS'GO:0000916'
p2651
I01
stbaa(lp2652
S'8752217'
p2653
ag5
(g6
g7
NtRp2654
((dp2655
S'GO:0051639'
p2656
I01
sS'GO:0051017'
p2657
I01
sS'GO:0000281'
p2658
I01
sS'GO:0000902'
p2659
I01
stbaa(lp2660
S'9927418'
p2661
ag5
(g6
g7
NtRp2662
((dp2663
S'GO:0036089'
p2664
I01
sS'GO:0000281'
p2665
I01
stbaa(lp2666
S'22114350'
p2667
ag5
(g6
g7
NtRp2668
((dp2669
S'GO:0030587'
p2670
I01
sS'GO:0030866'
p2671
I01
sS'GO:0043520'
p2672
I01
sS'GO:0010628'
p2673
I01
sS'GO:0031152'
p2674
I01
sS'GO:0001934'
p2675
I01
stbaa(lp2676
S'22902739'
p2677
ag5
(g6
g7
NtRp2678
((dp2679
S'GO:0036360'
p2680
I01
sS'GO:0034613'
p2681
I01
sS'GO:0051495'
p2682
I01
sS'GO:0003382'
p2683
I01
stbaa(lp2684
S'22311068'
p2685
ag5
(g6
g7
NtRp2686
((dp2687
S'GO:0018249'
p2688
I01
sS'GO:0070179'
p2689
I01
sS'GO:0006563'
p2690
I01
stbaa(lp2691
S'22090348'
p2692
ag5
(g6
g7
NtRp2693
((dp2694
S'GO:0051642'
p2695
I01
sS'GO:0051297'
p2696
I01
sS'GO:0010847'
p2697
I01
stbaa(lp2698
S'16469305'
p2699
ag5
(g6
g7
NtRp2700
((dp2701
S'GO:0016571'
p2702
I01
sS'GO:0040029'
p2703
I01
sS'GO:0031152'
p2704
I01
sS'GO:0051568'
p2705
I01
stbaa(lp2706
S'12802059'
p2707
ag5
(g6
g7
NtRp2708
((dp2709
S'GO:0007032'
p2710
I01
sS'GO:0006895'
p2711
I01
sS'GO:0006971'
p2712
I01
sS'GO:0007041'
p2713
I01
sS'GO:0007275'
p2714
I01
stbaa(lp2715
S'17673666'
p2716
ag5
(g6
g7
NtRp2717
((dp2718
S'GO:0006952'
p2719
I01
sS'GO:0008283'
p2720
I01
stbaa(lp2721
S'17611045'
p2722
ag5
(g6
g7
NtRp2723
((dp2724
S'GO:0008033'
p2725
I01
stbaa(lp2726
S'16107728'
p2727
ag5
(g6
g7
NtRp2728
((dp2729
S'GO:0043327'
p2730
I01
sS'GO:0007165'
p2731
I01
stbaa(lp2732
S'18657170'
p2733
ag5
(g6
g7
NtRp2734
((dp2735
S'GO:0006468'
p2736
I01
sS'GO:0031156'
p2737
I01
stbaa(lp2738
S'8898113'
p2739
ag5
(g6
g7
NtRp2740
((dp2741
S'GO:0046777'
p2742
I01
sS'GO:0018108'
p2743
I01
stbaa(lp2744
S'21393547'
p2745
ag5
(g6
g7
NtRp2746
((dp2747
S'GO:0061245'
p2748
I01
sS'GO:0009306'
p2749
I01
sS'GO:0051495'
p2750
I01
sS'GO:0034613'
p2751
I01
sS'GO:0051017'
p2752
I01
sS'GO:0031154'
p2753
I01
sS'GO:0031150'
p2754
I01
sS'GO:0051645'
p2755
I01
sS'GO:0051642'
p2756
I01
stbaa(lp2757
S'15496465'
p2758
ag5
(g6
g7
NtRp2759
((dp2760
S'GO:0016192'
p2761
I01
stbaa(lp2762
S'10224056'
p2763
ag5
(g6
g7
NtRp2764
((dp2765
S'GO:0016125'
p2766
I01
stbaa(lp2767
S'23369714'
p2768
ag5
(g6
g7
NtRp2769
((dp2770
S'GO:0030041'
p2771
I01
sS'GO:0006887'
p2772
I01
sS'GO:0044655'
p2773
I01
sS'GO:0061462'
p2774
I01
stbaa(lp2775
S'22389384'
p2776
ag5
(g6
g7
NtRp2777
((dp2778
S'GO:0000747'
p2779
I01
stbaa(lp2780
S'19833731'
p2781
ag5
(g6
g7
NtRp2782
((dp2783
S'GO:0006811'
p2784
I01
sS'GO:0006971'
p2785
I01
sS'GO:0050848'
p2786
I01
stbaa(lp2787
S'19207182'
p2788
ag5
(g6
g7
NtRp2789
((dp2790
S'GO:0031154'
p2791
I01
stbaa(lp2792
S'17725968'
p2793
ag5
(g6
g7
NtRp2794
((dp2795
S'GO:0046956'
p2796
I01
sS'GO:0008283'
p2797
I01
stbaa(lp2798
S'12952082'
p2799
ag5
(g6
g7
NtRp2800
((dp2801
S'GO:0009408'
p2802
I01
sS'GO:0031288'
p2803
I01
stbaa(lp2804
S'18676957'
p2805
ag5
(g6
g7
NtRp2806
((dp2807
S'GO:0006909'
p2808
I01
stbaa(lp2809
S'15689527'
p2810
ag5
(g6
g7
NtRp2811
((dp2812
S'GO:0006306'
p2813
I01
sS'GO:0090116'
p2814
I01
stbaa(lp2815
S'16400165'
p2816
ag5
(g6
g7
NtRp2817
((dp2818
S'GO:0031154'
p2819
I01
sS'GO:0030435'
p2820
I01
sS'GO:0090116'
p2821
I01
sS'GO:0032776'
p2822
I01
stbaa(lp2823
S'16282589'
p2824
ag5
(g6
g7
NtRp2825
((dp2826
S'GO:0090116'
p2827
I01
sS'GO:0032776'
p2828
I01
stbaa(lp2829
S'23998118'
p2830
ag5
(g6
g7
NtRp2831
((dp2832
S'GO:0008283'
p2833
I01
stbaa(lp2834
S'18676953'
p2835
ag5
(g6
g7
NtRp2836
((dp2837
S'GO:0030835'
p2838
I01
sS'GO:0030818'
p2839
I01
sS'GO:0030587'
p2840
I01
sS'GO:0016311'
p2841
I01
sS'GO:0031152'
p2842
I01
sS'GO:0014066'
p2843
I01
stbaa(lp2844
S'20457612'
p2845
ag5
(g6
g7
NtRp2846
((dp2847
S'GO:0010468'
p2848
I01
stbaa(lp2849
S'17560550'
p2850
ag5
(g6
g7
NtRp2851
((dp2852
S'GO:0006412'
p2853
I01
stbaa(lp2854
S'23536703'
p2855
ag5
(g6
g7
NtRp2856
((dp2857
S'GO:0031154'
p2858
I01
sS'GO:0030435'
p2859
I01
sS'GO:0042331'
p2860
I01
sS'GO:0010507'
p2861
I01
sS'GO:0032981'
p2862
I01
stbaa(lp2863
S'10978342'
p2864
ag5
(g6
g7
NtRp2865
((dp2866
S'GO:0006906'
p2867
I01
stbaa(lp2868
S'8830653'
p2869
ag5
(g6
g7
NtRp2870
((dp2871
S'GO:0036360'
p2872
I01
sS'GO:0016049'
p2873
I01
sS'GO:0000281'
p2874
I01
stbaa(lp2875
S'9056774'
p2876
ag5
(g6
g7
NtRp2877
((dp2878
S'GO:0031154'
p2879
I01
sS'GO:0030435'
p2880
I01
sS'GO:0031149'
p2881
I01
sS'GO:0000281'
p2882
I01
sS'GO:0032320'
p2883
I01
stbaa(lp2884
S'9739079'
p2885
ag5
(g6
g7
NtRp2886
((dp2887
S'GO:0030036'
p2888
I01
sS'GO:0048870'
p2889
I01
stbaa(lp2890
S'9813063'
p2891
ag5
(g6
g7
NtRp2892
((dp2893
S'GO:0016042'
p2894
I01
stbaa(lp2895
S'10209124'
p2896
ag5
(g6
g7
NtRp2897
((dp2898
S'GO:0030587'
p2899
I01
stbaa(lp2900
S'15141168'
p2901
ag5
(g6
g7
NtRp2902
((dp2903
S'GO:0040011'
p2904
I01
sS'GO:0048870'
p2905
I01
stbaa(lp2906
S'20186335'
p2907
ag5
(g6
g7
NtRp2908
((dp2909
S'GO:0031589'
p2910
I01
sS'GO:0006935'
p2911
I01
stbaa(lp2912
S'12538772'
p2913
ag5
(g6
g7
NtRp2914
((dp2915
S'GO:0031154'
p2916
I01
stbaa(lp2917
S'16699495'
p2918
ag5
(g6
g7
NtRp2919
((dp2920
S'GO:0031589'
p2921
I01
sS'GO:0006909'
p2922
I01
stbaa(lp2923
S'21871890'
p2924
ag5
(g6
g7
NtRp2925
((dp2926
S'GO:0006729'
p2927
I01
sS'GO:0006979'
p2928
I01
stbaa(lp2929
S'7729573'
p2930
ag5
(g6
g7
NtRp2931
((dp2932
S'GO:0030198'
p2933
I01
stbaa(lp2934
S'16766083'
p2935
ag5
(g6
g7
NtRp2936
((dp2937
S'GO:0030587'
p2938
I01
stbaa(lp2939
S'21760904'
p2940
ag5
(g6
g7
NtRp2941
((dp2942
S'GO:0008285'
p2943
I01
stbaa(lp2944
S'23773804'
p2945
ag5
(g6
g7
NtRp2946
((dp2947
S'GO:0010628'
p2948
I01
sS'GO:0031152'
p2949
I01
stbaa(lp2950
S'18638468'
p2951
ag5
(g6
g7
NtRp2952
((dp2953
S'GO:0031149'
p2954
I01
sS'GO:0030587'
p2955
I01
stbaa(lp2956
S'18367554'
p2957
ag5
(g6
g7
NtRp2958
((dp2959
S'GO:0006974'
p2960
I01
stbaa(lp2961
S'23923009'
p2962
ag5
(g6
g7
NtRp2963
((dp2964
S'GO:0031167'
p2965
I01
sS'GO:0006352'
p2966
I01
stbaa(lp2967
S'12963116'
p2968
ag5
(g6
g7
NtRp2969
((dp2970
S'GO:0000747'
p2971
I01
stbaa(lp2972
S'18809930'
p2973
ag5
(g6
g7
NtRp2974
((dp2975
S'GO:0000281'
p2976
I01
stbaa(lp2977
S'23679940'
p2978
ag5
(g6
g7
NtRp2979
((dp2980
S'GO:0006997'
p2981
I01
sS'GO:0007015'
p2982
I01
sS'GO:0000920'
p2983
I01
sS'GO:0030835'
p2984
I01
stbaa(lp2985
S'20887559'
p2986
ag5
(g6
g7
NtRp2987
((dp2988
S'GO:0031154'
p2989
I01
sS'GO:0000281'
p2990
I01
stbaa(lp2991
S'20170636'
p2992
ag5
(g6
g7
NtRp2993
((dp2994
S'GO:0018279'
p2995
I01
stbaa(lp2996
S'20057961'
p2997
ag5
(g6
g7
NtRp2998
((dp2999
S'GO:0000902'
p3000
I01
sS'GO:0031268'
p3001
I01
stbaa(lp3002
S'15908944'
p3003
ag5
(g6
g7
NtRp3004
((dp3005
S'GO:0031589'
p3006
I01
sS'GO:0045010'
p3007
I01
sS'GO:0030838'
p3008
I01
sS'GO:0006928'
p3009
I01
sS'GO:0051638'
p3010
I01
sS'GO:0046847'
p3011
I01
stbaa(lp3012
S'16675552'
p3013
ag5
(g6
g7
NtRp3014
((dp3015
S'GO:0030041'
p3016
I01
sS'GO:0046847'
p3017
I01
sS'GO:0051638'
p3018
I01
sS'GO:0051017'
p3019
I01
sS'GO:0045010'
p3020
I01
stbaa(lp3021
S'16599905'
p3022
ag5
(g6
g7
NtRp3023
((dp3024
S'GO:0006021'
p3025
I01
stbaa(lp3026
S'16087752'
p3027
ag5
(g6
g7
NtRp3028
((dp3029
S'GO:0007275'
p3030
I01
stbaa(lp3031
S'20070309'
p3032
ag5
(g6
g7
NtRp3033
((dp3034
S'GO:0040011'
p3035
I01
sS'GO:0006909'
p3036
I01
sS'GO:0008283'
p3037
I01
sS'GO:0009617'
p3038
I01
sS'GO:0031288'
p3039
I01
sS'GO:0031152'
p3040
I01
sS'GO:0031153'
p3041
I01
stbaa(lp3042
S'18413611'
p3043
ag5
(g6
g7
NtRp3044
((dp3045
S'GO:0006007'
p3046
I01
stbaa(lp3047
S'17314411'
p3048
ag5
(g6
g7
NtRp3049
((dp3050
S'GO:0008064'
p3051
I01
sS'GO:0043327'
p3052
I01
sS'GO:0000281'
p3053
I01
stbaa(lp3054
S'20530573'
p3055
ag5
(g6
g7
NtRp3056
((dp3057
S'GO:0008104'
p3058
I01
sS'GO:0000281'
p3059
I01
sS'GO:0043148'
p3060
I01
stbaa(lp3061
S'9732292'
p3062
ag5
(g6
g7
NtRp3063
((dp3064
S'GO:0008064'
p3065
I01
sS'GO:0031288'
p3066
I01
sS'GO:0016049'
p3067
I01
sS'GO:0031269'
p3068
I01
stbaa(lp3069
S'16581519'
p3070
ag5
(g6
g7
NtRp3071
((dp3072
S'GO:0031589'
p3073
I01
sS'GO:0016337'
p3074
I01
sS'GO:0030835'
p3075
I01
sS'GO:0030838'
p3076
I01
sS'GO:0006928'
p3077
I01
sS'GO:0046956'
p3078
I01
sS'GO:0006935'
p3079
I01
stbaa(lp3080
S'16597702'
p3081
ag5
(g6
g7
NtRp3082
((dp3083
S'GO:0046847'
p3084
I01
stbaa(lp3085
S'18550798'
p3086
ag5
(g6
g7
NtRp3087
((dp3088
S'GO:0007030'
p3089
I01
sS'GO:0008283'
p3090
I01
sS'GO:0007029'
p3091
I01
sS'GO:0006907'
p3092
I01
sS'GO:0006887'
p3093
I01
sS'GO:0033298'
p3094
I01
sS'GO:0006971'
p3095
I01
sS'GO:0031152'
p3096
I01
stbaa(lp3097
S'10749929'
p3098
ag5
(g6
g7
NtRp3099
((dp3100
S'GO:0007155'
p3101
I01
sS'GO:0031154'
p3102
I01
sS'GO:0006935'
p3103
I01
sS'GO:0031152'
p3104
I01
stbaa(lp3105
S'10888671'
p3106
ag5
(g6
g7
NtRp3107
((dp3108
S'GO:0008333'
p3109
I01
sS'GO:0006906'
p3110
I01
sS'GO:0016192'
p3111
I01
stbaa(lp3112
S'14704357'
p3113
ag5
(g6
g7
NtRp3114
((dp3115
S'GO:0006366'
p3116
I01
stbaa(lp3117
S'15993406'
p3118
ag5
(g6
g7
NtRp3119
((dp3120
S'GO:0006750'
p3121
I01
sS'GO:0030435'
p3122
I01
sS'GO:0007346'
p3123
I01
stbaa(lp3124
S'16781008'
p3125
ag5
(g6
g7
NtRp3126
((dp3127
S'GO:0043161'
p3128
I01
sS'GO:0008283'
p3129
I01
stbaa(lp3130
S'16003496'
p3131
ag5
(g6
g7
NtRp3132
((dp3133
S'GO:0006355'
p3134
I01
sS'GO:0031152'
p3135
I01
sS'GO:0016570'
p3136
I01
sS'GO:0006338'
p3137
I01
stbaa(lp3138
S'8793298'
p3139
ag5
(g6
g7
NtRp3140
((dp3141
S'GO:0007190'
p3142
I01
sS'GO:0006935'
p3143
I01
sS'GO:0031152'
p3144
I01
sS'GO:0006928'
p3145
I01
stbaa(lp3146
S'10473630'
p3147
ag5
(g6
g7
NtRp3148
((dp3149
S'GO:0031284'
p3150
I01
sS'GO:0007190'
p3151
I01
sS'GO:0043327'
p3152
I01
stbaa(lp3153
S'17380187'
p3154
ag5
(g6
g7
NtRp3155
((dp3156
S'GO:0007265'
p3157
I01
stbaa(lp3158
S'16963635'
p3159
ag5
(g6
g7
NtRp3160
((dp3161
S'GO:0031158'
p3162
I01
stbaa(lp3163
S'22811266'
p3164
ag5
(g6
g7
NtRp3165
((dp3166
S'GO:0031285'
p3167
I01
sS'GO:0045893'
p3168
I01
stbaa(lp3169
S'10491107'
p3170
ag5
(g6
g7
NtRp3171
((dp3172
S'GO:0031034'
p3173
I01
stbaa(lp3174
S'15333995'
p3175
ag5
(g6
g7
NtRp3176
((dp3177
S'GO:0031152'
p3178
I01
stbaa(lp3179
S'17684569'
p3180
ag5
(g6
g7
NtRp3181
((dp3182
S'GO:0006928'
p3183
I01
stbaa(lp3184
S'17998288'
p3185
ag5
(g6
g7
NtRp3186
((dp3187
S'GO:0006928'
p3188
I01
stbaa(lp3189
S'11423539'
p3190
ag5
(g6
g7
NtRp3191
((dp3192
S'GO:0006486'
p3193
I01
stbaa(lp3194
S'12244067'
p3195
ag5
(g6
g7
NtRp3196
((dp3197
S'GO:0006486'
p3198
I01
stbaa(lp3199
S'8662604'
p3200
ag5
(g6
g7
NtRp3201
((dp3202
S'GO:0036065'
p3203
I01
stbaa(lp3204
S'15351882'
p3205
ag5
(g6
g7
NtRp3206
((dp3207
S'GO:0006470'
p3208
I01
sS'GO:0035335'
p3209
I01
stbaa(lp3210
S'16987957'
p3211
ag5
(g6
g7
NtRp3212
((dp3213
S'GO:0031670'
p3214
I01
sS'GO:0031156'
p3215
I01
sS'GO:0030154'
p3216
I01
sS'GO:0016049'
p3217
I01
stbaa(lp3218
S'15843041'
p3219
ag5
(g6
g7
NtRp3220
((dp3221
S'GO:0040011'
p3222
I01
stbaa(lp3223
S'22864416'
p3224
ag5
(g6
g7
NtRp3225
((dp3226
S'GO:0031149'
p3227
I01
sS'GO:0009190'
p3228
I01
stbaa(lp3229
S'15059962'
p3230
ag5
(g6
g7
NtRp3231
((dp3232
S'GO:0007194'
p3233
I01
stbaa(lp3234
S'12176329'
p3235
ag5
(g6
g7
NtRp3236
((dp3237
S'GO:0045744'
p3238
I01
sS'GO:0031157'
p3239
I01
stbaa(lp3240
S'11274054'
p3241
ag5
(g6
g7
NtRp3242
((dp3243
S'GO:0030036'
p3244
I01
sS'GO:0006909'
p3245
I01
sS'GO:0006935'
p3246
I01
sS'GO:0009968'
p3247
I01
sS'GO:0018108'
p3248
I01
stbaa(lp3249
S'17442478'
p3250
ag5
(g6
g7
NtRp3251
((dp3252
S'GO:0015813'
p3253
I01
sS'GO:0015810'
p3254
I01
stbaa(lp3255
S'16835457'
p3256
ag5
(g6
g7
NtRp3257
((dp3258
S'GO:0043326'
p3259
I01
sS'GO:0043327'
p3260
I01
sS'GO:0030587'
p3261
I01
sS'GO:0008283'
p3262
I01
stbaa(lp3263
S'16524908'
p3264
ag5
(g6
g7
NtRp3265
((dp3266
S'GO:0051260'
p3267
I01
sS'GO:0051276'
p3268
I01
sS'GO:0008283'
p3269
I01
stbaa(lp3270
S'12913271'
p3271
ag5
(g6
g7
NtRp3272
((dp3273
S'GO:0006979'
p3274
I01
sS'GO:0000281'
p3275
I01
stbaa(lp3276
S'16495217'
p3277
ag5
(g6
g7
NtRp3278
((dp3279
S'GO:0006486'
p3280
I01
stbaa(lp3281
S'18768936'
p3282
ag5
(g6
g7
NtRp3283
((dp3284
S'GO:0007163'
p3285
I01
sS'GO:0032956'
p3286
I01
sS'GO:0000281'
p3287
I01
sS'GO:0031152'
p3288
I01
sS'GO:0032880'
p3289
I01
stbaa(lp3290
S'15476260'
p3291
ag5
(g6
g7
NtRp3292
((dp3293
S'GO:0001667'
p3294
I01
sS'GO:0031276'
p3295
I01
sS'GO:0006935'
p3296
I01
sS'GO:0030036'
p3297
I01
sS'GO:0006928'
p3298
I01
stbaa(lp3299
S'11566853'
p3300
ag5
(g6
g7
NtRp3301
((dp3302
S'GO:0040011'
p3303
I01
sS'GO:0030833'
p3304
I01
sS'GO:0006935'
p3305
I01
sS'GO:0030587'
p3306
I01
sS'GO:0006874'
p3307
I01
sS'GO:0030036'
p3308
I01
sS'GO:0006928'
p3309
I01
sS'GO:0030435'
p3310
I01
sS'GO:0046956'
p3311
I01
sS'GO:0008219'
p3312
I01
sS'GO:0031158'
p3313
I01
stbaa(lp3314
S'18339368'
p3315
ag5
(g6
g7
NtRp3316
((dp3317
S'GO:0006355'
p3318
I01
sS'GO:0019933'
p3319
I01
stbaa(lp3320
S'15155803'
p3321
ag5
(g6
g7
NtRp3322
((dp3323
S'GO:0045040'
p3324
I01
stbaa(lp3325
S'18992223'
p3326
ag5
(g6
g7
NtRp3327
((dp3328
S'GO:0006366'
p3329
I01
stbaa(lp3330
S'10651904'
p3331
ag5
(g6
g7
NtRp3332
((dp3333
S'GO:0006935'
p3334
I01
sS'GO:0031152'
p3335
I01
sS'GO:0010468'
p3336
I01
stbaa(lp3337
S'15827084'
p3338
ag5
(g6
g7
NtRp3339
((dp3340
S'GO:0031275'
p3341
I01
sS'GO:0031589'
p3342
I01
sS'GO:0007163'
p3343
I01
sS'GO:0050920'
p3344
I01
stbaa(lp3345
S'16507593'
p3346
ag5
(g6
g7
NtRp3347
((dp3348
S'GO:0006909'
p3349
I01
sS'GO:0005977'
p3350
I01
sS'GO:0046034'
p3351
I01
sS'GO:0006907'
p3352
I01
sS'GO:0031154'
p3353
I01
sS'GO:0030435'
p3354
I01
sS'GO:0006536'
p3355
I01
stbaa(lp3356
S'20406883'
p3357
ag5
(g6
g7
NtRp3358
((dp3359
S'GO:0043052'
p3360
I01
sS'GO:0042331'
p3361
I01
sS'GO:0032981'
p3362
I01
stbaa(lp3363
S'12952069'
p3364
ag5
(g6
g7
NtRp3365
((dp3366
S'GO:0006468'
p3367
I01
stbaa(lp3368
S'20375146'
p3369
ag5
(g6
g7
NtRp3370
((dp3371
S'GO:0048102'
p3372
I01
stbaa(lp3373
S'16741867'
p3374
ag5
(g6
g7
NtRp3375
((dp3376
S'GO:0031154'
p3377
I01
stbaa(lp3378
S'16571632'
p3379
ag5
(g6
g7
NtRp3380
((dp3381
S'GO:0006366'
p3382
I01
stbaa(lp3383
S'14595117'
p3384
ag5
(g6
g7
NtRp3385
((dp3386
S'GO:0007015'
p3387
I01
sS'GO:0000281'
p3388
I01
stbaa(lp3389
S'17664333'
p3390
ag5
(g6
g7
NtRp3391
((dp3392
S'GO:0006909'
p3393
I01
sS'GO:0006468'
p3394
I01
sS'GO:0001845'
p3395
I01
sS'GO:0018108'
p3396
I01
stbaa(lp3397
S'22307974'
p3398
ag5
(g6
g7
NtRp3399
((dp3400
S'GO:0016477'
p3401
I01
sS'GO:0006897'
p3402
I01
sS'GO:0006935'
p3403
I01
sS'GO:0031268'
p3404
I01
stbaa(lp3405
S'10331990'
p3406
ag5
(g6
g7
NtRp3407
((dp3408
S'GO:0031154'
p3409
I01
sS'GO:0006355'
p3410
I01
stbaa(lp3411
S'23616924'
p3412
ag5
(g6
g7
NtRp3413
((dp3414
S'GO:0043326'
p3415
I01
sS'GO:0010628'
p3416
I01
sS'GO:0016337'
p3417
I01
sS'GO:0016477'
p3418
I01
sS'GO:0030587'
p3419
I01
stbaa(lp3420
S'18611962'
p3421
ag5
(g6
g7
NtRp3422
((dp3423
S'GO:0008285'
p3424
I01
sS'GO:0031288'
p3425
I01
sS'GO:0006508'
p3426
I01
stbaa(lp3427
S'14665466'
p3428
ag5
(g6
g7
NtRp3429
((dp3430
S'GO:0006357'
p3431
I01
stbaa(lp3432
S'9729488'
p3433
ag5
(g6
g7
NtRp3434
((dp3435
S'GO:0030435'
p3436
I01
sS'GO:0006357'
p3437
I01
stbaa(lp3438
S'14706699'
p3439
ag5
(g6
g7
NtRp3440
((dp3441
S'GO:0030435'
p3442
I01
sS'GO:0031289'
p3443
I01
sS'GO:0042244'
p3444
I01
sS'GO:0031247'
p3445
I01
stbaa(lp3446
S'11437439'
p3447
ag5
(g6
g7
NtRp3448
((dp3449
S'GO:0031154'
p3450
I01
sS'GO:0040011'
p3451
I01
stbaa(lp3452
S'14732403'
p3453
ag5
(g6
g7
NtRp3454
((dp3455
S'GO:0030308'
p3456
I01
stbaa(lp3457
S'17923679'
p3458
ag5
(g6
g7
NtRp3459
((dp3460
S'GO:0006383'
p3461
I01
stbaa(lp3462
S'8670894'
p3463
ag5
(g6
g7
NtRp3464
((dp3465
S'GO:0030435'
p3466
I01
sS'GO:0031150'
p3467
I01
stbaa(lp3468
S'12204259'
p3469
ag5
(g6
g7
NtRp3470
((dp3471
S'GO:0051344'
p3472
I01
stbaa(lp3473
S'18160177'
p3474
ag5
(g6
g7
NtRp3475
((dp3476
S'GO:0006200'
p3477
I01
stbaa(lp3478
S'17916577'
p3479
ag5
(g6
g7
NtRp3480
((dp3481
S'GO:0010586'
p3482
I01
stbaa(lp3483
S'22875808'
p3484
ag5
(g6
g7
NtRp3485
((dp3486
S'GO:0010586'
p3487
I01
sS'GO:0010587'
p3488
I01
sS'GO:0031054'
p3489
I01
stbaa(lp3490
S'23724097'
p3491
ag5
(g6
g7
NtRp3492
((dp3493
S'GO:0030422'
p3494
I01
sS'GO:0036453'
p3495
I01
stbaa(lp3496
S'16899077'
p3497
ag5
(g6
g7
NtRp3498
((dp3499
S'GO:0031154'
p3500
I01
sS'GO:0045454'
p3501
I01
sS'GO:0006909'
p3502
I01
stbaa(lp3503
S'18673380'
p3504
ag5
(g6
g7
NtRp3505
((dp3506
S'GO:0045860'
p3507
I01
sS'GO:0030154'
p3508
I01
sS'GO:0030587'
p3509
I01
stbaa(lp3510
S'22869547'
p3511
ag5
(g6
g7
NtRp3512
((dp3513
S'GO:0031152'
p3514
I01
sS'GO:0008283'
p3515
I01
stbaa(lp3516
S'22264729'
p3517
ag5
(g6
g7
NtRp3518
((dp3519
S'GO:0030041'
p3520
I01
sS'GO:0043327'
p3521
I01
stbaa(lp3522
S'20062541'
p3523
ag5
(g6
g7
NtRp3524
((dp3525
S'GO:0043937'
p3526
I01
sS'GO:0032850'
p3527
I01
stbaa(lp3528
S'22020250'
p3529
ag5
(g6
g7
NtRp3530
((dp3531
S'GO:0046777'
p3532
I01
sS'GO:1901263'
p3533
I01
sS'GO:0010629'
p3534
I01
sS'GO:0006970'
p3535
I01
sS'GO:0061098'
p3536
I01
sS'GO:0071902'
p3537
I01
sS'GO:0006979'
p3538
I01
stbaa(lp3539
S'15821129'
p3540
ag5
(g6
g7
NtRp3541
((dp3542
S'GO:0007275'
p3543
I01
stbaa(lp3544
S'21531871'
p3545
ag5
(g6
g7
NtRp3546
((dp3547
S'GO:2000249'
p3548
I01
sS'GO:0043327'
p3549
I01
sS'GO:0050765'
p3550
I01
sS'GO:0045921'
p3551
I01
sS'GO:0043326'
p3552
I01
stbaa(lp3553
S'23320427'
p3554
ag5
(g6
g7
NtRp3555
((dp3556
S'GO:0006488'
p3557
I01
stbaa(lp3558
S'9394012'
p3559
ag5
(g6
g7
NtRp3560
((dp3561
S'GO:0006887'
p3562
I01
stbaa(lp3563
S'17587329'
p3564
ag5
(g6
g7
NtRp3565
((dp3566
S'GO:0009617'
p3567
I01
stbaa(lp3568
S'17086450'
p3569
ag5
(g6
g7
NtRp3570
((dp3571
S'GO:0070588'
p3572
I01
sS'GO:0006816'
p3573
I01
stbaa(lp3574
S'21040356'
p3575
ag5
(g6
g7
NtRp3576
((dp3577
S'GO:1900756'
p3578
I01
sS'GO:0032026'
p3579
I01
sS'GO:0042742'
p3580
I01
stbaa(lp3581
S'15506982'
p3582
ag5
(g6
g7
NtRp3583
((dp3584
S'GO:0008064'
p3585
I01
stbaa(lp3586
S'19465563'
p3587
ag5
(g6
g7
NtRp3588
((dp3589
S'GO:0006997'
p3590
I01
sS'GO:0007020'
p3591
I01
sS'GO:0051297'
p3592
I01
sS'GO:0000281'
p3593
I01
sS'GO:0006998'
p3594
I01
sS'GO:0010824'
p3595
I01
stbaa(lp3596
S'14729573'
p3597
ag5
(g6
g7
NtRp3598
((dp3599
S'GO:0006355'
p3600
I01
sS'GO:0045595'
p3601
I01
sS'GO:0030587'
p3602
I01
stbaa(lp3603
S'15470429'
p3604
ag5
(g6
g7
NtRp3605
((dp3606
S'GO:0030435'
p3607
I01
stbaa(lp3608
S'22223109'
p3609
ag5
(g6
g7
NtRp3610
((dp3611
S'GO:0034508'
p3612
I01
sS'GO:0030953'
p3613
I01
sS'GO:0000226'
p3614
I01
sS'GO:0007051'
p3615
I01
stbaa(lp3616
S'12686622'
p3617
ag5
(g6
g7
NtRp3618
((dp3619
S'GO:0006468'
p3620
I01
sS'GO:0007189'
p3621
I01
sS'GO:0007275'
p3622
I01
sS'GO:0050921'
p3623
I01
stbaa(lp3624
S'18835579'
p3625
ag5
(g6
g7
NtRp3626
((dp3627
S'GO:0006571'
p3628
I01
sS'GO:0051262'
p3629
I01
sS'GO:0006559'
p3630
I01
stbaa(lp3631
S'23017206'
p3632
ag5
(g6
g7
NtRp3633
((dp3634
S'GO:0051262'
p3635
I01
sS'GO:0008283'
p3636
I01
stbaa(lp3637
S'10793140'
p3638
ag5
(g6
g7
NtRp3639
((dp3640
S'GO:0051093'
p3641
I01
stbaa(lp3642
S'17419997'
p3643
ag5
(g6
g7
NtRp3644
((dp3645
S'GO:0050918'
p3646
I01
sS'GO:0019369'
p3647
I01
sS'GO:0031152'
p3648
I01
stbaa(lp3649
S'22896810'
p3650
ag5
(g6
g7
NtRp3651
((dp3652
S'GO:0031000'
p3653
I01
stbaa(lp3654
S'21134080'
p3655
ag5
(g6
g7
NtRp3656
((dp3657
S'GO:0060100'
p3658
I01
sS'GO:0044351'
p3659
I01
stbaa(lp3660
S'17050736'
p3661
ag5
(g6
g7
NtRp3662
((dp3663
S'GO:0006971'
p3664
I01
stbaa(lp3665
S'19692567'
p3666
ag5
(g6
g7
NtRp3667
((dp3668
S'GO:0009992'
p3669
I01
sS'GO:0006971'
p3670
I01
sS'GO:0033298'
p3671
I01
stbaa(lp3672
S'17332500'
p3673
ag5
(g6
g7
NtRp3674
((dp3675
S'GO:0046956'
p3676
I01
sS'GO:0006754'
p3677
I01
sS'GO:0007005'
p3678
I01
sS'GO:0008283'
p3679
I01
stbaa(lp3680
S'11493573'
p3681
ag5
(g6
g7
NtRp3682
((dp3683
S'GO:0030435'
p3684
I01
sS'GO:0006351'
p3685
I01
sS'GO:0007275'
p3686
I01
stbaa(lp3687
S'9716534'
p3688
ag5
(g6
g7
NtRp3689
((dp3690
S'GO:0010043'
p3691
I01
stbaa(lp3692
S'18854143'
p3693
ag5
(g6
g7
NtRp3694
((dp3695
S'GO:0048870'
p3696
I01
sS'GO:0030837'
p3697
I01
sS'GO:0050764'
p3698
I01
sS'GO:0030587'
p3699
I01
stbaa(lp3700
S'18424909'
p3701
ag5
(g6
g7
NtRp3702
((dp3703
S'GO:0005978'
p3704
I01
sS'GO:0030244'
p3705
I01
sS'GO:0000045'
p3706
I01
stbaa(lp3707
S'14665465'
p3708
ag5
(g6
g7
NtRp3709
((dp3710
S'GO:0007005'
p3711
I01
stbaa(lp3712
S'12857872'
p3713
ag5
(g6
g7
NtRp3714
((dp3715
S'GO:0031589'
p3716
I01
sS'GO:0030587'
p3717
I01
sS'GO:0006909'
p3718
I01
sS'GO:0008283'
p3719
I01
stbaa(lp3720
S'18178563'
p3721
ag5
(g6
g7
NtRp3722
((dp3723
S'GO:0033299'
p3724
I01
stbaa(lp3725
S'23301051'
p3726
ag5
(g6
g7
NtRp3727
((dp3728
S'GO:0050821'
p3729
I01
sS'GO:0061462'
p3730
I01
sS'GO:0072657'
p3731
I01
sS'GO:0007042'
p3732
I01
stbaa(lp3733
S'8898200'
p3734
ag5
(g6
g7
NtRp3735
((dp3736
S'GO:0006355'
p3737
I01
sS'GO:0045595'
p3738
I01
stbaa(lp3739
S'21034843'
p3740
ag5
(g6
g7
NtRp3741
((dp3742
S'GO:0071539'
p3743
I01
sS'GO:0019933'
p3744
I01
stbaa(lp3745
S'21193547'
p3746
ag5
(g6
g7
NtRp3747
((dp3748
S'GO:0030587'
p3749
I01
sS'GO:0001708'
p3750
I01
sS'GO:0030154'
p3751
I01
sS'GO:0010468'
p3752
I01
sS'GO:0008283'
p3753
I01
stbaa(lp3754
S'17177855'
p3755
ag5
(g6
g7
NtRp3756
((dp3757
S'GO:0031589'
p3758
I01
sS'GO:0016337'
p3759
I01
stbaa(lp3760
S'15193148'
p3761
ag5
(g6
g7
NtRp3762
((dp3763
S'GO:0009395'
p3764
I01
sS'GO:0031161'
p3765
I01
sS'GO:0046338'
p3766
I01
stbaa(lp3767
S'16814427'
p3768
ag5
(g6
g7
NtRp3769
((dp3770
S'GO:0042273'
p3771
I01
stbaa(lp3772
S'16790492'
p3773
ag5
(g6
g7
NtRp3774
((dp3775
S'GO:0031033'
p3776
I01
sS'GO:0006935'
p3777
I01
sS'GO:0006182'
p3778
I01
stbaa(lp3779
S'18073238'
p3780
ag5
(g6
g7
NtRp3781
((dp3782
S'GO:0031276'
p3783
I01
sS'GO:0006935'
p3784
I01
stbaa(lp3785
S'14710184'
p3786
ag5
(g6
g7
NtRp3787
((dp3788
S'GO:0031037'
p3789
I01
sS'GO:0031276'
p3790
I01
stbaa(lp3791
S'15851518'
p3792
ag5
(g6
g7
NtRp3793
((dp3794
S'GO:0030838'
p3795
I01
sS'GO:0051453'
p3796
I01
sS'GO:0003365'
p3797
I01
sS'GO:0070650'
p3798
I01
sS'GO:0061118'
p3799
I01
stbaa(lp3800
S'21239624'
p3801
ag5
(g6
g7
NtRp3802
((dp3803
S'GO:0036051'
p3804
I01
sS'GO:0097230'
p3805
I01
stbaa(lp3806
S'17880704'
p3807
ag5
(g6
g7
NtRp3808
((dp3809
S'GO:0016259'
p3810
I01
stbaa(lp3811
S'22992462'
p3812
ag5
(g6
g7
NtRp3813
((dp3814
S'GO:0055072'
p3815
I01
sS'GO:0009617'
p3816
I01
sS'GO:0031152'
p3817
I01
stbaa(lp3818
S'20658257'
p3819
ag5
(g6
g7
NtRp3820
((dp3821
S'GO:0072712'
p3822
I01
sS'GO:0035372'
p3823
I01
sS'GO:0030953'
p3824
I01
stbaa(lp3825
S'15629062'
p3826
ag5
(g6
g7
NtRp3827
((dp3828
S'GO:0006355'
p3829
I01
stbaa(lp3830
S'16299590'
p3831
ag5
(g6
g7
NtRp3832
((dp3833
S'GO:0000271'
p3834
I01
stbaa(lp3835
S'23161062'
p3836
ag5
(g6
g7
NtRp3837
((dp3838
S'GO:0051661'
p3839
I01
sS'GO:0051297'
p3840
I01
sS'GO:0008104'
p3841
I01
sS'GO:0007019'
p3842
I01
stbaa(lp3843
S'23213391'
p3844
ag5
(g6
g7
NtRp3845
((dp3846
S'GO:0007067'
p3847
I01
stbaa(lp3848
S'17588537'
p3849
ag5
(g6
g7
NtRp3850
((dp3851
S'GO:0016338'
p3852
I01
sS'GO:0030587'
p3853
I01
stbaa(lp3854
S'21933174'
p3855
ag5
(g6
g7
NtRp3856
((dp3857
S'GO:0010629'
p3858
I01
sS'GO:0031288'
p3859
I01
sS'GO:0031149'
p3860
I01
sS'GO:0031152'
p3861
I01
sS'GO:0042331'
p3862
I01
stbaa(lp3863
S'12117815'
p3864
ag5
(g6
g7
NtRp3865
((dp3866
S'GO:0016337'
p3867
I01
sS'GO:0030154'
p3868
I01
sS'GO:0006928'
p3869
I01
sS'GO:0007165'
p3870
I01
sS'GO:0045861'
p3871
I01
sS'GO:0031158'
p3872
I01
stbaa(lp3873
S'12912898'
p3874
ag5
(g6
g7
NtRp3875
((dp3876
S'GO:0042593'
p3877
I01
sS'GO:0016337'
p3878
I01
sS'GO:0007165'
p3879
I01
sS'GO:0031152'
p3880
I01
sS'GO:0006928'
p3881
I01
stbaa(lp3882
S'15383615'
p3883
ag5
(g6
g7
NtRp3884
((dp3885
S'GO:0042331'
p3886
I01
sS'GO:0030587'
p3887
I01
stbaa(lp3888
S'10880352'
p3889
ag5
(g6
g7
NtRp3890
((dp3891
S'GO:0006281'
p3892
I01
stbaa(lp3893
S'15640146'
p3894
ag5
(g6
g7
NtRp3895
((dp3896
S'GO:0050830'
p3897
I01
sS'GO:0006909'
p3898
I01
sS'GO:0009253'
p3899
I01
stbaa(lp3900
S'18840649'
p3901
ag5
(g6
g7
NtRp3902
((dp3903
S'GO:0035556'
p3904
I01
sS'GO:0030587'
p3905
I01
stbaa(lp3906
S'16449327'
p3907
ag5
(g6
g7
NtRp3908
((dp3909
S'GO:0031269'
p3910
I01
sS'GO:0006928'
p3911
I01
stbaa(lp3912
S'20200225'
p3913
ag5
(g6
g7
NtRp3914
((dp3915
S'GO:0050766'
p3916
I01
sS'GO:0050765'
p3917
I01
stbaa(lp3918
S'17699599'
p3919
ag5
(g6
g7
NtRp3920
((dp3921
S'GO:0006481'
p3922
I01
sS'GO:0008277'
p3923
I01
sS'GO:0060176'
p3924
I01
sS'GO:0030010'
p3925
I01
stbaa(lp3926
S'22572958'
p3927
ag5
(g6
g7
NtRp3928
((dp3929
S'GO:0034504'
p3930
I01
sS'GO:0006998'
p3931
I01
stbaa(lp3932
S'20940261'
p3933
ag5
(g6
g7
NtRp3934
((dp3935
S'GO:2000145'
p3936
I01
sS'GO:0032970'
p3937
I01
sS'GO:0031288'
p3938
I01
stbaa(lp3939
S'18266910'
p3940
ag5
(g6
g7
NtRp3941
((dp3942
S'GO:0006997'
p3943
I01
sS'GO:0000070'
p3944
I01
sS'GO:0051642'
p3945
I01
stbaa(lp3946
S'19632001'
p3947
ag5
(g6
g7
NtRp3948
((dp3949
S'GO:0006997'
p3950
I01
sS'GO:0051297'
p3951
I01
sS'GO:0000070'
p3952
I01
sS'GO:0034508'
p3953
I01
sS'GO:0051642'
p3954
I01
stbaa(lp3955
S'15073273'
p3956
ag5
(g6
g7
NtRp3957
((dp3958
S'GO:0006352'
p3959
I01
stbaa(lp3960
S'23391225'
p3961
ag5
(g6
g7
NtRp3962
((dp3963
S'GO:0043326'
p3964
I01
sS'GO:0044351'
p3965
I01
sS'GO:0031152'
p3966
I01
stbaa(lp3967
S'17950724'
p3968
ag5
(g6
g7
NtRp3969
((dp3970
S'GO:0030435'
p3971
I01
sS'GO:0030587'
p3972
I01
stbaa(lp3973
S'18948008'
p3974
ag5
(g6
g7
NtRp3975
((dp3976
S'GO:0050920'
p3977
I01
sS'GO:0030833'
p3978
I01
sS'GO:0046578'
p3979
I01
sS'GO:0051896'
p3980
I01
stbaa(lp3981
S'21187070'
p3982
ag5
(g6
g7
NtRp3983
((dp3984
S'GO:0006974'
p3985
I01
sS'GO:0034729'
p3986
I01
sS'GO:0031156'
p3987
I01
sS'GO:0051726'
p3988
I01
stbaa(lp3989
S'9630545'
p3990
ag5
(g6
g7
NtRp3991
((dp3992
S'GO:0030587'
p3993
I01
stbaa(lp3994
S'16899512'
p3995
ag5
(g6
g7
NtRp3996
((dp3997
S'GO:0030041'
p3998
I01
sS'GO:0043327'
p3999
I01
sS'GO:0046847'
p4000
I01
sS'GO:0031269'
p4001
I01
stbaa(lp4002
S'11956323'
p4003
ag5
(g6
g7
NtRp4004
((dp4005
S'GO:0006468'
p4006
I01
sS'GO:0007098'
p4007
I01
stbaa(lp4008
S'7862164'
p4009
ag5
(g6
g7
NtRp4010
((dp4011
S'GO:0000281'
p4012
I01
sS'GO:0030587'
p4013
I01
stbaa(lp4014
S'19576222'
p4015
ag5
(g6
g7
NtRp4016
((dp4017
S'GO:0016575'
p4018
I01
stbaa(lp4019
S'14736886'
p4020
ag5
(g6
g7
NtRp4021
((dp4022
S'GO:0030435'
p4023
I01
sS'GO:0031288'
p4024
I01
sS'GO:0006995'
p4025
I01
sS'GO:0016236'
p4026
I01
sS'GO:0030587'
p4027
I01
stbaa(lp4028
S'16962888'
p4029
ag5
(g6
g7
NtRp4030
((dp4031
S'GO:0006468'
p4032
I01
sS'GO:0007186'
p4033
I01
stbaa(lp4034
S'18408056'
p4035
ag5
(g6
g7
NtRp4036
((dp4037
S'GO:0016311'
p4038
I01
sS'GO:0006470'
p4039
I01
sS'GO:0051270'
p4040
I01
sS'GO:0043407'
p4041
I01
sS'GO:0043327'
p4042
I01
stbaa(lp4043
S'22345351'
p4044
ag5
(g6
g7
NtRp4045
((dp4046
S'GO:0031288'
p4047
I01
stbaa(lp4048
S'15236669'
p4049
ag5
(g6
g7
NtRp4050
((dp4051
S'GO:0051093'
p4052
I01
stbaa(lp4053
S'10545500'
p4054
ag5
(g6
g7
NtRp4055
((dp4056
S'GO:0043327'
p4057
I01
sS'GO:0032467'
p4058
I01
sS'GO:0000281'
p4059
I01
sS'GO:0031152'
p4060
I01
sS'GO:0006935'
p4061
I01
stbaa(lp4062
S'12626710'
p4063
ag5
(g6
g7
NtRp4064
((dp4065
S'GO:0006208'
p4066
I01
stbaa(lp4067
S'16787542'
p4068
ag5
(g6
g7
NtRp4069
((dp4070
S'GO:0006874'
p4071
I01
stbaa(lp4072
S'11865029'
p4073
ag5
(g6
g7
NtRp4074
((dp4075
S'GO:0007032'
p4076
I01
sS'GO:0007155'
p4077
I01
sS'GO:0006907'
p4078
I01
sS'GO:0006909'
p4079
I01
sS'GO:0007041'
p4080
I01
stbaa(lp4081
S'11872142'
p4082
ag5
(g6
g7
NtRp4083
((dp4084
S'GO:0033298'
p4085
I01
sS'GO:0006970'
p4086
I01
stbaa(lp4087
S'16781009'
p4088
ag5
(g6
g7
NtRp4089
((dp4090
S'GO:0051764'
p4091
I01
sS'GO:0006887'
p4092
I01
stbaa(lp4093
S'20071332'
p4094
ag5
(g6
g7
NtRp4095
((dp4096
S'GO:0031589'
p4097
I01
sS'GO:0006909'
p4098
I01
sS'GO:0030835'
p4099
I01
sS'GO:0009617'
p4100
I01
sS'GO:0030866'
p4101
I01
sS'GO:0031276'
p4102
I01
sS'GO:0001667'
p4103
I01
stbaa(lp4104
S'12529423'
p4105
ag5
(g6
g7
NtRp4106
((dp4107
S'GO:0006470'
p4108
I01
sS'GO:0000281'
p4109
I01
stbaa(lp4110
S'10930737'
p4111
ag5
(g6
g7
NtRp4112
((dp4113
S'GO:0042816'
p4114
I01
sS'GO:0031152'
p4115
I01
sS'GO:0008283'
p4116
I01
stbaa(lp4117
S'23577638'
p4118
ag5
(g6
g7
NtRp4119
((dp4120
S'GO:0031285'
p4121
I01
sS'GO:1901261'
p4122
I01
sS'GO:0010468'
p4123
I01
stbaa(lp4124
S'20966074'
p4125
ag5
(g6
g7
NtRp4126
((dp4127
S'GO:0044671'
p4128
I01
sS'GO:0031288'
p4129
I01
stbaa(lp4130
S'9636072'
p4131
ag5
(g6
g7
NtRp4132
((dp4133
S'GO:0030435'
p4134
I01
stbaa(lp4135
S'22682495'
p4136
ag5
(g6
g7
NtRp4137
((dp4138
S'GO:0006517'
p4139
I01
sS'GO:0031152'
p4140
I01
stbaa(lp4141
S'24240571'
p4142
ag5
(g6
g7
NtRp4143
((dp4144
S'GO:0031154'
p4145
I01
stbaa(lp4146
S'22219373'
p4147
ag5
(g6
g7
NtRp4148
((dp4149
S'GO:0050821'
p4150
I01
sS'GO:0010467'
p4151
I01
sS'GO:0006909'
p4152
I01
sS'GO:0034394'
p4153
I01
stbaa(lp4154
S'16367873'
p4155
ag5
(g6
g7
NtRp4156
((dp4157
S'GO:0042742'
p4158
I01
sS'GO:0006477'
p4159
I01
stbaa(lp4160
S'18708585'
p4161
ag5
(g6
g7
NtRp4162
((dp4163
S'GO:0030837'
p4164
I01
sS'GO:0060176'
p4165
I01
sS'GO:0043326'
p4166
I01
sS'GO:0043327'
p4167
I01
sS'GO:0030010'
p4168
I01
sS'GO:0031272'
p4169
I01
stbaa(lp4170
S'18261908'
p4171
ag5
(g6
g7
NtRp4172
((dp4173
S'GO:0043326'
p4174
I01
sS'GO:0045184'
p4175
I01
sS'GO:0000281'
p4176
I01
stbaa(lp4177
S'21131095'
p4178
ag5
(g6
g7
NtRp4179
((dp4180
S'GO:0070584'
p4181
I01
sS'GO:0048311'
p4182
I01
stbaa(lp4183
S'11352578'
p4184
ag5
(g6
g7
NtRp4185
((dp4186
S'GO:0006470'
p4187
I01
stbaa(lp4188
S'16512895'
p4189
ag5
(g6
g7
NtRp4190
((dp4191
S'GO:0031287'
p4192
I01
stbaa(lp4193
S'23686520'
p4194
ag5
(g6
g7
NtRp4195
((dp4196
S'GO:0043157'
p4197
I01
sS'GO:0031156'
p4198
I01
stbaa(lp4199
S'9023987'
p4200
ag5
(g6
g7
NtRp4201
((dp4202
S'GO:0005978'
p4203
I01
stbaa(lp4204
S'12840076'
p4205
ag5
(g6
g7
NtRp4206
((dp4207
S'GO:0006801'
p4208
I01
sS'GO:0031152'
p4209
I01
stbaa(lp4210
S'15483055'
p4211
ag5
(g6
g7
NtRp4212
((dp4213
S'GO:0007163'
p4214
I01
sS'GO:0000281'
p4215
I01
sS'GO:0031273'
p4216
I01
stbaa(lp4217
S'15255188'
p4218
ag5
(g6
g7
NtRp4219
((dp4220
S'GO:0006508'
p4221
I01
stbaa(lp4222
S'12388544'
p4223
ag5
(g6
g7
NtRp4224
((dp4225
S'GO:0030041'
p4226
I01
sS'GO:0007015'
p4227
I01
sS'GO:0031589'
p4228
I01
sS'GO:0046847'
p4229
I01
sS'GO:0050922'
p4230
I01
stbaa(lp4231
S'16176950'
p4232
ag5
(g6
g7
NtRp4233
((dp4234
S'GO:0008285'
p4235
I01
sS'GO:0031157'
p4236
I01
sS'GO:0016049'
p4237
I01
sS'GO:0030435'
p4238
I01
stbaa(lp4239
S'15643073'
p4240
ag5
(g6
g7
NtRp4241
((dp4242
S'GO:0008284'
p4243
I01
sS'GO:0006648'
p4244
I01
stbaa(lp4245
S'15728726'
p4246
ag5
(g6
g7
NtRp4247
((dp4248
S'GO:0031156'
p4249
I01
sS'GO:0006468'
p4250
I01
sS'GO:0031288'
p4251
I01
sS'GO:0000281'
p4252
I01
sS'GO:0031038'
p4253
I01
stbaa(lp4254
S'14551196'
p4255
ag5
(g6
g7
NtRp4256
((dp4257
S'GO:0042593'
p4258
I01
sS'GO:0031158'
p4259
I01
sS'GO:0006928'
p4260
I01
stbaa(lp4261
S'18990192'
p4262
ag5
(g6
g7
NtRp4263
((dp4264
S'GO:0006979'
p4265
I01
stbaa(lp4266
S'4308724'
p4267
ag5
(g6
g7
NtRp4268
((dp4269
S'GO:0006000'
p4270
I01
stbaa(lp4271
S'18712789'
p4272
ag5
(g6
g7
NtRp4273
((dp4274
S'GO:0043146'
p4275
I01
sS'GO:0051231'
p4276
I01
stbaa(lp4277
S'15546981'
p4278
ag5
(g6
g7
NtRp4279
((dp4280
S'GO:0000022'
p4281
I01
sS'GO:0000280'
p4282
I01
sS'GO:0000912'
p4283
I01
stbaa(lp4284
S'23333327'
p4285
ag5
(g6
g7
NtRp4286
((dp4287
S'GO:0007067'
p4288
I01
stbaa(lp4289
S'17031003'
p4290
ag5
(g6
g7
NtRp4291
((dp4292
S'GO:0030435'
p4293
I01
stbaa(lp4294
S'12956949'
p4295
ag5
(g6
g7
NtRp4296
((dp4297
S'GO:0030835'
p4298
I01
stbaa(lp4299
S'20348387'
p4300
ag5
(g6
g7
NtRp4301
((dp4302
S'GO:0036360'
p4303
I01
sS'GO:0031150'
p4304
I01
sS'GO:0031153'
p4305
I01
stbaa(lp4306
S'14701681'
p4307
ag5
(g6
g7
NtRp4308
((dp4309
S'GO:0042127'
p4310
I01
sS'GO:0045892'
p4311
I01
sS'GO:0045893'
p4312
I01
stbaa(lp4313
S'14517243'
p4314
ag5
(g6
g7
NtRp4315
((dp4316
S'GO:0043326'
p4317
I01
sS'GO:0043327'
p4318
I01
sS'GO:0008277'
p4319
I01
sS'GO:0008283'
p4320
I01
stbaa(lp4321
S'16135826'
p4322
ag5
(g6
g7
NtRp4323
((dp4324
S'GO:0008277'
p4325
I01
sS'GO:0043497'
p4326
I01
sS'GO:0031399'
p4327
I01
stbaa(lp4328
S'12183371'
p4329
ag5
(g6
g7
NtRp4330
((dp4331
S'GO:0006909'
p4332
I01
sS'GO:0006897'
p4333
I01
sS'GO:0006928'
p4334
I01
stbaa(lp4335
S'17606987'
p4336
ag5
(g6
g7
NtRp4337
((dp4338
S'GO:0006897'
p4339
I01
sS'GO:0006928'
p4340
I01
stbaa(lp4341
S'20472692'
p4342
ag5
(g6
g7
NtRp4343
((dp4344
S'GO:0009306'
p4345
I01
stbaa(lp4346
S'17085634'
p4347
ag5
(g6
g7
NtRp4348
((dp4349
S'GO:0019933'
p4350
I01
stbaa(lp4351
S'15084313'
p4352
ag5
(g6
g7
NtRp4353
((dp4354
S'GO:0006281'
p4355
I01
stbaa(lp4356
S'17501984'
p4357
ag5
(g6
g7
NtRp4358
((dp4359
S'GO:0030435'
p4360
I01
sS'GO:0031153'
p4361
I01
sS'GO:0030587'
p4362
I01
stbaa(lp4363
S'18367552'
p4364
ag5
(g6
g7
NtRp4365
((dp4366
S'GO:0031149'
p4367
I01
stbaa(lp4368
S'15606490'
p4369
ag5
(g6
g7
NtRp4370
((dp4371
S'GO:0030587'
p4372
I01
stbaa(lp4373
S'17499244'
p4374
ag5
(g6
g7
NtRp4375
((dp4376
S'GO:0009693'
p4377
I01
stbaa(lp4378
S'21552328'
p4379
ag5
(g6
g7
NtRp4380
((dp4381
S'GO:0072507'
p4382
I01
sS'GO:0016339'
p4383
I01
sS'GO:0030154'
p4384
I01
sS'GO:0060176'
p4385
I01
sS'GO:0031156'
p4386
I01
sS'GO:0006971'
p4387
I01
stbaa(lp4388
S'21562226'
p4389
ag5
(g6
g7
NtRp4390
((dp4391
S'GO:0043520'
p4392
I01
sS'GO:0043327'
p4393
I01
sS'GO:0034047'
p4394
I01
sS'GO:0007109'
p4395
I01
sS'GO:0060176'
p4396
I01
stbaa(lp4397
S'9765812'
p4398
ag5
(g6
g7
NtRp4399
((dp4400
S'GO:0006470'
p4401
I01
stbaa(lp4402
S'17259548'
p4403
ag5
(g6
g7
NtRp4404
((dp4405
S'GO:0031154'
p4406
I01
sS'GO:0000281'
p4407
I01
sS'GO:0006971'
p4408
I01
stbaa(lp4409
S'20525180'
p4410
ag5
(g6
g7
NtRp4411
((dp4412
S'GO:0031154'
p4413
I01
sS'GO:0051592'
p4414
I01
sS'GO:0031149'
p4415
I01
sS'GO:0031157'
p4416
I01
stbaa(lp4417
S'21950343'
p4418
ag5
(g6
g7
NtRp4419
((dp4420
S'GO:0046956'
p4421
I01
sS'GO:0060359'
p4422
I01
sS'GO:0043052'
p4423
I01
sS'GO:0040040'
p4424
I01
stbaa(lp4425
S'15509655'
p4426
ag5
(g6
g7
NtRp4427
((dp4428
S'GO:0006907'
p4429
I01
sS'GO:0050766'
p4430
I01
sS'GO:0006468'
p4431
I01
sS'GO:0000281'
p4432
I01
stbaa(lp4433
S'8670893'
p4434
ag5
(g6
g7
NtRp4435
((dp4436
S'GO:0007234'
p4437
I01
sS'GO:0000160'
p4438
I01
sS'GO:0035556'
p4439
I01
sS'GO:0023014'
p4440
I01
sS'GO:0030435'
p4441
I01
stbaa(lp4442
S'16445684'
p4443
ag5
(g6
g7
NtRp4444
((dp4445
S'GO:0006909'
p4446
I01
sS'GO:0034755'
p4447
I01
sS'GO:0009617'
p4448
I01
sS'GO:0006879'
p4449
I01
stbaa(lp4450
S'11689442'
p4451
ag5
(g6
g7
NtRp4452
((dp4453
S'GO:0031152'
p4454
I01
sS'GO:0046854'
p4455
I01
stbaa(lp4456
S'20019080'
p4457
ag5
(g6
g7
NtRp4458
((dp4459
S'GO:0006627'
p4460
I01
stbaa(lp4461
S'20351273'
p4462
ag5
(g6
g7
NtRp4463
((dp4464
S'GO:0030041'
p4465
I01
sS'GO:0043327'
p4466
I01
sS'GO:0072657'
p4467
I01
sS'GO:0030010'
p4468
I01
sS'GO:0030587'
p4469
I01
stbaa(lp4470
S'10329620'
p4471
ag5
(g6
g7
NtRp4472
((dp4473
S'GO:0009966'
p4474
I01
sS'GO:0006508'
p4475
I01
stbaa(lp4476
S'14593072'
p4477
ag5
(g6
g7
NtRp4478
((dp4479
S'GO:0050793'
p4480
I01
sS'GO:0006970'
p4481
I01
sS'GO:0000281'
p4482
I01
sS'GO:0030036'
p4483
I01
sS'GO:0006935'
p4484
I01
stbaa(lp4485
S'15225305'
p4486
ag5
(g6
g7
NtRp4487
((dp4488
S'GO:0050766'
p4489
I01
sS'GO:0006897'
p4490
I01
sS'GO:0008283'
p4491
I01
sS'GO:0006907'
p4492
I01
sS'GO:0031288'
p4493
I01
sS'GO:0006099'
p4494
I01
sS'GO:0006909'
p4495
I01
sS'GO:0006097'
p4496
I01
stbaa(lp4497
S'17031001'
p4498
ag5
(g6
g7
NtRp4499
((dp4500
S'GO:0016236'
p4501
I01
sS'GO:0046777'
p4502
I01
stbaa(lp4503
S'15358773'
p4504
ag5
(g6
g7
NtRp4505
((dp4506
S'GO:0048102'
p4507
I01
stbaa(lp4508
S'17150370'
p4509
ag5
(g6
g7
NtRp4510
((dp4511
S'GO:0070265'
p4512
I01
stbaa(lp4513
S'16473345'
p4514
ag5
(g6
g7
NtRp4515
((dp4516
S'GO:0031154'
p4517
I01
sS'GO:0019933'
p4518
I01
stbaa(lp4519
S'22073313'
p4520
ag5
(g6
g7
NtRp4521
((dp4522
S'GO:0050766'
p4523
I01
sS'GO:1900426'
p4524
I01
sS'GO:0046488'
p4525
I01
stbaa(lp4526
S'18504297'
p4527
ag5
(g6
g7
NtRp4528
((dp4529
S'GO:0043520'
p4530
I01
sS'GO:0007265'
p4531
I01
sS'GO:0030587'
p4532
I01
stbaa(lp4533
S'16644729'
p4534
ag5
(g6
g7
NtRp4535
((dp4536
S'GO:0006198'
p4537
I01
sS'GO:0030587'
p4538
I01
stbaa(lp4539
S'15708561'
p4540
ag5
(g6
g7
NtRp4541
((dp4542
S'GO:0031286'
p4543
I01
sS'GO:0008333'
p4544
I01
sS'GO:0045324'
p4545
I01
sS'GO:0007040'
p4546
I01
sS'GO:0045881'
p4547
I01
sS'GO:0001919'
p4548
I01
sS'GO:0009653'
p4549
I01
stbaa(lp4550
S'12385972'
p4551
ag5
(g6
g7
NtRp4552
((dp4553
S'GO:0007275'
p4554
I01
stbaa(lp4555
S'16490188'
p4556
ag5
(g6
g7
NtRp4557
((dp4558
S'GO:0031152'
p4559
I01
sS'GO:0030587'
p4560
I01
stbaa(lp4561
S'12843630'
p4562
ag5
(g6
g7
NtRp4563
((dp4564
S'GO:0006508'
p4565
I01
stbaa(lp4566
S'9428745'
p4567
ag5
(g6
g7
NtRp4568
((dp4569
S'GO:0006457'
p4570
I01
stbaa(lp4571
S'12878591'
p4572
ag5
(g6
g7
NtRp4573
((dp4574
S'GO:0046855'
p4575
I01
stbaa(lp4576
S'12070154'
p4577
ag5
(g6
g7
NtRp4578
((dp4579
S'GO:0030041'
p4580
I01
sS'GO:0007162'
p4581
I01
sS'GO:0006928'
p4582
I01
stbaa(lp4583
S'11090633'
p4584
ag5
(g6
g7
NtRp4585
((dp4586
S'GO:0007162'
p4587
I01
stbaa(lp4588
S'10444594'
p4589
ag5
(g6
g7
NtRp4590
((dp4591
S'GO:0031158'
p4592
I01
sS'GO:0007165'
p4593
I01
sS'GO:0007275'
p4594
I01
stbaa(lp4595
S'11371560'
p4596
ag5
(g6
g7
NtRp4597
((dp4598
S'GO:0030827'
p4599
I01
stbaa(lp4600
S'17336445'
p4601
ag5
(g6
g7
NtRp4602
((dp4603
S'GO:0043666'
p4604
I01
stbaa(lp4605
S'17488289'
p4606
ag5
(g6
g7
NtRp4607
((dp4608
S'GO:0001845'
p4609
I01
stbaa(lp4610
S'17606989'
p4611
ag5
(g6
g7
NtRp4612
((dp4613
S'GO:0006887'
p4614
I01
sS'GO:0007040'
p4615
I01
stbaa(lp4616
S'11854420'
p4617
ag5
(g6
g7
NtRp4618
((dp4619
S'GO:0007040'
p4620
I01
stbaa(lp4621
S'20097741'
p4622
ag5
(g6
g7
NtRp4623
((dp4624
S'GO:0006907'
p4625
I01
sS'GO:0009267'
p4626
I01
stbaa(lp4627
S'17625565'
p4628
ag5
(g6
g7
NtRp4629
((dp4630
S'GO:0009992'
p4631
I01
sS'GO:0006971'
p4632
I01
stbaa(lp4633
S'24128258'
p4634
ag5
(g6
g7
NtRp4635
((dp4636
S'GO:0042466'
p4637
I01
sS'GO:0031318'
p4638
I01
stbaa(lp4639
S'18216168'
p4640
ag5
(g6
g7
NtRp4641
((dp4642
S'GO:0030435'
p4643
I01
sS'GO:0009691'
p4644
I01
stbaa(lp4645
S'12060071'
p4646
ag5
(g6
g7
NtRp4647
((dp4648
S'GO:0006355'
p4649
I01
sS'GO:0043689'
p4650
I01
sS'GO:0031152'
p4651
I01
stbaa(lp4652
S'20479885'
p4653
ag5
(g6
g7
NtRp4654
((dp4655
S'GO:0050821'
p4656
I01
sS'GO:0006979'
p4657
I01
sS'GO:0060176'
p4658
I01
stbaa(lp4659
S'23915312'
p4660
ag5
(g6
g7
NtRp4661
((dp4662
S'GO:0048870'
p4663
I01
sS'GO:0006909'
p4664
I01
sS'GO:0042331'
p4665
I01
stbaa(lp4666
S'15705570'
p4667
ag5
(g6
g7
NtRp4668
((dp4669
S'GO:0018401'
p4670
I01
stbaa(lp4671
S'21247092'
p4672
ag5
(g6
g7
NtRp4673
((dp4674
S'GO:0018401'
p4675
I01
stbaa(lp4676
S'17699611'
p4677
ag5
(g6
g7
NtRp4678
((dp4679
S'GO:0031154'
p4680
I01
sS'GO:0072592'
p4681
I01
stbaa(lp4682
S'22809629'
p4683
ag5
(g6
g7
NtRp4684
((dp4685
S'GO:0044351'
p4686
I01
sS'GO:0006935'
p4687
I01
sS'GO:0031268'
p4688
I01
stbaa(lp4689
S'16410554'
p4690
ag5
(g6
g7
NtRp4691
((dp4692
S'GO:0016070'
p4693
I01
stbaa(lp4694
S'15507488'
p4695
ag5
(g6
g7
NtRp4696
((dp4697
S'GO:0030154'
p4698
I01
sS'GO:0007275'
p4699
I01
stbaa(lp4700
S'15652354'
p4701
ag5
(g6
g7
NtRp4702
((dp4703
S'GO:0030435'
p4704
I01
stbaa(lp4705
S'16456031'
p4706
ag5
(g6
g7
NtRp4707
((dp4708
S'GO:0031149'
p4709
I01
sS'GO:1900370'
p4710
I01
stbaa(lp4711
S'15800059'
p4712
ag5
(g6
g7
NtRp4713
((dp4714
S'GO:0051645'
p4715
I01
sS'GO:0051642'
p4716
I01
stbaa(lp4717
S'17343681'
p4718
ag5
(g6
g7
NtRp4719
((dp4720
S'GO:0008283'
p4721
I01
sS'GO:0006911'
p4722
I01
stbaa(lp4723
S'12499361'
p4724
ag5
(g6
g7
NtRp4725
((dp4726
S'GO:0007015'
p4727
I01
sS'GO:0031589'
p4728
I01
sS'GO:0006909'
p4729
I01
sS'GO:0000281'
p4730
I01
sS'GO:0000902'
p4731
I01
stbaa(lp4732
S'21441344'
p4733
ag5
(g6
g7
NtRp4734
((dp4735
S'GO:0031589'
p4736
I01
stbaa(lp4737
S'11102804'
p4738
ag5
(g6
g7
NtRp4739
((dp4740
S'GO:0050766'
p4741
I01
sS'GO:0051271'
p4742
I01
sS'GO:0006909'
p4743
I01
sS'GO:0006935'
p4744
I01
sS'GO:0030866'
p4745
I01
sS'GO:0007275'
p4746
I01
sS'GO:0000281'
p4747
I01
sS'GO:0031152'
p4748
I01
sS'GO:0045807'
p4749
I01
sS'GO:0007265'
p4750
I01
stbaa(lp4751
S'12429831'
p4752
ag5
(g6
g7
NtRp4753
((dp4754
S'GO:0007165'
p4755
I01
stbaa(lp4756
S'12429832'
p4757
ag5
(g6
g7
NtRp4758
((dp4759
S'GO:0019934'
p4760
I01
stbaa(lp4761
S'19213599'
p4762
ag5
(g6
g7
NtRp4763
((dp4764
S'GO:0040011'
p4765
I01
sS'GO:0043326'
p4766
I01
sS'GO:0031589'
p4767
I01
sS'GO:0006897'
p4768
I01
sS'GO:0016339'
p4769
I01
sS'GO:0031154'
p4770
I01
sS'GO:0016477'
p4771
I01
stbaa(lp4772
S'16155255'
p4773
ag5
(g6
g7
NtRp4774
((dp4775
S'GO:0031154'
p4776
I01
sS'GO:0040011'
p4777
I01
sS'GO:0031589'
p4778
I01
sS'GO:0016477'
p4779
I01
stbaa(lp4780
S'23187822'
p4781
ag5
(g6
g7
NtRp4782
((dp4783
S'GO:0070291'
p4784
I01
stbaa(lp4785
S'12220630'
p4786
ag5
(g6
g7
NtRp4787
((dp4788
S'GO:0031154'
p4789
I01
sS'GO:0008202'
p4790
I01
stbaa(lp4791
S'22119747'
p4792
ag5
(g6
g7
NtRp4793
((dp4794
S'GO:0019934'
p4795
I01
stbaa(lp4796
S'18703517'
p4797
ag5
(g6
g7
NtRp4798
((dp4799
S'GO:0046579'
p4800
I01
stbaa(lp4801
S'18673369'
p4802
ag5
(g6
g7
NtRp4803
((dp4804
S'GO:0050920'
p4805
I01
stbaa(lp4806
S'14686953'
p4807
ag5
(g6
g7
NtRp4808
((dp4809
S'GO:0050793'
p4810
I01
sS'GO:0015696'
p4811
I01
stbaa(lp4812
S'16188250'
p4813
ag5
(g6
g7
NtRp4814
((dp4815
S'GO:0031154'
p4816
I01
stbaa(lp4817
S'12475956'
p4818
ag5
(g6
g7
NtRp4819
((dp4820
S'GO:0031037'
p4821
I01
sS'GO:0006468'
p4822
I01
sS'GO:0000281'
p4823
I01
stbaa(lp4824
S'16336640'
p4825
ag5
(g6
g7
NtRp4826
((dp4827
S'GO:0050850'
p4828
I01
sS'GO:0043327'
p4829
I01
sS'GO:0045762'
p4830
I01
stbaa(lp4831
S'20709790'
p4832
ag5
(g6
g7
NtRp4833
((dp4834
S'GO:0006997'
p4835
I01
sS'GO:0016049'
p4836
I01
sS'GO:0048837'
p4837
I01
sS'GO:0008285'
p4838
I01
stbaa(lp4839
S'12954783'
p4840
ag5
(g6
g7
NtRp4841
((dp4842
S'GO:0008285'
p4843
I01
sS'GO:0007264'
p4844
I01
sS'GO:0031158'
p4845
I01
stbaa(lp4846
S'11157987'
p4847
ag5
(g6
g7
NtRp4848
((dp4849
S'GO:0043327'
p4850
I01
sS'GO:0016477'
p4851
I01
sS'GO:0006909'
p4852
I01
sS'GO:0031152'
p4853
I01
sS'GO:0031319'
p4854
I01
stbaa(lp4855
S'14623897'
p4856
ag5
(g6
g7
NtRp4857
((dp4858
S'GO:0051017'
p4859
I01
stbaa(lp4860
S'12244115'
p4861
ag5
(g6
g7
NtRp4862
((dp4863
S'GO:0006486'
p4864
I01
stbaa(lp4865
S'11163223'
p4866
ag5
(g6
g7
NtRp4867
((dp4868
S'GO:0031154'
p4869
I01
sS'GO:0030435'
p4870
I01
sS'GO:0045595'
p4871
I01
sS'GO:0031148'
p4872
I01
stbaa(lp4873
S'15276209'
p4874
ag5
(g6
g7
NtRp4875
((dp4876
S'GO:0007275'
p4877
I01
stbaa(lp4878
S'15757670'
p4879
ag5
(g6
g7
NtRp4880
((dp4881
S'GO:0009653'
p4882
I01
stbaa(lp4883
S'17623773'
p4884
ag5
(g6
g7
NtRp4885
((dp4886
S'GO:0006935'
p4887
I01
sS'GO:0006928'
p4888
I01
stbaa(lp4889
S'12134070'
p4890
ag5
(g6
g7
NtRp4891
((dp4892
S'GO:0000022'
p4893
I01
sS'GO:0000281'
p4894
I01
sS'GO:0051225'
p4895
I01
stbaa(lp4896
S'11737154'
p4897
ag5
(g6
g7
NtRp4898
((dp4899
S'GO:0016337'
p4900
I01
sS'GO:0031152'
p4901
I01
stbaa(lp4902
S'9880338'
p4903
ag5
(g6
g7
NtRp4904
((dp4905
S'GO:0007032'
p4906
I01
sS'GO:0006997'
p4907
I01
sS'GO:0006909'
p4908
I01
sS'GO:0006907'
p4909
I01
sS'GO:0031288'
p4910
I01
sS'GO:0000920'
p4911
I01
sS'GO:0007163'
p4912
I01
sS'GO:0007005'
p4913
I01
stbaa(lp4914
S'11823417'
p4915
ag5
(g6
g7
NtRp4916
((dp4917
S'GO:0006184'
p4918
I01
stbaa(lp4919
S'16527408'
p4920
ag5
(g6
g7
NtRp4921
((dp4922
S'GO:0006729'
p4923
I01
stbaa(lp4924
S'8870645'
p4925
ag5
(g6
g7
NtRp4926
((dp4927
S'GO:0006729'
p4928
I01
stbaa(lp4929
S'8619862'
p4930
ag5
(g6
g7
NtRp4931
((dp4932
S'GO:0008277'
p4933
I01
stbaa(lp4934
S'9169048'
p4935
ag5
(g6
g7
NtRp4936
((dp4937
S'GO:0031154'
p4938
I01
stbaa(lp4939
S'9348538'
p4940
ag5
(g6
g7
NtRp4941
((dp4942
S'GO:0009653'
p4943
I01
stbaa(lp4944
S'9102307'
p4945
ag5
(g6
g7
NtRp4946
((dp4947
S'GO:0031154'
p4948
I01
sS'GO:0040011'
p4949
I01
sS'GO:0031152'
p4950
I01
stbaa(lp4951
S'9397534'
p4952
ag5
(g6
g7
NtRp4953
((dp4954
S'GO:0031288'
p4955
I01
stbaa(lp4956
S'19861424'
p4957
ag5
(g6
g7
NtRp4958
((dp4959
S'GO:0006390'
p4960
I01
stbaa(lp4961
S'9808785'
p4962
ag5
(g6
g7
NtRp4963
((dp4964
S'GO:0009847'
p4965
I01
stbaa(lp4966
S'15788570'
p4967
ag5
(g6
g7
NtRp4968
((dp4969
S'GO:0006907'
p4970
I01
stbaa(lp4971
S'15196949'
p4972
ag5
(g6
g7
NtRp4973
((dp4974
S'GO:0006468'
p4975
I01
sS'GO:0070816'
p4976
I01
sS'GO:0031152'
p4977
I01
stbaa(lp4978
S'11683919'
p4979
ag5
(g6
g7
NtRp4980
((dp4981
S'GO:0030042'
p4982
I01
stbaa(lp4983
S'19411624'
p4984
ag5
(g6
g7
NtRp4985
((dp4986
S'GO:0030163'
p4987
I01
stbaa(lp4988
S'15367206'
p4989
ag5
(g6
g7
NtRp4990
((dp4991
S'GO:0045597'
p4992
I01
stbaa(lp4993
S'16835443'
p4994
ag5
(g6
g7
NtRp4995
((dp4996
S'GO:0030587'
p4997
I01
sS'GO:0008283'
p4998
I01
stbaa(lp4999
S'17951519'
p5000
ag5
(g6
g7
NtRp5001
((dp5002
S'GO:0031159'
p5003
I01
sS'GO:0015696'
p5004
I01
stbaa(lp5005
S'11179674'
p5006
ag5
(g6
g7
NtRp5007
((dp5008
S'GO:0006886'
p5009
I01
stbaa(lp5010
S'17010123'
p5011
ag5
(g6
g7
NtRp5012
((dp5013
S'GO:0007032'
p5014
I01
stbaa(lp5015
S'22391412'
p5016
ag5
(g6
g7
NtRp5017
((dp5018
S'GO:0051592'
p5019
I01
sS'GO:0043327'
p5020
I01
stbaa(lp5021
S'23938384'
p5022
ag5
(g6
g7
NtRp5023
((dp5024
S'GO:0033298'
p5025
I01
sS'GO:0006970'
p5026
I01
stbaa(lp5027
S'17889831'
p5028
ag5
(g6
g7
NtRp5029
((dp5030
S'GO:0070265'
p5031
I01
sS'GO:0048102'
p5032
I01
stbaa(lp5033
S'15363631'
p5034
ag5
(g6
g7
NtRp5035
((dp5036
S'GO:0006096'
p5037
I01
sS'GO:0006094'
p5038
I01
stbaa(lp5039
S'17004322'
p5040
ag5
(g6
g7
NtRp5041
((dp5042
S'GO:0008104'
p5043
I01
sS'GO:0006909'
p5044
I01
sS'GO:0006907'
p5045
I01
sS'GO:0006887'
p5046
I01
sS'GO:0000281'
p5047
I01
sS'GO:0048388'
p5048
I01
sS'GO:0030833'
p5049
I01
stbaa(lp5050
S'19325115'
p5051
ag5
(g6
g7
NtRp5052
((dp5053
S'GO:0042742'
p5054
I01
stbaa(lp5055
S'9546041'
p5056
ag5
(g6
g7
NtRp5057
((dp5058
S'GO:0006414'
p5059
I01
stbaa(lp5060
S'11479029'
p5061
ag5
(g6
g7
NtRp5062
((dp5063
S'GO:0030041'
p5064
I01
stbaa(lp5065
S'11598188'
p5066
ag5
(g6
g7
NtRp5067
((dp5068
S'GO:0030261'
p5069
I01
sS'GO:0006308'
p5070
I01
stbaa(lp5071
S'15728724'
p5072
ag5
(g6
g7
NtRp5073
((dp5074
S'GO:0030838'
p5075
I01
sS'GO:0030950'
p5076
I01
stbaa(lp5077
S'12756178'
p5078
ag5
(g6
g7
NtRp5079
((dp5080
S'GO:0045595'
p5081
I01
stbaa(lp5082
S'17056744'
p5083
ag5
(g6
g7
NtRp5084
((dp5085
S'GO:0045595'
p5086
I01
stbaa(lp5087
S'10970875'
p5088
ag5
(g6
g7
NtRp5089
((dp5090
S'GO:0006816'
p5091
I01
sS'GO:0048016'
p5092
I01
stbaa(lp5093
S'17077123'
p5094
ag5
(g6
g7
NtRp5095
((dp5096
S'GO:0006816'
p5097
I01
stbaa(lp5098
S'18077554'
p5099
ag5
(g6
g7
NtRp5100
((dp5101
S'GO:0048102'
p5102
I01
sS'GO:0030244'
p5103
I01
stbaa(lp5104
S'18202452'
p5105
ag5
(g6
g7
NtRp5106
((dp5107
S'GO:0034670'
p5108
I01
stbaa(lp5109
S'18359017'
p5110
ag5
(g6
g7
NtRp5111
((dp5112
S'GO:0051209'
p5113
I01
stbaa(lp5114
S'17416892'
p5115
ag5
(g6
g7
NtRp5116
((dp5117
S'GO:0042244'
p5118
I01
stbaa(lp5119
S'16005849'
p5120
ag5
(g6
g7
NtRp5121
((dp5122
S'GO:0042493'
p5123
I01
stbaa(lp5124
S'22849378'
p5125
ag5
(g6
g7
NtRp5126
((dp5127
S'GO:0042493'
p5128
I01
stbaa(lp5129
S'10804029'
p5130
ag5
(g6
g7
NtRp5131
((dp5132
S'GO:0045337'
p5133
I01
stbaa(lp5134
S'15014435'
p5135
ag5
(g6
g7
NtRp5136
((dp5137
S'GO:0007015'
p5138
I01
sS'GO:0000281'
p5139
I01
sS'GO:0008283'
p5140
I01
stbaa(lp5141
S'11690648'
p5142
ag5
(g6
g7
NtRp5143
((dp5144
S'GO:0000413'
p5145
I01
stbaa(lp5146
S'11220631'
p5147
ag5
(g6
g7
NtRp5148
((dp5149
S'GO:0006970'
p5150
I01
stbaa(lp5151
S'11208126'
p5152
ag5
(g6
g7
NtRp5153
((dp5154
S'GO:0035020'
p5155
I01
sS'GO:0031268'
p5156
I01
sS'GO:0006972'
p5157
I01
sS'GO:0006971'
p5158
I01
sS'GO:0006200'
p5159
I01
stbaa(lp5160
S'10574761'
p5161
ag5
(g6
g7
NtRp5162
((dp5163
S'GO:0006909'
p5164
I01
stbaa(lp5165
S'15470238'
p5166
ag5
(g6
g7
NtRp5167
((dp5168
S'GO:0009847'
p5169
I01
stbaa(lp5170
S'11267868'
p5171
ag5
(g6
g7
NtRp5172
((dp5173
S'GO:0046847'
p5174
I01
stbaa(lp5175
S'21086149'
p5176
ag5
(g6
g7
NtRp5177
((dp5178
S'GO:0031589'
p5179
I01
sS'GO:0016049'
p5180
I01
sS'GO:0071476'
p5181
I01
sS'GO:0060151'
p5182
I01
sS'GO:0016337'
p5183
I01
sS'GO:0006909'
p5184
I01
stbaa(lp5185
S'10681463'
p5186
ag5
(g6
g7
NtRp5187
((dp5188
S'GO:0031150'
p5189
I01
sS'GO:0030244'
p5190
I01
stbaa(lp5191
S'11428129'
p5192
ag5
(g6
g7
NtRp5193
((dp5194
S'GO:0042244'
p5195
I01
stbaa(lp5196
S'12654899'
p5197
ag5
(g6
g7
NtRp5198
((dp5199
S'GO:0048102'
p5200
I01
stbaa(lp5201
S'11919178'
p5202
ag5
(g6
g7
NtRp5203
((dp5204
S'GO:0007088'
p5205
I01
stbaa(lp5206
S'10652255'
p5207
ag5
(g6
g7
NtRp5208
((dp5209
S'GO:0033109'
p5210
I01
sS'GO:2000147'
p5211
I01
sS'GO:0006911'
p5212
I01
stbaa(lp5213
S'17353263'
p5214
ag5
(g6
g7
NtRp5215
((dp5216
S'GO:0031156'
p5217
I01
sS'GO:0050920'
p5218
I01
stbaa(lp5219
S'10898960'
p5220
ag5
(g6
g7
NtRp5221
((dp5222
S'GO:0031154'
p5223
I01
sS'GO:0016567'
p5224
I01
sS'GO:0045595'
p5225
I01
stbaa(lp5226
S'10725352'
p5227
ag5
(g6
g7
NtRp5228
((dp5229
S'GO:0045595'
p5230
I01
stbaa(lp5231
S'10504413'
p5232
ag5
(g6
g7
NtRp5233
((dp5234
S'GO:0006636'
p5235
I01
stbaa(lp5236
S'15632431'
p5237
ag5
(g6
g7
NtRp5238
((dp5239
S'GO:0009408'
p5240
I01
sS'GO:0007275'
p5241
I01
stbaatRp5242
.