ccollections
OrderedDict
p1
((lp2
(lp3
S'18673382'
p4
accopy_reg
_reconstructor
p5
(csets
Set
p6
c__builtin__
object
p7
NtRp8
((dp9
S'GO:0030435'
p10
I01
sS'GO:0031288'
p11
I01
sS'GO:0042594'
p12
I01
sS'GO:0031152'
p13
I01
stbaa(lp14
S'22120990'
p15
ag5
(g6
g7
NtRp16
((dp17
S'GO:0044351'
p18
I01
stbaa(lp19
S'15473840'
p20
ag5
(g6
g7
NtRp21
((dp22
S'GO:0031036'
p23
I01
sS'GO:0006909'
p24
I01
sS'GO:0004871'
p25
I01
sS'GO:0047555'
p26
I01
sS'GO:0004115'
p27
I01
sS'GO:0016314'
p28
I01
sS'GO:0031154'
p29
I01
sS'GO:0001646'
p30
I01
sS'GO:0007163'
p31
I01
sS'GO:0007165'
p32
I01
sS'GO:0031152'
p33
I01
sS'GO:0004691'
p34
I01
sS'GO:0046069'
p35
I01
sS'GO:0019887'
p36
I01
sS'GO:0030833'
p37
I01
sS'GO:0016021'
p38
I01
sS'GO:0016020'
p39
I01
sS'GO:0006198'
p40
I01
sS'GO:0043326'
p41
I01
sS'GO:0046856'
p42
I01
sS'GO:0004672'
p43
I01
sS'GO:0005524'
p44
I01
sS'GO:0051272'
p45
I01
sS'GO:0006468'
p46
I01
sS'GO:0030010'
p47
I01
sS'GO:0006935'
p48
I01
sS'GO:0030826'
p49
I01
sS'GO:0004383'
p50
I01
sS'GO:0045859'
p51
I01
sS'GO:0030435'
p52
I01
sS'GO:0005887'
p53
I01
sS'GO:0005886'
p54
I01
sS'GO:0006182'
p55
I01
sS'GO:0051093'
p56
I01
sS'GO:0030552'
p57
I01
sS'GO:0007015'
p58
I01
sS'GO:0005829'
p59
I01
sS'GO:0005622'
p60
I01
sS'GO:0005576'
p61
I01
sS'GO:0007190'
p62
I01
stbaa(lp63
S'17517120'
p64
ag5
(g6
g7
NtRp65
((dp66
S'GO:0006972'
p67
I01
stbaa(lp68
S'16926386'
p69
ag5
(g6
g7
NtRp70
((dp71
S'GO:0045335'
p72
I01
stbaa(lp73
S'20422638'
p74
ag5
(g6
g7
NtRp75
((dp76
S'GO:0005615'
p77
I01
stbaa(lp78
S'19482547'
p79
ag5
(g6
g7
NtRp80
((dp81
S'GO:0045335'
p82
I01
sS'GO:0009617'
p83
I01
stbaa(lp84
S'8710499'
p85
ag5
(g6
g7
NtRp86
((dp87
S'GO:0005634'
p88
I01
sS'GO:0003684'
p89
I01
sS'GO:0006289'
p90
I01
stbaa(lp91
S'21193547'
p92
ag5
(g6
g7
NtRp93
((dp94
S'GO:0008283'
p95
I01
sS'GO:0030587'
p96
I01
sS'GO:0005634'
p97
I01
sS'GO:0030154'
p98
I01
sS'GO:0000792'
p99
I01
sS'GO:0005515'
p100
I01
sS'GO:0001708'
p101
I01
sS'GO:0010468'
p102
I01
stbaa(lp103
S'9649625'
p104
ag5
(g6
g7
NtRp105
((dp106
S'GO:0006974'
p107
I01
stbaa(lp108
S'17659086'
p109
ag5
(g6
g7
NtRp110
((dp111
S'GO:0031153'
p112
I01
sS'GO:0031154'
p113
I01
sS'GO:0019933'
p114
I01
sS'GO:0030587'
p115
I01
stbaa(lp116
S'16086850'
p117
ag5
(g6
g7
NtRp118
((dp119
S'GO:0046956'
p120
I01
sS'GO:0043052'
p121
I01
stbaa(lp122
S'21190565'
p123
ag5
(g6
g7
NtRp124
((dp125
S'GO:0006887'
p126
I01
sS'GO:0006909'
p127
I01
sS'GO:0030670'
p128
I01
sS'GO:0001891'
p129
I01
stbaa(lp130
S'21401524'
p131
ag5
(g6
g7
NtRp132
((dp133
S'GO:0031143'
p134
I01
sS'GO:0072583'
p135
I01
sS'GO:0031252'
p136
I01
sS'GO:0005885'
p137
I01
sS'GO:0005905'
p138
I01
sS'GO:0031150'
p139
I01
sS'GO:0046847'
p140
I01
stbaa(lp141
S'9171087'
p142
ag5
(g6
g7
NtRp143
((dp144
S'GO:0043141'
p145
I01
sS'GO:0000287'
p146
I01
sS'GO:0006289'
p147
I01
sS'GO:0043140'
p148
I01
sS'GO:0006366'
p149
I01
sS'GO:0005675'
p150
I01
sS'GO:0003684'
p151
I01
sS'GO:0005524'
p152
I01
stbaa(lp153
S'9765592'
p154
ag5
(g6
g7
NtRp155
((dp156
S'GO:0006974'
p157
I01
sS'GO:0009650'
p158
I01
stbaa(lp159
S'9226443'
p160
ag5
(g6
g7
NtRp161
((dp162
S'GO:0031154'
p163
I01
sS'GO:0005634'
p164
I01
sS'GO:0030154'
p165
I01
sS'GO:0005654'
p166
I01
sS'GO:0030435'
p167
I01
sS'GO:0007275'
p168
I01
stbaa(lp169
S'18701541'
p170
ag5
(g6
g7
NtRp171
((dp172
S'GO:0043565'
p173
I01
sS'GO:0005634'
p174
I01
stbaa(lp175
S'21085675'
p176
ag5
(g6
g7
NtRp177
((dp178
S'GO:0051259'
p179
I01
sS'GO:0005829'
p180
I01
sS'GO:0032154'
p181
I01
sS'GO:0030175'
p182
I01
sS'GO:0005938'
p183
I01
sS'GO:0005515'
p184
I01
sS'GO:0032956'
p185
I01
stbaa(lp186
S'12771188'
p187
ag5
(g6
g7
NtRp188
((dp189
S'GO:0009408'
p190
I01
sS'GO:0005634'
p191
I01
sS'GO:0006979'
p192
I01
sS'GO:0006972'
p193
I01
sS'GO:0047484'
p194
I01
stbaa(lp195
S'15740584'
p196
ag5
(g6
g7
NtRp197
((dp198
S'GO:0019953'
p199
I01
stbaa(lp200
S'23264736'
p201
ag5
(g6
g7
NtRp202
((dp203
S'GO:0051489'
p204
I01
sS'GO:0000242'
p205
I01
sS'GO:0048870'
p206
I01
sS'GO:0005829'
p207
I01
sS'GO:0000281'
p208
I01
sS'GO:0030036'
p209
I01
sS'GO:0032154'
p210
I01
sS'GO:0030175'
p211
I01
sS'GO:0005938'
p212
I01
sS'GO:0005886'
p213
I01
sS'GO:0031941'
p214
I01
sS'GO:0048471'
p215
I01
stbaa(lp216
S'15193148'
p217
ag5
(g6
g7
NtRp218
((dp219
S'GO:0009395'
p220
I01
sS'GO:0031161'
p221
I01
sS'GO:0005576'
p222
I01
sS'GO:0005515'
p223
I01
sS'GO:0004620'
p224
I01
sS'GO:0046338'
p225
I01
stbaa(lp226
S'18634783'
p227
ag5
(g6
g7
NtRp228
((dp229
S'GO:0030666'
p230
I01
sS'GO:0005767'
p231
I01
sS'GO:0005515'
p232
I01
sS'GO:0005886'
p233
I01
sS'GO:0030123'
p234
I01
sS'GO:0031201'
p235
I01
stbaa(lp236
S'20071332'
p237
ag5
(g6
g7
NtRp238
((dp239
S'GO:0031589'
p240
I01
sS'GO:0006909'
p241
I01
sS'GO:0030835'
p242
I01
sS'GO:0005829'
p243
I01
sS'GO:0009617'
p244
I01
sS'GO:0030866'
p245
I01
sS'GO:0051015'
p246
I01
sS'GO:0030864'
p247
I01
sS'GO:0031252'
p248
I01
sS'GO:0031276'
p249
I01
sS'GO:0001667'
p250
I01
sS'GO:0005525'
p251
I01
sS'GO:0001891'
p252
I01
stbaa(lp253
S'21179207'
p254
ag5
(g6
g7
NtRp255
((dp256
S'GO:0005794'
p257
I01
sS'GO:0005829'
p258
I01
sS'GO:0045335'
p259
I01
sS'GO:0044354'
p260
I01
sS'GO:0005886'
p261
I01
stbaa(lp262
S'15053873'
p263
ag5
(g6
g7
NtRp264
((dp265
S'GO:0031154'
p266
I01
sS'GO:0042803'
p267
I01
sS'GO:0003677'
p268
I01
stbaa(lp269
S'9200609'
p270
ag5
(g6
g7
NtRp271
((dp272
S'GO:0003677'
p273
I01
stbaa(lp274
S'11032815'
p275
ag5
(g6
g7
NtRp276
((dp277
S'GO:0004674'
p278
I01
sS'GO:0005634'
p279
I01
sS'GO:0046827'
p280
I01
sS'GO:0006468'
p281
I01
sS'GO:0018107'
p282
I01
stbaa(lp283
S'12506009'
p284
ag5
(g6
g7
NtRp285
((dp286
S'GO:0005634'
p287
I01
stbaa(lp288
S'9670017'
p289
ag5
(g6
g7
NtRp290
((dp291
S'GO:0005634'
p292
I01
sS'GO:0005829'
p293
I01
sS'GO:0001637'
p294
I01
stbaa(lp295
S'15733068'
p296
ag5
(g6
g7
NtRp297
((dp298
S'GO:0003987'
p299
I01
sS'GO:0016208'
p300
I01
sS'GO:0010468'
p301
I01
sS'GO:0006085'
p302
I01
stbaa(lp303
S'15470642'
p304
ag5
(g6
g7
NtRp305
((dp306
S'GO:0010628'
p307
I01
stbaa(lp308
S'10393118'
p309
ag5
(g6
g7
NtRp310
((dp311
S'GO:0031154'
p312
I01
sS'GO:0031149'
p313
I01
sS'GO:0045892'
p314
I01
stbaa(lp315
S'16750281'
p316
ag5
(g6
g7
NtRp317
((dp318
S'GO:0016020'
p319
I01
sS'GO:0042802'
p320
I01
sS'GO:0005515'
p321
I01
stbaa(lp322
S'14561408'
p323
ag5
(g6
g7
NtRp324
((dp325
S'GO:0005770'
p326
I01
stbaa(lp327
S'9276759'
p328
ag5
(g6
g7
NtRp329
((dp330
S'GO:0005773'
p331
I01
stbaa(lp332
S'16445684'
p333
ag5
(g6
g7
NtRp334
((dp335
S'GO:0009617'
p336
I01
sS'GO:0006909'
p337
I01
sS'GO:0005802'
p338
I01
sS'GO:0045335'
p339
I01
sS'GO:0005381'
p340
I01
sS'GO:0032010'
p341
I01
sS'GO:0006879'
p342
I01
sS'GO:0034755'
p343
I01
stbaa(lp344
S'10402673'
p345
ag5
(g6
g7
NtRp346
((dp347
S'GO:0031154'
p348
I01
sS'GO:0045324'
p349
I01
stbaa(lp350
S'9585512'
p351
ag5
(g6
g7
NtRp352
((dp353
S'GO:0001726'
p354
I01
sS'GO:0016020'
p355
I01
sS'GO:0006470'
p356
I01
sS'GO:0000287'
p357
I01
sS'GO:0004722'
p358
I01
sS'GO:0030145'
p359
I01
sS'GO:0030154'
p360
I01
sS'GO:0009653'
p361
I01
sS'GO:0005525'
p362
I01
stbaa(lp363
S'9620859'
p364
ag5
(g6
g7
NtRp365
((dp366
S'GO:0005634'
p367
I01
sS'GO:0031152'
p368
I01
sS'GO:0003677'
p369
I01
stbaa(lp370
S'22980139'
p371
ag5
(g6
g7
NtRp372
((dp373
S'GO:0000266'
p374
I01
sS'GO:0048312'
p375
I01
sS'GO:0008053'
p376
I01
sS'GO:0090141'
p377
I01
stbaa(lp378
S'9207087'
p379
ag5
(g6
g7
NtRp380
((dp381
S'GO:0005737'
p382
I01
sS'GO:0048312'
p383
I01
sS'GO:0000281'
p384
I01
stbaa(lp385
S'11229601'
p386
ag5
(g6
g7
NtRp387
((dp388
S'GO:0000331'
p389
I01
sS'GO:0005794'
p390
I01
sS'GO:0016021'
p391
I01
sS'GO:0005789'
p392
I01
sS'GO:0030173'
p393
I01
sS'GO:0010008'
p394
I01
stbaa(lp395
S'23132928'
p396
ag5
(g6
g7
NtRp397
((dp398
S'GO:0045184'
p399
I01
sS'GO:0043552'
p400
I01
sS'GO:0031143'
p401
I01
sS'GO:0005829'
p402
I01
sS'GO:0003924'
p403
I01
sS'GO:0044354'
p404
I01
sS'GO:0043326'
p405
I01
sS'GO:0005886'
p406
I01
sS'GO:0007265'
p407
I01
stbaa(lp408
S'14711408'
p409
ag5
(g6
g7
NtRp410
((dp411
S'GO:0031252'
p412
I01
sS'GO:0015629'
p413
I01
sS'GO:0051015'
p414
I01
sS'GO:0030864'
p415
I01
stbaa(lp416
S'15894626'
p417
ag5
(g6
g7
NtRp418
((dp419
S'GO:0030175'
p420
I01
sS'GO:0030038'
p421
I01
sS'GO:0030837'
p422
I01
sS'GO:0030864'
p423
I01
stbaa(lp424
S'15527790'
p425
ag5
(g6
g7
NtRp426
((dp427
S'GO:0005783'
p428
I01
sS'GO:0005634'
p429
I01
sS'GO:0007059'
p430
I01
sS'GO:0001891'
p431
I01
sS'GO:0005874'
p432
I01
sS'GO:0015629'
p433
I01
stbaa(lp434
S'11390363'
p435
ag5
(g6
g7
NtRp436
((dp437
S'GO:0006935'
p438
I01
sS'GO:0030587'
p439
I01
sS'GO:0030154'
p440
I01
sS'GO:0000082'
p441
I01
sS'GO:0006511'
p442
I01
sS'GO:0019005'
p443
I01
sS'GO:0004842'
p444
I01
stbaa(lp445
S'9582328'
p446
ag5
(g6
g7
NtRp447
((dp448
S'GO:0006468'
p449
I01
sS'GO:0015629'
p450
I01
sS'GO:0004672'
p451
I01
sS'GO:0004674'
p452
I01
sS'GO:0051781'
p453
I01
sS'GO:0032956'
p454
I01
sS'GO:0046777'
p455
I01
stbaa(lp456
S'18042625'
p457
ag5
(g6
g7
NtRp458
((dp459
S'GO:0005737'
p460
I01
sS'GO:0005813'
p461
I01
sS'GO:0031156'
p462
I01
sS'GO:0032154'
p463
I01
sS'GO:0010590'
p464
I01
stbaa(lp465
S'16842885'
p466
ag5
(g6
g7
NtRp467
((dp468
S'GO:0005737'
p469
I01
sS'GO:0006468'
p470
I01
sS'GO:0005938'
p471
I01
sS'GO:0004672'
p472
I01
sS'GO:0046777'
p473
I01
sS'GO:0005524'
p474
I01
stbaa(lp475
S'17362909'
p476
ag5
(g6
g7
NtRp477
((dp478
S'GO:0005737'
p479
I01
sS'GO:0031152'
p480
I01
sS'GO:0007165'
p481
I01
sS'GO:0006972'
p482
I01
sS'GO:0045762'
p483
I01
stbaa(lp484
S'9802899'
p485
ag5
(g6
g7
NtRp486
((dp487
S'GO:0051056'
p488
I01
sS'GO:0005515'
p489
I01
sS'GO:0005622'
p490
I01
sS'GO:0048365'
p491
I01
sS'GO:0007163'
p492
I01
sS'GO:0031152'
p493
I01
sS'GO:0016477'
p494
I01
stbaa(lp495
S'9700162'
p496
ag5
(g6
g7
NtRp497
((dp498
S'GO:0003779'
p499
I01
sS'GO:0042175'
p500
I01
sS'GO:0016337'
p501
I01
sS'GO:0005789'
p502
I01
stbaa(lp503
S'18266910'
p504
ag5
(g6
g7
NtRp505
((dp506
S'GO:0006997'
p507
I01
sS'GO:0000070'
p508
I01
sS'GO:0005637'
p509
I01
sS'GO:0005635'
p510
I01
sS'GO:0005654'
p511
I01
sS'GO:0003677'
p512
I01
sS'GO:0003682'
p513
I01
sS'GO:0051642'
p514
I01
sS'GO:0042803'
p515
I01
stbaa(lp516
S'10704840'
p517
ag5
(g6
g7
NtRp518
((dp519
S'GO:0007275'
p520
I01
sS'GO:0009847'
p521
I01
stbaa(lp522
S'11352940'
p523
ag5
(g6
g7
NtRp524
((dp525
S'GO:0030041'
p526
I01
sS'GO:0007163'
p527
I01
sS'GO:0000281'
p528
I01
sS'GO:0031152'
p529
I01
sS'GO:0031269'
p530
I01
stbaa(lp531
S'17553489'
p532
ag5
(g6
g7
NtRp533
((dp534
S'GO:0030041'
p535
I01
sS'GO:0005938'
p536
I01
stbaa(lp537
S'11854420'
p538
ag5
(g6
g7
NtRp539
((dp540
S'GO:0005764'
p541
I01
sS'GO:0007040'
p542
I01
stbaa(lp543
S'7916591'
p544
ag5
(g6
g7
NtRp545
((dp546
S'GO:0000822'
p547
I01
stbaa(lp548
S'21169559'
p549
ag5
(g6
g7
NtRp550
((dp551
S'GO:0006468'
p552
I01
sS'GO:0032148'
p553
I01
sS'GO:0000281'
p554
I01
sS'GO:0043327'
p555
I01
sS'GO:0031156'
p556
I01
sS'GO:0030010'
p557
I01
sS'GO:0036051'
p558
I01
sS'GO:0071902'
p559
I01
sS'GO:0071901'
p560
I01
stbaa(lp561
S'16079174'
p562
ag5
(g6
g7
NtRp563
((dp564
S'GO:0032148'
p565
I01
sS'GO:0031932'
p566
I01
sS'GO:0005515'
p567
I01
sS'GO:0030838'
p568
I01
sS'GO:0043520'
p569
I01
sS'GO:0043327'
p570
I01
sS'GO:0031152'
p571
I01
sS'GO:0007190'
p572
I01
stbaa(lp573
S'12413895'
p574
ag5
(g6
g7
NtRp575
((dp576
S'GO:0005737'
p577
I01
sS'GO:0007190'
p578
I01
sS'GO:0031152'
p579
I01
stbaa(lp580
S'9389653'
p581
ag5
(g6
g7
NtRp582
((dp583
S'GO:0006935'
p584
I01
sS'GO:0005829'
p585
I01
sS'GO:0008047'
p586
I01
sS'GO:0031152'
p587
I01
sS'GO:0007190'
p588
I01
sS'GO:0016021'
p589
I01
stbaa(lp590
S'22266904'
p591
ag5
(g6
g7
NtRp592
((dp593
S'GO:0050766'
p594
I01
sS'GO:0008284'
p595
I01
sS'GO:0044351'
p596
I01
sS'GO:0050765'
p597
I01
sS'GO:1901355'
p598
I01
stbaa(lp599
S'18635356'
p600
ag5
(g6
g7
NtRp601
((dp602
S'GO:0006468'
p603
I01
sS'GO:0051897'
p604
I01
sS'GO:0019933'
p605
I01
stbaa(lp606
S'11004503'
p607
ag5
(g6
g7
NtRp608
((dp609
S'GO:0005829'
p610
I01
sS'GO:0042744'
p611
I01
sS'GO:0005777'
p612
I01
sS'GO:0006979'
p613
I01
sS'GO:0004096'
p614
I01
stbaa(lp615
S'2921242'
p616
ag5
(g6
g7
NtRp617
((dp618
S'GO:0042744'
p619
I01
sS'GO:0006979'
p620
I01
sS'GO:0004096'
p621
I01
stbaa(lp622
S'11782526'
p623
ag5
(g6
g7
NtRp624
((dp625
S'GO:0033986'
p626
I01
stbaa(lp627
S'20408569'
p628
ag5
(g6
g7
NtRp629
((dp630
S'GO:0000302'
p631
I01
sS'GO:0046689'
p632
I01
stbaa(lp633
S'17825085'
p634
ag5
(g6
g7
NtRp635
((dp636
S'GO:0031154'
p637
I01
sS'GO:0030141'
p638
I01
sS'GO:0005783'
p639
I01
sS'GO:0031152'
p640
I01
sS'GO:0019933'
p641
I01
stbaa(lp642
S'9813183'
p643
ag5
(g6
g7
NtRp644
((dp645
S'GO:0031152'
p646
I01
stbaa(lp647
S'10712614'
p648
ag5
(g6
g7
NtRp649
((dp650
S'GO:0016491'
p651
I01
sS'GO:0006636'
p652
I01
sS'GO:0005886'
p653
I01
stbaa(lp654
S'15509655'
p655
ag5
(g6
g7
NtRp656
((dp657
S'GO:0050766'
p658
I01
sS'GO:0006468'
p659
I01
sS'GO:0006907'
p660
I01
sS'GO:0000281'
p661
I01
sS'GO:0031252'
p662
I01
sS'GO:0019901'
p663
I01
sS'GO:0004674'
p664
I01
sS'GO:0048365'
p665
I01
sS'GO:0005515'
p666
I01
sS'GO:0001891'
p667
I01
stbaa(lp668
S'16573737'
p669
ag5
(g6
g7
NtRp670
((dp671
S'GO:0016337'
p672
I01
sS'GO:0019953'
p673
I01
sS'GO:0031152'
p674
I01
stbaa(lp675
S'9832508'
p676
ag5
(g6
g7
NtRp677
((dp678
S'GO:0000186'
p679
I01
sS'GO:0030587'
p680
I01
sS'GO:0004709'
p681
I01
sS'GO:0000165'
p682
I01
sS'GO:0016567'
p683
I01
sS'GO:0005938'
p684
I01
sS'GO:0009653'
p685
I01
sS'GO:0016579'
p686
I01
stbaa(lp687
S'17296313'
p688
ag5
(g6
g7
NtRp689
((dp690
S'GO:0005885'
p691
I01
stbaa(lp692
S'15726806'
p693
ag5
(g6
g7
NtRp694
((dp695
S'GO:0051126'
p696
I01
sS'GO:0006909'
p697
I01
sS'GO:0015629'
p698
I01
sS'GO:0017024'
p699
I01
sS'GO:0006907'
p700
I01
sS'GO:0017048'
p701
I01
sS'GO:0006928'
p702
I01
sS'GO:0042989'
p703
I01
sS'GO:0035023'
p704
I01
sS'GO:0050765'
p705
I01
sS'GO:0000902'
p706
I01
sS'GO:0045010'
p707
I01
sS'GO:0042331'
p708
I01
sS'GO:0006887'
p709
I01
sS'GO:0000281'
p710
I01
sS'GO:0003779'
p711
I01
sS'GO:0006935'
p712
I01
sS'GO:0051015'
p713
I01
sS'GO:0045335'
p714
I01
sS'GO:0005885'
p715
I01
sS'GO:0005094'
p716
I01
sS'GO:0030041'
p717
I01
sS'GO:0030042'
p718
I01
sS'GO:0007015'
p719
I01
sS'GO:0006897'
p720
I01
sS'GO:0016192'
p721
I01
sS'GO:0030837'
p722
I01
sS'GO:0008290'
p723
I01
sS'GO:0003785'
p724
I01
stbaa(lp725
S'22891261'
p726
ag5
(g6
g7
NtRp727
((dp728
S'GO:0031143'
p729
I01
sS'GO:0032433'
p730
I01
sS'GO:0031252'
p731
I01
sS'GO:0005911'
p732
I01
stbaa(lp733
S'23223240'
p734
ag5
(g6
g7
NtRp735
((dp736
S'GO:0043327'
p737
I01
sS'GO:0031152'
p738
I01
stbaa(lp739
S'22264729'
p740
ag5
(g6
g7
NtRp741
((dp742
S'GO:0005737'
p743
I01
sS'GO:0031681'
p744
I01
sS'GO:0031252'
p745
I01
sS'GO:0044354'
p746
I01
sS'GO:0030864'
p747
I01
sS'GO:0043327'
p748
I01
sS'GO:0048365'
p749
I01
sS'GO:0005515'
p750
I01
sS'GO:0005886'
p751
I01
sS'GO:0030041'
p752
I01
stbaa(lp753
S'16624291'
p754
ag5
(g6
g7
NtRp755
((dp756
S'GO:0032060'
p757
I01
stbaa(lp758
S'15496465'
p759
ag5
(g6
g7
NtRp760
((dp761
S'GO:0005813'
p762
I01
sS'GO:0008976'
p763
I01
sS'GO:0016192'
p764
I01
stbaa(lp765
S'22366457'
p766
ag5
(g6
g7
NtRp767
((dp768
S'GO:0030587'
p769
I01
sS'GO:0005829'
p770
I01
sS'GO:0048870'
p771
I01
sS'GO:0000281'
p772
I01
sS'GO:0005815'
p773
I01
sS'GO:0043327'
p774
I01
sS'GO:0005938'
p775
I01
sS'GO:0005515'
p776
I01
sS'GO:0046847'
p777
I01
stbaa(lp778
S'14710184'
p779
ag5
(g6
g7
NtRp780
((dp781
S'GO:0031037'
p782
I01
sS'GO:0031276'
p783
I01
sS'GO:0005885'
p784
I01
stbaa(lp785
S'16971511'
p786
ag5
(g6
g7
NtRp787
((dp788
S'GO:0000331'
p789
I01
sS'GO:0045335'
p790
I01
sS'GO:0030670'
p791
I01
stbaa(lp792
S'19589376'
p793
ag5
(g6
g7
NtRp794
((dp795
S'GO:0031982'
p796
I01
stbaa(lp797
S'9837757'
p798
ag5
(g6
g7
NtRp799
((dp800
S'GO:0008609'
p801
I01
sS'GO:0005777'
p802
I01
sS'GO:0008611'
p803
I01
stbaa(lp804
S'17562315'
p805
ag5
(g6
g7
NtRp806
((dp807
S'GO:0008609'
p808
I01
sS'GO:0050660'
p809
I01
sS'GO:0043178'
p810
I01
stbaa(lp811
S'17606910'
p812
ag5
(g6
g7
NtRp813
((dp814
S'GO:0050660'
p815
I01
stbaa(lp816
S'18636095'
p817
ag5
(g6
g7
NtRp818
((dp819
S'GO:0000331'
p820
I01
sS'GO:0005829'
p821
I01
sS'GO:0032794'
p822
I01
sS'GO:0017137'
p823
I01
sS'GO:0005097'
p824
I01
sS'GO:0033298'
p825
I01
sS'GO:0031164'
p826
I01
sS'GO:0034394'
p827
I01
sS'GO:0005515'
p828
I01
sS'GO:0032858'
p829
I01
sS'GO:0006971'
p830
I01
stbaa(lp831
S'10369671'
p832
ag5
(g6
g7
NtRp833
((dp834
S'GO:0033298'
p835
I01
sS'GO:0006971'
p836
I01
sS'GO:0031164'
p837
I01
stbaa(lp838
S'16735078'
p839
ag5
(g6
g7
NtRp840
((dp841
S'GO:0005515'
p842
I01
stbaa(lp843
S'9880334'
p844
ag5
(g6
g7
NtRp845
((dp846
S'GO:0031410'
p847
I01
sS'GO:0042331'
p848
I01
stbaa(lp849
S'10491202'
p850
ag5
(g6
g7
NtRp851
((dp852
S'GO:0003677'
p853
I01
stbaa(lp854
S'11162086'
p855
ag5
(g6
g7
NtRp856
((dp857
S'GO:0005634'
p858
I01
sS'GO:0006909'
p859
I01
sS'GO:0006907'
p860
I01
sS'GO:0031152'
p861
I01
stbaa(lp862
S'23355006'
p863
ag5
(g6
g7
NtRp864
((dp865
S'GO:0010629'
p866
I01
sS'GO:0010628'
p867
I01
stbaa(lp868
S'16607013'
p869
ag5
(g6
g7
NtRp870
((dp871
S'GO:0043565'
p872
I01
stbaa(lp873
S'10092866'
p874
ag5
(g6
g7
NtRp875
((dp876
S'GO:0015866'
p877
I01
sS'GO:0005743'
p878
I01
sS'GO:0005471'
p879
I01
sS'GO:0015867'
p880
I01
stbaa(lp881
S'12175335'
p882
ag5
(g6
g7
NtRp883
((dp884
S'GO:0006810'
p885
I01
sS'GO:0016192'
p886
I01
sS'GO:0008333'
p887
I01
sS'GO:0016021'
p888
I01
sS'GO:0006906'
p889
I01
sS'GO:0031902'
p890
I01
sS'GO:0005765'
p891
I01
sS'GO:0005515'
p892
I01
sS'GO:0005887'
p893
I01
sS'GO:0005768'
p894
I01
sS'GO:0031201'
p895
I01
sS'GO:0010008'
p896
I01
stbaa(lp897
S'1493336'
p898
ag5
(g6
g7
NtRp899
((dp900
S'GO:0000281'
p901
I01
stbaa(lp902
S'11220631'
p903
ag5
(g6
g7
NtRp904
((dp905
S'GO:0000331'
p906
I01
sS'GO:0016021'
p907
I01
sS'GO:0006970'
p908
I01
stbaa(lp909
S'1629238'
p910
ag5
(g6
g7
NtRp911
((dp912
S'GO:0000331'
p913
I01
stbaa(lp914
S'15606490'
p915
ag5
(g6
g7
NtRp916
((dp917
S'GO:0005509'
p918
I01
sS'GO:0030587'
p919
I01
stbaa(lp920
S'6243626'
p921
ag5
(g6
g7
NtRp922
((dp923
S'GO:0051343'
p924
I01
sS'GO:0005509'
p925
I01
stbaa(lp926
S'6667031'
p927
ag5
(g6
g7
NtRp928
((dp929
S'GO:0051343'
p930
I01
sS'GO:0005509'
p931
I01
sS'GO:0031013'
p932
I01
stbaa(lp933
S'11919178'
p934
ag5
(g6
g7
NtRp935
((dp936
S'GO:0005654'
p937
I01
sS'GO:0007088'
p938
I01
sS'GO:0005516'
p939
I01
sS'GO:0005515'
p940
I01
stbaa(lp941
S'15883042'
p942
ag5
(g6
g7
NtRp943
((dp944
S'GO:0006139'
p945
I01
sS'GO:0004683'
p946
I01
sS'GO:0005516'
p947
I01
sS'GO:0005515'
p948
I01
sS'GO:0004797'
p949
I01
sS'GO:0005524'
p950
I01
stbaa(lp951
S'15896312'
p952
ag5
(g6
g7
NtRp953
((dp954
S'GO:0005516'
p955
I01
sS'GO:0005515'
p956
I01
stbaa(lp957
S'21402150'
p958
ag5
(g6
g7
NtRp959
((dp960
S'GO:0005615'
p961
I01
sS'GO:0031012'
p962
I01
sS'GO:0005516'
p963
I01
sS'GO:0005515'
p964
I01
sS'GO:0045861'
p965
I01
sS'GO:0005622'
p966
I01
stbaa(lp967
S'22391412'
p968
ag5
(g6
g7
NtRp969
((dp970
S'GO:0051592'
p971
I01
sS'GO:0043327'
p972
I01
sS'GO:0005783'
p973
I01
sS'GO:0005515'
p974
I01
sS'GO:0031012'
p975
I01
stbaa(lp976
S'23441816'
p977
ag5
(g6
g7
NtRp978
((dp979
S'GO:0050839'
p980
I01
sS'GO:0072666'
p981
I01
sS'GO:0005515'
p982
I01
sS'GO:0005516'
p983
I01
stbaa(lp984
S'23063531'
p985
ag5
(g6
g7
NtRp986
((dp987
S'GO:0005737'
p988
I01
sS'GO:0019901'
p989
I01
sS'GO:0005634'
p990
I01
sS'GO:0005516'
p991
I01
sS'GO:0005515'
p992
I01
stbaa(lp993
S'22884799'
p994
ag5
(g6
g7
NtRp995
((dp996
S'GO:0008285'
p997
I01
sS'GO:0061122'
p998
I01
stbaa(lp999
S'6259174'
p1000
ag5
(g6
g7
NtRp1001
((dp1002
S'GO:0051343'
p1003
I01
sS'GO:0032781'
p1004
I01
sS'GO:0031013'
p1005
I01
stbaa(lp1006
S'6087882'
p1007
ag5
(g6
g7
NtRp1008
((dp1009
S'GO:0051343'
p1010
I01
sS'GO:0043549'
p1011
I01
stbaa(lp1012
S'15947191'
p1013
ag5
(g6
g7
NtRp1014
((dp1015
S'GO:0046871'
p1016
I01
sS'GO:0005576'
p1017
I01
sS'GO:0007010'
p1018
I01
sS'GO:0006928'
p1019
I01
stbaa(lp1020
S'20580724'
p1021
ag5
(g6
g7
NtRp1022
((dp1023
S'GO:0070492'
p1024
I01
stbaa(lp1025
S'23516620'
p1026
ag5
(g6
g7
NtRp1027
((dp1028
S'GO:1902168'
p1029
I01
stbaa(lp1030
S'10725225'
p1031
ag5
(g6
g7
NtRp1032
((dp1033
S'GO:0008284'
p1034
I01
sS'GO:0042127'
p1035
I01
sS'GO:0051270'
p1036
I01
sS'GO:0000281'
p1037
I01
sS'GO:0006928'
p1038
I01
sS'GO:0050927'
p1039
I01
sS'GO:0045806'
p1040
I01
stbaa(lp1041
S'11257439'
p1042
ag5
(g6
g7
NtRp1043
((dp1044
S'GO:0007265'
p1045
I01
sS'GO:0005525'
p1046
I01
sS'GO:0003924'
p1047
I01
sS'GO:0005622'
p1048
I01
stbaa(lp1049
S'2885843'
p1050
ag5
(g6
g7
NtRp1051
((dp1052
S'GO:0006935'
p1053
I01
sS'GO:0007275'
p1054
I01
stbaa(lp1055
S'10837033'
p1056
ag5
(g6
g7
NtRp1057
((dp1058
S'GO:0043052'
p1059
I01
sS'GO:0042331'
p1060
I01
stbaa(lp1061
S'6746725'
p1062
ag5
(g6
g7
NtRp1063
((dp1064
S'GO:0030674'
p1065
I01
sS'GO:0005200'
p1066
I01
sS'GO:0051017'
p1067
I01
sS'GO:0005884'
p1068
I01
sS'GO:0051015'
p1069
I01
stbaa(lp1070
S'8486739'
p1071
ag5
(g6
g7
NtRp1072
((dp1073
S'GO:0051764'
p1074
I01
sS'GO:0005509'
p1075
I01
stbaa(lp1076
S'11884033'
p1077
ag5
(g6
g7
NtRp1078
((dp1079
S'GO:0007155'
p1080
I01
sS'GO:0031288'
p1081
I01
sS'GO:0005576'
p1082
I01
sS'GO:0016337'
p1083
I01
sS'GO:0030587'
p1084
I01
stbaa(lp1085
S'11973270'
p1086
ag5
(g6
g7
NtRp1087
((dp1088
S'GO:0007389'
p1089
I01
sS'GO:0016477'
p1090
I01
stbaa(lp1091
S'23126556'
p1092
ag5
(g6
g7
NtRp1093
((dp1094
S'GO:0005794'
p1095
I01
sS'GO:0031589'
p1096
I01
sS'GO:0055037'
p1097
I01
sS'GO:0044351'
p1098
I01
sS'GO:0031988'
p1099
I01
sS'GO:0043326'
p1100
I01
sS'GO:0071944'
p1101
I01
sS'GO:0030041'
p1102
I01
sS'GO:0016477'
p1103
I01
stbaa(lp1104
S'15548420'
p1105
ag5
(g6
g7
NtRp1106
((dp1107
S'GO:0005813'
p1108
I01
stbaa(lp1109
S'1312226'
p1110
ag5
(g6
g7
NtRp1111
((dp1112
S'GO:0030552'
p1113
I01
sS'GO:0008603'
p1114
I01
sS'GO:0030817'
p1115
I01
stbaa(lp1116
S'14695060'
p1117
ag5
(g6
g7
NtRp1118
((dp1119
S'GO:0030435'
p1120
I01
sS'GO:0051707'
p1121
I01
stbaa(lp1122
S'15131307'
p1123
ag5
(g6
g7
NtRp1124
((dp1125
S'GO:0019933'
p1126
I01
sS'GO:0051344'
p1127
I01
sS'GO:0030819'
p1128
I01
stbaa(lp1129
S'12455979'
p1130
ag5
(g6
g7
NtRp1131
((dp1132
S'GO:0031285'
p1133
I01
sS'GO:0031286'
p1134
I01
stbaa(lp1135
S'2996629'
p1136
ag5
(g6
g7
NtRp1137
((dp1138
S'GO:0006207'
p1139
I01
sS'GO:0004152'
p1140
I01
stbaa(lp1141
S'3003365'
p1142
ag5
(g6
g7
NtRp1143
((dp1144
S'GO:0005200'
p1145
I01
sS'GO:0015629'
p1146
I01
stbaa(lp1147
S'20052281'
p1148
ag5
(g6
g7
NtRp1149
((dp1150
S'GO:0032010'
p1151
I01
sS'GO:0045335'
p1152
I01
sS'GO:0032009'
p1153
I01
sS'GO:0001891'
p1154
I01
stbaa(lp1155
S'6707016'
p1156
ag5
(g6
g7
NtRp1157
((dp1158
S'GO:0051764'
p1159
I01
sS'GO:0051017'
p1160
I01
sS'GO:0051015'
p1161
I01
sS'GO:0005515'
p1162
I01
stbaa(lp1163
S'22008230'
p1164
ag5
(g6
g7
NtRp1165
((dp1166
S'GO:0090382'
p1167
I01
sS'GO:0090383'
p1168
I01
sS'GO:0045335'
p1169
I01
sS'GO:0044656'
p1170
I01
sS'GO:0044655'
p1171
I01
sS'GO:1900756'
p1172
I01
stbaa(lp1173
S'20530573'
p1174
ag5
(g6
g7
NtRp1175
((dp1176
S'GO:0008104'
p1177
I01
sS'GO:0000281'
p1178
I01
sS'GO:0060187'
p1179
I01
sS'GO:0043148'
p1180
I01
stbaa(lp1181
S'1057168'
p1182
ag5
(g6
g7
NtRp1183
((dp1184
S'GO:0005200'
p1185
I01
sS'GO:0005884'
p1186
I01
sS'GO:0017022'
p1187
I01
sS'GO:0015629'
p1188
I01
stbaa(lp1189
S'15843041'
p1190
ag5
(g6
g7
NtRp1191
((dp1192
S'GO:0003779'
p1193
I01
sS'GO:0040011'
p1194
I01
sS'GO:0005829'
p1195
I01
sS'GO:0005938'
p1196
I01
sS'GO:0005515'
p1197
I01
stbaa(lp1198
S'11257435'
p1199
ag5
(g6
g7
NtRp1200
((dp1201
S'GO:0031143'
p1202
I01
sS'GO:0031252'
p1203
I01
stbaa(lp1204
S'6191197'
p1205
ag5
(g6
g7
NtRp1206
((dp1207
S'GO:0009897'
p1208
I01
sS'GO:0016337'
p1209
I01
stbaa(lp1210
S'15366765'
p1211
ag5
(g6
g7
NtRp1212
((dp1213
S'GO:0005938'
p1214
I01
sS'GO:0016337'
p1215
I01
sS'GO:0005911'
p1216
I01
sS'GO:0030155'
p1217
I01
sS'GO:0045121'
p1218
I01
sS'GO:0051260'
p1219
I01
sS'GO:0030866'
p1220
I01
sS'GO:0001726'
p1221
I01
sS'GO:0046658'
p1222
I01
sS'GO:0005516'
p1223
I01
sS'GO:0031152'
p1224
I01
sS'GO:0031159'
p1225
I01
sS'GO:0042803'
p1226
I01
stbaa(lp1227
S'19285397'
p1228
ag5
(g6
g7
NtRp1229
((dp1230
S'GO:0016337'
p1231
I01
sS'GO:0009988'
p1232
I01
stbaa(lp1233
S'16982629'
p1234
ag5
(g6
g7
NtRp1235
((dp1236
S'GO:0030898'
p1237
I01
sS'GO:0051015'
p1238
I01
sS'GO:0000146'
p1239
I01
sS'GO:0005524'
p1240
I01
stbaa(lp1241
S'19955408'
p1242
ag5
(g6
g7
NtRp1243
((dp1244
S'GO:0033275'
p1245
I01
sS'GO:0000146'
p1246
I01
sS'GO:0030898'
p1247
I01
stbaa(lp1248
S'10588668'
p1249
ag5
(g6
g7
NtRp1250
((dp1251
S'GO:0005737'
p1252
I01
sS'GO:0006907'
p1253
I01
sS'GO:0000281'
p1254
I01
sS'GO:0007041'
p1255
I01
sS'GO:0000915'
p1256
I01
stbaa(lp1257
S'19065153'
p1258
ag5
(g6
g7
NtRp1259
((dp1260
S'GO:0048870'
p1261
I01
sS'GO:0031589'
p1262
I01
sS'GO:0007109'
p1263
I01
sS'GO:0000281'
p1264
I01
sS'GO:0005938'
p1265
I01
stbaa(lp1266
S'2721503'
p1267
ag5
(g6
g7
NtRp1268
((dp1269
S'GO:0031154'
p1270
I01
sS'GO:0000281'
p1271
I01
stbaa(lp1272
S'3576222'
p1273
ag5
(g6
g7
NtRp1274
((dp1275
S'GO:0031154'
p1276
I01
sS'GO:0000281'
p1277
I01
stbaa(lp1278
S'17126332'
p1279
ag5
(g6
g7
NtRp1280
((dp1281
S'GO:0001931'
p1282
I01
sS'GO:0031252'
p1283
I01
stbaa(lp1284
S'15910751'
p1285
ag5
(g6
g7
NtRp1286
((dp1287
S'GO:0003774'
p1288
I01
stbaa(lp1289
S'11106661'
p1290
ag5
(g6
g7
NtRp1291
((dp1292
S'GO:0045159'
p1293
I01
sS'GO:0005515'
p1294
I01
sS'GO:0046777'
p1295
I01
stbaa(lp1296
S'18504297'
p1297
ag5
(g6
g7
NtRp1298
((dp1299
S'GO:0005088'
p1300
I01
sS'GO:0045159'
p1301
I01
sS'GO:0030587'
p1302
I01
sS'GO:0005829'
p1303
I01
sS'GO:0051015'
p1304
I01
sS'GO:0043520'
p1305
I01
sS'GO:0005938'
p1306
I01
sS'GO:0005515'
p1307
I01
sS'GO:0007265'
p1308
I01
stbaa(lp1309
S'18854143'
p1310
ag5
(g6
g7
NtRp1311
((dp1312
S'GO:0005737'
p1313
I01
sS'GO:0050764'
p1314
I01
sS'GO:0005515'
p1315
I01
sS'GO:0048870'
p1316
I01
sS'GO:0030587'
p1317
I01
sS'GO:0030837'
p1318
I01
sS'GO:0030864'
p1319
I01
sS'GO:0045159'
p1320
I01
stbaa(lp1321
S'4278009'
p1322
ag5
(g6
g7
NtRp1323
((dp1324
S'GO:0031034'
p1325
I01
sS'GO:0032982'
p1326
I01
sS'GO:0030898'
p1327
I01
sS'GO:0016460'
p1328
I01
sS'GO:0005524'
p1329
I01
sS'GO:0042641'
p1330
I01
stbaa(lp1331
S'9238018'
p1332
ag5
(g6
g7
NtRp1333
((dp1334
S'GO:0000915'
p1335
I01
sS'GO:0005826'
p1336
I01
sS'GO:0000281'
p1337
I01
stbaa(lp1338
S'2578450'
p1339
ag5
(g6
g7
NtRp1340
((dp1341
S'GO:0005856'
p1342
I01
stbaa(lp1343
S'16461463'
p1344
ag5
(g6
g7
NtRp1345
((dp1346
S'GO:0005938'
p1347
I01
sS'GO:0030866'
p1348
I01
stbaa(lp1349
S'15259052'
p1350
ag5
(g6
g7
NtRp1351
((dp1352
S'GO:0030036'
p1353
I01
sS'GO:0006928'
p1354
I01
stbaa(lp1355
S'16926192'
p1356
ag5
(g6
g7
NtRp1357
((dp1358
S'GO:0032060'
p1359
I01
sS'GO:0006935'
p1360
I01
stbaa(lp1361
S'16339076'
p1362
ag5
(g6
g7
NtRp1363
((dp1364
S'GO:0030472'
p1365
I01
sS'GO:0008104'
p1366
I01
sS'GO:0000281'
p1367
I01
sS'GO:0032154'
p1368
I01
sS'GO:0000793'
p1369
I01
sS'GO:0005515'
p1370
I01
sS'GO:0007059'
p1371
I01
sS'GO:0007067'
p1372
I01
sS'GO:0000922'
p1373
I01
sS'GO:0051233'
p1374
I01
stbaa(lp1375
S'14620745'
p1376
ag5
(g6
g7
NtRp1377
((dp1378
S'GO:0030554'
p1379
I01
stbaa(lp1380
S'18067324'
p1381
ag5
(g6
g7
NtRp1382
((dp1383
S'GO:0051015'
p1384
I01
sS'GO:0030898'
p1385
I01
stbaa(lp1386
S'22114350'
p1387
ag5
(g6
g7
NtRp1388
((dp1389
S'GO:0015629'
p1390
I01
sS'GO:0030587'
p1391
I01
sS'GO:0031254'
p1392
I01
sS'GO:0030866'
p1393
I01
sS'GO:0043520'
p1394
I01
sS'GO:0010628'
p1395
I01
sS'GO:0031152'
p1396
I01
sS'GO:0001934'
p1397
I01
stbaa(lp1398
S'18388319'
p1399
ag5
(g6
g7
NtRp1400
((dp1401
S'GO:0060328'
p1402
I01
sS'GO:0034461'
p1403
I01
sS'GO:0031270'
p1404
I01
stbaa(lp1405
S'20200225'
p1406
ag5
(g6
g7
NtRp1407
((dp1408
S'GO:0050766'
p1409
I01
sS'GO:0032037'
p1410
I01
sS'GO:0097203'
p1411
I01
sS'GO:0097204'
p1412
I01
sS'GO:0032009'
p1413
I01
sS'GO:0019901'
p1414
I01
sS'GO:0045335'
p1415
I01
sS'GO:0050765'
p1416
I01
sS'GO:0016905'
p1417
I01
sS'GO:0005515'
p1418
I01
sS'GO:0005522'
p1419
I01
sS'GO:0001891'
p1420
I01
stbaa(lp1421
S'16901894'
p1422
ag5
(g6
g7
NtRp1423
((dp1424
S'GO:0033275'
p1425
I01
stbaa(lp1426
S'2745547'
p1427
ag5
(g6
g7
NtRp1428
((dp1429
S'GO:0042803'
p1430
I01
stbaa(lp1431
S'22902739'
p1432
ag5
(g6
g7
NtRp1433
((dp1434
S'GO:0003382'
p1435
I01
sS'GO:0036360'
p1436
I01
sS'GO:0034613'
p1437
I01
sS'GO:0045179'
p1438
I01
sS'GO:0045180'
p1439
I01
sS'GO:0005515'
p1440
I01
sS'GO:0051495'
p1441
I01
stbaa(lp1442
S'15855234'
p1443
ag5
(g6
g7
NtRp1444
((dp1445
S'GO:0046847'
p1446
I01
stbaa(lp1447
S'20951045'
p1448
ag5
(g6
g7
NtRp1449
((dp1450
S'GO:0030865'
p1451
I01
sS'GO:0008104'
p1452
I01
sS'GO:0072697'
p1453
I01
sS'GO:0032038'
p1454
I01
sS'GO:0071889'
p1455
I01
sS'GO:0000226'
p1456
I01
sS'GO:0005938'
p1457
I01
sS'GO:0036090'
p1458
I01
sS'GO:0032467'
p1459
I01
stbaa(lp1460
S'8552657'
p1461
ag5
(g6
g7
NtRp1462
((dp1463
S'GO:0031143'
p1464
I01
sS'GO:0032154'
p1465
I01
stbaa(lp1466
S'1535025'
p1467
ag5
(g6
g7
NtRp1468
((dp1469
S'GO:0000281'
p1470
I01
sS'GO:0030898'
p1471
I01
stbaa(lp1472
S'2451126'
p1473
ag5
(g6
g7
NtRp1474
((dp1475
S'GO:0005509'
p1476
I01
stbaa(lp1477
S'7593282'
p1478
ag5
(g6
g7
NtRp1479
((dp1480
S'GO:0030587'
p1481
I01
sS'GO:0016477'
p1482
I01
sS'GO:0006928'
p1483
I01
stbaa(lp1484
S'2835631'
p1485
ag5
(g6
g7
NtRp1486
((dp1487
S'GO:0004590'
p1488
I01
sS'GO:0019856'
p1489
I01
sS'GO:0004588'
p1490
I01
stbaa(lp1491
S'8500761'
p1492
ag5
(g6
g7
NtRp1493
((dp1494
S'GO:0004590'
p1495
I01
sS'GO:0004588'
p1496
I01
stbaa(lp1497
S'2017144'
p1498
ag5
(g6
g7
NtRp1499
((dp1500
S'GO:0004590'
p1501
I01
stbaa(lp1502
S'18515835'
p1503
ag5
(g6
g7
NtRp1504
((dp1505
S'GO:0005667'
p1506
I01
sS'GO:0003713'
p1507
I01
sS'GO:0001104'
p1508
I01
sS'GO:0006355'
p1509
I01
sS'GO:0006357'
p1510
I01
sS'GO:0006367'
p1511
I01
sS'GO:0006366'
p1512
I01
sS'GO:0016592'
p1513
I01
stbaa(lp1514
S'15194808'
p1515
ag5
(g6
g7
NtRp1516
((dp1517
S'GO:0007015'
p1518
I01
sS'GO:0031589'
p1519
I01
sS'GO:0006909'
p1520
I01
sS'GO:0000902'
p1521
I01
sS'GO:0000281'
p1522
I01
sS'GO:0006928'
p1523
I01
sS'GO:0006468'
p1524
I01
sS'GO:0004674'
p1525
I01
sS'GO:0005515'
p1526
I01
sS'GO:0005886'
p1527
I01
sS'GO:0017016'
p1528
I01
sS'GO:0005524'
p1529
I01
stbaa(lp1530
S'9230077'
p1531
ag5
(g6
g7
NtRp1532
((dp1533
S'GO:0016337'
p1534
I01
sS'GO:0031589'
p1535
I01
sS'GO:0006909'
p1536
I01
sS'GO:0000281'
p1537
I01
stbaa(lp1538
S'15826949'
p1539
ag5
(g6
g7
NtRp1540
((dp1541
S'GO:0005515'
p1542
I01
stbaa(lp1543
S'16699495'
p1544
ag5
(g6
g7
NtRp1545
((dp1546
S'GO:0009986'
p1547
I01
sS'GO:0006909'
p1548
I01
sS'GO:0031589'
p1549
I01
sS'GO:0005515'
p1550
I01
stbaa(lp1551
S'17671169'
p1552
ag5
(g6
g7
NtRp1553
((dp1554
S'GO:0016020'
p1555
I01
sS'GO:0031252'
p1556
I01
sS'GO:0005515'
p1557
I01
stbaa(lp1558
S'18375618'
p1559
ag5
(g6
g7
NtRp1560
((dp1561
S'GO:0031589'
p1562
I01
sS'GO:0030587'
p1563
I01
stbaa(lp1564
S'18349074'
p1565
ag5
(g6
g7
NtRp1566
((dp1567
S'GO:0032433'
p1568
I01
sS'GO:0010812'
p1569
I01
sS'GO:0015629'
p1570
I01
sS'GO:0030036'
p1571
I01
sS'GO:0048870'
p1572
I01
stbaa(lp1573
S'7738034'
p1574
ag5
(g6
g7
NtRp1575
((dp1576
S'GO:0005737'
p1577
I01
sS'GO:0001726'
p1578
I01
sS'GO:0015629'
p1579
I01
stbaa(lp1580
S'9118250'
p1581
ag5
(g6
g7
NtRp1582
((dp1583
S'GO:0030042'
p1584
I01
sS'GO:0003785'
p1585
I01
sS'GO:0051015'
p1586
I01
stbaa(lp1587
S'9410873'
p1588
ag5
(g6
g7
NtRp1589
((dp1590
S'GO:0005634'
p1591
I01
stbaa(lp1592
S'8636212'
p1593
ag5
(g6
g7
NtRp1594
((dp1595
S'GO:0051017'
p1596
I01
sS'GO:0006928'
p1597
I01
stbaa(lp1598
S'10421841'
p1599
ag5
(g6
g7
NtRp1600
((dp1601
S'GO:0006972'
p1602
I01
stbaa(lp1603
S'10744862'
p1604
ag5
(g6
g7
NtRp1605
((dp1606
S'GO:0051014'
p1607
I01
stbaa(lp1608
S'15075287'
p1609
ag5
(g6
g7
NtRp1610
((dp1611
S'GO:0003723'
p1612
I01
sS'GO:0051082'
p1613
I01
sS'GO:0030587'
p1614
I01
stbaa(lp1615
S'17660362'
p1616
ag5
(g6
g7
NtRp1617
((dp1618
S'GO:0043950'
p1619
I01
sS'GO:0031159'
p1620
I01
sS'GO:0031982'
p1621
I01
stbaa(lp1622
S'2191567'
p1623
ag5
(g6
g7
NtRp1624
((dp1625
S'GO:0015629'
p1626
I01
sS'GO:0048306'
p1627
I01
stbaa(lp1628
S'6897549'
p1629
ag5
(g6
g7
NtRp1630
((dp1631
S'GO:0030043'
p1632
I01
sS'GO:0051014'
p1633
I01
stbaa(lp1634
S'15060630'
p1635
ag5
(g6
g7
NtRp1636
((dp1637
S'GO:0051015'
p1638
I01
stbaa(lp1639
S'3139100'
p1640
ag5
(g6
g7
NtRp1641
((dp1642
S'GO:0004013'
p1643
I01
stbaa(lp1644
S'3288206'
p1645
ag5
(g6
g7
NtRp1646
((dp1647
S'GO:0004013'
p1648
I01
stbaa(lp1649
S'6299402'
p1650
ag5
(g6
g7
NtRp1651
((dp1652
S'GO:0030552'
p1653
I01
sS'GO:0004013'
p1654
I01
stbaa(lp1655
S'11728467'
p1656
ag5
(g6
g7
NtRp1657
((dp1658
S'GO:0005737'
p1659
I01
sS'GO:0005634'
p1660
I01
sS'GO:0031002'
p1661
I01
stbaa(lp1662
S'15358428'
p1663
ag5
(g6
g7
NtRp1664
((dp1665
S'GO:0005737'
p1666
I01
sS'GO:0005634'
p1667
I01
sS'GO:0005938'
p1668
I01
stbaa(lp1669
S'17172447'
p1670
ag5
(g6
g7
NtRp1671
((dp1672
S'GO:0005737'
p1673
I01
sS'GO:0031941'
p1674
I01
sS'GO:0007163'
p1675
I01
sS'GO:0031252'
p1676
I01
stbaa(lp1677
S'1310316'
p1678
ag5
(g6
g7
NtRp1679
((dp1680
S'GO:0005764'
p1681
I01
sS'GO:0004560'
p1682
I01
sS'GO:0005576'
p1683
I01
sS'GO:0033938'
p1684
I01
sS'GO:0006004'
p1685
I01
stbaa(lp1686
S'8016318'
p1687
ag5
(g6
g7
NtRp1688
((dp1689
S'GO:0031012'
p1690
I01
sS'GO:0030198'
p1691
I01
sS'GO:0005198'
p1692
I01
stbaa(lp1693
S'17040207'
p1694
ag5
(g6
g7
NtRp1695
((dp1696
S'GO:0046069'
p1697
I01
sS'GO:0004115'
p1698
I01
sS'GO:0005576'
p1699
I01
sS'GO:0047555'
p1700
I01
sS'GO:0006198'
p1701
I01
stbaa(lp1702
S'2049870'
p1703
ag5
(g6
g7
NtRp1704
((dp1705
S'GO:0047555'
p1706
I01
sS'GO:0046069'
p1707
I01
stbaa(lp1708
S'3243026'
p1709
ag5
(g6
g7
NtRp1710
((dp1711
S'GO:0007155'
p1712
I01
stbaa(lp1713
S'2850494'
p1714
ag5
(g6
g7
NtRp1715
((dp1716
S'GO:0046658'
p1717
I01
sS'GO:0016020'
p1718
I01
stbaa(lp1719
S'23369714'
p1720
ag5
(g6
g7
NtRp1721
((dp1722
S'GO:0005515'
p1723
I01
sS'GO:0061474'
p1724
I01
sS'GO:0006887'
p1725
I01
sS'GO:0061462'
p1726
I01
sS'GO:0044655'
p1727
I01
sS'GO:0030041'
p1728
I01
sS'GO:0071203'
p1729
I01
stbaa(lp1730
S'2914932'
p1731
ag5
(g6
g7
NtRp1732
((dp1733
S'GO:0015629'
p1734
I01
sS'GO:0005829'
p1735
I01
sS'GO:0051015'
p1736
I01
sS'GO:0003785'
p1737
I01
sS'GO:0005886'
p1738
I01
sS'GO:0030041'
p1739
I01
stbaa(lp1740
S'7822284'
p1741
ag5
(g6
g7
NtRp1742
((dp1743
S'GO:0005504'
p1744
I01
sS'GO:0005829'
p1745
I01
sS'GO:0005886'
p1746
I01
stbaa(lp1747
S'15962002'
p1748
ag5
(g6
g7
NtRp1749
((dp1750
S'GO:0050766'
p1751
I01
sS'GO:0007015'
p1752
I01
sS'GO:0050765'
p1753
I01
sS'GO:0045335'
p1754
I01
sS'GO:0005083'
p1755
I01
sS'GO:0030863'
p1756
I01
sS'GO:0006907'
p1757
I01
sS'GO:0008270'
p1758
I01
sS'GO:0030866'
p1759
I01
sS'GO:0005622'
p1760
I01
sS'GO:0043229'
p1761
I01
sS'GO:0005938'
p1762
I01
sS'GO:0005515'
p1763
I01
sS'GO:0046847'
p1764
I01
sS'GO:0005829'
p1765
I01
sS'GO:0001891'
p1766
I01
stbaa(lp1767
S'15383615'
p1768
ag5
(g6
g7
NtRp1769
((dp1770
S'GO:0005737'
p1771
I01
sS'GO:0030587'
p1772
I01
sS'GO:0042331'
p1773
I01
sS'GO:0031005'
p1774
I01
sS'GO:0030864'
p1775
I01
sS'GO:0005938'
p1776
I01
sS'GO:0005515'
p1777
I01
sS'GO:0005886'
p1778
I01
sS'GO:0001891'
p1779
I01
stbaa(lp1780
S'17121815'
p1781
ag5
(g6
g7
NtRp1782
((dp1783
S'GO:0030036'
p1784
I01
sS'GO:0042331'
p1785
I01
stbaa(lp1786
S'9480045'
p1787
ag5
(g6
g7
NtRp1788
((dp1789
S'GO:0043052'
p1790
I01
sS'GO:0042331'
p1791
I01
stbaa(lp1792
S'16781869'
p1793
ag5
(g6
g7
NtRp1794
((dp1795
S'GO:0042803'
p1796
I01
stbaa(lp1797
S'9578623'
p1798
ag5
(g6
g7
NtRp1799
((dp1800
S'GO:0030552'
p1801
I01
sS'GO:0006935'
p1802
I01
sS'GO:0004871'
p1803
I01
sS'GO:0001646'
p1804
I01
sS'GO:0031152'
p1805
I01
sS'GO:0007190'
p1806
I01
stbaa(lp1807
S'15574880'
p1808
ag5
(g6
g7
NtRp1809
((dp1810
S'GO:0002029'
p1811
I01
stbaa(lp1812
S'15507682'
p1813
ag5
(g6
g7
NtRp1814
((dp1815
S'GO:0030552'
p1816
I01
sS'GO:0006935'
p1817
I01
sS'GO:0009986'
p1818
I01
sS'GO:0004016'
p1819
I01
sS'GO:0031152'
p1820
I01
sS'GO:0045860'
p1821
I01
sS'GO:0006171'
p1822
I01
stbaa(lp1823
S'11264536'
p1824
ag5
(g6
g7
NtRp1825
((dp1826
S'GO:0005834'
p1827
I01
sS'GO:0001664'
p1828
I01
sS'GO:0008277'
p1829
I01
sS'GO:0005829'
p1830
I01
sS'GO:0005886'
p1831
I01
stbaa(lp1832
S'17630977'
p1833
ag5
(g6
g7
NtRp1834
((dp1835
S'GO:0030552'
p1836
I01
sS'GO:0032148'
p1837
I01
sS'GO:0031152'
p1838
I01
stbaa(lp1839
S'1849108'
p1840
ag5
(g6
g7
NtRp1841
((dp1842
S'GO:0031152'
p1843
I01
stbaa(lp1844
S'21103944'
p1845
ag5
(g6
g7
NtRp1846
((dp1847
S'GO:0032861'
p1848
I01
stbaa(lp1849
S'15143344'
p1850
ag5
(g6
g7
NtRp1851
((dp1852
S'GO:0007188'
p1853
I01
sS'GO:0046578'
p1854
I01
sS'GO:0007265'
p1855
I01
sS'GO:0005525'
p1856
I01
stbaa(lp1857
S'17905919'
p1858
ag5
(g6
g7
NtRp1859
((dp1860
S'GO:0050764'
p1861
I01
stbaa(lp1862
S'7806571'
p1863
ag5
(g6
g7
NtRp1864
((dp1865
S'GO:0000281'
p1866
I01
sS'GO:0030587'
p1867
I01
stbaa(lp1868
S'11428129'
p1869
ag5
(g6
g7
NtRp1870
((dp1871
S'GO:0031160'
p1872
I01
sS'GO:0042244'
p1873
I01
stbaa(lp1874
S'16822579'
p1875
ag5
(g6
g7
NtRp1876
((dp1877
S'GO:0031589'
p1878
I01
sS'GO:0000902'
p1879
I01
sS'GO:0031143'
p1880
I01
sS'GO:0031252'
p1881
I01
sS'GO:0006928'
p1882
I01
sS'GO:0000281'
p1883
I01
stbaa(lp1884
S'15352238'
p1885
ag5
(g6
g7
NtRp1886
((dp1887
S'GO:0001932'
p1888
I01
stbaa(lp1889
S'16622066'
p1890
ag5
(g6
g7
NtRp1891
((dp1892
S'GO:0016339'
p1893
I01
sS'GO:0001932'
p1894
I01
sS'GO:0046586'
p1895
I01
stbaa(lp1896
S'17380187'
p1897
ag5
(g6
g7
NtRp1898
((dp1899
S'GO:0005088'
p1900
I01
sS'GO:0007265'
p1901
I01
sS'GO:0003924'
p1902
I01
stbaa(lp1903
S'10473630'
p1904
ag5
(g6
g7
NtRp1905
((dp1906
S'GO:0031284'
p1907
I01
sS'GO:0043327'
p1908
I01
sS'GO:0017016'
p1909
I01
sS'GO:0019900'
p1910
I01
sS'GO:0030250'
p1911
I01
sS'GO:0005515'
p1912
I01
sS'GO:0007190'
p1913
I01
stbaa(lp1914
S'18180289'
p1915
ag5
(g6
g7
NtRp1916
((dp1917
S'GO:0031284'
p1918
I01
sS'GO:0008283'
p1919
I01
sS'GO:0032861'
p1920
I01
sS'GO:0043327'
p1921
I01
sS'GO:0007190'
p1922
I01
sS'GO:0051897'
p1923
I01
stbaa(lp1924
S'16885420'
p1925
ag5
(g6
g7
NtRp1926
((dp1927
S'GO:0043327'
p1928
I01
sS'GO:0051897'
p1929
I01
sS'GO:0031152'
p1930
I01
sS'GO:0030828'
p1931
I01
stbaa(lp1932
S'15261655'
p1933
ag5
(g6
g7
NtRp1934
((dp1935
S'GO:0004888'
p1936
I01
sS'GO:0006909'
p1937
I01
sS'GO:0031152'
p1938
I01
sS'GO:0005887'
p1939
I01
stbaa(lp1940
S'2161991'
p1941
ag5
(g6
g7
NtRp1942
((dp1943
S'GO:0031154'
p1944
I01
sS'GO:0031153'
p1945
I01
stbaa(lp1946
S'18204858'
p1947
ag5
(g6
g7
NtRp1948
((dp1949
S'GO:0030587'
p1950
I01
stbaa(lp1951
S'2813371'
p1952
ag5
(g6
g7
NtRp1953
((dp1954
S'GO:0050797'
p1955
I01
sS'GO:0006231'
p1956
I01
stbaa(lp1957
S'8280098'
p1958
ag5
(g6
g7
NtRp1959
((dp1960
S'GO:0007186'
p1961
I01
sS'GO:0003924'
p1962
I01
sS'GO:0007165'
p1963
I01
sS'GO:0004871'
p1964
I01
sS'GO:0005525'
p1965
I01
stbaa(lp1966
S'15563608'
p1967
ag5
(g6
g7
NtRp1968
((dp1969
S'GO:0019897'
p1970
I01
sS'GO:0031681'
p1971
I01
sS'GO:0031682'
p1972
I01
sS'GO:0005834'
p1973
I01
sS'GO:0031256'
p1974
I01
sS'GO:0005829'
p1975
I01
sS'GO:0007188'
p1976
I01
sS'GO:0008047'
p1977
I01
sS'GO:0005515'
p1978
I01
sS'GO:0043085'
p1979
I01
stbaa(lp1980
S'23576747'
p1981
ag5
(g6
g7
NtRp1982
((dp1983
S'GO:0031684'
p1984
I01
sS'GO:0005829'
p1985
I01
sS'GO:0005085'
p1986
I01
sS'GO:0046579'
p1987
I01
sS'GO:0043326'
p1988
I01
sS'GO:0001965'
p1989
I01
sS'GO:0010628'
p1990
I01
sS'GO:0005515'
p1991
I01
sS'GO:0007186'
p1992
I01
sS'GO:0061122'
p1993
I01
stbaa(lp1994
S'12217653'
p1995
ag5
(g6
g7
NtRp1996
((dp1997
S'GO:0005834'
p1998
I01
stbaa(lp1999
S'15715993'
p2000
ag5
(g6
g7
NtRp2001
((dp2002
S'GO:0031284'
p2003
I01
sS'GO:0045762'
p2004
I01
sS'GO:0007189'
p2005
I01
sS'GO:0006935'
p2006
I01
sS'GO:0031152'
p2007
I01
stbaa(lp2008
S'17878305'
p2009
ag5
(g6
g7
NtRp2010
((dp2011
S'GO:0006974'
p2012
I01
stbaa(lp2013
S'7821221'
p2014
ag5
(g6
g7
NtRp2015
((dp2016
S'GO:0006184'
p2017
I01
sS'GO:0003924'
p2018
I01
stbaa(lp2019
S'2500658'
p2020
ag5
(g6
g7
NtRp2021
((dp2022
S'GO:0005834'
p2023
I01
stbaa(lp2024
S'9015266'
p2025
ag5
(g6
g7
NtRp2026
((dp2027
S'GO:0030154'
p2028
I01
stbaa(lp2029
S'17481898'
p2030
ag5
(g6
g7
NtRp2031
((dp2032
S'GO:0043327'
p2033
I01
sS'GO:0007186'
p2034
I01
sS'GO:0005768'
p2035
I01
sS'GO:0007165'
p2036
I01
sS'GO:0030587'
p2037
I01
stbaa(lp2038
S'8898241'
p2039
ag5
(g6
g7
NtRp2040
((dp2041
S'GO:0030435'
p2042
I01
sS'GO:0009653'
p2043
I01
sS'GO:0004712'
p2044
I01
stbaa(lp2045
S'1972546'
p2046
ag5
(g6
g7
NtRp2047
((dp2048
S'GO:0004713'
p2049
I01
sS'GO:0018108'
p2050
I01
stbaa(lp2051
S'22699506'
p2052
ag5
(g6
g7
NtRp2053
((dp2054
S'GO:2000366'
p2055
I01
sS'GO:0005515'
p2056
I01
sS'GO:0007260'
p2057
I01
stbaa(lp2058
S'17371831'
p2059
ag5
(g6
g7
NtRp2060
((dp2061
S'GO:0051489'
p2062
I01
sS'GO:0031589'
p2063
I01
sS'GO:0030833'
p2064
I01
sS'GO:0006935'
p2065
I01
sS'GO:0031256'
p2066
I01
sS'GO:0005829'
p2067
I01
sS'GO:0003924'
p2068
I01
sS'GO:0031252'
p2069
I01
sS'GO:0043520'
p2070
I01
sS'GO:0005938'
p2071
I01
sS'GO:0005886'
p2072
I01
stbaa(lp2073
S'22644079'
p2074
ag5
(g6
g7
NtRp2075
((dp2076
S'GO:0005515'
p2077
I01
stbaa(lp2078
S'12186953'
p2079
ag5
(g6
g7
NtRp2080
((dp2081
S'GO:0031284'
p2082
I01
sS'GO:0017160'
p2083
I01
sS'GO:0046578'
p2084
I01
sS'GO:0031289'
p2085
I01
sS'GO:0005623'
p2086
I01
sS'GO:0006972'
p2087
I01
sS'GO:0009409'
p2088
I01
sS'GO:0005525'
p2089
I01
stbaa(lp2090
S'18039932'
p2091
ag5
(g6
g7
NtRp2092
((dp2093
S'GO:0005737'
p2094
I01
sS'GO:0032854'
p2095
I01
sS'GO:0031589'
p2096
I01
sS'GO:0051270'
p2097
I01
sS'GO:0030837'
p2098
I01
sS'GO:0030838'
p2099
I01
sS'GO:0030479'
p2100
I01
sS'GO:0032317'
p2101
I01
sS'GO:0031252'
p2102
I01
sS'GO:0032861'
p2103
I01
sS'GO:0045184'
p2104
I01
sS'GO:0051591'
p2105
I01
sS'GO:0007163'
p2106
I01
sS'GO:0005938'
p2107
I01
sS'GO:0005515'
p2108
I01
sS'GO:0046582'
p2109
I01
sS'GO:0043520'
p2110
I01
stbaa(lp2111
S'2568162'
p2112
ag5
(g6
g7
NtRp2113
((dp2114
S'GO:0004151'
p2115
I01
sS'GO:0004088'
p2116
I01
sS'GO:0006541'
p2117
I01
sS'GO:0004070'
p2118
I01
stbaa(lp2119
S'8703943'
p2120
ag5
(g6
g7
NtRp2121
((dp2122
S'GO:0043100'
p2123
I01
sS'GO:0000287'
p2124
I01
sS'GO:0005524'
p2125
I01
stbaa(lp2126
S'2156849'
p2127
ag5
(g6
g7
NtRp2128
((dp2129
S'GO:0006225'
p2130
I01
sS'GO:0033862'
p2131
I01
sS'GO:0046705'
p2132
I01
sS'GO:0043173'
p2133
I01
sS'GO:0016776'
p2134
I01
sS'GO:0004127'
p2135
I01
sS'GO:0005622'
p2136
I01
sS'GO:0005524'
p2137
I01
stbaa(lp2138
S'15289548'
p2139
ag5
(g6
g7
NtRp2140
((dp2141
S'GO:0016339'
p2142
I01
sS'GO:0031157'
p2143
I01
sS'GO:0050708'
p2144
I01
sS'GO:0030036'
p2145
I01
sS'GO:0005525'
p2146
I01
stbaa(lp2147
S'1989999'
p2148
ag5
(g6
g7
NtRp2149
((dp2150
S'GO:0004019'
p2151
I01
sS'GO:0005829'
p2152
I01
sS'GO:0006164'
p2153
I01
sS'GO:0046086'
p2154
I01
sS'GO:0005525'
p2155
I01
stbaa(lp2156
S'15653432'
p2157
ag5
(g6
g7
NtRp2158
((dp2159
S'GO:0005515'
p2160
I01
stbaa(lp2161
S'2161830'
p2162
ag5
(g6
g7
NtRp2163
((dp2164
S'GO:0006187'
p2165
I01
sS'GO:0006186'
p2166
I01
sS'GO:0004550'
p2167
I01
sS'GO:0009142'
p2168
I01
sS'GO:0005524'
p2169
I01
stbaa(lp2170
S'21991393'
p2171
ag5
(g6
g7
NtRp2172
((dp2173
S'GO:0005737'
p2174
I01
sS'GO:0045920'
p2175
I01
sS'GO:0050765'
p2176
I01
sS'GO:0048550'
p2177
I01
sS'GO:0015629'
p2178
I01
sS'GO:0016049'
p2179
I01
stbaa(lp2180
S'8244981'
p2181
ag5
(g6
g7
NtRp2182
((dp2183
S'GO:0005737'
p2184
I01
sS'GO:0005739'
p2185
I01
stbaa(lp2186
S'7733916'
p2187
ag5
(g6
g7
NtRp2188
((dp2189
S'GO:0006414'
p2190
I01
sS'GO:0005840'
p2191
I01
stbaa(lp2192
S'8816286'
p2193
ag5
(g6
g7
NtRp2194
((dp2195
S'GO:0005856'
p2196
I01
sS'GO:0030036'
p2197
I01
stbaa(lp2198
S'8389692'
p2199
ag5
(g6
g7
NtRp2200
((dp2201
S'GO:0007186'
p2202
I01
sS'GO:0005886'
p2203
I01
stbaa(lp2204
S'11990506'
p2205
ag5
(g6
g7
NtRp2206
((dp2207
S'GO:0030141'
p2208
I01
stbaa(lp2209
S'18054409'
p2210
ag5
(g6
g7
NtRp2211
((dp2212
S'GO:0030863'
p2213
I01
stbaa(lp2214
S'9927418'
p2215
ag5
(g6
g7
NtRp2216
((dp2217
S'GO:0036089'
p2218
I01
sS'GO:0032154'
p2219
I01
sS'GO:0000281'
p2220
I01
stbaa(lp2221
S'1832674'
p2222
ag5
(g6
g7
NtRp2223
((dp2224
S'GO:0005509'
p2225
I01
stbaa(lp2226
S'16762449'
p2227
ag5
(g6
g7
NtRp2228
((dp2229
S'GO:0006874'
p2230
I01
sS'GO:0005509'
p2231
I01
sS'GO:0005515'
p2232
I01
sS'GO:0005886'
p2233
I01
sS'GO:0048471'
p2234
I01
sS'GO:0010008'
p2235
I01
stbaa(lp2236
S'1824843'
p2237
ag5
(g6
g7
NtRp2238
((dp2239
S'GO:0005544'
p2240
I01
stbaa(lp2241
S'7657724'
p2242
ag5
(g6
g7
NtRp2243
((dp2244
S'GO:0005737'
p2245
I01
sS'GO:0006874'
p2246
I01
sS'GO:0005634'
p2247
I01
sS'GO:0030587'
p2248
I01
sS'GO:0005886'
p2249
I01
stbaa(lp2250
S'8901579'
p2251
ag5
(g6
g7
NtRp2252
((dp2253
S'GO:0000281'
p2254
I01
stbaa(lp2255
S'3029131'
p2256
ag5
(g6
g7
NtRp2257
((dp2258
S'GO:0004674'
p2259
I01
sS'GO:0019933'
p2260
I01
stbaa(lp2261
S'16546177'
p2262
ag5
(g6
g7
NtRp2263
((dp2264
S'GO:0045860'
p2265
I01
sS'GO:0004687'
p2266
I01
sS'GO:0050920'
p2267
I01
stbaa(lp2268
S'3032987'
p2269
ag5
(g6
g7
NtRp2270
((dp2271
S'GO:0004687'
p2272
I01
sS'GO:0030898'
p2273
I01
sS'GO:0005524'
p2274
I01
sS'GO:0004683'
p2275
I01
stbaa(lp2276
S'9789030'
p2277
ag5
(g6
g7
NtRp2278
((dp2279
S'GO:0005737'
p2280
I01
sS'GO:0019934'
p2281
I01
stbaa(lp2282
S'8947030'
p2283
ag5
(g6
g7
NtRp2284
((dp2285
S'GO:0046777'
p2286
I01
stbaa(lp2287
S'1651931'
p2288
ag5
(g6
g7
NtRp2289
((dp2290
S'GO:0005516'
p2291
I01
stbaa(lp2292
S'11223952'
p2293
ag5
(g6
g7
NtRp2294
((dp2295
S'GO:0006898'
p2296
I01
sS'GO:0000281'
p2297
I01
stbaa(lp2298
S'12802059'
p2299
ag5
(g6
g7
NtRp2300
((dp2301
S'GO:0007032'
p2302
I01
sS'GO:0008565'
p2303
I01
sS'GO:0005515'
p2304
I01
sS'GO:0006895'
p2305
I01
sS'GO:0030276'
p2306
I01
sS'GO:0006971'
p2307
I01
sS'GO:0007041'
p2308
I01
sS'GO:0030130'
p2309
I01
sS'GO:0030121'
p2310
I01
sS'GO:0007275'
p2311
I01
stbaa(lp2312
S'1522112'
p2313
ag5
(g6
g7
NtRp2314
((dp2315
S'GO:0007033'
p2316
I01
sS'GO:0006909'
p2317
I01
sS'GO:0006907'
p2318
I01
sS'GO:0006898'
p2319
I01
sS'GO:0006970'
p2320
I01
sS'GO:0031152'
p2321
I01
stbaa(lp2322
S'14617352'
p2323
ag5
(g6
g7
NtRp2324
((dp2325
S'GO:0009992'
p2326
I01
sS'GO:0006897'
p2327
I01
sS'GO:0006869'
p2328
I01
sS'GO:0006886'
p2329
I01
sS'GO:0000281'
p2330
I01
sS'GO:0031154'
p2331
I01
sS'GO:0048268'
p2332
I01
sS'GO:0006970'
p2333
I01
sS'GO:0006907'
p2334
I01
sS'GO:0030125'
p2335
I01
stbaa(lp2336
S'8034739'
p2337
ag5
(g6
g7
NtRp2338
((dp2339
S'GO:0007041'
p2340
I01
stbaa(lp2341
S'9425628'
p2342
ag5
(g6
g7
NtRp2343
((dp2344
S'GO:0030118'
p2345
I01
sS'GO:0005515'
p2346
I01
sS'GO:0071439'
p2347
I01
stbaa(lp2348
S'9053320'
p2349
ag5
(g6
g7
NtRp2350
((dp2351
S'GO:0030435'
p2352
I01
sS'GO:0031152'
p2353
I01
stbaa(lp2354
S'22992464'
p2355
ag5
(g6
g7
NtRp2356
((dp2357
S'GO:0030122'
p2358
I01
sS'GO:0030132'
p2359
I01
sS'GO:0072583'
p2360
I01
sS'GO:0005515'
p2361
I01
stbaa(lp2362
S'7954798'
p2363
ag5
(g6
g7
NtRp2364
((dp2365
S'GO:0030587'
p2366
I01
sS'GO:0030837'
p2367
I01
sS'GO:0000281'
p2368
I01
sS'GO:0006928'
p2369
I01
stbaa(lp2370
S'17467078'
p2371
ag5
(g6
g7
NtRp2372
((dp2373
S'GO:0030837'
p2374
I01
sS'GO:0005546'
p2375
I01
sS'GO:0030175'
p2376
I01
sS'GO:0043327'
p2377
I01
sS'GO:0005938'
p2378
I01
sS'GO:0005515'
p2379
I01
stbaa(lp2380
S'15908944'
p2381
ag5
(g6
g7
NtRp2382
((dp2383
S'GO:0031589'
p2384
I01
sS'GO:0046847'
p2385
I01
sS'GO:0015629'
p2386
I01
sS'GO:0045010'
p2387
I01
sS'GO:0030838'
p2388
I01
sS'GO:0051015'
p2389
I01
sS'GO:0017049'
p2390
I01
sS'GO:0030175'
p2391
I01
sS'GO:0051638'
p2392
I01
sS'GO:0005515'
p2393
I01
sS'GO:0005522'
p2394
I01
sS'GO:0006928'
p2395
I01
stbaa(lp2396
S'17923679'
p2397
ag5
(g6
g7
NtRp2398
((dp2399
S'GO:0005634'
p2400
I01
sS'GO:0000126'
p2401
I01
sS'GO:0006383'
p2402
I01
stbaa(lp2403
S'15769249'
p2404
ag5
(g6
g7
NtRp2405
((dp2406
S'GO:0006383'
p2407
I01
stbaa(lp2408
S'8380174'
p2409
ag5
(g6
g7
NtRp2410
((dp2411
S'GO:0015629'
p2412
I01
sS'GO:0051286'
p2413
I01
sS'GO:0000281'
p2414
I01
sS'GO:0006928'
p2415
I01
sS'GO:0043327'
p2416
I01
sS'GO:0005938'
p2417
I01
stbaa(lp2418
S'23915312'
p2419
ag5
(g6
g7
NtRp2420
((dp2421
S'GO:0006909'
p2422
I01
sS'GO:0042331'
p2423
I01
sS'GO:0005829'
p2424
I01
sS'GO:0048870'
p2425
I01
sS'GO:0005546'
p2426
I01
sS'GO:0005547'
p2427
I01
sS'GO:0043325'
p2428
I01
sS'GO:0005515'
p2429
I01
sS'GO:0005886'
p2430
I01
stbaa(lp2431
S'1661669'
p2432
ag5
(g6
g7
NtRp2433
((dp2434
S'GO:0042995'
p2435
I01
sS'GO:0015629'
p2436
I01
sS'GO:0051015'
p2437
I01
stbaa(lp2438
S'22809629'
p2439
ag5
(g6
g7
NtRp2440
((dp2441
S'GO:0031941'
p2442
I01
sS'GO:0016020'
p2443
I01
sS'GO:0006935'
p2444
I01
sS'GO:0060187'
p2445
I01
sS'GO:0005634'
p2446
I01
sS'GO:0044351'
p2447
I01
sS'GO:0071944'
p2448
I01
sS'GO:0031268'
p2449
I01
stbaa(lp2450
S'10873800'
p2451
ag5
(g6
g7
NtRp2452
((dp2453
S'GO:0043327'
p2454
I01
sS'GO:0004691'
p2455
I01
sS'GO:0031288'
p2456
I01
sS'GO:0006468'
p2457
I01
sS'GO:0005886'
p2458
I01
stbaa(lp2459
S'1885577'
p2460
ag5
(g6
g7
NtRp2461
((dp2462
S'GO:0003922'
p2463
I01
sS'GO:0006177'
p2464
I01
sS'GO:0005524'
p2465
I01
stbaa(lp2466
S'11606416'
p2467
ag5
(g6
g7
NtRp2468
((dp2469
S'GO:0042127'
p2470
I01
sS'GO:0016363'
p2471
I01
sS'GO:0000281'
p2472
I01
sS'GO:0005622'
p2473
I01
sS'GO:0051726'
p2474
I01
stbaa(lp2475
S'14597204'
p2476
ag5
(g6
g7
NtRp2477
((dp2478
S'GO:0030863'
p2479
I01
sS'GO:0007275'
p2480
I01
sS'GO:0005515'
p2481
I01
stbaa(lp2482
S'8455930'
p2483
ag5
(g6
g7
NtRp2484
((dp2485
S'GO:0005525'
p2486
I01
stbaa(lp2487
S'15878331'
p2488
ag5
(g6
g7
NtRp2489
((dp2490
S'GO:0031276'
p2491
I01
sS'GO:0043491'
p2492
I01
sS'GO:0001558'
p2493
I01
sS'GO:0030036'
p2494
I01
sS'GO:0006928'
p2495
I01
sS'GO:0043326'
p2496
I01
sS'GO:0043406'
p2497
I01
sS'GO:0007163'
p2498
I01
sS'GO:0051491'
p2499
I01
sS'GO:0007265'
p2500
I01
sS'GO:0005622'
p2501
I01
stbaa(lp2502
S'11500376'
p2503
ag5
(g6
g7
NtRp2504
((dp2505
S'GO:0030819'
p2506
I01
sS'GO:0045762'
p2507
I01
sS'GO:0003924'
p2508
I01
sS'GO:0007165'
p2509
I01
sS'GO:0031152'
p2510
I01
sS'GO:0051897'
p2511
I01
stbaa(lp2512
S'8290260'
p2513
ag5
(g6
g7
NtRp2514
((dp2515
S'GO:0005525'
p2516
I01
stbaa(lp2517
S'16023096'
p2518
ag5
(g6
g7
NtRp2519
((dp2520
S'GO:0043327'
p2521
I01
sS'GO:0031152'
p2522
I01
stbaa(lp2523
S'10652263'
p2524
ag5
(g6
g7
NtRp2525
((dp2526
S'GO:0042127'
p2527
I01
sS'GO:0051271'
p2528
I01
sS'GO:0006907'
p2529
I01
sS'GO:0030866'
p2530
I01
sS'GO:0006928'
p2531
I01
sS'GO:0045807'
p2532
I01
stbaa(lp2533
S'12211111'
p2534
ag5
(g6
g7
NtRp2535
((dp2536
S'GO:0007015'
p2537
I01
sS'GO:0006928'
p2538
I01
stbaa(lp2539
S'12854977'
p2540
ag5
(g6
g7
NtRp2541
((dp2542
S'GO:0050766'
p2543
I01
sS'GO:0051271'
p2544
I01
stbaa(lp2545
S'15800059'
p2546
ag5
(g6
g7
NtRp2547
((dp2548
S'GO:0015630'
p2549
I01
sS'GO:0005515'
p2550
I01
sS'GO:0045504'
p2551
I01
sS'GO:0017048'
p2552
I01
sS'GO:0031592'
p2553
I01
sS'GO:0051645'
p2554
I01
sS'GO:0051642'
p2555
I01
stbaa(lp2556
S'8816999'
p2557
ag5
(g6
g7
NtRp2558
((dp2559
S'GO:0015631'
p2560
I01
sS'GO:0005515'
p2561
I01
sS'GO:0031122'
p2562
I01
stbaa(lp2563
S'15366936'
p2564
ag5
(g6
g7
NtRp2565
((dp2566
S'GO:0005737'
p2567
I01
sS'GO:0005874'
p2568
I01
sS'GO:0005524'
p2569
I01
sS'GO:0042623'
p2570
I01
stbaa(lp2571
S'15186508'
p2572
ag5
(g6
g7
NtRp2573
((dp2574
S'GO:0005794'
p2575
I01
sS'GO:0007030'
p2576
I01
sS'GO:0005813'
p2577
I01
sS'GO:0045502'
p2578
I01
sS'GO:0030139'
p2579
I01
sS'GO:0000226'
p2580
I01
sS'GO:0005938'
p2581
I01
sS'GO:0005515'
p2582
I01
stbaa(lp2583
S'17761194'
p2584
ag5
(g6
g7
NtRp2585
((dp2586
S'GO:0015631'
p2587
I01
sS'GO:0005868'
p2588
I01
stbaa(lp2589
S'7866389'
p2590
ag5
(g6
g7
NtRp2591
((dp2592
S'GO:0005868'
p2593
I01
stbaa(lp2594
S'17548361'
p2595
ag5
(g6
g7
NtRp2596
((dp2597
S'GO:0016887'
p2598
I01
sS'GO:0006200'
p2599
I01
stbaa(lp2600
S'18430243'
p2601
ag5
(g6
g7
NtRp2602
((dp2603
S'GO:0090307'
p2604
I01
sS'GO:0031122'
p2605
I01
stbaa(lp2606
S'19765570'
p2607
ag5
(g6
g7
NtRp2608
((dp2609
S'GO:0005515'
p2610
I01
stbaa(lp2611
S'1730409'
p2612
ag5
(g6
g7
NtRp2613
((dp2614
S'GO:0030435'
p2615
I01
stbaa(lp2616
S'18028904'
p2617
ag5
(g6
g7
NtRp2618
((dp2619
S'GO:0043326'
p2620
I01
stbaa(lp2621
S'8620848'
p2622
ag5
(g6
g7
NtRp2623
((dp2624
S'GO:0030587'
p2625
I01
stbaa(lp2626
S'19176583'
p2627
ag5
(g6
g7
NtRp2628
((dp2629
S'GO:0007214'
p2630
I01
sS'GO:0004871'
p2631
I01
stbaa(lp2632
S'18089562'
p2633
ag5
(g6
g7
NtRp2634
((dp2635
S'GO:0000146'
p2636
I01
sS'GO:0033275'
p2637
I01
sS'GO:0030898'
p2638
I01
sS'GO:0016461'
p2639
I01
sS'GO:0051015'
p2640
I01
sS'GO:0005524'
p2641
I01
sS'GO:0042641'
p2642
I01
stbaa(lp2643
S'16415352'
p2644
ag5
(g6
g7
NtRp2645
((dp2646
S'GO:0017024'
p2647
I01
sS'GO:0045160'
p2648
I01
sS'GO:0005509'
p2649
I01
sS'GO:0005515'
p2650
I01
sS'GO:0032031'
p2651
I01
stbaa(lp2652
S'8609164'
p2653
ag5
(g6
g7
NtRp2654
((dp2655
S'GO:0006909'
p2656
I01
sS'GO:0031252'
p2657
I01
sS'GO:0006928'
p2658
I01
stbaa(lp2659
S'2163458'
p2660
ag5
(g6
g7
NtRp2661
((dp2662
S'GO:0009142'
p2663
I01
sS'GO:0004550'
p2664
I01
stbaa(lp2665
S'23473502'
p2666
ag5
(g6
g7
NtRp2667
((dp2668
S'GO:0010629'
p2669
I01
sS'GO:0010628'
p2670
I01
stbaa(lp2671
S'14680693'
p2672
ag5
(g6
g7
NtRp2673
((dp2674
S'GO:0030435'
p2675
I01
sS'GO:0042173'
p2676
I01
stbaa(lp2677
S'8325874'
p2678
ag5
(g6
g7
NtRp2679
((dp2680
S'GO:0031252'
p2681
I01
stbaa(lp2682
S'10102987'
p2683
ag5
(g6
g7
NtRp2684
((dp2685
S'GO:0004693'
p2686
I01
sS'GO:0006468'
p2687
I01
sS'GO:0005515'
p2688
I01
sS'GO:0005622'
p2689
I01
stbaa(lp2690
S'12074548'
p2691
ag5
(g6
g7
NtRp2692
((dp2693
S'GO:0006468'
p2694
I01
sS'GO:0006909'
p2695
I01
sS'GO:0008283'
p2696
I01
sS'GO:0006907'
p2697
I01
sS'GO:0005622'
p2698
I01
sS'GO:0030435'
p2699
I01
sS'GO:0031157'
p2700
I01
sS'GO:0031152'
p2701
I01
sS'GO:0004693'
p2702
I01
sS'GO:0005524'
p2703
I01
stbaa(lp2704
S'3110159'
p2705
ag5
(g6
g7
NtRp2706
((dp2707
S'GO:0005980'
p2708
I01
sS'GO:0008184'
p2709
I01
sS'GO:0005622'
p2710
I01
stbaa(lp2711
S'21766205'
p2712
ag5
(g6
g7
NtRp2713
((dp2714
S'GO:0005737'
p2715
I01
sS'GO:0019901'
p2716
I01
sS'GO:0072686'
p2717
I01
sS'GO:0005634'
p2718
I01
sS'GO:0005654'
p2719
I01
sS'GO:0005515'
p2720
I01
stbaa(lp2721
S'8130037'
p2722
ag5
(g6
g7
NtRp2723
((dp2724
S'GO:0005737'
p2725
I01
sS'GO:0006508'
p2726
I01
sS'GO:0005634'
p2727
I01
sS'GO:0005829'
p2728
I01
sS'GO:0008233'
p2729
I01
stbaa(lp2730
S'8293475'
p2731
ag5
(g6
g7
NtRp2732
((dp2733
S'GO:0015629'
p2734
I01
sS'GO:0051015'
p2735
I01
stbaa(lp2736
S'7589554'
p2737
ag5
(g6
g7
NtRp2738
((dp2739
S'GO:0030833'
p2740
I01
stbaa(lp2741
S'16042397'
p2742
ag5
(g6
g7
NtRp2743
((dp2744
S'GO:0019992'
p2745
I01
sS'GO:0004143'
p2746
I01
sS'GO:0005524'
p2747
I01
sS'GO:0000166'
p2748
I01
stbaa(lp2749
S'12952069'
p2750
ag5
(g6
g7
NtRp2751
((dp2752
S'GO:0004674'
p2753
I01
sS'GO:0006468'
p2754
I01
sS'GO:0004143'
p2755
I01
sS'GO:0016905'
p2756
I01
stbaa(lp2757
S'16854454'
p2758
ag5
(g6
g7
NtRp2759
((dp2760
S'GO:0007205'
p2761
I01
sS'GO:0035556'
p2762
I01
sS'GO:0004143'
p2763
I01
stbaa(lp2764
S'8769416'
p2765
ag5
(g6
g7
NtRp2766
((dp2767
S'GO:0016020'
p2768
I01
sS'GO:0004672'
p2769
I01
stbaa(lp2770
S'8557714'
p2771
ag5
(g6
g7
NtRp2772
((dp2773
S'GO:0050926'
p2774
I01
sS'GO:0009653'
p2775
I01
stbaa(lp2776
S'1321427'
p2777
ag5
(g6
g7
NtRp2778
((dp2779
S'GO:0016020'
p2780
I01
stbaa(lp2781
S'2549052'
p2782
ag5
(g6
g7
NtRp2783
((dp2784
S'GO:0046777'
p2785
I01
stbaa(lp2786
S'9334183'
p2787
ag5
(g6
g7
NtRp2788
((dp2789
S'GO:0005634'
p2790
I01
sS'GO:0000122'
p2791
I01
stbaa(lp2792
S'1549373'
p2793
ag5
(g6
g7
NtRp2794
((dp2795
S'GO:0003677'
p2796
I01
stbaa(lp2797
S'8226777'
p2798
ag5
(g6
g7
NtRp2799
((dp2800
S'GO:0006470'
p2801
I01
sS'GO:0004725'
p2802
I01
sS'GO:0016791'
p2803
I01
sS'GO:0031152'
p2804
I01
sS'GO:0035335'
p2805
I01
stbaa(lp2806
S'22302991'
p2807
ag5
(g6
g7
NtRp2808
((dp2809
S'GO:0016601'
p2810
I01
sS'GO:0031143'
p2811
I01
sS'GO:0031255'
p2812
I01
sS'GO:0031254'
p2813
I01
sS'GO:0032154'
p2814
I01
sS'GO:0005938'
p2815
I01
sS'GO:0005886'
p2816
I01
sS'GO:0048471'
p2817
I01
sS'GO:0001891'
p2818
I01
stbaa(lp2819
S'11447112'
p2820
ag5
(g6
g7
NtRp2821
((dp2822
S'GO:0032154'
p2823
I01
sS'GO:0005515'
p2824
I01
sS'GO:0005938'
p2825
I01
stbaa(lp2826
S'9739079'
p2827
ag5
(g6
g7
NtRp2828
((dp2829
S'GO:0048365'
p2830
I01
sS'GO:0005099'
p2831
I01
sS'GO:0030036'
p2832
I01
sS'GO:0005515'
p2833
I01
sS'GO:0048870'
p2834
I01
stbaa(lp2835
S'16968699'
p2836
ag5
(g6
g7
NtRp2837
((dp2838
S'GO:0006935'
p2839
I01
sS'GO:0030838'
p2840
I01
sS'GO:0031252'
p2841
I01
sS'GO:0045184'
p2842
I01
sS'GO:0048365'
p2843
I01
sS'GO:0019904'
p2844
I01
sS'GO:0005515'
p2845
I01
sS'GO:0014065'
p2846
I01
sS'GO:0016477'
p2847
I01
sS'GO:0005938'
p2848
I01
stbaa(lp2849
S'16415044'
p2850
ag5
(g6
g7
NtRp2851
((dp2852
S'GO:0008360'
p2853
I01
sS'GO:0006897'
p2854
I01
sS'GO:0000281'
p2855
I01
sS'GO:0031152'
p2856
I01
stbaa(lp2857
S'15817229'
p2858
ag5
(g6
g7
NtRp2859
((dp2860
S'GO:0046999'
p2861
I01
sS'GO:0019953'
p2862
I01
stbaa(lp2863
S'15470506'
p2864
ag5
(g6
g7
NtRp2865
((dp2866
S'GO:0030676'
p2867
I01
sS'GO:0006935'
p2868
I01
sS'GO:0048365'
p2869
I01
sS'GO:0035020'
p2870
I01
sS'GO:0005515'
p2871
I01
sS'GO:0031152'
p2872
I01
sS'GO:0030041'
p2873
I01
sS'GO:0005938'
p2874
I01
stbaa(lp2875
S'18992223'
p2876
ag5
(g6
g7
NtRp2877
((dp2878
S'GO:0005737'
p2879
I01
sS'GO:0003899'
p2880
I01
sS'GO:0005634'
p2881
I01
sS'GO:0006366'
p2882
I01
stbaa(lp2883
S'16781008'
p2884
ag5
(g6
g7
NtRp2885
((dp2886
S'GO:0043161'
p2887
I01
sS'GO:0008283'
p2888
I01
sS'GO:0005515'
p2889
I01
sS'GO:0008180'
p2890
I01
stbaa(lp2891
S'15668169'
p2892
ag5
(g6
g7
NtRp2893
((dp2894
S'GO:0006935'
p2895
I01
sS'GO:0045762'
p2896
I01
sS'GO:0005547'
p2897
I01
sS'GO:0008064'
p2898
I01
sS'GO:0043325'
p2899
I01
sS'GO:0031152'
p2900
I01
stbaa(lp2901
S'9778249'
p2902
ag5
(g6
g7
NtRp2903
((dp2904
S'GO:0019897'
p2905
I01
sS'GO:0031256'
p2906
I01
sS'GO:0005829'
p2907
I01
sS'GO:0006935'
p2908
I01
stbaa(lp2909
S'17606871'
p2910
ag5
(g6
g7
NtRp2911
((dp2912
S'GO:0007188'
p2913
I01
stbaa(lp2914
S'8089184'
p2915
ag5
(g6
g7
NtRp2916
((dp2917
S'GO:0045762'
p2918
I01
sS'GO:0008047'
p2919
I01
sS'GO:0031152'
p2920
I01
stbaa(lp2921
S'15366706'
p2922
ag5
(g6
g7
NtRp2923
((dp2924
S'GO:0031254'
p2925
I01
sS'GO:0048015'
p2926
I01
sS'GO:0031252'
p2927
I01
stbaa(lp2928
S'15470246'
p2929
ag5
(g6
g7
NtRp2930
((dp2931
S'GO:0019897'
p2932
I01
sS'GO:0005829'
p2933
I01
sS'GO:0005886'
p2934
I01
stbaa(lp2935
S'16267269'
p2936
ag5
(g6
g7
NtRp2937
((dp2938
S'GO:0019897'
p2939
I01
sS'GO:0006935'
p2940
I01
sS'GO:0045761'
p2941
I01
sS'GO:0005829'
p2942
I01
sS'GO:0031254'
p2943
I01
sS'GO:0007186'
p2944
I01
stbaa(lp2945
S'7790361'
p2946
ag5
(g6
g7
NtRp2947
((dp2948
S'GO:0019897'
p2949
I01
stbaa(lp2950
S'7790362'
p2951
ag5
(g6
g7
NtRp2952
((dp2953
S'GO:0043326'
p2954
I01
sS'GO:0043327'
p2955
I01
sS'GO:0031152'
p2956
I01
stbaa(lp2957
S'8099335'
p2958
ag5
(g6
g7
NtRp2959
((dp2960
S'GO:0031152'
p2961
I01
stbaa(lp2962
S'17635933'
p2963
ag5
(g6
g7
NtRp2964
((dp2965
S'GO:0004674'
p2966
I01
sS'GO:0032320'
p2967
I01
stbaa(lp2968
S'9422733'
p2969
ag5
(g6
g7
NtRp2970
((dp2971
S'GO:0006909'
p2972
I01
stbaa(lp2973
S'11686306'
p2974
ag5
(g6
g7
NtRp2975
((dp2976
S'GO:0031164'
p2977
I01
sS'GO:0005525'
p2978
I01
sS'GO:0007231'
p2979
I01
sS'GO:0007264'
p2980
I01
sS'GO:0000166'
p2981
I01
stbaa(lp2982
S'8065317'
p2983
ag5
(g6
g7
NtRp2984
((dp2985
S'GO:0003677'
p2986
I01
stbaa(lp2987
S'8125261'
p2988
ag5
(g6
g7
NtRp2989
((dp2990
S'GO:0003700'
p2991
I01
sS'GO:0005634'
p2992
I01
sS'GO:0006357'
p2993
I01
sS'GO:0005829'
p2994
I01
sS'GO:0007275'
p2995
I01
stbaa(lp2996
S'9698452'
p2997
ag5
(g6
g7
NtRp2998
((dp2999
S'GO:0007275'
p3000
I01
stbaa(lp3001
S'19133302'
p3002
ag5
(g6
g7
NtRp3003
((dp3004
S'GO:0048102'
p3005
I01
stbaa(lp3006
S'8448193'
p3007
ag5
(g6
g7
NtRp3008
((dp3009
S'GO:0006104'
p3010
I01
sS'GO:0004776'
p3011
I01
sS'GO:0016020'
p3012
I01
stbaa(lp3013
S'8950185'
p3014
ag5
(g6
g7
NtRp3015
((dp3016
S'GO:0005737'
p3017
I01
sS'GO:0005971'
p3018
I01
sS'GO:0005634'
p3019
I01
sS'GO:0006260'
p3020
I01
sS'GO:0004748'
p3021
I01
stbaa(lp3022
S'14651934'
p3023
ag5
(g6
g7
NtRp3024
((dp3025
S'GO:0031152'
p3026
I01
stbaa(lp3027
S'7926779'
p3028
ag5
(g6
g7
NtRp3029
((dp3030
S'GO:0031152'
p3031
I01
stbaa(lp3032
S'12062087'
p3033
ag5
(g6
g7
NtRp3034
((dp3035
S'GO:0000187'
p3036
I01
sS'GO:0006468'
p3037
I01
sS'GO:0030010'
p3038
I01
sS'GO:0005515'
p3039
I01
sS'GO:0016567'
p3040
I01
sS'GO:0005829'
p3041
I01
sS'GO:0031434'
p3042
I01
sS'GO:0000165'
p3043
I01
sS'GO:0031252'
p3044
I01
sS'GO:0004708'
p3045
I01
sS'GO:0043327'
p3046
I01
sS'GO:0005938'
p3047
I01
sS'GO:0031152'
p3048
I01
sS'GO:0004672'
p3049
I01
sS'GO:0016925'
p3050
I01
sS'GO:0005634'
p3051
I01
stbaa(lp3052
S'15987738'
p3053
ag5
(g6
g7
NtRp3054
((dp3055
S'GO:0031037'
p3056
I01
sS'GO:0005737'
p3057
I01
sS'GO:0006468'
p3058
I01
sS'GO:0005826'
p3059
I01
sS'GO:0000281'
p3060
I01
sS'GO:0004674'
p3061
I01
sS'GO:0005524'
p3062
I01
stbaa(lp3063
S'20197546'
p3064
ag5
(g6
g7
NtRp3065
((dp3066
S'GO:0006468'
p3067
I01
sS'GO:0016887'
p3068
I01
sS'GO:0006200'
p3069
I01
sS'GO:0004672'
p3070
I01
stbaa(lp3071
S'11278493'
p3072
ag5
(g6
g7
NtRp3073
((dp3074
S'GO:0004674'
p3075
I01
sS'GO:0005524'
p3076
I01
sS'GO:0018107'
p3077
I01
stbaa(lp3078
S'11369235'
p3079
ag5
(g6
g7
NtRp3080
((dp3081
S'GO:0005737'
p3082
I01
sS'GO:0005938'
p3083
I01
stbaa(lp3084
S'16372899'
p3085
ag5
(g6
g7
NtRp3086
((dp3087
S'GO:0005737'
p3088
I01
sS'GO:0051017'
p3089
I01
sS'GO:0051260'
p3090
I01
sS'GO:0051015'
p3091
I01
sS'GO:0005938'
p3092
I01
sS'GO:0051764'
p3093
I01
stbaa(lp3094
S'3027076'
p3095
ag5
(g6
g7
NtRp3096
((dp3097
S'GO:0031037'
p3098
I01
sS'GO:0006468'
p3099
I01
sS'GO:0016905'
p3100
I01
stbaa(lp3101
S'7822274'
p3102
ag5
(g6
g7
NtRp3103
((dp3104
S'GO:0016905'
p3105
I01
stbaa(lp3106
S'18381083'
p3107
ag5
(g6
g7
NtRp3108
((dp3109
S'GO:0018107'
p3110
I01
sS'GO:0018209'
p3111
I01
sS'GO:0005524'
p3112
I01
sS'GO:0004674'
p3113
I01
stbaa(lp3114
S'8567716'
p3115
ag5
(g6
g7
NtRp3116
((dp3117
S'GO:0031037'
p3118
I01
stbaa(lp3119
S'2176841'
p3120
ag5
(g6
g7
NtRp3121
((dp3122
S'GO:0046777'
p3123
I01
stbaa(lp3124
S'11959103'
p3125
ag5
(g6
g7
NtRp3126
((dp3127
S'GO:0051015'
p3128
I01
stbaa(lp3129
S'15545285'
p3130
ag5
(g6
g7
NtRp3131
((dp3132
S'GO:0051015'
p3133
I01
stbaa(lp3134
S'9201999'
p3135
ag5
(g6
g7
NtRp3136
((dp3137
S'GO:0051260'
p3138
I01
stbaa(lp3139
S'16950926'
p3140
ag5
(g6
g7
NtRp3141
((dp3142
S'GO:0005737'
p3143
I01
sS'GO:0046847'
p3144
I01
sS'GO:0006909'
p3145
I01
sS'GO:0030838'
p3146
I01
sS'GO:0006928'
p3147
I01
sS'GO:0030175'
p3148
I01
sS'GO:0005938'
p3149
I01
sS'GO:0032009'
p3150
I01
sS'GO:0032314'
p3151
I01
stbaa(lp3152
S'7729526'
p3153
ag5
(g6
g7
NtRp3154
((dp3155
S'GO:0005509'
p3156
I01
stbaa(lp3157
S'10771103'
p3158
ag5
(g6
g7
NtRp3159
((dp3160
S'GO:0005509'
p3161
I01
sS'GO:0005515'
p3162
I01
stbaa(lp3163
S'10896781'
p3164
ag5
(g6
g7
NtRp3165
((dp3166
S'GO:0031252'
p3167
I01
sS'GO:0031254'
p3168
I01
sS'GO:0031152'
p3169
I01
sS'GO:0005515'
p3170
I01
sS'GO:0006928'
p3171
I01
stbaa(lp3172
S'18384150'
p3173
ag5
(g6
g7
NtRp3174
((dp3175
S'GO:0046871'
p3176
I01
sS'GO:0016936'
p3177
I01
stbaa(lp3178
S'9836437'
p3179
ag5
(g6
g7
NtRp3180
((dp3181
S'GO:0003735'
p3182
I01
sS'GO:0005840'
p3183
I01
sS'GO:0006412'
p3184
I01
stbaa(lp3185
S'23787121'
p3186
ag5
(g6
g7
NtRp3187
((dp3188
S'GO:0007059'
p3189
I01
sS'GO:0072686'
p3190
I01
sS'GO:0000281'
p3191
I01
sS'GO:0051231'
p3192
I01
stbaa(lp3193
S'22020250'
p3194
ag5
(g6
g7
NtRp3195
((dp3196
S'GO:0006979'
p3197
I01
sS'GO:0004674'
p3198
I01
sS'GO:0010629'
p3199
I01
sS'GO:0006970'
p3200
I01
sS'GO:0004672'
p3201
I01
sS'GO:0061098'
p3202
I01
sS'GO:0071902'
p3203
I01
sS'GO:1901263'
p3204
I01
sS'GO:0046777'
p3205
I01
stbaa(lp3206
S'9784196'
p3207
ag5
(g6
g7
NtRp3208
((dp3209
S'GO:0006468'
p3210
I01
sS'GO:0005524'
p3211
I01
stbaa(lp3212
S'7813009'
p3213
ag5
(g6
g7
NtRp3214
((dp3215
S'GO:0030154'
p3216
I01
sS'GO:0031288'
p3217
I01
sS'GO:0007165'
p3218
I01
stbaa(lp3219
S'15342480'
p3220
ag5
(g6
g7
NtRp3221
((dp3222
S'GO:0031154'
p3223
I01
sS'GO:0030435'
p3224
I01
sS'GO:0007275'
p3225
I01
stbaa(lp3226
S'10571182'
p3227
ag5
(g6
g7
NtRp3228
((dp3229
S'GO:0006468'
p3230
I01
sS'GO:0033674'
p3231
I01
sS'GO:0001708'
p3232
I01
sS'GO:0031288'
p3233
I01
sS'GO:0018108'
p3234
I01
sS'GO:0030435'
p3235
I01
sS'GO:0004713'
p3236
I01
sS'GO:0046777'
p3237
I01
sS'GO:0007165'
p3238
I01
stbaa(lp3239
S'22944283'
p3240
ag5
(g6
g7
NtRp3241
((dp3242
S'GO:0071285'
p3243
I01
sS'GO:0005634'
p3244
I01
sS'GO:0010629'
p3245
I01
sS'GO:0046827'
p3246
I01
sS'GO:0043157'
p3247
I01
sS'GO:0006970'
p3248
I01
sS'GO:0031150'
p3249
I01
sS'GO:0005829'
p3250
I01
stbaa(lp3251
S'21205787'
p3252
ag5
(g6
g7
NtRp3253
((dp3254
S'GO:0006468'
p3255
I01
sS'GO:0030154'
p3256
I01
sS'GO:0031288'
p3257
I01
sS'GO:0018108'
p3258
I01
sS'GO:0061118'
p3259
I01
sS'GO:0030435'
p3260
I01
sS'GO:0042659'
p3261
I01
sS'GO:0060176'
p3262
I01
sS'GO:0045860'
p3263
I01
sS'GO:0010468'
p3264
I01
sS'GO:0004713'
p3265
I01
stbaa(lp3266
S'2580557'
p3267
ag5
(g6
g7
NtRp3268
((dp3269
S'GO:0016889'
p3270
I01
sS'GO:0006284'
p3271
I01
stbaa(lp3272
S'21247092'
p3273
ag5
(g6
g7
NtRp3274
((dp3275
S'GO:0018401'
p3276
I01
sS'GO:0031545'
p3277
I01
sS'GO:0005515'
p3278
I01
sS'GO:0033830'
p3279
I01
stbaa(lp3280
S'11358877'
p3281
ag5
(g6
g7
NtRp3282
((dp3283
S'GO:0005737'
p3284
I01
sS'GO:0005634'
p3285
I01
sS'GO:0005938'
p3286
I01
stbaa(lp3287
S'1577798'
p3288
ag5
(g6
g7
NtRp3289
((dp3290
S'GO:0005737'
p3291
I01
stbaa(lp3292
S'9660787'
p3293
ag5
(g6
g7
NtRp3294
((dp3295
S'GO:0016567'
p3296
I01
stbaa(lp3297
S'8662604'
p3298
ag5
(g6
g7
NtRp3299
((dp3300
S'GO:0005737'
p3301
I01
sS'GO:0036065'
p3302
I01
sS'GO:0019005'
p3303
I01
sS'GO:0008417'
p3304
I01
stbaa(lp3305
S'12678488'
p3306
ag5
(g6
g7
NtRp3307
((dp3308
S'GO:0030587'
p3309
I01
stbaa(lp3310
S'20457612'
p3311
ag5
(g6
g7
NtRp3312
((dp3313
S'GO:0010468'
p3314
I01
sS'GO:0005515'
p3315
I01
stbaa(lp3316
S'12220630'
p3317
ag5
(g6
g7
NtRp3318
((dp3319
S'GO:0031154'
p3320
I01
sS'GO:0048471'
p3321
I01
sS'GO:0071944'
p3322
I01
sS'GO:0008202'
p3323
I01
sS'GO:0005515'
p3324
I01
stbaa(lp3325
S'18305004'
p3326
ag5
(g6
g7
NtRp3327
((dp3328
S'GO:0034504'
p3329
I01
sS'GO:0016791'
p3330
I01
sS'GO:0016311'
p3331
I01
sS'GO:0042501'
p3332
I01
sS'GO:0006970'
p3333
I01
sS'GO:0005515'
p3334
I01
sS'GO:0035556'
p3335
I01
stbaa(lp3336
S'8838672'
p3337
ag5
(g6
g7
NtRp3338
((dp3339
S'GO:0016021'
p3340
I01
sS'GO:0030587'
p3341
I01
sS'GO:0006816'
p3342
I01
sS'GO:0046961'
p3343
I01
sS'GO:0008283'
p3344
I01
stbaa(lp3345
S'10205164'
p3346
ag5
(g6
g7
NtRp3347
((dp3348
S'GO:0004674'
p3349
I01
stbaa(lp3350
S'9226449'
p3351
ag5
(g6
g7
NtRp3352
((dp3353
S'GO:0005524'
p3354
I01
stbaa(lp3355
S'11865029'
p3356
ag5
(g6
g7
NtRp3357
((dp3358
S'GO:0007032'
p3359
I01
sS'GO:0000331'
p3360
I01
sS'GO:0030666'
p3361
I01
sS'GO:0006909'
p3362
I01
sS'GO:0007041'
p3363
I01
sS'GO:0009986'
p3364
I01
sS'GO:0005887'
p3365
I01
sS'GO:0007155'
p3366
I01
sS'GO:0006907'
p3367
I01
stbaa(lp3368
S'8126094'
p3369
ag5
(g6
g7
NtRp3370
((dp3371
S'GO:0000331'
p3372
I01
stbaa(lp3373
S'16138906'
p3374
ag5
(g6
g7
NtRp3375
((dp3376
S'GO:0005737'
p3377
I01
sS'GO:0005515'
p3378
I01
sS'GO:0016020'
p3379
I01
sS'GO:0005774'
p3380
I01
sS'GO:0005938'
p3381
I01
sS'GO:0012506'
p3382
I01
stbaa(lp3383
S'22073313'
p3384
ag5
(g6
g7
NtRp3385
((dp3386
S'GO:0050766'
p3387
I01
sS'GO:1900426'
p3388
I01
sS'GO:0070273'
p3389
I01
sS'GO:0010314'
p3390
I01
sS'GO:0061474'
p3391
I01
sS'GO:0032266'
p3392
I01
sS'GO:0046488'
p3393
I01
sS'GO:0005515'
p3394
I01
sS'GO:0001786'
p3395
I01
sS'GO:0031902'
p3396
I01
stbaa(lp3397
S'16003496'
p3398
ag5
(g6
g7
NtRp3399
((dp3400
S'GO:0043234'
p3401
I01
sS'GO:0006338'
p3402
I01
sS'GO:0005829'
p3403
I01
sS'GO:0006355'
p3404
I01
sS'GO:0016570'
p3405
I01
sS'GO:0031152'
p3406
I01
sS'GO:0003677'
p3407
I01
sS'GO:0005634'
p3408
I01
stbaa(lp3409
S'18718841'
p3410
ag5
(g6
g7
NtRp3411
((dp3412
S'GO:0031152'
p3413
I01
stbaa(lp3414
S'14706075'
p3415
ag5
(g6
g7
NtRp3416
((dp3417
S'GO:0005509'
p3418
I01
stbaa(lp3419
S'19875452'
p3420
ag5
(g6
g7
NtRp3421
((dp3422
S'GO:0005737'
p3423
I01
sS'GO:0000331'
p3424
I01
stbaa(lp3425
S'17057715'
p3426
ag5
(g6
g7
NtRp3427
((dp3428
S'GO:0016339'
p3429
I01
sS'GO:0005886'
p3430
I01
sS'GO:0005509'
p3431
I01
sS'GO:0042803'
p3432
I01
stbaa(lp3433
S'9639652'
p3434
ag5
(g6
g7
NtRp3435
((dp3436
S'GO:0000182'
p3437
I01
sS'GO:0005730'
p3438
I01
stbaa(lp3439
S'3312238'
p3440
ag5
(g6
g7
NtRp3441
((dp3442
S'GO:0051015'
p3443
I01
sS'GO:0030246'
p3444
I01
sS'GO:0005887'
p3445
I01
stbaa(lp3446
S'8432731'
p3447
ag5
(g6
g7
NtRp3448
((dp3449
S'GO:0051015'
p3450
I01
sS'GO:0045010'
p3451
I01
sS'GO:0005887'
p3452
I01
stbaa(lp3453
S'18522444'
p3454
ag5
(g6
g7
NtRp3455
((dp3456
S'GO:0007016'
p3457
I01
sS'GO:0016021'
p3458
I01
sS'GO:0051015'
p3459
I01
sS'GO:0043495'
p3460
I01
stbaa(lp3461
S'8089175'
p3462
ag5
(g6
g7
NtRp3463
((dp3464
S'GO:0016021'
p3465
I01
stbaa(lp3466
S'8089176'
p3467
ag5
(g6
g7
NtRp3468
((dp3469
S'GO:0030587'
p3470
I01
stbaa(lp3471
S'2060029'
p3472
ag5
(g6
g7
NtRp3473
((dp3474
S'GO:0051015'
p3475
I01
stbaa(lp3476
S'8787732'
p3477
ag5
(g6
g7
NtRp3478
((dp3479
S'GO:0005829'
p3480
I01
sS'GO:0005576'
p3481
I01
sS'GO:0050708'
p3482
I01
sS'GO:0007165'
p3483
I01
sS'GO:0007275'
p3484
I01
stbaa(lp3485
S'16606621'
p3486
ag5
(g6
g7
NtRp3487
((dp3488
S'GO:0032114'
p3489
I01
stbaa(lp3490
S'15643062'
p3491
ag5
(g6
g7
NtRp3492
((dp3493
S'GO:0005829'
p3494
I01
sS'GO:0004340'
p3495
I01
sS'GO:0042593'
p3496
I01
sS'GO:0051156'
p3497
I01
sS'GO:0006110'
p3498
I01
sS'GO:0006096'
p3499
I01
stbaa(lp3500
S'17897809'
p3501
ag5
(g6
g7
NtRp3502
((dp3503
S'GO:0048365'
p3504
I01
sS'GO:0005516'
p3505
I01
sS'GO:0005938'
p3506
I01
stbaa(lp3507
S'22050483'
p3508
ag5
(g6
g7
NtRp3509
((dp3510
S'GO:0005515'
p3511
I01
stbaa(lp3512
S'8996086'
p3513
ag5
(g6
g7
NtRp3514
((dp3515
S'GO:0030122'
p3516
I01
sS'GO:0005905'
p3517
I01
stbaa(lp3518
S'17462897'
p3519
ag5
(g6
g7
NtRp3520
((dp3521
S'GO:0030041'
p3522
I01
sS'GO:0005737'
p3523
I01
sS'GO:0005938'
p3524
I01
sS'GO:0006935'
p3525
I01
sS'GO:0006928'
p3526
I01
stbaa(lp3527
S'21045112'
p3528
ag5
(g6
g7
NtRp3529
((dp3530
S'GO:0009617'
p3531
I01
stbaa(lp3532
S'19011688'
p3533
ag5
(g6
g7
NtRp3534
((dp3535
S'GO:0022604'
p3536
I01
sS'GO:0031254'
p3537
I01
sS'GO:0031272'
p3538
I01
stbaa(lp3539
S'17535967'
p3540
ag5
(g6
g7
NtRp3541
((dp3542
S'GO:0032959'
p3543
I01
sS'GO:0043327'
p3544
I01
stbaa(lp3545
S'17517960'
p3546
ag5
(g6
g7
NtRp3547
((dp3548
S'GO:0050919'
p3549
I01
sS'GO:0050922'
p3550
I01
stbaa(lp3551
S'16421252'
p3552
ag5
(g6
g7
NtRp3553
((dp3554
S'GO:0051591'
p3555
I01
stbaa(lp3556
S'10878573'
p3557
ag5
(g6
g7
NtRp3558
((dp3559
S'GO:0016303'
p3560
I01
sS'GO:0036092'
p3561
I01
stbaa(lp3562
S'7499325'
p3563
ag5
(g6
g7
NtRp3564
((dp3565
S'GO:0015085'
p3566
I01
sS'GO:0016021'
p3567
I01
sS'GO:0006816'
p3568
I01
sS'GO:0005509'
p3569
I01
sS'GO:0005388'
p3570
I01
sS'GO:0005524'
p3571
I01
sS'GO:0031164'
p3572
I01
stbaa(lp3573
S'9885293'
p3574
ag5
(g6
g7
NtRp3575
((dp3576
S'GO:0005388'
p3577
I01
sS'GO:0006816'
p3578
I01
sS'GO:0031164'
p3579
I01
sS'GO:0005886'
p3580
I01
stbaa(lp3581
S'9421912'
p3582
ag5
(g6
g7
NtRp3583
((dp3584
S'GO:0016020'
p3585
I01
sS'GO:0008553'
p3586
I01
sS'GO:0015992'
p3587
I01
sS'GO:0016887'
p3588
I01
sS'GO:0005524'
p3589
I01
stbaa(lp3590
S'16265631'
p3591
ag5
(g6
g7
NtRp3592
((dp3593
S'GO:0045335'
p3594
I01
sS'GO:0051015'
p3595
I01
sS'GO:0001891'
p3596
I01
stbaa(lp3597
S'9017597'
p3598
ag5
(g6
g7
NtRp3599
((dp3600
S'GO:0030027'
p3601
I01
sS'GO:0051017'
p3602
I01
sS'GO:0005509'
p3603
I01
sS'GO:0051015'
p3604
I01
sS'GO:0031252'
p3605
I01
stbaa(lp3606
S'10747962'
p3607
ag5
(g6
g7
NtRp3608
((dp3609
S'GO:0005737'
p3610
I01
sS'GO:0006906'
p3611
I01
sS'GO:0006885'
p3612
I01
sS'GO:0006887'
p3613
I01
sS'GO:0061025'
p3614
I01
sS'GO:0006970'
p3615
I01
sS'GO:0005509'
p3616
I01
stbaa(lp3617
S'11330860'
p3618
ag5
(g6
g7
NtRp3619
((dp3620
S'GO:0006874'
p3621
I01
stbaa(lp3622
S'15679845'
p3623
ag5
(g6
g7
NtRp3624
((dp3625
S'GO:0006906'
p3626
I01
stbaa(lp3627
S'8643519'
p3628
ag5
(g6
g7
NtRp3629
((dp3630
S'GO:0030587'
p3631
I01
stbaa(lp3632
S'11719559'
p3633
ag5
(g6
g7
NtRp3634
((dp3635
S'GO:0016020'
p3636
I01
sS'GO:0042626'
p3637
I01
sS'GO:0006887'
p3638
I01
sS'GO:0006897'
p3639
I01
sS'GO:0030154'
p3640
I01
sS'GO:0031154'
p3641
I01
sS'GO:0048388'
p3642
I01
sS'GO:0031210'
p3643
I01
sS'GO:0005768'
p3644
I01
stbaa(lp3645
S'8951083'
p3646
ag5
(g6
g7
NtRp3647
((dp3648
S'GO:0031154'
p3649
I01
sS'GO:0045595'
p3650
I01
sS'GO:0051726'
p3651
I01
stbaa(lp3652
S'7744252'
p3653
ag5
(g6
g7
NtRp3654
((dp3655
S'GO:0042626'
p3656
I01
sS'GO:0030154'
p3657
I01
sS'GO:0016021'
p3658
I01
sS'GO:0006810'
p3659
I01
sS'GO:0045595'
p3660
I01
sS'GO:0006508'
p3661
I01
sS'GO:0007275'
p3662
I01
sS'GO:0008236'
p3663
I01
stbaa(lp3664
S'10427097'
p3665
ag5
(g6
g7
NtRp3666
((dp3667
S'GO:0006909'
p3668
I01
sS'GO:0006935'
p3669
I01
sS'GO:0060187'
p3670
I01
sS'GO:0008283'
p3671
I01
sS'GO:0006907'
p3672
I01
sS'GO:0031252'
p3673
I01
sS'GO:0030864'
p3674
I01
sS'GO:0042641'
p3675
I01
sS'GO:0030042'
p3676
I01
sS'GO:0001891'
p3677
I01
stbaa(lp3678
S'20668166'
p3679
ag5
(g6
g7
NtRp3680
((dp3681
S'GO:0030041'
p3682
I01
sS'GO:0043327'
p3683
I01
sS'GO:0051015'
p3684
I01
sS'GO:0030010'
p3685
I01
sS'GO:0005515'
p3686
I01
stbaa(lp3687
S'18650439'
p3688
ag5
(g6
g7
NtRp3689
((dp3690
S'GO:0000331'
p3691
I01
sS'GO:0000146'
p3692
I01
sS'GO:0030898'
p3693
I01
sS'GO:0033275'
p3694
I01
sS'GO:0051015'
p3695
I01
sS'GO:0043531'
p3696
I01
sS'GO:0005524'
p3697
I01
sS'GO:0042641'
p3698
I01
stbaa(lp3699
S'10564654'
p3700
ag5
(g6
g7
NtRp3701
((dp3702
S'GO:0005515'
p3703
I01
stbaa(lp3704
S'17416892'
p3705
ag5
(g6
g7
NtRp3706
((dp3707
S'GO:0016023'
p3708
I01
sS'GO:0031160'
p3709
I01
sS'GO:0042244'
p3710
I01
sS'GO:0005199'
p3711
I01
sS'GO:0005515'
p3712
I01
stbaa(lp3713
S'11690648'
p3714
ag5
(g6
g7
NtRp3715
((dp3716
S'GO:0000413'
p3717
I01
sS'GO:0005634'
p3718
I01
sS'GO:0005829'
p3719
I01
sS'GO:0003755'
p3720
I01
sS'GO:0005515'
p3721
I01
stbaa(lp3722
S'9177484'
p3723
ag5
(g6
g7
NtRp3724
((dp3725
S'GO:0006265'
p3726
I01
sS'GO:0003918'
p3727
I01
sS'GO:0005524'
p3728
I01
sS'GO:0003677'
p3729
I01
stbaa(lp3730
S'4300706'
p3731
ag5
(g6
g7
NtRp3732
((dp3733
S'GO:0003872'
p3734
I01
stbaa(lp3735
S'7589492'
p3736
ag5
(g6
g7
NtRp3737
((dp3738
S'GO:0003872'
p3739
I01
sS'GO:0006007'
p3740
I01
stbaa(lp3741
S'7813455'
p3742
ag5
(g6
g7
NtRp3743
((dp3744
S'GO:0003872'
p3745
I01
sS'GO:0005945'
p3746
I01
sS'GO:0005829'
p3747
I01
sS'GO:0006002'
p3748
I01
stbaa(lp3749
S'10026266'
p3750
ag5
(g6
g7
NtRp3751
((dp3752
S'GO:0015631'
p3753
I01
sS'GO:0031115'
p3754
I01
stbaa(lp3755
S'12532328'
p3756
ag5
(g6
g7
NtRp3757
((dp3758
S'GO:0000281'
p3759
I01
stbaa(lp3760
S'12139770'
p3761
ag5
(g6
g7
NtRp3762
((dp3763
S'GO:0005737'
p3764
I01
stbaa(lp3765
S'9115238'
p3766
ag5
(g6
g7
NtRp3767
((dp3768
S'GO:0016905'
p3769
I01
stbaa(lp3770
S'1328220'
p3771
ag5
(g6
g7
NtRp3772
((dp3773
S'GO:0034765'
p3774
I01
sS'GO:0005244'
p3775
I01
sS'GO:0005741'
p3776
I01
sS'GO:0015288'
p3777
I01
stbaa(lp3778
S'1326523'
p3779
ag5
(g6
g7
NtRp3780
((dp3781
S'GO:0004435'
p3782
I01
stbaa(lp3783
S'8156999'
p3784
ag5
(g6
g7
NtRp3785
((dp3786
S'GO:0032959'
p3787
I01
sS'GO:0004435'
p3788
I01
stbaa(lp3789
S'1448100'
p3790
ag5
(g6
g7
NtRp3791
((dp3792
S'GO:0004674'
p3793
I01
sS'GO:0006468'
p3794
I01
stbaa(lp3795
S'10556070'
p3796
ag5
(g6
g7
NtRp3797
((dp3798
S'GO:0030435'
p3799
I01
sS'GO:0006171'
p3800
I01
sS'GO:0004016'
p3801
I01
stbaa(lp3802
S'8619862'
p3803
ag5
(g6
g7
NtRp3804
((dp3805
S'GO:0008277'
p3806
I01
sS'GO:0004016'
p3807
I01
stbaa(lp3808
S'15821137'
p3809
ag5
(g6
g7
NtRp3810
((dp3811
S'GO:0031275'
p3812
I01
sS'GO:0007015'
p3813
I01
sS'GO:0008360'
p3814
I01
sS'GO:0050920'
p3815
I01
stbaa(lp3816
S'20670432'
p3817
ag5
(g6
g7
NtRp3818
((dp3819
S'GO:0008283'
p3820
I01
sS'GO:0051591'
p3821
I01
sS'GO:0010628'
p3822
I01
sS'GO:0031152'
p3823
I01
sS'GO:0019933'
p3824
I01
sS'GO:0051409'
p3825
I01
sS'GO:0006979'
p3826
I01
stbaa(lp3827
S'9582274'
p3828
ag5
(g6
g7
NtRp3829
((dp3830
S'GO:0030435'
p3831
I01
sS'GO:0005622'
p3832
I01
stbaa(lp3833
S'22928977'
p3834
ag5
(g6
g7
NtRp3835
((dp3836
S'GO:0031000'
p3837
I01
stbaa(lp3838
S'14718564'
p3839
ag5
(g6
g7
NtRp3840
((dp3841
S'GO:0016020'
p3842
I01
sS'GO:0045859'
p3843
I01
sS'GO:0004016'
p3844
I01
sS'GO:0006970'
p3845
I01
sS'GO:0009847'
p3846
I01
sS'GO:0046982'
p3847
I01
sS'GO:0006171'
p3848
I01
stbaa(lp3849
S'18640994'
p3850
ag5
(g6
g7
NtRp3851
((dp3852
S'GO:0006970'
p3853
I01
stbaa(lp3854
S'17267449'
p3855
ag5
(g6
g7
NtRp3856
((dp3857
S'GO:0030435'
p3858
I01
stbaa(lp3859
S'8224535'
p3860
ag5
(g6
g7
NtRp3861
((dp3862
S'GO:0045859'
p3863
I01
stbaa(lp3864
S'3972891'
p3865
ag5
(g6
g7
NtRp3866
((dp3867
S'GO:0003785'
p3868
I01
sS'GO:0051015'
p3869
I01
stbaa(lp3870
S'8635456'
p3871
ag5
(g6
g7
NtRp3872
((dp3873
S'GO:0051017'
p3874
I01
sS'GO:0051015'
p3875
I01
sS'GO:0005537'
p3876
I01
sS'GO:0042803'
p3877
I01
stbaa(lp3878
S'8408201'
p3879
ag5
(g6
g7
NtRp3880
((dp3881
S'GO:0005794'
p3882
I01
sS'GO:0030660'
p3883
I01
sS'GO:0030867'
p3884
I01
sS'GO:0051015'
p3885
I01
sS'GO:0051645'
p3886
I01
sS'GO:0005768'
p3887
I01
stbaa(lp3888
S'16443752'
p3889
ag5
(g6
g7
NtRp3890
((dp3891
S'GO:0006909'
p3892
I01
sS'GO:0000146'
p3893
I01
sS'GO:0031252'
p3894
I01
sS'GO:0030898'
p3895
I01
sS'GO:0032009'
p3896
I01
sS'GO:0005524'
p3897
I01
sS'GO:0001891'
p3898
I01
stbaa(lp3899
S'12032065'
p3900
ag5
(g6
g7
NtRp3901
((dp3902
S'GO:0003779'
p3903
I01
sS'GO:0045160'
p3904
I01
sS'GO:0005524'
p3905
I01
stbaa(lp3906
S'8504170'
p3907
ag5
(g6
g7
NtRp3908
((dp3909
S'GO:0045160'
p3910
I01
stbaa(lp3911
S'16787542'
p3912
ag5
(g6
g7
NtRp3913
((dp3914
S'GO:0000331'
p3915
I01
sS'GO:0006874'
p3916
I01
stbaa(lp3917
S'17971415'
p3918
ag5
(g6
g7
NtRp3919
((dp3920
S'GO:0005737'
p3921
I01
sS'GO:0042244'
p3922
I01
sS'GO:0009847'
p3923
I01
sS'GO:0005886'
p3924
I01
sS'GO:0030118'
p3925
I01
sS'GO:0035304'
p3926
I01
sS'GO:0030136'
p3927
I01
stbaa(lp3928
S'19692567'
p3929
ag5
(g6
g7
NtRp3930
((dp3931
S'GO:0009992'
p3932
I01
sS'GO:0000331'
p3933
I01
sS'GO:0000149'
p3934
I01
sS'GO:0033298'
p3935
I01
sS'GO:0006971'
p3936
I01
sS'GO:0005515'
p3937
I01
sS'GO:0005886'
p3938
I01
sS'GO:0005768'
p3939
I01
sS'GO:0030136'
p3940
I01
stbaa(lp3941
S'17584488'
p3942
ag5
(g6
g7
NtRp3943
((dp3944
S'GO:0005737'
p3945
I01
sS'GO:0005856'
p3946
I01
sS'GO:0032009'
p3947
I01
sS'GO:0030587'
p3948
I01
sS'GO:0016020'
p3949
I01
sS'GO:0048365'
p3950
I01
sS'GO:0005938'
p3951
I01
sS'GO:0031152'
p3952
I01
stbaa(lp3953
S'8660315'
p3954
ag5
(g6
g7
NtRp3955
((dp3956
S'GO:0006729'
p3957
I01
sS'GO:0005737'
p3958
I01
sS'GO:0016020'
p3959
I01
sS'GO:0003934'
p3960
I01
sS'GO:0004757'
p3961
I01
sS'GO:0003874'
p3962
I01
sS'GO:0046656'
p3963
I01
stbaa(lp3964
S'23433110'
p3965
ag5
(g6
g7
NtRp3966
((dp3967
S'GO:0006979'
p3968
I01
stbaa(lp3969
S'15740615'
p3970
ag5
(g6
g7
NtRp3971
((dp3972
S'GO:0005522'
p3973
I01
stbaa(lp3974
S'22647904'
p3975
ag5
(g6
g7
NtRp3976
((dp3977
S'GO:0050766'
p3978
I01
sS'GO:0005783'
p3979
I01
sS'GO:0016021'
p3980
I01
sS'GO:0005777'
p3981
I01
sS'GO:0004467'
p3982
I01
sS'GO:0001676'
p3983
I01
stbaa(lp3984
S'14629118'
p3985
ag5
(g6
g7
NtRp3986
((dp3987
S'GO:0005737'
p3988
I01
sS'GO:0006631'
p3989
I01
sS'GO:0004467'
p3990
I01
sS'GO:0001676'
p3991
I01
sS'GO:0005769'
p3992
I01
sS'GO:0010009'
p3993
I01
stbaa(lp3994
S'10769206'
p3995
ag5
(g6
g7
NtRp3996
((dp3997
S'GO:0005813'
p3998
I01
sS'GO:0000281'
p3999
I01
sS'GO:0051298'
p4000
I01
sS'GO:0000922'
p4001
I01
stbaa(lp4002
S'20658257'
p4003
ag5
(g6
g7
NtRp4004
((dp4005
S'GO:0030953'
p4006
I01
sS'GO:0035371'
p4007
I01
sS'GO:0035372'
p4008
I01
sS'GO:0000922'
p4009
I01
sS'GO:0000235'
p4010
I01
sS'GO:0031592'
p4011
I01
sS'GO:0072712'
p4012
I01
sS'GO:0000776'
p4013
I01
stbaa(lp4014
S'18326585'
p4015
ag5
(g6
g7
NtRp4016
((dp4017
S'GO:0005737'
p4018
I01
sS'GO:0051233'
p4019
I01
sS'GO:0005813'
p4020
I01
sS'GO:0032154'
p4021
I01
sS'GO:0000922'
p4022
I01
sS'GO:0005515'
p4023
I01
sS'GO:0032133'
p4024
I01
stbaa(lp4025
S'12134070'
p4026
ag5
(g6
g7
NtRp4027
((dp4028
S'GO:0005819'
p4029
I01
sS'GO:0031592'
p4030
I01
sS'GO:0031143'
p4031
I01
sS'GO:0005813'
p4032
I01
sS'GO:0008017'
p4033
I01
sS'GO:0000281'
p4034
I01
sS'GO:0000922'
p4035
I01
sS'GO:0031252'
p4036
I01
sS'GO:0000235'
p4037
I01
sS'GO:0005515'
p4038
I01
sS'GO:0000022'
p4039
I01
sS'GO:0005874'
p4040
I01
sS'GO:0051225'
p4041
I01
sS'GO:0000776'
p4042
I01
sS'GO:0042803'
p4043
I01
stbaa(lp4044
S'14517319'
p4045
ag5
(g6
g7
NtRp4046
((dp4047
S'GO:0046785'
p4048
I01
stbaa(lp4049
S'11726513'
p4050
ag5
(g6
g7
NtRp4051
((dp4052
S'GO:0005783'
p4053
I01
sS'GO:0005788'
p4054
I01
sS'GO:0005789'
p4055
I01
sS'GO:0042175'
p4056
I01
sS'GO:0005509'
p4057
I01
sS'GO:0006911'
p4058
I01
stbaa(lp4059
S'15897458'
p4060
ag5
(g6
g7
NtRp4061
((dp4062
S'GO:0009897'
p4063
I01
sS'GO:0006468'
p4064
I01
sS'GO:0006469'
p4065
I01
sS'GO:0019901'
p4066
I01
sS'GO:0000062'
p4067
I01
sS'GO:0004860'
p4068
I01
sS'GO:0030435'
p4069
I01
sS'GO:0005576'
p4070
I01
sS'GO:0009784'
p4071
I01
sS'GO:0006508'
p4072
I01
sS'GO:0008236'
p4073
I01
stbaa(lp4074
S'8986798'
p4075
ag5
(g6
g7
NtRp4076
((dp4077
S'GO:0042626'
p4078
I01
sS'GO:0006810'
p4079
I01
sS'GO:0004674'
p4080
I01
sS'GO:0045595'
p4081
I01
sS'GO:0006508'
p4082
I01
sS'GO:0008236'
p4083
I01
stbaa(lp4084
S'12456012'
p4085
ag5
(g6
g7
NtRp4086
((dp4087
S'GO:0043190'
p4088
I01
sS'GO:0042626'
p4089
I01
sS'GO:0016020'
p4090
I01
sS'GO:0006448'
p4091
I01
sS'GO:0005829'
p4092
I01
sS'GO:0005215'
p4093
I01
sS'GO:0016021'
p4094
I01
sS'GO:0006810'
p4095
I01
sS'GO:0005779'
p4096
I01
sS'GO:0005739'
p4097
I01
sS'GO:0019898'
p4098
I01
sS'GO:0015910'
p4099
I01
sS'GO:0005887'
p4100
I01
sS'GO:0006508'
p4101
I01
sS'GO:0015446'
p4102
I01
sS'GO:0005524'
p4103
I01
sS'GO:0008236'
p4104
I01
stbaa(lp4105
S'15752425'
p4106
ag5
(g6
g7
NtRp4107
((dp4108
S'GO:0004115'
p4109
I01
sS'GO:0051279'
p4110
I01
sS'GO:0031276'
p4111
I01
sS'GO:0046058'
p4112
I01
sS'GO:0051281'
p4113
I01
stbaa(lp4114
S'9435289'
p4115
ag5
(g6
g7
NtRp4116
((dp4117
S'GO:0047555'
p4118
I01
sS'GO:0004115'
p4119
I01
sS'GO:0006198'
p4120
I01
stbaa(lp4121
S'10974109'
p4122
ag5
(g6
g7
NtRp4123
((dp4124
S'GO:0030587'
p4125
I01
sS'GO:0030149'
p4126
I01
sS'GO:0008117'
p4127
I01
sS'GO:0007275'
p4128
I01
sS'GO:0006672'
p4129
I01
stbaa(lp4130
S'12796307'
p4131
ag5
(g6
g7
NtRp4132
((dp4133
S'GO:0031154'
p4134
I01
sS'GO:0030435'
p4135
I01
sS'GO:0019933'
p4136
I01
sS'GO:0030587'
p4137
I01
stbaa(lp4138
S'10930471'
p4139
ag5
(g6
g7
NtRp4140
((dp4141
S'GO:0031276'
p4142
I01
stbaa(lp4143
S'10887966'
p4144
ag5
(g6
g7
NtRp4145
((dp4146
S'GO:0005794'
p4147
I01
sS'GO:0048471'
p4148
I01
stbaa(lp4149
S'16234315'
p4150
ag5
(g6
g7
NtRp4151
((dp4152
S'GO:0006935'
p4153
I01
stbaa(lp4154
S'9254905'
p4155
ag5
(g6
g7
NtRp4156
((dp4157
S'GO:0030435'
p4158
I01
sS'GO:0009653'
p4159
I01
sS'GO:0030587'
p4160
I01
stbaa(lp4161
S'17448496'
p4162
ag5
(g6
g7
NtRp4163
((dp4164
S'GO:0006139'
p4165
I01
sS'GO:0004138'
p4166
I01
sS'GO:0004136'
p4167
I01
sS'GO:0004797'
p4168
I01
sS'GO:0006170'
p4169
I01
sS'GO:0006180'
p4170
I01
stbaa(lp4171
S'23351158'
p4172
ag5
(g6
g7
NtRp4173
((dp4174
S'GO:0042803'
p4175
I01
stbaa(lp4176
S'17207566'
p4177
ag5
(g6
g7
NtRp4178
((dp4179
S'GO:0005655'
p4180
I01
sS'GO:0000049'
p4181
I01
sS'GO:0008033'
p4182
I01
sS'GO:0003723'
p4183
I01
sS'GO:0004526'
p4184
I01
stbaa(lp4185
S'18603769'
p4186
ag5
(g6
g7
NtRp4187
((dp4188
S'GO:0005759'
p4189
I01
sS'GO:0006627'
p4190
I01
sS'GO:0004222'
p4191
I01
sS'GO:0031930'
p4192
I01
sS'GO:0031966'
p4193
I01
stbaa(lp4194
S'16051212'
p4195
ag5
(g6
g7
NtRp4196
((dp4197
S'GO:0005737'
p4198
I01
sS'GO:0043326'
p4199
I01
sS'GO:0031589'
p4200
I01
sS'GO:0030833'
p4201
I01
sS'GO:0016337'
p4202
I01
sS'GO:0031154'
p4203
I01
sS'GO:0043327'
p4204
I01
sS'GO:0007163'
p4205
I01
sS'GO:0031152'
p4206
I01
stbaa(lp4207
S'18218133'
p4208
ag5
(g6
g7
NtRp4209
((dp4210
S'GO:0003958'
p4211
I01
sS'GO:0050661'
p4212
I01
sS'GO:0030587'
p4213
I01
sS'GO:0050660'
p4214
I01
sS'GO:0010181'
p4215
I01
stbaa(lp4216
S'18252726'
p4217
ag5
(g6
g7
NtRp4218
((dp4219
S'GO:0019505'
p4220
I01
sS'GO:0008168'
p4221
I01
sS'GO:0030639'
p4222
I01
sS'GO:0019438'
p4223
I01
stbaa(lp4224
S'22035794'
p4225
ag5
(g6
g7
NtRp4226
((dp4227
S'GO:0016740'
p4228
I01
stbaa(lp4229
S'11336701'
p4230
ag5
(g6
g7
NtRp4231
((dp4232
S'GO:0005634'
p4233
I01
sS'GO:0042803'
p4234
I01
sS'GO:0045892'
p4235
I01
sS'GO:0005829'
p4236
I01
sS'GO:0007275'
p4237
I01
stbaa(lp4238
S'23587254'
p4239
ag5
(g6
g7
NtRp4240
((dp4241
S'GO:0005737'
p4242
I01
sS'GO:0005654'
p4243
I01
sS'GO:0005635'
p4244
I01
sS'GO:0005730'
p4245
I01
stbaa(lp4246
S'14871937'
p4247
ag5
(g6
g7
NtRp4248
((dp4249
S'GO:0005737'
p4250
I01
sS'GO:0005634'
p4251
I01
sS'GO:0007275'
p4252
I01
sS'GO:0043157'
p4253
I01
sS'GO:0005938'
p4254
I01
stbaa(lp4255
S'19466752'
p4256
ag5
(g6
g7
NtRp4257
((dp4258
S'GO:0005813'
p4259
I01
sS'GO:0005635'
p4260
I01
sS'GO:0030496'
p4261
I01
sS'GO:0000776'
p4262
I01
sS'GO:0000922'
p4263
I01
stbaa(lp4264
S'15701689'
p4265
ag5
(g6
g7
NtRp4266
((dp4267
S'GO:0030435'
p4268
I01
sS'GO:0006797'
p4269
I01
sS'GO:0006909'
p4270
I01
stbaa(lp4271
S'17940044'
p4272
ag5
(g6
g7
NtRp4273
((dp4274
S'GO:0016020'
p4275
I01
sS'GO:0007109'
p4276
I01
sS'GO:0008976'
p4277
I01
sS'GO:0006799'
p4278
I01
sS'GO:0031982'
p4279
I01
stbaa(lp4280
S'16582628'
p4281
ag5
(g6
g7
NtRp4282
((dp4283
S'GO:0005958'
p4284
I01
sS'GO:0006303'
p4285
I01
stbaa(lp4286
S'19763158'
p4287
ag5
(g6
g7
NtRp4288
((dp4289
S'GO:0006974'
p4290
I01
sS'GO:0000724'
p4291
I01
stbaa(lp4292
S'23967067'
p4293
ag5
(g6
g7
NtRp4294
((dp4295
S'GO:0031154'
p4296
I01
sS'GO:0031288'
p4297
I01
sS'GO:0031152'
p4298
I01
sS'GO:0030587'
p4299
I01
stbaa(lp4300
S'17655921'
p4301
ag5
(g6
g7
NtRp4302
((dp4303
S'GO:0009306'
p4304
I01
sS'GO:0009847'
p4305
I01
stbaa(lp4306
S'23548898'
p4307
ag5
(g6
g7
NtRp4308
((dp4309
S'GO:0005829'
p4310
I01
sS'GO:0005739'
p4311
I01
sS'GO:0016917'
p4312
I01
sS'GO:0005765'
p4313
I01
sS'GO:0031152'
p4314
I01
sS'GO:0005886'
p4315
I01
stbaa(lp4316
S'18621026'
p4317
ag5
(g6
g7
NtRp4318
((dp4319
S'GO:0009922'
p4320
I01
sS'GO:0034625'
p4321
I01
sS'GO:0005783'
p4322
I01
stbaa(lp4323
S'21606208'
p4324
ag5
(g6
g7
NtRp4325
((dp4326
S'GO:0003779'
p4327
I01
sS'GO:0061474'
p4328
I01
sS'GO:0006887'
p4329
I01
sS'GO:0045010'
p4330
I01
sS'GO:0044655'
p4331
I01
stbaa(lp4332
S'21134080'
p4333
ag5
(g6
g7
NtRp4334
((dp4335
S'GO:0072686'
p4336
I01
sS'GO:0005813'
p4337
I01
sS'GO:0044351'
p4338
I01
sS'GO:0005515'
p4339
I01
sS'GO:0031410'
p4340
I01
sS'GO:0060100'
p4341
I01
sS'GO:0048471'
p4342
I01
stbaa(lp4343
S'16112620'
p4344
ag5
(g6
g7
NtRp4345
((dp4346
S'GO:0006310'
p4347
I01
sS'GO:0006468'
p4348
I01
sS'GO:0006303'
p4349
I01
sS'GO:0006302'
p4350
I01
sS'GO:0000012'
p4351
I01
sS'GO:0004003'
p4352
I01
sS'GO:0005634'
p4353
I01
sS'GO:0004672'
p4354
I01
sS'GO:0008408'
p4355
I01
sS'GO:0006289'
p4356
I01
sS'GO:0006974'
p4357
I01
sS'GO:0006266'
p4358
I01
sS'GO:0005958'
p4359
I01
sS'GO:0003910'
p4360
I01
sS'GO:0003677'
p4361
I01
sS'GO:0003690'
p4362
I01
sS'GO:0005524'
p4363
I01
sS'GO:0045893'
p4364
I01
stbaa(lp4365
S'18164290'
p4366
ag5
(g6
g7
NtRp4367
((dp4368
S'GO:0031143'
p4369
I01
sS'GO:0031982'
p4370
I01
sS'GO:0005938'
p4371
I01
sS'GO:0006928'
p4372
I01
stbaa(lp4373
S'16368684'
p4374
ag5
(g6
g7
NtRp4375
((dp4376
S'GO:0004748'
p4377
I01
sS'GO:0009142'
p4378
I01
stbaa(lp4379
S'19878291'
p4380
ag5
(g6
g7
NtRp4381
((dp4382
S'GO:0001709'
p4383
I01
stbaa(lp4384
S'17177856'
p4385
ag5
(g6
g7
NtRp4386
((dp4387
S'GO:0031154'
p4388
I01
sS'GO:0030435'
p4389
I01
sS'GO:0016338'
p4390
I01
sS'GO:0031152'
p4391
I01
sS'GO:0045165'
p4392
I01
stbaa(lp4393
S'12464622'
p4394
ag5
(g6
g7
NtRp4395
((dp4396
S'GO:0031152'
p4397
I01
sS'GO:0008283'
p4398
I01
sS'GO:0004439'
p4399
I01
sS'GO:0034485'
p4400
I01
sS'GO:0046856'
p4401
I01
sS'GO:0046855'
p4402
I01
sS'GO:0004445'
p4403
I01
stbaa(lp4404
S'11784104'
p4405
ag5
(g6
g7
NtRp4406
((dp4407
S'GO:0009167'
p4408
I01
sS'GO:0003876'
p4409
I01
sS'GO:0030435'
p4410
I01
stbaa(lp4411
S'12871696'
p4412
ag5
(g6
g7
NtRp4413
((dp4414
S'GO:0004028'
p4415
I01
sS'GO:0030587'
p4416
I01
sS'GO:0005215'
p4417
I01
sS'GO:0016021'
p4418
I01
sS'GO:0006810'
p4419
I01
sS'GO:0031154'
p4420
I01
sS'GO:0031152'
p4421
I01
sS'GO:0005525'
p4422
I01
stbaa(lp4423
S'15309638'
p4424
ag5
(g6
g7
NtRp4425
((dp4426
S'GO:0005576'
p4427
I01
sS'GO:0030248'
p4428
I01
stbaa(lp4429
S'11488929'
p4430
ag5
(g6
g7
NtRp4431
((dp4432
S'GO:0030248'
p4433
I01
stbaa(lp4434
S'24137657'
p4435
ag5
(g6
g7
NtRp4436
((dp4437
S'GO:0061077'
p4438
I01
stbaa(lp4439
S'11956322'
p4440
ag5
(g6
g7
NtRp4441
((dp4442
S'GO:0051453'
p4443
I01
sS'GO:0000331'
p4444
I01
sS'GO:0006911'
p4445
I01
stbaa(lp4446
S'8743951'
p4447
ag5
(g6
g7
NtRp4448
((dp4449
S'GO:0000331'
p4450
I01
stbaa(lp4451
S'23938384'
p4452
ag5
(g6
g7
NtRp4453
((dp4454
S'GO:0033298'
p4455
I01
sS'GO:0006970'
p4456
I01
sS'GO:0031164'
p4457
I01
sS'GO:0005515'
p4458
I01
stbaa(lp4459
S'12082150'
p4460
ag5
(g6
g7
NtRp4461
((dp4462
S'GO:0031164'
p4463
I01
sS'GO:0010008'
p4464
I01
stbaa(lp4465
S'18827012'
p4466
ag5
(g6
g7
NtRp4467
((dp4468
S'GO:0000281'
p4469
I01
sS'GO:0005546'
p4470
I01
sS'GO:0030435'
p4471
I01
sS'GO:0030276'
p4472
I01
sS'GO:0005905'
p4473
I01
sS'GO:0005886'
p4474
I01
sS'GO:0030122'
p4475
I01
sS'GO:0030136'
p4476
I01
stbaa(lp4477
S'16243037'
p4478
ag5
(g6
g7
NtRp4479
((dp4480
S'GO:0003677'
p4481
I01
sS'GO:0035267'
p4482
I01
sS'GO:0000786'
p4483
I01
sS'GO:0000125'
p4484
I01
sS'GO:0006303'
p4485
I01
sS'GO:0006302'
p4486
I01
sS'GO:0005634'
p4487
I01
sS'GO:0003712'
p4488
I01
sS'GO:0006266'
p4489
I01
sS'GO:0016573'
p4490
I01
sS'GO:0004672'
p4491
I01
sS'GO:0003690'
p4492
I01
sS'GO:0005524'
p4493
I01
sS'GO:0006468'
p4494
I01
sS'GO:0004003'
p4495
I01
sS'GO:0006974'
p4496
I01
sS'GO:0006975'
p4497
I01
sS'GO:0005958'
p4498
I01
sS'GO:0045893'
p4499
I01
sS'GO:0006310'
p4500
I01
sS'GO:0051276'
p4501
I01
sS'GO:0006334'
p4502
I01
stbaa(lp4503
S'21458438'
p4504
ag5
(g6
g7
NtRp4505
((dp4506
S'GO:0005634'
p4507
I01
sS'GO:0010628'
p4508
I01
sS'GO:0000976'
p4509
I01
stbaa(lp4510
S'16396914'
p4511
ag5
(g6
g7
NtRp4512
((dp4513
S'GO:0005737'
p4514
I01
sS'GO:0040011'
p4515
I01
sS'GO:0031149'
p4516
I01
sS'GO:0005634'
p4517
I01
sS'GO:0043565'
p4518
I01
stbaa(lp4519
S'16410410'
p4520
ag5
(g6
g7
NtRp4521
((dp4522
S'GO:0005737'
p4523
I01
sS'GO:0031149'
p4524
I01
sS'GO:0005634'
p4525
I01
sS'GO:0045184'
p4526
I01
sS'GO:0012501'
p4527
I01
sS'GO:0046982'
p4528
I01
sS'GO:0042803'
p4529
I01
stbaa(lp4530
S'20080085'
p4531
ag5
(g6
g7
NtRp4532
((dp4533
S'GO:0010629'
p4534
I01
stbaa(lp4535
S'20300194'
p4536
ag5
(g6
g7
NtRp4537
((dp4538
S'GO:0010629'
p4539
I01
sS'GO:0010628'
p4540
I01
sS'GO:0045165'
p4541
I01
stbaa(lp4542
S'22253818'
p4543
ag5
(g6
g7
NtRp4544
((dp4545
S'GO:0044212'
p4546
I01
sS'GO:0010629'
p4547
I01
stbaa(lp4548
S'16672332'
p4549
ag5
(g6
g7
NtRp4550
((dp4551
S'GO:0004965'
p4552
I01
sS'GO:0008066'
p4553
I01
sS'GO:0007214'
p4554
I01
stbaa(lp4555
S'16527814'
p4556
ag5
(g6
g7
NtRp4557
((dp4558
S'GO:0043327'
p4559
I01
sS'GO:0016021'
p4560
I01
sS'GO:0031152'
p4561
I01
stbaa(lp4562
S'19002378'
p4563
ag5
(g6
g7
NtRp4564
((dp4565
S'GO:0046956'
p4566
I01
sS'GO:0031288'
p4567
I01
sS'GO:0022408'
p4568
I01
stbaa(lp4569
S'15003488'
p4570
ag5
(g6
g7
NtRp4571
((dp4572
S'GO:0006086'
p4573
I01
sS'GO:0006564'
p4574
I01
sS'GO:0006574'
p4575
I01
sS'GO:0005967'
p4576
I01
sS'GO:0005829'
p4577
I01
sS'GO:0006546'
p4578
I01
sS'GO:0006552'
p4579
I01
sS'GO:0006550'
p4580
I01
sS'GO:0004148'
p4581
I01
sS'GO:0005759'
p4582
I01
sS'GO:0006094'
p4583
I01
stbaa(lp4584
S'22357942'
p4585
ag5
(g6
g7
NtRp4586
((dp4587
S'GO:0032010'
p4588
I01
sS'GO:0006874'
p4589
I01
sS'GO:0001845'
p4590
I01
sS'GO:0017157'
p4591
I01
stbaa(lp4592
S'16151245'
p4593
ag5
(g6
g7
NtRp4594
((dp4595
S'GO:0005261'
p4596
I01
sS'GO:0005783'
p4597
I01
sS'GO:0005262'
p4598
I01
stbaa(lp4599
S'12697064'
p4600
ag5
(g6
g7
NtRp4601
((dp4602
S'GO:0005844'
p4603
I01
sS'GO:0006468'
p4604
I01
sS'GO:0048255'
p4605
I01
sS'GO:0005850'
p4606
I01
sS'GO:0006446'
p4607
I01
sS'GO:0005085'
p4608
I01
sS'GO:0005525'
p4609
I01
sS'GO:0005622'
p4610
I01
sS'GO:0031152'
p4611
I01
sS'GO:0019933'
p4612
I01
sS'GO:0006417'
p4613
I01
sS'GO:0003743'
p4614
I01
sS'GO:0031158'
p4615
I01
sS'GO:0005524'
p4616
I01
sS'GO:0004694'
p4617
I01
stbaa(lp4618
S'16957294'
p4619
ag5
(g6
g7
NtRp4620
((dp4621
S'GO:0005813'
p4622
I01
stbaa(lp4623
S'15950752'
p4624
ag5
(g6
g7
NtRp4625
((dp4626
S'GO:0042554'
p4627
I01
sS'GO:0050660'
p4628
I01
sS'GO:0020037'
p4629
I01
sS'GO:0030587'
p4630
I01
sS'GO:0016021'
p4631
I01
sS'GO:0016175'
p4632
I01
sS'GO:0050661'
p4633
I01
sS'GO:0016176'
p4634
I01
sS'GO:0030435'
p4635
I01
sS'GO:0006801'
p4636
I01
sS'GO:0043020'
p4637
I01
sS'GO:0005829'
p4638
I01
stbaa(lp4639
S'9486804'
p4640
ag5
(g6
g7
NtRp4641
((dp4642
S'GO:0045595'
p4643
I01
sS'GO:0009653'
p4644
I01
stbaa(lp4645
S'24132237'
p4646
ag5
(g6
g7
NtRp4647
((dp4648
S'GO:0030336'
p4649
I01
sS'GO:0016477'
p4650
I01
sS'GO:0033058'
p4651
I01
stbaa(lp4652
S'16906151'
p4653
ag5
(g6
g7
NtRp4654
((dp4655
S'GO:0031148'
p4656
I01
sS'GO:0030639'
p4657
I01
sS'GO:0005622'
p4658
I01
stbaa(lp4659
S'18402932'
p4660
ag5
(g6
g7
NtRp4661
((dp4662
S'GO:0031149'
p4663
I01
sS'GO:0031288'
p4664
I01
stbaa(lp4665
S'24096661'
p4666
ag5
(g6
g7
NtRp4667
((dp4668
S'GO:0044671'
p4669
I01
sS'GO:0031149'
p4670
I01
stbaa(lp4671
S'20231486'
p4672
ag5
(g6
g7
NtRp4673
((dp4674
S'GO:0031154'
p4675
I01
sS'GO:0003824'
p4676
I01
sS'GO:0031148'
p4677
I01
sS'GO:0031153'
p4678
I01
stbaa(lp4679
S'16495312'
p4680
ag5
(g6
g7
NtRp4681
((dp4682
S'GO:0000122'
p4683
I01
stbaa(lp4684
S'22744750'
p4685
ag5
(g6
g7
NtRp4686
((dp4687
S'GO:0071988'
p4688
I01
sS'GO:0016049'
p4689
I01
sS'GO:0005813'
p4690
I01
sS'GO:0010824'
p4691
I01
sS'GO:0090307'
p4692
I01
sS'GO:0051645'
p4693
I01
stbaa(lp4694
S'15073273'
p4695
ag5
(g6
g7
NtRp4696
((dp4697
S'GO:0051219'
p4698
I01
sS'GO:0003723'
p4699
I01
sS'GO:0006352'
p4700
I01
sS'GO:0003677'
p4701
I01
stbaa(lp4702
S'16356468'
p4703
ag5
(g6
g7
NtRp4704
((dp4705
S'GO:0043565'
p4706
I01
sS'GO:0004329'
p4707
I01
sS'GO:0009396'
p4708
I01
sS'GO:0005829'
p4709
I01
sS'GO:0006355'
p4710
I01
sS'GO:0005634'
p4711
I01
sS'GO:0005524'
p4712
I01
stbaa(lp4713
S'18334553'
p4714
ag5
(g6
g7
NtRp4715
((dp4716
S'GO:0000331'
p4717
I01
sS'GO:0051270'
p4718
I01
sS'GO:0042331'
p4719
I01
sS'GO:0030587'
p4720
I01
sS'GO:0005829'
p4721
I01
sS'GO:0006887'
p4722
I01
sS'GO:0051490'
p4723
I01
sS'GO:0033298'
p4724
I01
stbaa(lp4725
S'16766083'
p4726
ag5
(g6
g7
NtRp4727
((dp4728
S'GO:0000815'
p4729
I01
sS'GO:0000814'
p4730
I01
sS'GO:0000813'
p4731
I01
sS'GO:0030587'
p4732
I01
stbaa(lp4733
S'10987137'
p4734
ag5
(g6
g7
NtRp4735
((dp4736
S'GO:0006729'
p4737
I01
sS'GO:0004757'
p4738
I01
stbaa(lp4739
S'15896778'
p4740
ag5
(g6
g7
NtRp4741
((dp4742
S'GO:0004757'
p4743
I01
sS'GO:0042559'
p4744
I01
stbaa(lp4745
S'16678813'
p4746
ag5
(g6
g7
NtRp4747
((dp4748
S'GO:0050661'
p4749
I01
sS'GO:0004364'
p4750
I01
sS'GO:0004362'
p4751
I01
sS'GO:0005622'
p4752
I01
sS'GO:0031154'
p4753
I01
sS'GO:0006749'
p4754
I01
sS'GO:0045454'
p4755
I01
sS'GO:0006979'
p4756
I01
sS'GO:0043295'
p4757
I01
stbaa(lp4758
S'12626495'
p4759
ag5
(g6
g7
NtRp4760
((dp4761
S'GO:0005737'
p4762
I01
sS'GO:0019787'
p4763
I01
sS'GO:0006995'
p4764
I01
sS'GO:0030587'
p4765
I01
sS'GO:0016236'
p4766
I01
sS'GO:0006914'
p4767
I01
sS'GO:0031288'
p4768
I01
sS'GO:0030435'
p4769
I01
sS'GO:0005829'
p4770
I01
stbaa(lp4771
S'11854403'
p4772
ag5
(g6
g7
NtRp4773
((dp4774
S'GO:0035194'
p4775
I01
sS'GO:0010586'
p4776
I01
sS'GO:0070918'
p4777
I01
stbaa(lp4778
S'17050732'
p4779
ag5
(g6
g7
NtRp4780
((dp4781
S'GO:0031589'
p4782
I01
sS'GO:0000281'
p4783
I01
sS'GO:0000916'
p4784
I01
sS'GO:0005938'
p4785
I01
stbaa(lp4786
S'8752217'
p4787
ag5
(g6
g7
NtRp4788
((dp4789
S'GO:0000902'
p4790
I01
sS'GO:0051017'
p4791
I01
sS'GO:0031252'
p4792
I01
sS'GO:0051015'
p4793
I01
sS'GO:0000281'
p4794
I01
sS'GO:0051639'
p4795
I01
sS'GO:0005938'
p4796
I01
sS'GO:0042803'
p4797
I01
stbaa(lp4798
S'21441344'
p4799
ag5
(g6
g7
NtRp4800
((dp4801
S'GO:0031589'
p4802
I01
sS'GO:0015629'
p4803
I01
sS'GO:0005515'
p4804
I01
sS'GO:0005886'
p4805
I01
stbaa(lp4806
S'15014435'
p4807
ag5
(g6
g7
NtRp4808
((dp4809
S'GO:0005737'
p4810
I01
sS'GO:0007015'
p4811
I01
sS'GO:0005826'
p4812
I01
sS'GO:0008283'
p4813
I01
sS'GO:0000281'
p4814
I01
sS'GO:0051015'
p4815
I01
sS'GO:0005938'
p4816
I01
sS'GO:0042803'
p4817
I01
stbaa(lp4818
S'22311068'
p4819
ag5
(g6
g7
NtRp4820
((dp4821
S'GO:0018249'
p4822
I01
sS'GO:0070179'
p4823
I01
sS'GO:0000287'
p4824
I01
sS'GO:0006563'
p4825
I01
sS'GO:0030378'
p4826
I01
stbaa(lp4827
S'23269477'
p4828
ag5
(g6
g7
NtRp4829
((dp4830
S'GO:0030170'
p4831
I01
stbaa(lp4832
S'22090348'
p4833
ag5
(g6
g7
NtRp4834
((dp4835
S'GO:0005637'
p4836
I01
sS'GO:0051297'
p4837
I01
sS'GO:0010847'
p4838
I01
sS'GO:0051642'
p4839
I01
sS'GO:0030527'
p4840
I01
stbaa(lp4841
S'16469305'
p4842
ag5
(g6
g7
NtRp4843
((dp4844
S'GO:0005634'
p4845
I01
sS'GO:0040029'
p4846
I01
sS'GO:0016571'
p4847
I01
sS'GO:0031152'
p4848
I01
sS'GO:0051568'
p4849
I01
sS'GO:0042800'
p4850
I01
stbaa(lp4851
S'11179674'
p4852
ag5
(g6
g7
NtRp4853
((dp4854
S'GO:0005764'
p4855
I01
sS'GO:0030130'
p4856
I01
sS'GO:0006886'
p4857
I01
sS'GO:0005768'
p4858
I01
sS'GO:0030124'
p4859
I01
stbaa(lp4860
S'17673666'
p4861
ag5
(g6
g7
NtRp4862
((dp4863
S'GO:0006952'
p4864
I01
sS'GO:0008283'
p4865
I01
stbaa(lp4866
S'16571632'
p4867
ag5
(g6
g7
NtRp4868
((dp4869
S'GO:0043565'
p4870
I01
sS'GO:0005634'
p4871
I01
sS'GO:0006366'
p4872
I01
sS'GO:0003677'
p4873
I01
stbaa(lp4874
S'17611045'
p4875
ag5
(g6
g7
NtRp4876
((dp4877
S'GO:0030677'
p4878
I01
sS'GO:0004526'
p4879
I01
sS'GO:0008033'
p4880
I01
stbaa(lp4881
S'17353263'
p4882
ag5
(g6
g7
NtRp4883
((dp4884
S'GO:0005737'
p4885
I01
sS'GO:0005515'
p4886
I01
sS'GO:0005634'
p4887
I01
sS'GO:0004722'
p4888
I01
sS'GO:0031156'
p4889
I01
sS'GO:0050920'
p4890
I01
sS'GO:0030289'
p4891
I01
stbaa(lp4892
S'16107728'
p4893
ag5
(g6
g7
NtRp4894
((dp4895
S'GO:0043327'
p4896
I01
sS'GO:0005634'
p4897
I01
sS'GO:0005938'
p4898
I01
sS'GO:0007165'
p4899
I01
stbaa(lp4900
S'18657170'
p4901
ag5
(g6
g7
NtRp4902
((dp4903
S'GO:0006468'
p4904
I01
sS'GO:0031156'
p4905
I01
sS'GO:0004672'
p4906
I01
stbaa(lp4907
S'8898113'
p4908
ag5
(g6
g7
NtRp4909
((dp4910
S'GO:0046777'
p4911
I01
sS'GO:0004713'
p4912
I01
sS'GO:0005524'
p4913
I01
sS'GO:0018108'
p4914
I01
stbaa(lp4915
S'21393547'
p4916
ag5
(g6
g7
NtRp4917
((dp4918
S'GO:0061245'
p4919
I01
sS'GO:0009306'
p4920
I01
sS'GO:0051017'
p4921
I01
sS'GO:0051495'
p4922
I01
sS'GO:0034613'
p4923
I01
sS'GO:0045294'
p4924
I01
sS'GO:0008013'
p4925
I01
sS'GO:0031154'
p4926
I01
sS'GO:0031150'
p4927
I01
sS'GO:0051015'
p4928
I01
sS'GO:0005911'
p4929
I01
sS'GO:0045179'
p4930
I01
sS'GO:0051645'
p4931
I01
sS'GO:0051642'
p4932
I01
stbaa(lp4933
S'10224056'
p4934
ag5
(g6
g7
NtRp4935
((dp4936
S'GO:0051509'
p4937
I01
sS'GO:0051508'
p4938
I01
sS'GO:0016125'
p4939
I01
sS'GO:0051505'
p4940
I01
sS'GO:0051507'
p4941
I01
sS'GO:0051506'
p4942
I01
stbaa(lp4943
S'21087028'
p4944
ag5
(g6
g7
NtRp4945
((dp4946
S'GO:0033204'
p4947
I01
stbaa(lp4948
S'22389384'
p4949
ag5
(g6
g7
NtRp4950
((dp4951
S'GO:0000747'
p4952
I01
stbaa(lp4953
S'11713866'
p4954
ag5
(g6
g7
NtRp4955
((dp4956
S'GO:0005813'
p4957
I01
sS'GO:0005634'
p4958
I01
stbaa(lp4959
S'19833731'
p4960
ag5
(g6
g7
NtRp4961
((dp4962
S'GO:0004931'
p4963
I01
sS'GO:0006811'
p4964
I01
sS'GO:0015276'
p4965
I01
sS'GO:0050848'
p4966
I01
sS'GO:0006971'
p4967
I01
sS'GO:0031164'
p4968
I01
stbaa(lp4969
S'19207182'
p4970
ag5
(g6
g7
NtRp4971
((dp4972
S'GO:0031154'
p4973
I01
stbaa(lp4974
S'12952082'
p4975
ag5
(g6
g7
NtRp4976
((dp4977
S'GO:0009408'
p4978
I01
sS'GO:0031288'
p4979
I01
sS'GO:0005739'
p4980
I01
stbaa(lp4981
S'17725968'
p4982
ag5
(g6
g7
NtRp4983
((dp4984
S'GO:0046956'
p4985
I01
sS'GO:0008283'
p4986
I01
stbaa(lp4987
S'18676957'
p4988
ag5
(g6
g7
NtRp4989
((dp4990
S'GO:0006909'
p4991
I01
stbaa(lp4992
S'16777069'
p4993
ag5
(g6
g7
NtRp4994
((dp4995
S'GO:0005516'
p4996
I01
stbaa(lp4997
S'15689527'
p4998
ag5
(g6
g7
NtRp4999
((dp5000
S'GO:0003886'
p5001
I01
sS'GO:0090116'
p5002
I01
sS'GO:0006306'
p5003
I01
sS'GO:0003677'
p5004
I01
stbaa(lp5005
S'16282589'
p5006
ag5
(g6
g7
NtRp5007
((dp5008
S'GO:0003886'
p5009
I01
sS'GO:0005634'
p5010
I01
sS'GO:0090116'
p5011
I01
sS'GO:0032776'
p5012
I01
stbaa(lp5013
S'16400165'
p5014
ag5
(g6
g7
NtRp5015
((dp5016
S'GO:0031154'
p5017
I01
sS'GO:0003886'
p5018
I01
sS'GO:0032776'
p5019
I01
sS'GO:0090116'
p5020
I01
sS'GO:0030435'
p5021
I01
stbaa(lp5022
S'23998118'
p5023
ag5
(g6
g7
NtRp5024
((dp5025
S'GO:0005739'
p5026
I01
sS'GO:0008283'
p5027
I01
stbaa(lp5028
S'18676953'
p5029
ag5
(g6
g7
NtRp5030
((dp5031
S'GO:0016791'
p5032
I01
sS'GO:0030835'
p5033
I01
sS'GO:0030818'
p5034
I01
sS'GO:0030587'
p5035
I01
sS'GO:0016311'
p5036
I01
sS'GO:0031152'
p5037
I01
sS'GO:0014066'
p5038
I01
stbaa(lp5039
S'17560550'
p5040
ag5
(g6
g7
NtRp5041
((dp5042
S'GO:0006412'
p5043
I01
stbaa(lp5044
S'23536703'
p5045
ag5
(g6
g7
NtRp5046
((dp5047
S'GO:0042331'
p5048
I01
sS'GO:0032981'
p5049
I01
sS'GO:0005739'
p5050
I01
sS'GO:0031154'
p5051
I01
sS'GO:0030435'
p5052
I01
sS'GO:0010507'
p5053
I01
stbaa(lp5054
S'10978342'
p5055
ag5
(g6
g7
NtRp5056
((dp5057
S'GO:0006906'
p5058
I01
sS'GO:0005768'
p5059
I01
sS'GO:0005515'
p5060
I01
stbaa(lp5061
S'8830653'
p5062
ag5
(g6
g7
NtRp5063
((dp5064
S'GO:0036360'
p5065
I01
sS'GO:0016049'
p5066
I01
sS'GO:0000281'
p5067
I01
sS'GO:0005938'
p5068
I01
stbaa(lp5069
S'9056774'
p5070
ag5
(g6
g7
NtRp5071
((dp5072
S'GO:0031149'
p5073
I01
sS'GO:0005099'
p5074
I01
sS'GO:0000281'
p5075
I01
sS'GO:0031154'
p5076
I01
sS'GO:0030435'
p5077
I01
sS'GO:0032320'
p5078
I01
stbaa(lp5079
S'18367554'
p5080
ag5
(g6
g7
NtRp5081
((dp5082
S'GO:0006974'
p5083
I01
sS'GO:0005634'
p5084
I01
sS'GO:0005694'
p5085
I01
sS'GO:0005829'
p5086
I01
stbaa(lp5087
S'9813063'
p5088
ag5
(g6
g7
NtRp5089
((dp5090
S'GO:0004630'
p5091
I01
sS'GO:0016021'
p5092
I01
sS'GO:0016042'
p5093
I01
stbaa(lp5094
S'15141168'
p5095
ag5
(g6
g7
NtRp5096
((dp5097
S'GO:0005737'
p5098
I01
sS'GO:0040011'
p5099
I01
sS'GO:0005938'
p5100
I01
sS'GO:0048870'
p5101
I01
stbaa(lp5102
S'10209124'
p5103
ag5
(g6
g7
NtRp5104
((dp5105
S'GO:0030587'
p5106
I01
stbaa(lp5107
S'16765443'
p5108
ag5
(g6
g7
NtRp5109
((dp5110
S'GO:0005764'
p5111
I01
sS'GO:0005773'
p5112
I01
stbaa(lp5113
S'20186335'
p5114
ag5
(g6
g7
NtRp5115
((dp5116
S'GO:0005829'
p5117
I01
sS'GO:0031589'
p5118
I01
sS'GO:0006935'
p5119
I01
stbaa(lp5120
S'12538772'
p5121
ag5
(g6
g7
NtRp5122
((dp5123
S'GO:0005737'
p5124
I01
sS'GO:0031154'
p5125
I01
sS'GO:0001891'
p5126
I01
sS'GO:0030864'
p5127
I01
stbaa(lp5128
S'22219373'
p5129
ag5
(g6
g7
NtRp5130
((dp5131
S'GO:0006909'
p5132
I01
sS'GO:0055037'
p5133
I01
sS'GO:0034394'
p5134
I01
sS'GO:0050821'
p5135
I01
sS'GO:0010467'
p5136
I01
sS'GO:0005886'
p5137
I01
sS'GO:0005769'
p5138
I01
stbaa(lp5139
S'15511086'
p5140
ag5
(g6
g7
NtRp5141
((dp5142
S'GO:0005739'
p5143
I01
stbaa(lp5144
S'21871890'
p5145
ag5
(g6
g7
NtRp5146
((dp5147
S'GO:0006729'
p5148
I01
sS'GO:0004146'
p5149
I01
sS'GO:0004155'
p5150
I01
sS'GO:0006979'
p5151
I01
stbaa(lp5152
S'7729573'
p5153
ag5
(g6
g7
NtRp5154
((dp5155
S'GO:0005201'
p5156
I01
sS'GO:0030198'
p5157
I01
sS'GO:0030248'
p5158
I01
sS'GO:0031012'
p5159
I01
stbaa(lp5160
S'6468764'
p5161
ag5
(g6
g7
NtRp5162
((dp5163
S'GO:0005666'
p5164
I01
stbaa(lp5165
S'21760904'
p5166
ag5
(g6
g7
NtRp5167
((dp5168
S'GO:0008285'
p5169
I01
sS'GO:0005634'
p5170
I01
sS'GO:0031410'
p5171
I01
stbaa(lp5172
S'23773804'
p5173
ag5
(g6
g7
NtRp5174
((dp5175
S'GO:0010628'
p5176
I01
sS'GO:0031152'
p5177
I01
stbaa(lp5178
S'18638468'
p5179
ag5
(g6
g7
NtRp5180
((dp5181
S'GO:0051287'
p5182
I01
sS'GO:0031149'
p5183
I01
sS'GO:0070402'
p5184
I01
sS'GO:0030587'
p5185
I01
stbaa(lp5186
S'12890554'
p5187
ag5
(g6
g7
NtRp5188
((dp5189
S'GO:0031410'
p5190
I01
sS'GO:0016021'
p5191
I01
sS'GO:0030246'
p5192
I01
sS'GO:0051015'
p5193
I01
sS'GO:0005886'
p5194
I01
stbaa(lp5195
S'23923009'
p5196
ag5
(g6
g7
NtRp5197
((dp5198
S'GO:0031167'
p5199
I01
sS'GO:0006352'
p5200
I01
sS'GO:0005739'
p5201
I01
sS'GO:0008649'
p5202
I01
stbaa(lp5203
S'12963116'
p5204
ag5
(g6
g7
NtRp5205
((dp5206
S'GO:0009897'
p5207
I01
sS'GO:0000747'
p5208
I01
sS'GO:0008234'
p5209
I01
stbaa(lp5210
S'18809930'
p5211
ag5
(g6
g7
NtRp5212
((dp5213
S'GO:0000281'
p5214
I01
sS'GO:0032154'
p5215
I01
stbaa(lp5216
S'23679940'
p5217
ag5
(g6
g7
NtRp5218
((dp5219
S'GO:0005737'
p5220
I01
sS'GO:0006997'
p5221
I01
sS'GO:0015629'
p5222
I01
sS'GO:0007015'
p5223
I01
sS'GO:0000920'
p5224
I01
sS'GO:0032154'
p5225
I01
sS'GO:0030835'
p5226
I01
stbaa(lp5227
S'20887559'
p5228
ag5
(g6
g7
NtRp5229
((dp5230
S'GO:0005737'
p5231
I01
sS'GO:0005773'
p5232
I01
sS'GO:0005634'
p5233
I01
sS'GO:0000281'
p5234
I01
sS'GO:0031154'
p5235
I01
stbaa(lp5236
S'20170636'
p5237
ag5
(g6
g7
NtRp5238
((dp5239
S'GO:0003976'
p5240
I01
sS'GO:0018279'
p5241
I01
stbaa(lp5242
S'20057961'
p5243
ag5
(g6
g7
NtRp5244
((dp5245
S'GO:0000902'
p5246
I01
sS'GO:0031268'
p5247
I01
stbaa(lp5248
S'16675552'
p5249
ag5
(g6
g7
NtRp5250
((dp5251
S'GO:0045010'
p5252
I01
sS'GO:0051017'
p5253
I01
sS'GO:0051638'
p5254
I01
sS'GO:0005515'
p5255
I01
sS'GO:0030041'
p5256
I01
sS'GO:0046847'
p5257
I01
stbaa(lp5258
S'16599905'
p5259
ag5
(g6
g7
NtRp5260
((dp5261
S'GO:0004512'
p5262
I01
sS'GO:0006021'
p5263
I01
stbaa(lp5264
S'16087752'
p5265
ag5
(g6
g7
NtRp5266
((dp5267
S'GO:0007275'
p5268
I01
stbaa(lp5269
S'20070309'
p5270
ag5
(g6
g7
NtRp5271
((dp5272
S'GO:0040011'
p5273
I01
sS'GO:0005794'
p5274
I01
sS'GO:0006909'
p5275
I01
sS'GO:0008283'
p5276
I01
sS'GO:0009617'
p5277
I01
sS'GO:0031288'
p5278
I01
sS'GO:0005815'
p5279
I01
sS'GO:0031152'
p5280
I01
sS'GO:0031153'
p5281
I01
sS'GO:0005874'
p5282
I01
stbaa(lp5283
S'18413611'
p5284
ag5
(g6
g7
NtRp5285
((dp5286
S'GO:0034416'
p5287
I01
sS'GO:0034417'
p5288
I01
sS'GO:0005829'
p5289
I01
sS'GO:0006007'
p5290
I01
stbaa(lp5291
S'17314411'
p5292
ag5
(g6
g7
NtRp5293
((dp5294
S'GO:0031252'
p5295
I01
sS'GO:0000281'
p5296
I01
sS'GO:0008064'
p5297
I01
sS'GO:0043327'
p5298
I01
sS'GO:0031209'
p5299
I01
sS'GO:0005515'
p5300
I01
stbaa(lp5301
S'18261908'
p5302
ag5
(g6
g7
NtRp5303
((dp5304
S'GO:0045184'
p5305
I01
sS'GO:0001726'
p5306
I01
sS'GO:0000281'
p5307
I01
sS'GO:0043326'
p5308
I01
sS'GO:0031209'
p5309
I01
sS'GO:0005515'
p5310
I01
stbaa(lp5311
S'16581519'
p5312
ag5
(g6
g7
NtRp5313
((dp5314
S'GO:0031589'
p5315
I01
sS'GO:0016337'
p5316
I01
sS'GO:0030835'
p5317
I01
sS'GO:0030838'
p5318
I01
sS'GO:0006935'
p5319
I01
sS'GO:0006928'
p5320
I01
sS'GO:0005938'
p5321
I01
sS'GO:0046956'
p5322
I01
sS'GO:0031209'
p5323
I01
stbaa(lp5324
S'9732292'
p5325
ag5
(g6
g7
NtRp5326
((dp5327
S'GO:0008064'
p5328
I01
sS'GO:0031288'
p5329
I01
sS'GO:0016049'
p5330
I01
sS'GO:0031269'
p5331
I01
stbaa(lp5332
S'16597702'
p5333
ag5
(g6
g7
NtRp5334
((dp5335
S'GO:0046847'
p5336
I01
stbaa(lp5337
S'18550798'
p5338
ag5
(g6
g7
NtRp5339
((dp5340
S'GO:0000331'
p5341
I01
sS'GO:0007030'
p5342
I01
sS'GO:0008283'
p5343
I01
sS'GO:0007029'
p5344
I01
sS'GO:0006907'
p5345
I01
sS'GO:0006887'
p5346
I01
sS'GO:0005789'
p5347
I01
sS'GO:0033298'
p5348
I01
sS'GO:0006971'
p5349
I01
sS'GO:0031152'
p5350
I01
stbaa(lp5351
S'10727946'
p5352
ag5
(g6
g7
NtRp5353
((dp5354
S'GO:0016020'
p5355
I01
sS'GO:0005515'
p5356
I01
sS'GO:0005483'
p5357
I01
stbaa(lp5358
S'10749929'
p5359
ag5
(g6
g7
NtRp5360
((dp5361
S'GO:0006935'
p5362
I01
sS'GO:0031154'
p5363
I01
sS'GO:0008270'
p5364
I01
sS'GO:0031152'
p5365
I01
sS'GO:0007155'
p5366
I01
sS'GO:0005938'
p5367
I01
stbaa(lp5368
S'16495485'
p5369
ag5
(g6
g7
NtRp5370
((dp5371
S'GO:0005789'
p5372
I01
stbaa(lp5373
S'10888671'
p5374
ag5
(g6
g7
NtRp5375
((dp5376
S'GO:0008333'
p5377
I01
sS'GO:0006906'
p5378
I01
sS'GO:0016192'
p5379
I01
stbaa(lp5380
S'15470500'
p5381
ag5
(g6
g7
NtRp5382
((dp5383
S'GO:0045335'
p5384
I01
stbaa(lp5385
S'14704357'
p5386
ag5
(g6
g7
NtRp5387
((dp5388
S'GO:0003899'
p5389
I01
sS'GO:0016591'
p5390
I01
sS'GO:0003697'
p5391
I01
sS'GO:0006366'
p5392
I01
stbaa(lp5393
S'15993406'
p5394
ag5
(g6
g7
NtRp5395
((dp5396
S'GO:0006750'
p5397
I01
sS'GO:0004357'
p5398
I01
sS'GO:0007346'
p5399
I01
sS'GO:0030435'
p5400
I01
stbaa(lp5401
S'8793298'
p5402
ag5
(g6
g7
NtRp5403
((dp5404
S'GO:0007190'
p5405
I01
sS'GO:0005829'
p5406
I01
sS'GO:0006935'
p5407
I01
sS'GO:0031152'
p5408
I01
sS'GO:0006928'
p5409
I01
stbaa(lp5410
S'16963635'
p5411
ag5
(g6
g7
NtRp5412
((dp5413
S'GO:0031158'
p5414
I01
sS'GO:0003993'
p5415
I01
stbaa(lp5416
S'22811266'
p5417
ag5
(g6
g7
NtRp5418
((dp5419
S'GO:0003700'
p5420
I01
sS'GO:0031285'
p5421
I01
sS'GO:0045893'
p5422
I01
sS'GO:0043565'
p5423
I01
stbaa(lp5424
S'22722653'
p5425
ag5
(g6
g7
NtRp5426
((dp5427
S'GO:0005783'
p5428
I01
stbaa(lp5429
S'10491107'
p5430
ag5
(g6
g7
NtRp5431
((dp5432
S'GO:0008601'
p5433
I01
sS'GO:0017018'
p5434
I01
sS'GO:0031034'
p5435
I01
sS'GO:0000159'
p5436
I01
sS'GO:0004722'
p5437
I01
stbaa(lp5438
S'10452519'
p5439
ag5
(g6
g7
NtRp5440
((dp5441
S'GO:0005813'
p5442
I01
sS'GO:0005829'
p5443
I01
sS'GO:0005634'
p5444
I01
stbaa(lp5445
S'21562226'
p5446
ag5
(g6
g7
NtRp5447
((dp5448
S'GO:0005737'
p5449
I01
sS'GO:0007109'
p5450
I01
sS'GO:0004722'
p5451
I01
sS'GO:0060176'
p5452
I01
sS'GO:0043520'
p5453
I01
sS'GO:0043327'
p5454
I01
sS'GO:0034047'
p5455
I01
stbaa(lp5456
S'15333995'
p5457
ag5
(g6
g7
NtRp5458
((dp5459
S'GO:0031152'
p5460
I01
stbaa(lp5461
S'8670837'
p5462
ag5
(g6
g7
NtRp5463
((dp5464
S'GO:0005634'
p5465
I01
stbaa(lp5466
S'17684569'
p5467
ag5
(g6
g7
NtRp5468
((dp5469
S'GO:0006928'
p5470
I01
stbaa(lp5471
S'17998288'
p5472
ag5
(g6
g7
NtRp5473
((dp5474
S'GO:0006928'
p5475
I01
stbaa(lp5476
S'11423539'
p5477
ag5
(g6
g7
NtRp5478
((dp5479
S'GO:0031127'
p5480
I01
sS'GO:0006486'
p5481
I01
stbaa(lp5482
S'12244067'
p5483
ag5
(g6
g7
NtRp5484
((dp5485
S'GO:0016263'
p5486
I01
sS'GO:0006486'
p5487
I01
stbaa(lp5488
S'15351882'
p5489
ag5
(g6
g7
NtRp5490
((dp5491
S'GO:0006470'
p5492
I01
sS'GO:0004725'
p5493
I01
sS'GO:0035335'
p5494
I01
stbaa(lp5495
S'16987957'
p5496
ag5
(g6
g7
NtRp5497
((dp5498
S'GO:0031670'
p5499
I01
sS'GO:0031156'
p5500
I01
sS'GO:0030154'
p5501
I01
sS'GO:0016049'
p5502
I01
sS'GO:0005515'
p5503
I01
stbaa(lp5504
S'16325504'
p5505
ag5
(g6
g7
NtRp5506
((dp5507
S'GO:0030666'
p5508
I01
sS'GO:0005546'
p5509
I01
stbaa(lp5510
S'15769592'
p5511
ag5
(g6
g7
NtRp5512
((dp5513
S'GO:0005509'
p5514
I01
stbaa(lp5515
S'9883904'
p5516
ag5
(g6
g7
NtRp5517
((dp5518
S'GO:0005509'
p5519
I01
stbaa(lp5520
S'22864416'
p5521
ag5
(g6
g7
NtRp5522
((dp5523
S'GO:0005829'
p5524
I01
sS'GO:0009190'
p5525
I01
sS'GO:0052621'
p5526
I01
sS'GO:0031149'
p5527
I01
stbaa(lp5528
S'12176329'
p5529
ag5
(g6
g7
NtRp5530
((dp5531
S'GO:0005834'
p5532
I01
sS'GO:0045744'
p5533
I01
sS'GO:0031157'
p5534
I01
sS'GO:0005886'
p5535
I01
stbaa(lp5536
S'15059962'
p5537
ag5
(g6
g7
NtRp5538
((dp5539
S'GO:0007194'
p5540
I01
stbaa(lp5541
S'11274054'
p5542
ag5
(g6
g7
NtRp5543
((dp5544
S'GO:0006909'
p5545
I01
sS'GO:0006935'
p5546
I01
sS'GO:0009968'
p5547
I01
sS'GO:0018108'
p5548
I01
sS'GO:0004674'
p5549
I01
sS'GO:0004713'
p5550
I01
sS'GO:0030036'
p5551
I01
sS'GO:0005938'
p5552
I01
stbaa(lp5553
S'17442478'
p5554
ag5
(g6
g7
NtRp5555
((dp5556
S'GO:0015813'
p5557
I01
sS'GO:0005313'
p5558
I01
sS'GO:0015810'
p5559
I01
sS'GO:0005743'
p5560
I01
sS'GO:0005509'
p5561
I01
sS'GO:0015183'
p5562
I01
stbaa(lp5563
S'16835457'
p5564
ag5
(g6
g7
NtRp5565
((dp5566
S'GO:0043326'
p5567
I01
sS'GO:0043327'
p5568
I01
sS'GO:0030587'
p5569
I01
sS'GO:0008283'
p5570
I01
stbaa(lp5571
S'15325281'
p5572
ag5
(g6
g7
NtRp5573
((dp5574
S'GO:0005515'
p5575
I01
stbaa(lp5576
S'20600701'
p5577
ag5
(g6
g7
NtRp5578
((dp5579
S'GO:0005829'
p5580
I01
sS'GO:0016604'
p5581
I01
sS'GO:0005634'
p5582
I01
stbaa(lp5583
S'17391056'
p5584
ag5
(g6
g7
NtRp5585
((dp5586
S'GO:0005737'
p5587
I01
sS'GO:0005813'
p5588
I01
sS'GO:0005634'
p5589
I01
sS'GO:0003723'
p5590
I01
sS'GO:0003677'
p5591
I01
stbaa(lp5592
S'16524908'
p5593
ag5
(g6
g7
NtRp5594
((dp5595
S'GO:0046982'
p5596
I01
sS'GO:0031618'
p5597
I01
sS'GO:0051260'
p5598
I01
sS'GO:0051276'
p5599
I01
sS'GO:0008283'
p5600
I01
stbaa(lp5601
S'12913271'
p5602
ag5
(g6
g7
NtRp5603
((dp5604
S'GO:0006979'
p5605
I01
sS'GO:0000281'
p5606
I01
stbaa(lp5607
S'15123660'
p5608
ag5
(g6
g7
NtRp5609
((dp5610
S'GO:0005737'
p5611
I01
stbaa(lp5612
S'16495217'
p5613
ag5
(g6
g7
NtRp5614
((dp5615
S'GO:0035250'
p5616
I01
sS'GO:0006486'
p5617
I01
stbaa(lp5618
S'18768936'
p5619
ag5
(g6
g7
NtRp5620
((dp5621
S'GO:0032956'
p5622
I01
sS'GO:0000281'
p5623
I01
sS'GO:0007163'
p5624
I01
sS'GO:0031152'
p5625
I01
sS'GO:0005886'
p5626
I01
sS'GO:0004784'
p5627
I01
sS'GO:0032880'
p5628
I01
stbaa(lp5629
S'15476260'
p5630
ag5
(g6
g7
NtRp5631
((dp5632
S'GO:0001667'
p5633
I01
sS'GO:0031276'
p5634
I01
sS'GO:0006935'
p5635
I01
sS'GO:0030036'
p5636
I01
sS'GO:0006928'
p5637
I01
stbaa(lp5638
S'11566853'
p5639
ag5
(g6
g7
NtRp5640
((dp5641
S'GO:0040011'
p5642
I01
sS'GO:0030833'
p5643
I01
sS'GO:0006935'
p5644
I01
sS'GO:0030587'
p5645
I01
sS'GO:0006874'
p5646
I01
sS'GO:0030036'
p5647
I01
sS'GO:0006928'
p5648
I01
sS'GO:0030435'
p5649
I01
sS'GO:0046956'
p5650
I01
sS'GO:0008219'
p5651
I01
sS'GO:0031158'
p5652
I01
stbaa(lp5653
S'18339368'
p5654
ag5
(g6
g7
NtRp5655
((dp5656
S'GO:0003700'
p5657
I01
sS'GO:0006355'
p5658
I01
sS'GO:0043565'
p5659
I01
sS'GO:0019933'
p5660
I01
stbaa(lp5661
S'15155803'
p5662
ag5
(g6
g7
NtRp5663
((dp5664
S'GO:0005742'
p5665
I01
sS'GO:0045040'
p5666
I01
sS'GO:0015450'
p5667
I01
stbaa(lp5668
S'10651904'
p5669
ag5
(g6
g7
NtRp5670
((dp5671
S'GO:0006935'
p5672
I01
sS'GO:0031152'
p5673
I01
sS'GO:0010468'
p5674
I01
stbaa(lp5675
S'15827084'
p5676
ag5
(g6
g7
NtRp5677
((dp5678
S'GO:0030553'
p5679
I01
sS'GO:0030552'
p5680
I01
sS'GO:0031589'
p5681
I01
sS'GO:0031275'
p5682
I01
sS'GO:0007163'
p5683
I01
sS'GO:0050920'
p5684
I01
stbaa(lp5685
S'16769729'
p5686
ag5
(g6
g7
NtRp5687
((dp5688
S'GO:0017034'
p5689
I01
stbaa(lp5690
S'20406883'
p5691
ag5
(g6
g7
NtRp5692
((dp5693
S'GO:0043052'
p5694
I01
sS'GO:0042331'
p5695
I01
sS'GO:0005739'
p5696
I01
sS'GO:0005515'
p5697
I01
sS'GO:0032981'
p5698
I01
stbaa(lp5699
S'16507593'
p5700
ag5
(g6
g7
NtRp5701
((dp5702
S'GO:0006909'
p5703
I01
sS'GO:0005977'
p5704
I01
sS'GO:0046034'
p5705
I01
sS'GO:0006907'
p5706
I01
sS'GO:0005739'
p5707
I01
sS'GO:0031154'
p5708
I01
sS'GO:0030435'
p5709
I01
sS'GO:0006536'
p5710
I01
stbaa(lp5711
S'20375146'
p5712
ag5
(g6
g7
NtRp5713
((dp5714
S'GO:0048102'
p5715
I01
stbaa(lp5716
S'16741867'
p5717
ag5
(g6
g7
NtRp5718
((dp5719
S'GO:0003779'
p5720
I01
sS'GO:0031154'
p5721
I01
sS'GO:0015629'
p5722
I01
stbaa(lp5723
S'17237363'
p5724
ag5
(g6
g7
NtRp5725
((dp5726
S'GO:0043565'
p5727
I01
stbaa(lp5728
S'14595117'
p5729
ag5
(g6
g7
NtRp5730
((dp5731
S'GO:0007015'
p5732
I01
sS'GO:0005634'
p5733
I01
sS'GO:0005938'
p5734
I01
sS'GO:0000281'
p5735
I01
sS'GO:0005516'
p5736
I01
stbaa(lp5737
S'17664333'
p5738
ag5
(g6
g7
NtRp5739
((dp5740
S'GO:0006468'
p5741
I01
sS'GO:0006909'
p5742
I01
sS'GO:0030670'
p5743
I01
sS'GO:0018108'
p5744
I01
sS'GO:0004713'
p5745
I01
sS'GO:0032010'
p5746
I01
sS'GO:0001845'
p5747
I01
sS'GO:0005524'
p5748
I01
stbaa(lp5749
S'22307974'
p5750
ag5
(g6
g7
NtRp5751
((dp5752
S'GO:0001726'
p5753
I01
sS'GO:0006897'
p5754
I01
sS'GO:0006935'
p5755
I01
sS'GO:0031941'
p5756
I01
sS'GO:0071944'
p5757
I01
sS'GO:0005886'
p5758
I01
sS'GO:0016477'
p5759
I01
sS'GO:0031268'
p5760
I01
stbaa(lp5761
S'10331990'
p5762
ag5
(g6
g7
NtRp5763
((dp5764
S'GO:0003700'
p5765
I01
sS'GO:0006355'
p5766
I01
sS'GO:0005634'
p5767
I01
sS'GO:0031154'
p5768
I01
stbaa(lp5769
S'23616924'
p5770
ag5
(g6
g7
NtRp5771
((dp5772
S'GO:0031941'
p5773
I01
sS'GO:0016337'
p5774
I01
sS'GO:0060187'
p5775
I01
sS'GO:0030587'
p5776
I01
sS'GO:0005634'
p5777
I01
sS'GO:0043326'
p5778
I01
sS'GO:0010628'
p5779
I01
sS'GO:0005886'
p5780
I01
sS'GO:0016477'
p5781
I01
stbaa(lp5782
S'18611962'
p5783
ag5
(g6
g7
NtRp5784
((dp5785
S'GO:0008285'
p5786
I01
sS'GO:0031410'
p5787
I01
sS'GO:0031288'
p5788
I01
sS'GO:0005576'
p5789
I01
sS'GO:0005515'
p5790
I01
sS'GO:0006508'
p5791
I01
sS'GO:0008234'
p5792
I01
stbaa(lp5793
S'9729488'
p5794
ag5
(g6
g7
NtRp5795
((dp5796
S'GO:0003700'
p5797
I01
sS'GO:0030435'
p5798
I01
sS'GO:0005634'
p5799
I01
sS'GO:0006357'
p5800
I01
stbaa(lp5801
S'14665466'
p5802
ag5
(g6
g7
NtRp5803
((dp5804
S'GO:0009986'
p5805
I01
sS'GO:0006357'
p5806
I01
sS'GO:0005622'
p5807
I01
sS'GO:0004470'
p5808
I01
stbaa(lp5809
S'14706699'
p5810
ag5
(g6
g7
NtRp5811
((dp5812
S'GO:0030435'
p5813
I01
sS'GO:0031289'
p5814
I01
sS'GO:0042244'
p5815
I01
sS'GO:0031247'
p5816
I01
stbaa(lp5817
S'11437439'
p5818
ag5
(g6
g7
NtRp5819
((dp5820
S'GO:0031154'
p5821
I01
sS'GO:0040011'
p5822
I01
stbaa(lp5823
S'14732403'
p5824
ag5
(g6
g7
NtRp5825
((dp5826
S'GO:0001646'
p5827
I01
sS'GO:0016021'
p5828
I01
sS'GO:0030308'
p5829
I01
stbaa(lp5830
S'9191038'
p5831
ag5
(g6
g7
NtRp5832
((dp5833
S'GO:0005524'
p5834
I01
stbaa(lp5835
S'8670894'
p5836
ag5
(g6
g7
NtRp5837
((dp5838
S'GO:0030435'
p5839
I01
sS'GO:0031150'
p5840
I01
stbaa(lp5841
S'12204259'
p5842
ag5
(g6
g7
NtRp5843
((dp5844
S'GO:0051344'
p5845
I01
stbaa(lp5846
S'18160177'
p5847
ag5
(g6
g7
NtRp5848
((dp5849
S'GO:0005737'
p5850
I01
sS'GO:0005783'
p5851
I01
sS'GO:0005739'
p5852
I01
sS'GO:0006200'
p5853
I01
sS'GO:0016887'
p5854
I01
sS'GO:0003777'
p5855
I01
sS'GO:0042803'
p5856
I01
stbaa(lp5857
S'17916577'
p5858
ag5
(g6
g7
NtRp5859
((dp5860
S'GO:0010586'
p5861
I01
stbaa(lp5862
S'22875808'
p5863
ag5
(g6
g7
NtRp5864
((dp5865
S'GO:0010586'
p5866
I01
sS'GO:0010587'
p5867
I01
sS'GO:0031054'
p5868
I01
stbaa(lp5869
S'23724097'
p5870
ag5
(g6
g7
NtRp5871
((dp5872
S'GO:0030422'
p5873
I01
sS'GO:0036453'
p5874
I01
stbaa(lp5875
S'16899077'
p5876
ag5
(g6
g7
NtRp5877
((dp5878
S'GO:0031154'
p5879
I01
sS'GO:0045454'
p5880
I01
sS'GO:0006909'
p5881
I01
sS'GO:0004791'
p5882
I01
stbaa(lp5883
S'18673380'
p5884
ag5
(g6
g7
NtRp5885
((dp5886
S'GO:0008601'
p5887
I01
sS'GO:0045860'
p5888
I01
sS'GO:0030154'
p5889
I01
sS'GO:0000159'
p5890
I01
sS'GO:0030587'
p5891
I01
stbaa(lp5892
S'22869547'
p5893
ag5
(g6
g7
NtRp5894
((dp5895
S'GO:0031152'
p5896
I01
sS'GO:0008283'
p5897
I01
stbaa(lp5898
S'15821735'
p5899
ag5
(g6
g7
NtRp5900
((dp5901
S'GO:0003723'
p5902
I01
stbaa(lp5903
S'20062541'
p5904
ag5
(g6
g7
NtRp5905
((dp5906
S'GO:0032850'
p5907
I01
sS'GO:0043937'
p5908
I01
sS'GO:0005096'
p5909
I01
stbaa(lp5910
S'15821129'
p5911
ag5
(g6
g7
NtRp5912
((dp5913
S'GO:0004630'
p5914
I01
sS'GO:0007275'
p5915
I01
stbaa(lp5916
S'21531871'
p5917
ag5
(g6
g7
NtRp5918
((dp5919
S'GO:0043234'
p5920
I01
sS'GO:0031941'
p5921
I01
sS'GO:0045921'
p5922
I01
sS'GO:0043326'
p5923
I01
sS'GO:0043327'
p5924
I01
sS'GO:2000249'
p5925
I01
sS'GO:0050765'
p5926
I01
stbaa(lp5927
S'22262860'
p5928
ag5
(g6
g7
NtRp5929
((dp5930
S'GO:0005773'
p5931
I01
sS'GO:0005886'
p5932
I01
stbaa(lp5933
S'23320427'
p5934
ag5
(g6
g7
NtRp5935
((dp5936
S'GO:0006488'
p5937
I01
stbaa(lp5938
S'9394012'
p5939
ag5
(g6
g7
NtRp5940
((dp5941
S'GO:0005773'
p5942
I01
sS'GO:0006887'
p5943
I01
sS'GO:0005886'
p5944
I01
stbaa(lp5945
S'17587329'
p5946
ag5
(g6
g7
NtRp5947
((dp5948
S'GO:0009617'
p5949
I01
stbaa(lp5950
S'17086450'
p5951
ag5
(g6
g7
NtRp5952
((dp5953
S'GO:0015085'
p5954
I01
sS'GO:0070588'
p5955
I01
sS'GO:0006816'
p5956
I01
stbaa(lp5957
S'21040356'
p5958
ag5
(g6
g7
NtRp5959
((dp5960
S'GO:1900756'
p5961
I01
sS'GO:0032026'
p5962
I01
sS'GO:0042742'
p5963
I01
sS'GO:0030670'
p5964
I01
stbaa(lp5965
S'15506982'
p5966
ag5
(g6
g7
NtRp5967
((dp5968
S'GO:0008064'
p5969
I01
sS'GO:0031209'
p5970
I01
stbaa(lp5971
S'19465563'
p5972
ag5
(g6
g7
NtRp5973
((dp5974
S'GO:0006997'
p5975
I01
sS'GO:0007020'
p5976
I01
sS'GO:0005634'
p5977
I01
sS'GO:0005635'
p5978
I01
sS'GO:0000281'
p5979
I01
sS'GO:0006998'
p5980
I01
sS'GO:0010824'
p5981
I01
sS'GO:0051297'
p5982
I01
stbaa(lp5983
S'20539780'
p5984
ag5
(g6
g7
NtRp5985
((dp5986
S'GO:0005654'
p5987
I01
sS'GO:0005737'
p5988
I01
stbaa(lp5989
S'561722'
p5990
ag5
(g6
g7
NtRp5991
((dp5992
S'GO:0030515'
p5993
I01
stbaa(lp5994
S'14729573'
p5995
ag5
(g6
g7
NtRp5996
((dp5997
S'GO:0006355'
p5998
I01
sS'GO:0045595'
p5999
I01
sS'GO:0043565'
p6000
I01
sS'GO:0030587'
p6001
I01
stbaa(lp6002
S'15470429'
p6003
ag5
(g6
g7
NtRp6004
((dp6005
S'GO:0030435'
p6006
I01
stbaa(lp6007
S'22223109'
p6008
ag5
(g6
g7
NtRp6009
((dp6010
S'GO:0034508'
p6011
I01
sS'GO:0030953'
p6012
I01
sS'GO:0000226'
p6013
I01
sS'GO:0031592'
p6014
I01
sS'GO:0007051'
p6015
I01
stbaa(lp6016
S'12686622'
p6017
ag5
(g6
g7
NtRp6018
((dp6019
S'GO:0005737'
p6020
I01
sS'GO:0006468'
p6021
I01
sS'GO:0007189'
p6022
I01
sS'GO:0050921'
p6023
I01
sS'GO:0004672'
p6024
I01
sS'GO:0007275'
p6025
I01
sS'GO:0005938'
p6026
I01
stbaa(lp6027
S'18835579'
p6028
ag5
(g6
g7
NtRp6029
((dp6030
S'GO:0006571'
p6031
I01
sS'GO:0004505'
p6032
I01
sS'GO:0034617'
p6033
I01
sS'GO:0051262'
p6034
I01
sS'GO:0006559'
p6035
I01
stbaa(lp6036
S'23017206'
p6037
ag5
(g6
g7
NtRp6038
((dp6039
S'GO:0004505'
p6040
I01
sS'GO:0051262'
p6041
I01
sS'GO:0042802'
p6042
I01
sS'GO:0008283'
p6043
I01
stbaa(lp6044
S'10793140'
p6045
ag5
(g6
g7
NtRp6046
((dp6047
S'GO:0051093'
p6048
I01
stbaa(lp6049
S'17419997'
p6050
ag5
(g6
g7
NtRp6051
((dp6052
S'GO:0050918'
p6053
I01
sS'GO:0005829'
p6054
I01
sS'GO:0019369'
p6055
I01
sS'GO:0047499'
p6056
I01
sS'GO:0031152'
p6057
I01
stbaa(lp6058
S'22896810'
p6059
ag5
(g6
g7
NtRp6060
((dp6061
S'GO:0031000'
p6062
I01
stbaa(lp6063
S'565823'
p6064
ag5
(g6
g7
NtRp6065
((dp6066
S'GO:0000331'
p6067
I01
stbaa(lp6068
S'12717731'
p6069
ag5
(g6
g7
NtRp6070
((dp6071
S'GO:0004035'
p6072
I01
stbaa(lp6073
S'6273404'
p6074
ag5
(g6
g7
NtRp6075
((dp6076
S'GO:0004035'
p6077
I01
stbaa(lp6078
S'17050736'
p6079
ag5
(g6
g7
NtRp6080
((dp6081
S'GO:0000331'
p6082
I01
sS'GO:0005543'
p6083
I01
sS'GO:0030276'
p6084
I01
sS'GO:0006971'
p6085
I01
sS'GO:0005886'
p6086
I01
sS'GO:0030131'
p6087
I01
stbaa(lp6088
S'17332500'
p6089
ag5
(g6
g7
NtRp6090
((dp6091
S'GO:0046956'
p6092
I01
sS'GO:0006754'
p6093
I01
sS'GO:0007005'
p6094
I01
sS'GO:0008283'
p6095
I01
stbaa(lp6096
S'9716534'
p6097
ag5
(g6
g7
NtRp6098
((dp6099
S'GO:0010043'
p6100
I01
sS'GO:0003677'
p6101
I01
stbaa(lp6102
S'11493573'
p6103
ag5
(g6
g7
NtRp6104
((dp6105
S'GO:0030435'
p6106
I01
sS'GO:0005634'
p6107
I01
sS'GO:0006351'
p6108
I01
sS'GO:0007275'
p6109
I01
stbaa(lp6110
S'18424909'
p6111
ag5
(g6
g7
NtRp6112
((dp6113
S'GO:0005978'
p6114
I01
sS'GO:0030244'
p6115
I01
sS'GO:0000045'
p6116
I01
stbaa(lp6117
S'14665465'
p6118
ag5
(g6
g7
NtRp6119
((dp6120
S'GO:0005759'
p6121
I01
sS'GO:0003924'
p6122
I01
sS'GO:0042802'
p6123
I01
sS'GO:0007005'
p6124
I01
sS'GO:0005525'
p6125
I01
stbaa(lp6126
S'12857872'
p6127
ag5
(g6
g7
NtRp6128
((dp6129
S'GO:0031589'
p6130
I01
sS'GO:0030587'
p6131
I01
sS'GO:0006909'
p6132
I01
sS'GO:0008283'
p6133
I01
stbaa(lp6134
S'18178563'
p6135
ag5
(g6
g7
NtRp6136
((dp6137
S'GO:0033299'
p6138
I01
stbaa(lp6139
S'23301051'
p6140
ag5
(g6
g7
NtRp6141
((dp6142
S'GO:0050821'
p6143
I01
sS'GO:0061462'
p6144
I01
sS'GO:0072657'
p6145
I01
sS'GO:0007042'
p6146
I01
stbaa(lp6147
S'8898200'
p6148
ag5
(g6
g7
NtRp6149
((dp6150
S'GO:0003700'
p6151
I01
sS'GO:0006355'
p6152
I01
sS'GO:0005634'
p6153
I01
sS'GO:0045595'
p6154
I01
stbaa(lp6155
S'21034843'
p6156
ag5
(g6
g7
NtRp6157
((dp6158
S'GO:0071539'
p6159
I01
sS'GO:0019933'
p6160
I01
sS'GO:0005874'
p6161
I01
sS'GO:0030864'
p6162
I01
sS'GO:0005815'
p6163
I01
stbaa(lp6164
S'17177855'
p6165
ag5
(g6
g7
NtRp6166
((dp6167
S'GO:0031589'
p6168
I01
sS'GO:0016337'
p6169
I01
stbaa(lp6170
S'16814427'
p6171
ag5
(g6
g7
NtRp6172
((dp6173
S'GO:0005737'
p6174
I01
sS'GO:0042273'
p6175
I01
sS'GO:0005634'
p6176
I01
sS'GO:0043023'
p6177
I01
sS'GO:0005730'
p6178
I01
stbaa(lp6179
S'16790492'
p6180
ag5
(g6
g7
NtRp6181
((dp6182
S'GO:0031033'
p6183
I01
sS'GO:0015629'
p6184
I01
sS'GO:0004383'
p6185
I01
sS'GO:0031252'
p6186
I01
sS'GO:0006182'
p6187
I01
sS'GO:0006935'
p6188
I01
stbaa(lp6189
S'18073238'
p6190
ag5
(g6
g7
NtRp6191
((dp6192
S'GO:0031276'
p6193
I01
sS'GO:0006935'
p6194
I01
stbaa(lp6195
S'15851518'
p6196
ag5
(g6
g7
NtRp6197
((dp6198
S'GO:0005737'
p6199
I01
sS'GO:0003365'
p6200
I01
sS'GO:0030838'
p6201
I01
sS'GO:0031256'
p6202
I01
sS'GO:0016020'
p6203
I01
sS'GO:0070650'
p6204
I01
sS'GO:0051453'
p6205
I01
sS'GO:0061118'
p6206
I01
stbaa(lp6207
S'21239624'
p6208
ag5
(g6
g7
NtRp6209
((dp6210
S'GO:0036051'
p6211
I01
sS'GO:0097230'
p6212
I01
stbaa(lp6213
S'17880704'
p6214
ag5
(g6
g7
NtRp6215
((dp6216
S'GO:0016259'
p6217
I01
stbaa(lp6218
S'22992462'
p6219
ag5
(g6
g7
NtRp6220
((dp6221
S'GO:0055072'
p6222
I01
sS'GO:0009617'
p6223
I01
sS'GO:0031164'
p6224
I01
sS'GO:0031152'
p6225
I01
stbaa(lp6226
S'16782229'
p6227
ag5
(g6
g7
NtRp6228
((dp6229
S'GO:0005813'
p6230
I01
stbaa(lp6231
S'15629062'
p6232
ag5
(g6
g7
NtRp6233
((dp6234
S'GO:0006355'
p6235
I01
sS'GO:0005634'
p6236
I01
sS'GO:0008270'
p6237
I01
sS'GO:0003677'
p6238
I01
stbaa(lp6239
S'293714'
p6240
ag5
(g6
g7
NtRp6241
((dp6242
S'GO:0005200'
p6243
I01
sS'GO:0015629'
p6244
I01
stbaa(lp6245
S'16299590'
p6246
ag5
(g6
g7
NtRp6247
((dp6248
S'GO:0000271'
p6249
I01
stbaa(lp6250
S'23161062'
p6251
ag5
(g6
g7
NtRp6252
((dp6253
S'GO:0008104'
p6254
I01
sS'GO:0051661'
p6255
I01
sS'GO:0051297'
p6256
I01
sS'GO:0005635'
p6257
I01
sS'GO:0007019'
p6258
I01
stbaa(lp6259
S'23213391'
p6260
ag5
(g6
g7
NtRp6261
((dp6262
S'GO:0007067'
p6263
I01
stbaa(lp6264
S'17588537'
p6265
ag5
(g6
g7
NtRp6266
((dp6267
S'GO:0016338'
p6268
I01
sS'GO:0030587'
p6269
I01
stbaa(lp6270
S'21933174'
p6271
ag5
(g6
g7
NtRp6272
((dp6273
S'GO:0031149'
p6274
I01
sS'GO:0042331'
p6275
I01
sS'GO:0005829'
p6276
I01
sS'GO:0031288'
p6277
I01
sS'GO:0010629'
p6278
I01
sS'GO:0031152'
p6279
I01
sS'GO:0005634'
p6280
I01
stbaa(lp6281
S'21876387'
p6282
ag5
(g6
g7
NtRp6283
((dp6284
S'GO:0005829'
p6285
I01
stbaa(lp6286
S'12117815'
p6287
ag5
(g6
g7
NtRp6288
((dp6289
S'GO:0016337'
p6290
I01
sS'GO:0030154'
p6291
I01
sS'GO:0006928'
p6292
I01
sS'GO:0005576'
p6293
I01
sS'GO:0007165'
p6294
I01
sS'GO:0004871'
p6295
I01
sS'GO:0045861'
p6296
I01
sS'GO:0031158'
p6297
I01
stbaa(lp6298
S'12912898'
p6299
ag5
(g6
g7
NtRp6300
((dp6301
S'GO:0016337'
p6302
I01
sS'GO:0031152'
p6303
I01
sS'GO:0006928'
p6304
I01
sS'GO:0042593'
p6305
I01
sS'GO:0005576'
p6306
I01
sS'GO:0007165'
p6307
I01
sS'GO:0004871'
p6308
I01
stbaa(lp6309
S'10880352'
p6310
ag5
(g6
g7
NtRp6311
((dp6312
S'GO:0005737'
p6313
I01
sS'GO:0004674'
p6314
I01
sS'GO:0005634'
p6315
I01
sS'GO:0006281'
p6316
I01
stbaa(lp6317
S'15640146'
p6318
ag5
(g6
g7
NtRp6319
((dp6320
S'GO:0031983'
p6321
I01
sS'GO:0016023'
p6322
I01
sS'GO:0031410'
p6323
I01
sS'GO:0003796'
p6324
I01
sS'GO:0050830'
p6325
I01
sS'GO:0009253'
p6326
I01
sS'GO:0006909'
p6327
I01
stbaa(lp6328
S'22623154'
p6329
ag5
(g6
g7
NtRp6330
((dp6331
S'GO:0005654'
p6332
I01
sS'GO:0005737'
p6333
I01
sS'GO:0005730'
p6334
I01
stbaa(lp6335
S'18840649'
p6336
ag5
(g6
g7
NtRp6337
((dp6338
S'GO:0005829'
p6339
I01
sS'GO:0035556'
p6340
I01
sS'GO:0030587'
p6341
I01
stbaa(lp6342
S'16449327'
p6343
ag5
(g6
g7
NtRp6344
((dp6345
S'GO:0003779'
p6346
I01
sS'GO:0031269'
p6347
I01
sS'GO:0030864'
p6348
I01
sS'GO:0031252'
p6349
I01
sS'GO:0006928'
p6350
I01
stbaa(lp6351
S'17699599'
p6352
ag5
(g6
g7
NtRp6353
((dp6354
S'GO:0006481'
p6355
I01
sS'GO:0008277'
p6356
I01
sS'GO:0004671'
p6357
I01
sS'GO:0060176'
p6358
I01
sS'GO:0030010'
p6359
I01
stbaa(lp6360
S'22572958'
p6361
ag5
(g6
g7
NtRp6362
((dp6363
S'GO:0034504'
p6364
I01
sS'GO:0006998'
p6365
I01
stbaa(lp6366
S'20940261'
p6367
ag5
(g6
g7
NtRp6368
((dp6369
S'GO:0031143'
p6370
I01
sS'GO:2000145'
p6371
I01
sS'GO:0032970'
p6372
I01
sS'GO:0031288'
p6373
I01
stbaa(lp6374
S'19632001'
p6375
ag5
(g6
g7
NtRp6376
((dp6377
S'GO:0006997'
p6378
I01
sS'GO:0000070'
p6379
I01
sS'GO:0005637'
p6380
I01
sS'GO:0051297'
p6381
I01
sS'GO:0005640'
p6382
I01
sS'GO:0034508'
p6383
I01
sS'GO:0005813'
p6384
I01
sS'GO:0051642'
p6385
I01
stbaa(lp6386
S'15059942'
p6387
ag5
(g6
g7
NtRp6388
((dp6389
S'GO:0042392'
p6390
I01
sS'GO:0005783'
p6391
I01
stbaa(lp6392
S'23391225'
p6393
ag5
(g6
g7
NtRp6394
((dp6395
S'GO:0043326'
p6396
I01
sS'GO:0044351'
p6397
I01
sS'GO:0031152'
p6398
I01
stbaa(lp6399
S'17950724'
p6400
ag5
(g6
g7
NtRp6401
((dp6402
S'GO:0030587'
p6403
I01
sS'GO:0030435'
p6404
I01
sS'GO:0005635'
p6405
I01
sS'GO:0005886'
p6406
I01
sS'GO:0005789'
p6407
I01
stbaa(lp6408
S'9275182'
p6409
ag5
(g6
g7
NtRp6410
((dp6411
S'GO:0005813'
p6412
I01
stbaa(lp6413
S'18948008'
p6414
ag5
(g6
g7
NtRp6415
((dp6416
S'GO:0005099'
p6417
I01
sS'GO:0046578'
p6418
I01
sS'GO:0005622'
p6419
I01
sS'GO:0030833'
p6420
I01
sS'GO:0050920'
p6421
I01
sS'GO:0051896'
p6422
I01
stbaa(lp6423
S'21187070'
p6424
ag5
(g6
g7
NtRp6425
((dp6426
S'GO:0034729'
p6427
I01
sS'GO:0051726'
p6428
I01
sS'GO:0005634'
p6429
I01
sS'GO:0006974'
p6430
I01
sS'GO:0031156'
p6431
I01
sS'GO:0031151'
p6432
I01
stbaa(lp6433
S'9630545'
p6434
ag5
(g6
g7
NtRp6435
((dp6436
S'GO:0030587'
p6437
I01
stbaa(lp6438
S'16899512'
p6439
ag5
(g6
g7
NtRp6440
((dp6441
S'GO:0031252'
p6442
I01
sS'GO:0043327'
p6443
I01
sS'GO:0005515'
p6444
I01
sS'GO:0030041'
p6445
I01
sS'GO:0046847'
p6446
I01
sS'GO:0031269'
p6447
I01
stbaa(lp6448
S'11956323'
p6449
ag5
(g6
g7
NtRp6450
((dp6451
S'GO:0005737'
p6452
I01
sS'GO:0004674'
p6453
I01
sS'GO:0006468'
p6454
I01
sS'GO:0007098'
p6455
I01
sS'GO:0005813'
p6456
I01
stbaa(lp6457
S'7862164'
p6458
ag5
(g6
g7
NtRp6459
((dp6460
S'GO:0000281'
p6461
I01
sS'GO:0030587'
p6462
I01
stbaa(lp6463
S'19576222'
p6464
ag5
(g6
g7
NtRp6465
((dp6466
S'GO:0016575'
p6467
I01
sS'GO:0004407'
p6468
I01
sS'GO:0005634'
p6469
I01
stbaa(lp6470
S'14736886'
p6471
ag5
(g6
g7
NtRp6472
((dp6473
S'GO:0005737'
p6474
I01
sS'GO:0004674'
p6475
I01
sS'GO:0006995'
p6476
I01
sS'GO:0030587'
p6477
I01
sS'GO:0016236'
p6478
I01
sS'GO:0031288'
p6479
I01
sS'GO:0005776'
p6480
I01
sS'GO:0030435'
p6481
I01
stbaa(lp6482
S'16962888'
p6483
ag5
(g6
g7
NtRp6484
((dp6485
S'GO:0006468'
p6486
I01
sS'GO:0007186'
p6487
I01
sS'GO:0004672'
p6488
I01
stbaa(lp6489
S'18408056'
p6490
ag5
(g6
g7
NtRp6491
((dp6492
S'GO:0051270'
p6493
I01
sS'GO:0016791'
p6494
I01
sS'GO:0008138'
p6495
I01
sS'GO:0016311'
p6496
I01
sS'GO:0006470'
p6497
I01
sS'GO:0043407'
p6498
I01
sS'GO:0043327'
p6499
I01
sS'GO:0005576'
p6500
I01
stbaa(lp6501
S'22345351'
p6502
ag5
(g6
g7
NtRp6503
((dp6504
S'GO:0004177'
p6505
I01
sS'GO:0031288'
p6506
I01
sS'GO:0008270'
p6507
I01
stbaa(lp6508
S'22038042'
p6509
ag5
(g6
g7
NtRp6510
((dp6511
S'GO:0005654'
p6512
I01
sS'GO:0005737'
p6513
I01
sS'GO:0005874'
p6514
I01
sS'GO:0005815'
p6515
I01
stbaa(lp6516
S'15236669'
p6517
ag5
(g6
g7
NtRp6518
((dp6519
S'GO:0051093'
p6520
I01
stbaa(lp6521
S'10545500'
p6522
ag5
(g6
g7
NtRp6523
((dp6524
S'GO:0005856'
p6525
I01
sS'GO:0006935'
p6526
I01
sS'GO:0045159'
p6527
I01
sS'GO:0000281'
p6528
I01
sS'GO:0043327'
p6529
I01
sS'GO:0031152'
p6530
I01
sS'GO:0032467'
p6531
I01
stbaa(lp6532
S'18707607'
p6533
ag5
(g6
g7
NtRp6534
((dp6535
S'GO:0005634'
p6536
I01
stbaa(lp6537
S'12626710'
p6538
ag5
(g6
g7
NtRp6539
((dp6540
S'GO:0008270'
p6541
I01
sS'GO:0006208'
p6542
I01
sS'GO:0004157'
p6543
I01
stbaa(lp6544
S'11872142'
p6545
ag5
(g6
g7
NtRp6546
((dp6547
S'GO:0000331'
p6548
I01
sS'GO:0006970'
p6549
I01
sS'GO:0033298'
p6550
I01
stbaa(lp6551
S'15086784'
p6552
ag5
(g6
g7
NtRp6553
((dp6554
S'GO:0005543'
p6555
I01
sS'GO:0031164'
p6556
I01
stbaa(lp6557
S'16781009'
p6558
ag5
(g6
g7
NtRp6559
((dp6560
S'GO:0051764'
p6561
I01
sS'GO:0005770'
p6562
I01
sS'GO:0006887'
p6563
I01
sS'GO:0005938'
p6564
I01
sS'GO:0051015'
p6565
I01
stbaa(lp6566
S'12529423'
p6567
ag5
(g6
g7
NtRp6568
((dp6569
S'GO:0006470'
p6570
I01
sS'GO:0000281'
p6571
I01
sS'GO:0004721'
p6572
I01
sS'GO:0042641'
p6573
I01
stbaa(lp6574
S'10930737'
p6575
ag5
(g6
g7
NtRp6576
((dp6577
S'GO:0008478'
p6578
I01
sS'GO:0042816'
p6579
I01
sS'GO:0031152'
p6580
I01
sS'GO:0008283'
p6581
I01
stbaa(lp6582
S'23577638'
p6583
ag5
(g6
g7
NtRp6584
((dp6585
S'GO:0031285'
p6586
I01
sS'GO:1901261'
p6587
I01
sS'GO:0010468'
p6588
I01
stbaa(lp6589
S'20966074'
p6590
ag5
(g6
g7
NtRp6591
((dp6592
S'GO:0044671'
p6593
I01
sS'GO:0005635'
p6594
I01
sS'GO:0031288'
p6595
I01
sS'GO:0005783'
p6596
I01
sS'GO:0004016'
p6597
I01
stbaa(lp6598
S'9636072'
p6599
ag5
(g6
g7
NtRp6600
((dp6601
S'GO:0030435'
p6602
I01
sS'GO:0005634'
p6603
I01
stbaa(lp6604
S'22682495'
p6605
ag5
(g6
g7
NtRp6606
((dp6607
S'GO:0000224'
p6608
I01
sS'GO:0003810'
p6609
I01
sS'GO:0005634'
p6610
I01
sS'GO:0006517'
p6611
I01
sS'GO:0031152'
p6612
I01
sS'GO:0005829'
p6613
I01
stbaa(lp6614
S'24240571'
p6615
ag5
(g6
g7
NtRp6616
((dp6617
S'GO:0016162'
p6618
I01
sS'GO:0031154'
p6619
I01
sS'GO:0030248'
p6620
I01
stbaa(lp6621
S'16367873'
p6622
ag5
(g6
g7
NtRp6623
((dp6624
S'GO:0042742'
p6625
I01
sS'GO:0006477'
p6626
I01
sS'GO:0008146'
p6627
I01
stbaa(lp6628
S'18708585'
p6629
ag5
(g6
g7
NtRp6630
((dp6631
S'GO:0043326'
p6632
I01
sS'GO:0030837'
p6633
I01
sS'GO:0060176'
p6634
I01
sS'GO:0005815'
p6635
I01
sS'GO:0005881'
p6636
I01
sS'GO:0004674'
p6637
I01
sS'GO:0043327'
p6638
I01
sS'GO:0030010'
p6639
I01
sS'GO:0031272'
p6640
I01
stbaa(lp6641
S'21131095'
p6642
ag5
(g6
g7
NtRp6643
((dp6644
S'GO:0070584'
p6645
I01
sS'GO:0005741'
p6646
I01
sS'GO:0048311'
p6647
I01
stbaa(lp6648
S'11352578'
p6649
ag5
(g6
g7
NtRp6650
((dp6651
S'GO:0033192'
p6652
I01
sS'GO:0006470'
p6653
I01
sS'GO:0005955'
p6654
I01
sS'GO:0005515'
p6655
I01
stbaa(lp6656
S'16512895'
p6657
ag5
(g6
g7
NtRp6658
((dp6659
S'GO:0031287'
p6660
I01
stbaa(lp6661
S'23686520'
p6662
ag5
(g6
g7
NtRp6663
((dp6664
S'GO:0043157'
p6665
I01
sS'GO:0031156'
p6666
I01
stbaa(lp6667
S'9023987'
p6668
ag5
(g6
g7
NtRp6669
((dp6670
S'GO:0005978'
p6671
I01
sS'GO:0004373'
p6672
I01
stbaa(lp6673
S'12840076'
p6674
ag5
(g6
g7
NtRp6675
((dp6676
S'GO:0004784'
p6677
I01
sS'GO:0006801'
p6678
I01
sS'GO:0031152'
p6679
I01
stbaa(lp6680
S'15483055'
p6681
ag5
(g6
g7
NtRp6682
((dp6683
S'GO:0007163'
p6684
I01
sS'GO:0000281'
p6685
I01
sS'GO:0031273'
p6686
I01
stbaa(lp6687
S'20472692'
p6688
ag5
(g6
g7
NtRp6689
((dp6690
S'GO:0009306'
p6691
I01
sS'GO:0005938'
p6692
I01
sS'GO:0031982'
p6693
I01
stbaa(lp6694
S'15255188'
p6695
ag5
(g6
g7
NtRp6696
((dp6697
S'GO:0004869'
p6698
I01
sS'GO:0005829'
p6699
I01
sS'GO:0031982'
p6700
I01
sS'GO:0006508'
p6701
I01
stbaa(lp6702
S'12388544'
p6703
ag5
(g6
g7
NtRp6704
((dp6705
S'GO:0007015'
p6706
I01
sS'GO:0031589'
p6707
I01
sS'GO:0005829'
p6708
I01
sS'GO:0031252'
p6709
I01
sS'GO:0030175'
p6710
I01
sS'GO:0005938'
p6711
I01
sS'GO:0050922'
p6712
I01
sS'GO:0030041'
p6713
I01
sS'GO:0046847'
p6714
I01
stbaa(lp6715
S'16176950'
p6716
ag5
(g6
g7
NtRp6717
((dp6718
S'GO:0043234'
p6719
I01
sS'GO:0008285'
p6720
I01
sS'GO:0016049'
p6721
I01
sS'GO:0005622'
p6722
I01
sS'GO:0030435'
p6723
I01
sS'GO:0031157'
p6724
I01
sS'GO:0005576'
p6725
I01
stbaa(lp6726
S'15643073'
p6727
ag5
(g6
g7
NtRp6728
((dp6729
S'GO:0008284'
p6730
I01
sS'GO:0017050'
p6731
I01
sS'GO:0031143'
p6732
I01
sS'GO:0005634'
p6733
I01
sS'GO:0006648'
p6734
I01
sS'GO:0005829'
p6735
I01
sS'GO:0005524'
p6736
I01
stbaa(lp6737
S'15728726'
p6738
ag5
(g6
g7
NtRp6739
((dp6740
S'GO:0005737'
p6741
I01
sS'GO:0000331'
p6742
I01
sS'GO:0006468'
p6743
I01
sS'GO:0031288'
p6744
I01
sS'GO:0000281'
p6745
I01
sS'GO:0031038'
p6746
I01
sS'GO:0031156'
p6747
I01
sS'GO:0005516'
p6748
I01
sS'GO:0004672'
p6749
I01
sS'GO:0048471'
p6750
I01
sS'GO:0016905'
p6751
I01
stbaa(lp6752
S'14551196'
p6753
ag5
(g6
g7
NtRp6754
((dp6755
S'GO:0042593'
p6756
I01
sS'GO:0004032'
p6757
I01
sS'GO:0005829'
p6758
I01
sS'GO:0031158'
p6759
I01
sS'GO:0006928'
p6760
I01
stbaa(lp6761
S'18990192'
p6762
ag5
(g6
g7
NtRp6763
((dp6764
S'GO:0006979'
p6765
I01
stbaa(lp6766
S'4308724'
p6767
ag5
(g6
g7
NtRp6768
((dp6769
S'GO:0042132'
p6770
I01
sS'GO:0006000'
p6771
I01
stbaa(lp6772
S'3024983'
p6773
ag5
(g6
g7
NtRp6774
((dp6775
S'GO:0042132'
p6776
I01
stbaa(lp6777
S'18712789'
p6778
ag5
(g6
g7
NtRp6779
((dp6780
S'GO:0043146'
p6781
I01
sS'GO:0051231'
p6782
I01
stbaa(lp6783
S'15546981'
p6784
ag5
(g6
g7
NtRp6785
((dp6786
S'GO:0005737'
p6787
I01
sS'GO:0000912'
p6788
I01
sS'GO:0005819'
p6789
I01
sS'GO:0030496'
p6790
I01
sS'GO:0005634'
p6791
I01
sS'GO:0000280'
p6792
I01
sS'GO:0031616'
p6793
I01
sS'GO:0005871'
p6794
I01
sS'GO:0000022'
p6795
I01
sS'GO:0003777'
p6796
I01
stbaa(lp6797
S'23333327'
p6798
ag5
(g6
g7
NtRp6799
((dp6800
S'GO:0035371'
p6801
I01
sS'GO:0007067'
p6802
I01
sS'GO:0005876'
p6803
I01
sS'GO:0003777'
p6804
I01
stbaa(lp6805
S'17031003'
p6806
ag5
(g6
g7
NtRp6807
((dp6808
S'GO:0030435'
p6809
I01
stbaa(lp6810
S'12956949'
p6811
ag5
(g6
g7
NtRp6812
((dp6813
S'GO:0030835'
p6814
I01
stbaa(lp6815
S'20348387'
p6816
ag5
(g6
g7
NtRp6817
((dp6818
S'GO:0036360'
p6819
I01
sS'GO:0031150'
p6820
I01
sS'GO:0005829'
p6821
I01
sS'GO:0031153'
p6822
I01
stbaa(lp6823
S'22689969'
p6824
ag5
(g6
g7
NtRp6825
((dp6826
S'GO:0004672'
p6827
I01
stbaa(lp6828
S'14701681'
p6829
ag5
(g6
g7
NtRp6830
((dp6831
S'GO:0042127'
p6832
I01
sS'GO:0005634'
p6833
I01
sS'GO:0045892'
p6834
I01
sS'GO:0045893'
p6835
I01
sS'GO:0042803'
p6836
I01
stbaa(lp6837
S'14517243'
p6838
ag5
(g6
g7
NtRp6839
((dp6840
S'GO:0031683'
p6841
I01
sS'GO:0008283'
p6842
I01
sS'GO:0005829'
p6843
I01
sS'GO:0043326'
p6844
I01
sS'GO:0043327'
p6845
I01
sS'GO:0008277'
p6846
I01
stbaa(lp6847
S'16135826'
p6848
ag5
(g6
g7
NtRp6849
((dp6850
S'GO:0005829'
p6851
I01
sS'GO:0043497'
p6852
I01
sS'GO:0008277'
p6853
I01
sS'GO:0031399'
p6854
I01
stbaa(lp6855
S'12183371'
p6856
ag5
(g6
g7
NtRp6857
((dp6858
S'GO:0006909'
p6859
I01
sS'GO:0006897'
p6860
I01
sS'GO:0006928'
p6861
I01
stbaa(lp6862
S'17606987'
p6863
ag5
(g6
g7
NtRp6864
((dp6865
S'GO:0006897'
p6866
I01
sS'GO:0006928'
p6867
I01
stbaa(lp6868
S'17085634'
p6869
ag5
(g6
g7
NtRp6870
((dp6871
S'GO:0004691'
p6872
I01
sS'GO:0019933'
p6873
I01
stbaa(lp6874
S'15084313'
p6875
ag5
(g6
g7
NtRp6876
((dp6877
S'GO:0005739'
p6878
I01
sS'GO:0006281'
p6879
I01
stbaa(lp6880
S'17501984'
p6881
ag5
(g6
g7
NtRp6882
((dp6883
S'GO:0031153'
p6884
I01
sS'GO:0030435'
p6885
I01
sS'GO:0030587'
p6886
I01
sS'GO:0031090'
p6887
I01
sS'GO:0005886'
p6888
I01
stbaa(lp6889
S'18367552'
p6890
ag5
(g6
g7
NtRp6891
((dp6892
S'GO:0005737'
p6893
I01
sS'GO:0031149'
p6894
I01
sS'GO:0005634'
p6895
I01
stbaa(lp6896
S'17499244'
p6897
ag5
(g6
g7
NtRp6898
((dp6899
S'GO:0009815'
p6900
I01
sS'GO:0009693'
p6901
I01
stbaa(lp6902
S'21552328'
p6903
ag5
(g6
g7
NtRp6904
((dp6905
S'GO:0072507'
p6906
I01
sS'GO:0016339'
p6907
I01
sS'GO:0030154'
p6908
I01
sS'GO:0060176'
p6909
I01
sS'GO:0031156'
p6910
I01
sS'GO:0006971'
p6911
I01
stbaa(lp6912
S'8647262'
p6913
ag5
(g6
g7
NtRp6914
((dp6915
S'GO:0005737'
p6916
I01
stbaa(lp6917
S'9765812'
p6918
ag5
(g6
g7
NtRp6919
((dp6920
S'GO:0006470'
p6921
I01
sS'GO:0004722'
p6922
I01
stbaa(lp6923
S'8681950'
p6924
ag5
(g6
g7
NtRp6925
((dp6926
S'GO:0005516'
p6927
I01
stbaa(lp6928
S'11831389'
p6929
ag5
(g6
g7
NtRp6930
((dp6931
S'GO:0005770'
p6932
I01
stbaa(lp6933
S'16920105'
p6934
ag5
(g6
g7
NtRp6935
((dp6936
S'GO:0031902'
p6937
I01
stbaa(lp6938
S'17259548'
p6939
ag5
(g6
g7
NtRp6940
((dp6941
S'GO:0031154'
p6942
I01
sS'GO:0000281'
p6943
I01
sS'GO:0006971'
p6944
I01
stbaa(lp6945
S'16343335'
p6946
ag5
(g6
g7
NtRp6947
((dp6948
S'GO:0030670'
p6949
I01
sS'GO:0005829'
p6950
I01
sS'GO:0005544'
p6951
I01
sS'GO:0031164'
p6952
I01
sS'GO:0005886'
p6953
I01
sS'GO:0031902'
p6954
I01
sS'GO:0031901'
p6955
I01
stbaa(lp6956
S'20525180'
p6957
ag5
(g6
g7
NtRp6958
((dp6959
S'GO:0031154'
p6960
I01
sS'GO:0051592'
p6961
I01
sS'GO:0031149'
p6962
I01
sS'GO:0031157'
p6963
I01
stbaa(lp6964
S'21950343'
p6965
ag5
(g6
g7
NtRp6966
((dp6967
S'GO:0046956'
p6968
I01
sS'GO:0060359'
p6969
I01
sS'GO:0043052'
p6970
I01
sS'GO:0040040'
p6971
I01
stbaa(lp6972
S'8670893'
p6973
ag5
(g6
g7
NtRp6974
((dp6975
S'GO:0007234'
p6976
I01
sS'GO:0000155'
p6977
I01
sS'GO:0000156'
p6978
I01
sS'GO:0030435'
p6979
I01
sS'GO:0000160'
p6980
I01
sS'GO:0035556'
p6981
I01
sS'GO:0016021'
p6982
I01
sS'GO:0023014'
p6983
I01
stbaa(lp6984
S'2830141'
p6985
ag5
(g6
g7
NtRp6986
((dp6987
S'GO:0009927'
p6988
I01
stbaa(lp6989
S'11689442'
p6990
ag5
(g6
g7
NtRp6991
((dp6992
S'GO:0019992'
p6993
I01
sS'GO:0005634'
p6994
I01
sS'GO:0016307'
p6995
I01
sS'GO:0031152'
p6996
I01
sS'GO:0046854'
p6997
I01
stbaa(lp6998
S'21819985'
p6999
ag5
(g6
g7
NtRp7000
((dp7001
S'GO:0051287'
p7002
I01
sS'GO:0004155'
p7003
I01
stbaa(lp7004
S'18997329'
p7005
ag5
(g6
g7
NtRp7006
((dp7007
S'GO:0042803'
p7008
I01
stbaa(lp7009
S'20019080'
p7010
ag5
(g6
g7
NtRp7011
((dp7012
S'GO:0004175'
p7013
I01
sS'GO:0005739'
p7014
I01
sS'GO:0006627'
p7015
I01
stbaa(lp7016
S'20351273'
p7017
ag5
(g6
g7
NtRp7018
((dp7019
S'GO:0030041'
p7020
I01
sS'GO:0043327'
p7021
I01
sS'GO:0072657'
p7022
I01
sS'GO:0030010'
p7023
I01
sS'GO:0030587'
p7024
I01
stbaa(lp7025
S'21209787'
p7026
ag5
(g6
g7
NtRp7027
((dp7028
S'GO:0003985'
p7029
I01
stbaa(lp7030
S'10459012'
p7031
ag5
(g6
g7
NtRp7032
((dp7033
S'GO:0005765'
p7034
I01
stbaa(lp7035
S'10329620'
p7036
ag5
(g6
g7
NtRp7037
((dp7038
S'GO:0009966'
p7039
I01
sS'GO:0006508'
p7040
I01
sS'GO:0005829'
p7041
I01
sS'GO:0070012'
p7042
I01
stbaa(lp7043
S'14593072'
p7044
ag5
(g6
g7
NtRp7045
((dp7046
S'GO:0005737'
p7047
I01
sS'GO:0015629'
p7048
I01
sS'GO:0050793'
p7049
I01
sS'GO:0000281'
p7050
I01
sS'GO:0030036'
p7051
I01
sS'GO:0006970'
p7052
I01
sS'GO:0004672'
p7053
I01
sS'GO:0006935'
p7054
I01
stbaa(lp7055
S'15225305'
p7056
ag5
(g6
g7
NtRp7057
((dp7058
S'GO:0050766'
p7059
I01
sS'GO:0006897'
p7060
I01
sS'GO:0008283'
p7061
I01
sS'GO:0031288'
p7062
I01
sS'GO:0005829'
p7063
I01
sS'GO:0004108'
p7064
I01
sS'GO:0005777'
p7065
I01
sS'GO:0006099'
p7066
I01
sS'GO:0006909'
p7067
I01
sS'GO:0006097'
p7068
I01
sS'GO:0006907'
p7069
I01
stbaa(lp7070
S'17031001'
p7071
ag5
(g6
g7
NtRp7072
((dp7073
S'GO:0016236'
p7074
I01
sS'GO:0046777'
p7075
I01
sS'GO:0004672'
p7076
I01
stbaa(lp7077
S'15358773'
p7078
ag5
(g6
g7
NtRp7079
((dp7080
S'GO:0048102'
p7081
I01
stbaa(lp7082
S'17150370'
p7083
ag5
(g6
g7
NtRp7084
((dp7085
S'GO:0070265'
p7086
I01
stbaa(lp7087
S'16473345'
p7088
ag5
(g6
g7
NtRp7089
((dp7090
S'GO:0031154'
p7091
I01
sS'GO:0005635'
p7092
I01
sS'GO:0019933'
p7093
I01
stbaa(lp7094
S'16644729'
p7095
ag5
(g6
g7
NtRp7096
((dp7097
S'GO:0004115'
p7098
I01
sS'GO:0030587'
p7099
I01
sS'GO:0006198'
p7100
I01
sS'GO:0005886'
p7101
I01
stbaa(lp7102
S'15708561'
p7103
ag5
(g6
g7
NtRp7104
((dp7105
S'GO:0008565'
p7106
I01
sS'GO:0005737'
p7107
I01
sS'GO:0031286'
p7108
I01
sS'GO:0000815'
p7109
I01
sS'GO:0005634'
p7110
I01
sS'GO:0008333'
p7111
I01
sS'GO:0045324'
p7112
I01
sS'GO:0007040'
p7113
I01
sS'GO:0045881'
p7114
I01
sS'GO:0001919'
p7115
I01
sS'GO:0009653'
p7116
I01
sS'GO:0005768'
p7117
I01
stbaa(lp7118
S'12385972'
p7119
ag5
(g6
g7
NtRp7120
((dp7121
S'GO:0007275'
p7122
I01
stbaa(lp7123
S'16490188'
p7124
ag5
(g6
g7
NtRp7125
((dp7126
S'GO:0031152'
p7127
I01
sS'GO:0030587'
p7128
I01
stbaa(lp7129
S'12843630'
p7130
ag5
(g6
g7
NtRp7131
((dp7132
S'GO:0006508'
p7133
I01
sS'GO:0004185'
p7134
I01
stbaa(lp7135
S'11029049'
p7136
ag5
(g6
g7
NtRp7137
((dp7138
S'GO:0003756'
p7139
I01
stbaa(lp7140
S'9428745'
p7141
ag5
(g6
g7
NtRp7142
((dp7143
S'GO:0042175'
p7144
I01
sS'GO:0006457'
p7145
I01
sS'GO:0005783'
p7146
I01
stbaa(lp7147
S'12878591'
p7148
ag5
(g6
g7
NtRp7149
((dp7150
S'GO:0046855'
p7151
I01
sS'GO:0004439'
p7152
I01
sS'GO:0000139'
p7153
I01
stbaa(lp7154
S'10444594'
p7155
ag5
(g6
g7
NtRp7156
((dp7157
S'GO:0005576'
p7158
I01
sS'GO:0031158'
p7159
I01
sS'GO:0007165'
p7160
I01
sS'GO:0004871'
p7161
I01
sS'GO:0007275'
p7162
I01
stbaa(lp7163
S'12070154'
p7164
ag5
(g6
g7
NtRp7165
((dp7166
S'GO:0030041'
p7167
I01
sS'GO:0007162'
p7168
I01
sS'GO:0006928'
p7169
I01
stbaa(lp7170
S'11090633'
p7171
ag5
(g6
g7
NtRp7172
((dp7173
S'GO:0007162'
p7174
I01
stbaa(lp7175
S'11371560'
p7176
ag5
(g6
g7
NtRp7177
((dp7178
S'GO:0030827'
p7179
I01
stbaa(lp7180
S'17336445'
p7181
ag5
(g6
g7
NtRp7182
((dp7183
S'GO:0004864'
p7184
I01
sS'GO:0043666'
p7185
I01
stbaa(lp7186
S'17488289'
p7187
ag5
(g6
g7
NtRp7188
((dp7189
S'GO:0005764'
p7190
I01
sS'GO:0045335'
p7191
I01
sS'GO:0001845'
p7192
I01
stbaa(lp7193
S'17606989'
p7194
ag5
(g6
g7
NtRp7195
((dp7196
S'GO:0006887'
p7197
I01
sS'GO:0007040'
p7198
I01
stbaa(lp7199
S'20097741'
p7200
ag5
(g6
g7
NtRp7201
((dp7202
S'GO:0006907'
p7203
I01
sS'GO:0009267'
p7204
I01
stbaa(lp7205
S'17625565'
p7206
ag5
(g6
g7
NtRp7207
((dp7208
S'GO:0009992'
p7209
I01
sS'GO:0031164'
p7210
I01
sS'GO:0006971'
p7211
I01
sS'GO:0005524'
p7212
I01
sS'GO:0015276'
p7213
I01
stbaa(lp7214
S'24128258'
p7215
ag5
(g6
g7
NtRp7216
((dp7217
S'GO:0042466'
p7218
I01
sS'GO:0005783'
p7219
I01
sS'GO:0031318'
p7220
I01
stbaa(lp7221
S'18216168'
p7222
ag5
(g6
g7
NtRp7223
((dp7224
S'GO:0030435'
p7225
I01
sS'GO:0009691'
p7226
I01
stbaa(lp7227
S'12060071'
p7228
ag5
(g6
g7
NtRp7229
((dp7230
S'GO:0006355'
p7231
I01
sS'GO:0016591'
p7232
I01
sS'GO:0043689'
p7233
I01
sS'GO:0031152'
p7234
I01
stbaa(lp7235
S'20479885'
p7236
ag5
(g6
g7
NtRp7237
((dp7238
S'GO:0050821'
p7239
I01
sS'GO:0006979'
p7240
I01
sS'GO:0060176'
p7241
I01
stbaa(lp7242
S'15705570'
p7243
ag5
(g6
g7
NtRp7244
((dp7245
S'GO:0005737'
p7246
I01
sS'GO:0018401'
p7247
I01
sS'GO:0031545'
p7248
I01
stbaa(lp7249
S'17699611'
p7250
ag5
(g6
g7
NtRp7251
((dp7252
S'GO:0031154'
p7253
I01
sS'GO:0072592'
p7254
I01
stbaa(lp7255
S'16410554'
p7256
ag5
(g6
g7
NtRp7257
((dp7258
S'GO:0005737'
p7259
I01
sS'GO:0016070'
p7260
I01
sS'GO:0031143'
p7261
I01
stbaa(lp7262
S'15652353'
p7263
ag5
(g6
g7
NtRp7264
((dp7265
S'GO:0031160'
p7266
I01
sS'GO:0005798'
p7267
I01
sS'GO:0005938'
p7268
I01
sS'GO:0005739'
p7269
I01
sS'GO:0005730'
p7270
I01
stbaa(lp7271
S'15507488'
p7272
ag5
(g6
g7
NtRp7273
((dp7274
S'GO:0030154'
p7275
I01
sS'GO:0007275'
p7276
I01
sS'GO:0005739'
p7277
I01
sS'GO:0005938'
p7278
I01
stbaa(lp7279
S'15652354'
p7280
ag5
(g6
g7
NtRp7281
((dp7282
S'GO:0030435'
p7283
I01
stbaa(lp7284
S'12372338'
p7285
ag5
(g6
g7
NtRp7286
((dp7287
S'GO:0005739'
p7288
I01
sS'GO:0030864'
p7289
I01
stbaa(lp7290
S'16456031'
p7291
ag5
(g6
g7
NtRp7292
((dp7293
S'GO:0005634'
p7294
I01
sS'GO:0031149'
p7295
I01
sS'GO:1900370'
p7296
I01
stbaa(lp7297
S'17343681'
p7298
ag5
(g6
g7
NtRp7299
((dp7300
S'GO:0005829'
p7301
I01
sS'GO:0008283'
p7302
I01
sS'GO:0006911'
p7303
I01
stbaa(lp7304
S'12499361'
p7305
ag5
(g6
g7
NtRp7306
((dp7307
S'GO:0007015'
p7308
I01
sS'GO:0031589'
p7309
I01
sS'GO:0006909'
p7310
I01
sS'GO:0000902'
p7311
I01
sS'GO:0000281'
p7312
I01
sS'GO:0005938'
p7313
I01
stbaa(lp7314
S'16478785'
p7315
ag5
(g6
g7
NtRp7316
((dp7317
S'GO:0000331'
p7318
I01
sS'GO:0005768'
p7319
I01
sS'GO:0005515'
p7320
I01
sS'GO:0005886'
p7321
I01
stbaa(lp7322
S'11102804'
p7323
ag5
(g6
g7
NtRp7324
((dp7325
S'GO:0050766'
p7326
I01
sS'GO:0051271'
p7327
I01
sS'GO:0006909'
p7328
I01
sS'GO:0006935'
p7329
I01
sS'GO:0005085'
p7330
I01
sS'GO:0030866'
p7331
I01
sS'GO:0000281'
p7332
I01
sS'GO:0045807'
p7333
I01
sS'GO:0031152'
p7334
I01
sS'GO:0007265'
p7335
I01
sS'GO:0007275'
p7336
I01
stbaa(lp7337
S'12429831'
p7338
ag5
(g6
g7
NtRp7339
((dp7340
S'GO:0047555'
p7341
I01
sS'GO:0005829'
p7342
I01
sS'GO:0007165'
p7343
I01
stbaa(lp7344
S'12429832'
p7345
ag5
(g6
g7
NtRp7346
((dp7347
S'GO:0019934'
p7348
I01
stbaa(lp7349
S'16155255'
p7350
ag5
(g6
g7
NtRp7351
((dp7352
S'GO:0040011'
p7353
I01
sS'GO:0031154'
p7354
I01
sS'GO:0031589'
p7355
I01
sS'GO:0016477'
p7356
I01
sS'GO:0030175'
p7357
I01
sS'GO:0005925'
p7358
I01
stbaa(lp7359
S'16900100'
p7360
ag5
(g6
g7
NtRp7361
((dp7362
S'GO:0005925'
p7363
I01
sS'GO:0031254'
p7364
I01
stbaa(lp7365
S'19213599'
p7366
ag5
(g6
g7
NtRp7367
((dp7368
S'GO:0040011'
p7369
I01
sS'GO:0043326'
p7370
I01
sS'GO:0031589'
p7371
I01
sS'GO:0006897'
p7372
I01
sS'GO:0016339'
p7373
I01
sS'GO:0031154'
p7374
I01
sS'GO:0016477'
p7375
I01
stbaa(lp7376
S'22730904'
p7377
ag5
(g6
g7
NtRp7378
((dp7379
S'GO:0016020'
p7380
I01
sS'GO:0017064'
p7381
I01
stbaa(lp7382
S'23187822'
p7383
ag5
(g6
g7
NtRp7384
((dp7385
S'GO:0070291'
p7386
I01
stbaa(lp7387
S'16734666'
p7388
ag5
(g6
g7
NtRp7389
((dp7390
S'GO:0005737'
p7391
I01
stbaa(lp7392
S'18703517'
p7393
ag5
(g6
g7
NtRp7394
((dp7395
S'GO:0005088'
p7396
I01
sS'GO:0046579'
p7397
I01
stbaa(lp7398
S'22119747'
p7399
ag5
(g6
g7
NtRp7400
((dp7401
S'GO:0005737'
p7402
I01
sS'GO:0005543'
p7403
I01
sS'GO:0019934'
p7404
I01
sS'GO:0005938'
p7405
I01
sS'GO:0005886'
p7406
I01
sS'GO:0005525'
p7407
I01
stbaa(lp7408
S'18673369'
p7409
ag5
(g6
g7
NtRp7410
((dp7411
S'GO:0030553'
p7412
I01
sS'GO:0050920'
p7413
I01
stbaa(lp7414
S'14686953'
p7415
ag5
(g6
g7
NtRp7416
((dp7417
S'GO:0050793'
p7418
I01
sS'GO:0008519'
p7419
I01
sS'GO:0015696'
p7420
I01
stbaa(lp7421
S'16188250'
p7422
ag5
(g6
g7
NtRp7423
((dp7424
S'GO:0031154'
p7425
I01
stbaa(lp7426
S'12475956'
p7427
ag5
(g6
g7
NtRp7428
((dp7429
S'GO:0031037'
p7430
I01
sS'GO:0006468'
p7431
I01
sS'GO:0005826'
p7432
I01
sS'GO:0000281'
p7433
I01
sS'GO:0004674'
p7434
I01
sS'GO:0005938'
p7435
I01
sS'GO:0016905'
p7436
I01
stbaa(lp7437
S'16336640'
p7438
ag5
(g6
g7
NtRp7439
((dp7440
S'GO:0050850'
p7441
I01
sS'GO:0043327'
p7442
I01
sS'GO:0045762'
p7443
I01
stbaa(lp7444
S'20709790'
p7445
ag5
(g6
g7
NtRp7446
((dp7447
S'GO:0005737'
p7448
I01
sS'GO:0006997'
p7449
I01
sS'GO:0016049'
p7450
I01
sS'GO:0048837'
p7451
I01
sS'GO:0008285'
p7452
I01
stbaa(lp7453
S'12954783'
p7454
ag5
(g6
g7
NtRp7455
((dp7456
S'GO:0008285'
p7457
I01
sS'GO:0007264'
p7458
I01
sS'GO:0031158'
p7459
I01
stbaa(lp7460
S'11157987'
p7461
ag5
(g6
g7
NtRp7462
((dp7463
S'GO:0006909'
p7464
I01
sS'GO:0005739'
p7465
I01
sS'GO:0043327'
p7466
I01
sS'GO:0031152'
p7467
I01
sS'GO:0016477'
p7468
I01
sS'GO:0031319'
p7469
I01
stbaa(lp7470
S'14623897'
p7471
ag5
(g6
g7
NtRp7472
((dp7473
S'GO:0005737'
p7474
I01
sS'GO:0008017'
p7475
I01
sS'GO:0051017'
p7476
I01
sS'GO:0031252'
p7477
I01
sS'GO:0051015'
p7478
I01
sS'GO:0030864'
p7479
I01
stbaa(lp7480
S'10593934'
p7481
ag5
(g6
g7
NtRp7482
((dp7483
S'GO:0005737'
p7484
I01
sS'GO:0008375'
p7485
I01
stbaa(lp7486
S'12244115'
p7487
ag5
(g6
g7
NtRp7488
((dp7489
S'GO:0005737'
p7490
I01
sS'GO:0008375'
p7491
I01
sS'GO:0006486'
p7492
I01
stbaa(lp7493
S'9446571'
p7494
ag5
(g6
g7
NtRp7495
((dp7496
S'GO:0005622'
p7497
I01
stbaa(lp7498
S'11163223'
p7499
ag5
(g6
g7
NtRp7500
((dp7501
S'GO:0031148'
p7502
I01
sS'GO:0008757'
p7503
I01
sS'GO:0031154'
p7504
I01
sS'GO:0030435'
p7505
I01
sS'GO:0045595'
p7506
I01
sS'GO:0008171'
p7507
I01
stbaa(lp7508
S'15276209'
p7509
ag5
(g6
g7
NtRp7510
((dp7511
S'GO:0007275'
p7512
I01
stbaa(lp7513
S'15757670'
p7514
ag5
(g6
g7
NtRp7515
((dp7516
S'GO:0009653'
p7517
I01
stbaa(lp7518
S'17623773'
p7519
ag5
(g6
g7
NtRp7520
((dp7521
S'GO:0051285'
p7522
I01
sS'GO:0006935'
p7523
I01
sS'GO:0006928'
p7524
I01
stbaa(lp7525
S'11737154'
p7526
ag5
(g6
g7
NtRp7527
((dp7528
S'GO:0016337'
p7529
I01
sS'GO:0031152'
p7530
I01
stbaa(lp7531
S'9880338'
p7532
ag5
(g6
g7
NtRp7533
((dp7534
S'GO:0005737'
p7535
I01
sS'GO:0006997'
p7536
I01
sS'GO:0006909'
p7537
I01
sS'GO:0032195'
p7538
I01
sS'GO:0006907'
p7539
I01
sS'GO:0031288'
p7540
I01
sS'GO:0000920'
p7541
I01
sS'GO:0007032'
p7542
I01
sS'GO:0007163'
p7543
I01
sS'GO:0007005'
p7544
I01
stbaa(lp7545
S'11823417'
p7546
ag5
(g6
g7
NtRp7547
((dp7548
S'GO:0006184'
p7549
I01
sS'GO:0005543'
p7550
I01
sS'GO:0003924'
p7551
I01
sS'GO:0042802'
p7552
I01
sS'GO:0005525'
p7553
I01
stbaa(lp7554
S'16527408'
p7555
ag5
(g6
g7
NtRp7556
((dp7557
S'GO:0006729'
p7558
I01
sS'GO:0003934'
p7559
I01
stbaa(lp7560
S'8870645'
p7561
ag5
(g6
g7
NtRp7562
((dp7563
S'GO:0006729'
p7564
I01
sS'GO:0003934'
p7565
I01
stbaa(lp7566
S'9169048'
p7567
ag5
(g6
g7
NtRp7568
((dp7569
S'GO:0005737'
p7570
I01
sS'GO:0031154'
p7571
I01
sS'GO:0005773'
p7572
I01
stbaa(lp7573
S'9348538'
p7574
ag5
(g6
g7
NtRp7575
((dp7576
S'GO:0009653'
p7577
I01
sS'GO:0004842'
p7578
I01
stbaa(lp7579
S'9102307'
p7580
ag5
(g6
g7
NtRp7581
((dp7582
S'GO:0031154'
p7583
I01
sS'GO:0040011'
p7584
I01
sS'GO:0017124'
p7585
I01
sS'GO:0031152'
p7586
I01
sS'GO:0042803'
p7587
I01
stbaa(lp7588
S'9397534'
p7589
ag5
(g6
g7
NtRp7590
((dp7591
S'GO:0031288'
p7592
I01
stbaa(lp7593
S'19861424'
p7594
ag5
(g6
g7
NtRp7595
((dp7596
S'GO:0006390'
p7597
I01
sS'GO:0003899'
p7598
I01
sS'GO:0003677'
p7599
I01
stbaa(lp7600
S'9808785'
p7601
ag5
(g6
g7
NtRp7602
((dp7603
S'GO:0009847'
p7604
I01
stbaa(lp7605
S'15788570'
p7606
ag5
(g6
g7
NtRp7607
((dp7608
S'GO:0006907'
p7609
I01
sS'GO:0005886'
p7610
I01
stbaa(lp7611
S'8831554'
p7612
ag5
(g6
g7
NtRp7613
((dp7614
S'GO:0016020'
p7615
I01
stbaa(lp7616
S'15196949'
p7617
ag5
(g6
g7
NtRp7618
((dp7619
S'GO:0006468'
p7620
I01
sS'GO:0005634'
p7621
I01
sS'GO:0070816'
p7622
I01
sS'GO:0031152'
p7623
I01
sS'GO:0008353'
p7624
I01
sS'GO:0005829'
p7625
I01
sS'GO:0005524'
p7626
I01
stbaa(lp7627
S'11481037'
p7628
ag5
(g6
g7
NtRp7629
((dp7630
S'GO:0005737'
p7631
I01
sS'GO:0016020'
p7632
I01
sS'GO:0005509'
p7633
I01
stbaa(lp7634
S'11927596'
p7635
ag5
(g6
g7
NtRp7636
((dp7637
S'GO:0005737'
p7638
I01
sS'GO:0005634'
p7639
I01
sS'GO:0005509'
p7640
I01
sS'GO:0005515'
p7641
I01
sS'GO:0046982'
p7642
I01
sS'GO:0042803'
p7643
I01
stbaa(lp7644
S'12018385'
p7645
ag5
(g6
g7
NtRp7646
((dp7647
S'GO:0005813'
p7648
I01
sS'GO:0043015'
p7649
I01
stbaa(lp7650
S'11683919'
p7651
ag5
(g6
g7
NtRp7652
((dp7653
S'GO:0003779'
p7654
I01
sS'GO:0030042'
p7655
I01
sS'GO:0015629'
p7656
I01
stbaa(lp7657
S'19411624'
p7658
ag5
(g6
g7
NtRp7659
((dp7660
S'GO:0043234'
p7661
I01
sS'GO:0005634'
p7662
I01
sS'GO:0030163'
p7663
I01
stbaa(lp7664
S'15367206'
p7665
ag5
(g6
g7
NtRp7666
((dp7667
S'GO:0045597'
p7668
I01
sS'GO:0005576'
p7669
I01
stbaa(lp7670
S'21256841'
p7671
ag5
(g6
g7
NtRp7672
((dp7673
S'GO:0000421'
p7674
I01
sS'GO:0005774'
p7675
I01
stbaa(lp7676
S'16835443'
p7677
ag5
(g6
g7
NtRp7678
((dp7679
S'GO:0030587'
p7680
I01
sS'GO:0008283'
p7681
I01
stbaa(lp7682
S'17951519'
p7683
ag5
(g6
g7
NtRp7684
((dp7685
S'GO:0031159'
p7686
I01
sS'GO:0015696'
p7687
I01
stbaa(lp7688
S'17010123'
p7689
ag5
(g6
g7
NtRp7690
((dp7691
S'GO:0007032'
p7692
I01
stbaa(lp7693
S'17889831'
p7694
ag5
(g6
g7
NtRp7695
((dp7696
S'GO:0070265'
p7697
I01
sS'GO:0048102'
p7698
I01
stbaa(lp7699
S'15363631'
p7700
ag5
(g6
g7
NtRp7701
((dp7702
S'GO:0006096'
p7703
I01
sS'GO:0004618'
p7704
I01
sS'GO:0005516'
p7705
I01
sS'GO:0006094'
p7706
I01
stbaa(lp7707
S'17004322'
p7708
ag5
(g6
g7
NtRp7709
((dp7710
S'GO:0000331'
p7711
I01
sS'GO:0008104'
p7712
I01
sS'GO:0006909'
p7713
I01
sS'GO:0005783'
p7714
I01
sS'GO:0005794'
p7715
I01
sS'GO:0006907'
p7716
I01
sS'GO:0006887'
p7717
I01
sS'GO:0000281'
p7718
I01
sS'GO:0005764'
p7719
I01
sS'GO:0048388'
p7720
I01
sS'GO:0030833'
p7721
I01
sS'GO:0016020'
p7722
I01
stbaa(lp7723
S'19325115'
p7724
ag5
(g6
g7
NtRp7725
((dp7726
S'GO:0042742'
p7727
I01
stbaa(lp7728
S'9546041'
p7729
ag5
(g6
g7
NtRp7730
((dp7731
S'GO:0003746'
p7732
I01
sS'GO:0006414'
p7733
I01
sS'GO:0005853'
p7734
I01
stbaa(lp7735
S'11479029'
p7736
ag5
(g6
g7
NtRp7737
((dp7738
S'GO:0005737'
p7739
I01
sS'GO:0030041'
p7740
I01
sS'GO:0003785'
p7741
I01
sS'GO:0005938'
p7742
I01
stbaa(lp7743
S'11598188'
p7744
ag5
(g6
g7
NtRp7745
((dp7746
S'GO:0030261'
p7747
I01
sS'GO:0005634'
p7748
I01
sS'GO:0005739'
p7749
I01
sS'GO:0006308'
p7750
I01
stbaa(lp7751
S'15883156'
p7752
ag5
(g6
g7
NtRp7753
((dp7754
S'GO:0012506'
p7755
I01
stbaa(lp7756
S'15728724'
p7757
ag5
(g6
g7
NtRp7758
((dp7759
S'GO:0015629'
p7760
I01
sS'GO:0030950'
p7761
I01
sS'GO:0030838'
p7762
I01
sS'GO:0017048'
p7763
I01
sS'GO:0005547'
p7764
I01
sS'GO:0005546'
p7765
I01
stbaa(lp7766
S'12756178'
p7767
ag5
(g6
g7
NtRp7768
((dp7769
S'GO:0016021'
p7770
I01
sS'GO:0045595'
p7771
I01
stbaa(lp7772
S'17056744'
p7773
ag5
(g6
g7
NtRp7774
((dp7775
S'GO:0045595'
p7776
I01
stbaa(lp7777
S'10970875'
p7778
ag5
(g6
g7
NtRp7779
((dp7780
S'GO:0005220'
p7781
I01
sS'GO:0016021'
p7782
I01
sS'GO:0048016'
p7783
I01
sS'GO:0006816'
p7784
I01
sS'GO:0015085'
p7785
I01
stbaa(lp7786
S'17077123'
p7787
ag5
(g6
g7
NtRp7788
((dp7789
S'GO:0006816'
p7790
I01
stbaa(lp7791
S'18077554'
p7792
ag5
(g6
g7
NtRp7793
((dp7794
S'GO:0048102'
p7795
I01
sS'GO:0030244'
p7796
I01
stbaa(lp7797
S'18202452'
p7798
ag5
(g6
g7
NtRp7799
((dp7800
S'GO:0034670'
p7801
I01
stbaa(lp7802
S'18359017'
p7803
ag5
(g6
g7
NtRp7804
((dp7805
S'GO:0051209'
p7806
I01
stbaa(lp7807
S'10804029'
p7808
ag5
(g6
g7
NtRp7809
((dp7810
S'GO:0045337'
p7811
I01
sS'GO:0005829'
p7812
I01
sS'GO:0004337'
p7813
I01
stbaa(lp7814
S'22849378'
p7815
ag5
(g6
g7
NtRp7816
((dp7817
S'GO:0042493'
p7818
I01
sS'GO:0005777'
p7819
I01
stbaa(lp7820
S'16005849'
p7821
ag5
(g6
g7
NtRp7822
((dp7823
S'GO:0042493'
p7824
I01
stbaa(lp7825
S'10828443'
p7826
ag5
(g6
g7
NtRp7827
((dp7828
S'GO:0030676'
p7829
I01
sS'GO:0042995'
p7830
I01
sS'GO:0000146'
p7831
I01
stbaa(lp7832
S'11208126'
p7833
ag5
(g6
g7
NtRp7834
((dp7835
S'GO:0030676'
p7836
I01
sS'GO:0000146'
p7837
I01
sS'GO:0016887'
p7838
I01
sS'GO:0051015'
p7839
I01
sS'GO:0006200'
p7840
I01
sS'GO:0016461'
p7841
I01
sS'GO:0035020'
p7842
I01
sS'GO:0006971'
p7843
I01
sS'GO:0006972'
p7844
I01
sS'GO:0031268'
p7845
I01
sS'GO:0005524'
p7846
I01
stbaa(lp7847
S'11267868'
p7848
ag5
(g6
g7
NtRp7849
((dp7850
S'GO:0030175'
p7851
I01
sS'GO:0005829'
p7852
I01
sS'GO:0046847'
p7853
I01
sS'GO:0031252'
p7854
I01
sS'GO:0001891'
p7855
I01
stbaa(lp7856
S'10574761'
p7857
ag5
(g6
g7
NtRp7858
((dp7859
S'GO:0006909'
p7860
I01
stbaa(lp7861
S'15470238'
p7862
ag5
(g6
g7
NtRp7863
((dp7864
S'GO:0009847'
p7865
I01
stbaa(lp7866
S'17189480'
p7867
ag5
(g6
g7
NtRp7868
((dp7869
S'GO:0043621'
p7870
I01
stbaa(lp7871
S'21086149'
p7872
ag5
(g6
g7
NtRp7873
((dp7874
S'GO:0000331'
p7875
I01
sS'GO:0031589'
p7876
I01
sS'GO:0016337'
p7877
I01
sS'GO:0031143'
p7878
I01
sS'GO:0060151'
p7879
I01
sS'GO:0071476'
p7880
I01
sS'GO:0045335'
p7881
I01
sS'GO:0005741'
p7882
I01
sS'GO:0016049'
p7883
I01
sS'GO:0005886'
p7884
I01
sS'GO:0006909'
p7885
I01
stbaa(lp7886
S'10681463'
p7887
ag5
(g6
g7
NtRp7888
((dp7889
S'GO:0031150'
p7890
I01
sS'GO:0016760'
p7891
I01
sS'GO:0030244'
p7892
I01
stbaa(lp7893
S'12654899'
p7894
ag5
(g6
g7
NtRp7895
((dp7896
S'GO:0048102'
p7897
I01
stbaa(lp7898
S'21327858'
p7899
ag5
(g6
g7
NtRp7900
((dp7901
S'GO:0005654'
p7902
I01
sS'GO:0005813'
p7903
I01
sS'GO:0005635'
p7904
I01
sS'GO:0005730'
p7905
I01
stbaa(lp7906
S'10652255'
p7907
ag5
(g6
g7
NtRp7908
((dp7909
S'GO:0005737'
p7910
I01
sS'GO:0033109'
p7911
I01
sS'GO:0001726'
p7912
I01
sS'GO:0031252'
p7913
I01
sS'GO:0051015'
p7914
I01
sS'GO:0006911'
p7915
I01
sS'GO:2000147'
p7916
I01
sS'GO:0070685'
p7917
I01
sS'GO:0001891'
p7918
I01
stbaa(lp7919
S'10898960'
p7920
ag5
(g6
g7
NtRp7921
((dp7922
S'GO:0031154'
p7923
I01
sS'GO:0016567'
p7924
I01
sS'GO:0045595'
p7925
I01
sS'GO:0004842'
p7926
I01
stbaa(lp7927
S'10725352'
p7928
ag5
(g6
g7
NtRp7929
((dp7930
S'GO:0045595'
p7931
I01
stbaa(lp7932
S'10504413'
p7933
ag5
(g6
g7
NtRp7934
((dp7935
S'GO:0016491'
p7936
I01
sS'GO:0006636'
p7937
I01
sS'GO:0005886'
p7938
I01
stbaa(lp7939
S'15632431'
p7940
ag5
(g6
g7
NtRp7941
((dp7942
S'GO:0009408'
p7943
I01
sS'GO:0007275'
p7944
I01
stbaatRp7945
.