ccollections
OrderedDict
p1
((lp2
(lp3
S'15473840'
p4
accopy_reg
_reconstructor
p5
(csets
Set
p6
c__builtin__
object
p7
NtRp8
((dp9
S'GO:0005829'
p10
I01
sS'GO:0016020'
p11
I01
sS'GO:0005622'
p12
I01
sS'GO:0005576'
p13
I01
sS'GO:0005887'
p14
I01
sS'GO:0005886'
p15
I01
sS'GO:0016021'
p16
I01
stbaa(lp17
S'16926386'
p18
ag5
(g6
g7
NtRp19
((dp20
S'GO:0045335'
p21
I01
stbaa(lp22
S'20422638'
p23
ag5
(g6
g7
NtRp24
((dp25
S'GO:0005615'
p26
I01
stbaa(lp27
S'19482547'
p28
ag5
(g6
g7
NtRp29
((dp30
S'GO:0045335'
p31
I01
stbaa(lp32
S'21193547'
p33
ag5
(g6
g7
NtRp34
((dp35
S'GO:0000792'
p36
I01
sS'GO:0005634'
p37
I01
stbaa(lp38
S'8710499'
p39
ag5
(g6
g7
NtRp40
((dp41
S'GO:0005634'
p42
I01
stbaa(lp43
S'21190565'
p44
ag5
(g6
g7
NtRp45
((dp46
S'GO:0030670'
p47
I01
sS'GO:0001891'
p48
I01
stbaa(lp49
S'21401524'
p50
ag5
(g6
g7
NtRp51
((dp52
S'GO:0031143'
p53
I01
sS'GO:0005885'
p54
I01
sS'GO:0005905'
p55
I01
sS'GO:0031252'
p56
I01
stbaa(lp57
S'9171087'
p58
ag5
(g6
g7
NtRp59
((dp60
S'GO:0005675'
p61
I01
stbaa(lp62
S'9226443'
p63
ag5
(g6
g7
NtRp64
((dp65
S'GO:0005654'
p66
I01
sS'GO:0005634'
p67
I01
stbaa(lp68
S'21085675'
p69
ag5
(g6
g7
NtRp70
((dp71
S'GO:0030175'
p72
I01
sS'GO:0005829'
p73
I01
sS'GO:0005938'
p74
I01
sS'GO:0032154'
p75
I01
stbaa(lp76
S'21179207'
p77
ag5
(g6
g7
NtRp78
((dp79
S'GO:0005794'
p80
I01
sS'GO:0005829'
p81
I01
sS'GO:0045335'
p82
I01
sS'GO:0044354'
p83
I01
sS'GO:0005886'
p84
I01
stbaa(lp85
S'23264736'
p86
ag5
(g6
g7
NtRp87
((dp88
S'GO:0000242'
p89
I01
sS'GO:0005829'
p90
I01
sS'GO:0032154'
p91
I01
sS'GO:0030175'
p92
I01
sS'GO:0005938'
p93
I01
sS'GO:0005886'
p94
I01
sS'GO:0031941'
p95
I01
sS'GO:0048471'
p96
I01
stbaa(lp97
S'11032815'
p98
ag5
(g6
g7
NtRp99
((dp100
S'GO:0005634'
p101
I01
stbaa(lp102
S'12506009'
p103
ag5
(g6
g7
NtRp104
((dp105
S'GO:0005634'
p106
I01
stbaa(lp107
S'9670017'
p108
ag5
(g6
g7
NtRp109
((dp110
S'GO:0005634'
p111
I01
sS'GO:0005829'
p112
I01
stbaa(lp113
S'14561408'
p114
ag5
(g6
g7
NtRp115
((dp116
S'GO:0005770'
p117
I01
stbaa(lp118
S'9276759'
p119
ag5
(g6
g7
NtRp120
((dp121
S'GO:0005773'
p122
I01
stbaa(lp123
S'16445684'
p124
ag5
(g6
g7
NtRp125
((dp126
S'GO:0032010'
p127
I01
sS'GO:0045335'
p128
I01
sS'GO:0005802'
p129
I01
stbaa(lp130
S'9585512'
p131
ag5
(g6
g7
NtRp132
((dp133
S'GO:0001726'
p134
I01
sS'GO:0016020'
p135
I01
stbaa(lp136
S'9620859'
p137
ag5
(g6
g7
NtRp138
((dp139
S'GO:0005634'
p140
I01
stbaa(lp141
S'9207087'
p142
ag5
(g6
g7
NtRp143
((dp144
S'GO:0005737'
p145
I01
stbaa(lp146
S'11229601'
p147
ag5
(g6
g7
NtRp148
((dp149
S'GO:0000331'
p150
I01
sS'GO:0005794'
p151
I01
sS'GO:0016021'
p152
I01
sS'GO:0005789'
p153
I01
sS'GO:0030173'
p154
I01
sS'GO:0010008'
p155
I01
stbaa(lp156
S'23132928'
p157
ag5
(g6
g7
NtRp158
((dp159
S'GO:0031143'
p160
I01
sS'GO:0005829'
p161
I01
sS'GO:0044354'
p162
I01
sS'GO:0005886'
p163
I01
stbaa(lp164
S'14711408'
p165
ag5
(g6
g7
NtRp166
((dp167
S'GO:0031252'
p168
I01
sS'GO:0015629'
p169
I01
sS'GO:0030864'
p170
I01
stbaa(lp171
S'15894626'
p172
ag5
(g6
g7
NtRp173
((dp174
S'GO:0030175'
p175
I01
sS'GO:0030864'
p176
I01
stbaa(lp177
S'15527790'
p178
ag5
(g6
g7
NtRp179
((dp180
S'GO:0005783'
p181
I01
sS'GO:0005634'
p182
I01
sS'GO:0005874'
p183
I01
sS'GO:0015629'
p184
I01
sS'GO:0001891'
p185
I01
stbaa(lp186
S'11390363'
p187
ag5
(g6
g7
NtRp188
((dp189
S'GO:0019005'
p190
I01
stbaa(lp191
S'18042625'
p192
ag5
(g6
g7
NtRp193
((dp194
S'GO:0005737'
p195
I01
sS'GO:0005813'
p196
I01
sS'GO:0032154'
p197
I01
stbaa(lp198
S'9582328'
p199
ag5
(g6
g7
NtRp200
((dp201
S'GO:0015629'
p202
I01
stbaa(lp203
S'16842885'
p204
ag5
(g6
g7
NtRp205
((dp206
S'GO:0005737'
p207
I01
sS'GO:0005938'
p208
I01
stbaa(lp209
S'17362909'
p210
ag5
(g6
g7
NtRp211
((dp212
S'GO:0005737'
p213
I01
stbaa(lp214
S'9802899'
p215
ag5
(g6
g7
NtRp216
((dp217
S'GO:0005622'
p218
I01
stbaa(lp219
S'18266910'
p220
ag5
(g6
g7
NtRp221
((dp222
S'GO:0005654'
p223
I01
sS'GO:0005637'
p224
I01
sS'GO:0005635'
p225
I01
stbaa(lp226
S'9700162'
p227
ag5
(g6
g7
NtRp228
((dp229
S'GO:0042175'
p230
I01
sS'GO:0005789'
p231
I01
stbaa(lp232
S'17553489'
p233
ag5
(g6
g7
NtRp234
((dp235
S'GO:0005938'
p236
I01
stbaa(lp237
S'11854420'
p238
ag5
(g6
g7
NtRp239
((dp240
S'GO:0005764'
p241
I01
stbaa(lp242
S'12413895'
p243
ag5
(g6
g7
NtRp244
((dp245
S'GO:0005737'
p246
I01
stbaa(lp247
S'9389653'
p248
ag5
(g6
g7
NtRp249
((dp250
S'GO:0005829'
p251
I01
sS'GO:0016021'
p252
I01
stbaa(lp253
S'16079174'
p254
ag5
(g6
g7
NtRp255
((dp256
S'GO:0031932'
p257
I01
stbaa(lp258
S'11004503'
p259
ag5
(g6
g7
NtRp260
((dp261
S'GO:0005829'
p262
I01
sS'GO:0005777'
p263
I01
stbaa(lp264
S'17825085'
p265
ag5
(g6
g7
NtRp266
((dp267
S'GO:0030141'
p268
I01
sS'GO:0005783'
p269
I01
stbaa(lp270
S'10712614'
p271
ag5
(g6
g7
NtRp272
((dp273
S'GO:0005886'
p274
I01
stbaa(lp275
S'17296313'
p276
ag5
(g6
g7
NtRp277
((dp278
S'GO:0005885'
p279
I01
stbaa(lp280
S'22891261'
p281
ag5
(g6
g7
NtRp282
((dp283
S'GO:0031143'
p284
I01
sS'GO:0032433'
p285
I01
sS'GO:0031252'
p286
I01
sS'GO:0005911'
p287
I01
stbaa(lp288
S'22264729'
p289
ag5
(g6
g7
NtRp290
((dp291
S'GO:0005737'
p292
I01
sS'GO:0030864'
p293
I01
sS'GO:0031252'
p294
I01
sS'GO:0044354'
p295
I01
sS'GO:0005886'
p296
I01
stbaa(lp297
S'15726806'
p298
ag5
(g6
g7
NtRp299
((dp300
S'GO:0045335'
p301
I01
sS'GO:0008290'
p302
I01
sS'GO:0005885'
p303
I01
sS'GO:0015629'
p304
I01
stbaa(lp305
S'14710184'
p306
ag5
(g6
g7
NtRp307
((dp308
S'GO:0005885'
p309
I01
stbaa(lp310
S'16971511'
p311
ag5
(g6
g7
NtRp312
((dp313
S'GO:0000331'
p314
I01
sS'GO:0045335'
p315
I01
sS'GO:0030670'
p316
I01
stbaa(lp317
S'19589376'
p318
ag5
(g6
g7
NtRp319
((dp320
S'GO:0031982'
p321
I01
stbaa(lp322
S'9837757'
p323
ag5
(g6
g7
NtRp324
((dp325
S'GO:0005777'
p326
I01
stbaa(lp327
S'18636095'
p328
ag5
(g6
g7
NtRp329
((dp330
S'GO:0000331'
p331
I01
sS'GO:0005829'
p332
I01
sS'GO:0031164'
p333
I01
stbaa(lp334
S'10369671'
p335
ag5
(g6
g7
NtRp336
((dp337
S'GO:0031164'
p338
I01
stbaa(lp339
S'9880334'
p340
ag5
(g6
g7
NtRp341
((dp342
S'GO:0031410'
p343
I01
stbaa(lp344
S'11162086'
p345
ag5
(g6
g7
NtRp346
((dp347
S'GO:0005634'
p348
I01
stbaa(lp349
S'10092866'
p350
ag5
(g6
g7
NtRp351
((dp352
S'GO:0005743'
p353
I01
stbaa(lp354
S'11220631'
p355
ag5
(g6
g7
NtRp356
((dp357
S'GO:0000331'
p358
I01
sS'GO:0016021'
p359
I01
stbaa(lp360
S'1629238'
p361
ag5
(g6
g7
NtRp362
((dp363
S'GO:0000331'
p364
I01
stbaa(lp365
S'21402150'
p366
ag5
(g6
g7
NtRp367
((dp368
S'GO:0031012'
p369
I01
sS'GO:0005615'
p370
I01
sS'GO:0005622'
p371
I01
stbaa(lp372
S'23063531'
p373
ag5
(g6
g7
NtRp374
((dp375
S'GO:0005737'
p376
I01
sS'GO:0005634'
p377
I01
stbaa(lp378
S'22391412'
p379
ag5
(g6
g7
NtRp380
((dp381
S'GO:0005783'
p382
I01
sS'GO:0031012'
p383
I01
stbaa(lp384
S'6746725'
p385
ag5
(g6
g7
NtRp386
((dp387
S'GO:0005884'
p388
I01
stbaa(lp389
S'11884033'
p390
ag5
(g6
g7
NtRp391
((dp392
S'GO:0005576'
p393
I01
stbaa(lp394
S'23126556'
p395
ag5
(g6
g7
NtRp396
((dp397
S'GO:0005794'
p398
I01
sS'GO:0055037'
p399
I01
sS'GO:0071944'
p400
I01
sS'GO:0031988'
p401
I01
stbaa(lp402
S'15548420'
p403
ag5
(g6
g7
NtRp404
((dp405
S'GO:0005813'
p406
I01
stbaa(lp407
S'3003365'
p408
ag5
(g6
g7
NtRp409
((dp410
S'GO:0015629'
p411
I01
stbaa(lp412
S'20052281'
p413
ag5
(g6
g7
NtRp414
((dp415
S'GO:0032010'
p416
I01
sS'GO:0045335'
p417
I01
sS'GO:0032009'
p418
I01
sS'GO:0001891'
p419
I01
stbaa(lp420
S'22008230'
p421
ag5
(g6
g7
NtRp422
((dp423
S'GO:0045335'
p424
I01
stbaa(lp425
S'20530573'
p426
ag5
(g6
g7
NtRp427
((dp428
S'GO:0060187'
p429
I01
stbaa(lp430
S'1057168'
p431
ag5
(g6
g7
NtRp432
((dp433
S'GO:0005884'
p434
I01
sS'GO:0015629'
p435
I01
stbaa(lp436
S'11257435'
p437
ag5
(g6
g7
NtRp438
((dp439
S'GO:0031143'
p440
I01
sS'GO:0031252'
p441
I01
stbaa(lp442
S'6191197'
p443
ag5
(g6
g7
NtRp444
((dp445
S'GO:0009897'
p446
I01
stbaa(lp447
S'15366765'
p448
ag5
(g6
g7
NtRp449
((dp450
S'GO:0046658'
p451
I01
sS'GO:0001726'
p452
I01
sS'GO:0045121'
p453
I01
sS'GO:0005938'
p454
I01
sS'GO:0005911'
p455
I01
stbaa(lp456
S'17126332'
p457
ag5
(g6
g7
NtRp458
((dp459
S'GO:0001931'
p460
I01
sS'GO:0031252'
p461
I01
stbaa(lp462
S'9238018'
p463
ag5
(g6
g7
NtRp464
((dp465
S'GO:0005826'
p466
I01
stbaa(lp467
S'2578450'
p468
ag5
(g6
g7
NtRp469
((dp470
S'GO:0005856'
p471
I01
stbaa(lp472
S'16461463'
p473
ag5
(g6
g7
NtRp474
((dp475
S'GO:0005938'
p476
I01
stbaa(lp477
S'4278009'
p478
ag5
(g6
g7
NtRp479
((dp480
S'GO:0016460'
p481
I01
sS'GO:0032982'
p482
I01
sS'GO:0042641'
p483
I01
stbaa(lp484
S'22114350'
p485
ag5
(g6
g7
NtRp486
((dp487
S'GO:0031254'
p488
I01
sS'GO:0015629'
p489
I01
stbaa(lp490
S'20200225'
p491
ag5
(g6
g7
NtRp492
((dp493
S'GO:0045335'
p494
I01
sS'GO:0097203'
p495
I01
sS'GO:0097204'
p496
I01
sS'GO:0032009'
p497
I01
sS'GO:0001891'
p498
I01
stbaa(lp499
S'22902739'
p500
ag5
(g6
g7
NtRp501
((dp502
S'GO:0045180'
p503
I01
sS'GO:0045179'
p504
I01
stbaa(lp505
S'8552657'
p506
ag5
(g6
g7
NtRp507
((dp508
S'GO:0031143'
p509
I01
sS'GO:0032154'
p510
I01
stbaa(lp511
S'18515835'
p512
ag5
(g6
g7
NtRp513
((dp514
S'GO:0016592'
p515
I01
sS'GO:0005667'
p516
I01
stbaa(lp517
S'17671169'
p518
ag5
(g6
g7
NtRp519
((dp520
S'GO:0016020'
p521
I01
sS'GO:0031252'
p522
I01
stbaa(lp523
S'18349074'
p524
ag5
(g6
g7
NtRp525
((dp526
S'GO:0032433'
p527
I01
sS'GO:0015629'
p528
I01
stbaa(lp529
S'7738034'
p530
ag5
(g6
g7
NtRp531
((dp532
S'GO:0005737'
p533
I01
sS'GO:0001726'
p534
I01
sS'GO:0015629'
p535
I01
stbaa(lp536
S'9410873'
p537
ag5
(g6
g7
NtRp538
((dp539
S'GO:0005634'
p540
I01
stbaa(lp541
S'17660362'
p542
ag5
(g6
g7
NtRp543
((dp544
S'GO:0031982'
p545
I01
stbaa(lp546
S'2191567'
p547
ag5
(g6
g7
NtRp548
((dp549
S'GO:0015629'
p550
I01
stbaa(lp551
S'11728467'
p552
ag5
(g6
g7
NtRp553
((dp554
S'GO:0005737'
p555
I01
sS'GO:0005634'
p556
I01
sS'GO:0031002'
p557
I01
stbaa(lp558
S'15358428'
p559
ag5
(g6
g7
NtRp560
((dp561
S'GO:0005737'
p562
I01
sS'GO:0005634'
p563
I01
sS'GO:0005938'
p564
I01
stbaa(lp565
S'17172447'
p566
ag5
(g6
g7
NtRp567
((dp568
S'GO:0005737'
p569
I01
sS'GO:0031941'
p570
I01
sS'GO:0031252'
p571
I01
stbaa(lp572
S'1310316'
p573
ag5
(g6
g7
NtRp574
((dp575
S'GO:0005764'
p576
I01
sS'GO:0005576'
p577
I01
stbaa(lp578
S'8016318'
p579
ag5
(g6
g7
NtRp580
((dp581
S'GO:0031012'
p582
I01
stbaa(lp583
S'2850494'
p584
ag5
(g6
g7
NtRp585
((dp586
S'GO:0046658'
p587
I01
sS'GO:0016020'
p588
I01
stbaa(lp589
S'2914932'
p590
ag5
(g6
g7
NtRp591
((dp592
S'GO:0005829'
p593
I01
sS'GO:0015629'
p594
I01
sS'GO:0005886'
p595
I01
stbaa(lp596
S'7822284'
p597
ag5
(g6
g7
NtRp598
((dp599
S'GO:0005829'
p600
I01
sS'GO:0005886'
p601
I01
stbaa(lp602
S'15962002'
p603
ag5
(g6
g7
NtRp604
((dp605
S'GO:0030863'
p606
I01
sS'GO:0005829'
p607
I01
sS'GO:0045335'
p608
I01
sS'GO:0005622'
p609
I01
sS'GO:0043229'
p610
I01
sS'GO:0005938'
p611
I01
sS'GO:0001891'
p612
I01
stbaa(lp613
S'15383615'
p614
ag5
(g6
g7
NtRp615
((dp616
S'GO:0005737'
p617
I01
sS'GO:0030864'
p618
I01
sS'GO:0001891'
p619
I01
sS'GO:0005938'
p620
I01
sS'GO:0005886'
p621
I01
stbaa(lp622
S'15507682'
p623
ag5
(g6
g7
NtRp624
((dp625
S'GO:0009986'
p626
I01
stbaa(lp627
S'11428129'
p628
ag5
(g6
g7
NtRp629
((dp630
S'GO:0031160'
p631
I01
stbaa(lp632
S'11257439'
p633
ag5
(g6
g7
NtRp634
((dp635
S'GO:0005622'
p636
I01
stbaa(lp637
S'15261655'
p638
ag5
(g6
g7
NtRp639
((dp640
S'GO:0005887'
p641
I01
stbaa(lp642
S'11264536'
p643
ag5
(g6
g7
NtRp644
((dp645
S'GO:0005834'
p646
I01
sS'GO:0005829'
p647
I01
sS'GO:0005886'
p648
I01
stbaa(lp649
S'12217653'
p650
ag5
(g6
g7
NtRp651
((dp652
S'GO:0005834'
p653
I01
stbaa(lp654
S'2500658'
p655
ag5
(g6
g7
NtRp656
((dp657
S'GO:0005834'
p658
I01
stbaa(lp659
S'12186953'
p660
ag5
(g6
g7
NtRp661
((dp662
S'GO:0005623'
p663
I01
stbaa(lp664
S'17371831'
p665
ag5
(g6
g7
NtRp666
((dp667
S'GO:0031256'
p668
I01
sS'GO:0005829'
p669
I01
sS'GO:0031252'
p670
I01
sS'GO:0005938'
p671
I01
sS'GO:0005886'
p672
I01
stbaa(lp673
S'2156849'
p674
ag5
(g6
g7
NtRp675
((dp676
S'GO:0005622'
p677
I01
stbaa(lp678
S'1989999'
p679
ag5
(g6
g7
NtRp680
((dp681
S'GO:0005829'
p682
I01
stbaa(lp683
S'21991393'
p684
ag5
(g6
g7
NtRp685
((dp686
S'GO:0005737'
p687
I01
sS'GO:0015629'
p688
I01
stbaa(lp689
S'8244981'
p690
ag5
(g6
g7
NtRp691
((dp692
S'GO:0005737'
p693
I01
sS'GO:0005739'
p694
I01
stbaa(lp695
S'7733916'
p696
ag5
(g6
g7
NtRp697
((dp698
S'GO:0005840'
p699
I01
stbaa(lp700
S'8816286'
p701
ag5
(g6
g7
NtRp702
((dp703
S'GO:0005856'
p704
I01
stbaa(lp705
S'8389692'
p706
ag5
(g6
g7
NtRp707
((dp708
S'GO:0005886'
p709
I01
stbaa(lp710
S'11990506'
p711
ag5
(g6
g7
NtRp712
((dp713
S'GO:0030141'
p714
I01
stbaa(lp715
S'18054409'
p716
ag5
(g6
g7
NtRp717
((dp718
S'GO:0030863'
p719
I01
stbaa(lp720
S'9927418'
p721
ag5
(g6
g7
NtRp722
((dp723
S'GO:0032154'
p724
I01
stbaa(lp725
S'7657724'
p726
ag5
(g6
g7
NtRp727
((dp728
S'GO:0005737'
p729
I01
sS'GO:0005634'
p730
I01
sS'GO:0005886'
p731
I01
stbaa(lp732
S'16762449'
p733
ag5
(g6
g7
NtRp734
((dp735
S'GO:0048471'
p736
I01
sS'GO:0010008'
p737
I01
sS'GO:0005886'
p738
I01
stbaa(lp739
S'9789030'
p740
ag5
(g6
g7
NtRp741
((dp742
S'GO:0005737'
p743
I01
stbaa(lp744
S'9425628'
p745
ag5
(g6
g7
NtRp746
((dp747
S'GO:0030118'
p748
I01
sS'GO:0071439'
p749
I01
stbaa(lp750
S'17923679'
p751
ag5
(g6
g7
NtRp752
((dp753
S'GO:0005634'
p754
I01
sS'GO:0000126'
p755
I01
stbaa(lp756
S'8380174'
p757
ag5
(g6
g7
NtRp758
((dp759
S'GO:0051286'
p760
I01
sS'GO:0005938'
p761
I01
sS'GO:0015629'
p762
I01
stbaa(lp763
S'1661669'
p764
ag5
(g6
g7
NtRp765
((dp766
S'GO:0042995'
p767
I01
sS'GO:0015629'
p768
I01
stbaa(lp769
S'22809629'
p770
ag5
(g6
g7
NtRp771
((dp772
S'GO:0005634'
p773
I01
sS'GO:0016020'
p774
I01
sS'GO:0071944'
p775
I01
sS'GO:0031941'
p776
I01
sS'GO:0060187'
p777
I01
stbaa(lp778
S'10873800'
p779
ag5
(g6
g7
NtRp780
((dp781
S'GO:0005886'
p782
I01
stbaa(lp783
S'11606416'
p784
ag5
(g6
g7
NtRp785
((dp786
S'GO:0016363'
p787
I01
sS'GO:0005622'
p788
I01
stbaa(lp789
S'15878331'
p790
ag5
(g6
g7
NtRp791
((dp792
S'GO:0005622'
p793
I01
stbaa(lp794
S'15366936'
p795
ag5
(g6
g7
NtRp796
((dp797
S'GO:0005737'
p798
I01
sS'GO:0005874'
p799
I01
stbaa(lp800
S'15186508'
p801
ag5
(g6
g7
NtRp802
((dp803
S'GO:0030139'
p804
I01
sS'GO:0005813'
p805
I01
sS'GO:0005938'
p806
I01
sS'GO:0005794'
p807
I01
stbaa(lp808
S'17761194'
p809
ag5
(g6
g7
NtRp810
((dp811
S'GO:0005868'
p812
I01
stbaa(lp813
S'7866389'
p814
ag5
(g6
g7
NtRp815
((dp816
S'GO:0005868'
p817
I01
stbaa(lp818
S'18089562'
p819
ag5
(g6
g7
NtRp820
((dp821
S'GO:0016461'
p822
I01
sS'GO:0042641'
p823
I01
stbaa(lp824
S'8609164'
p825
ag5
(g6
g7
NtRp826
((dp827
S'GO:0031252'
p828
I01
stbaa(lp829
S'8325874'
p830
ag5
(g6
g7
NtRp831
((dp832
S'GO:0031252'
p833
I01
stbaa(lp834
S'10102987'
p835
ag5
(g6
g7
NtRp836
((dp837
S'GO:0005622'
p838
I01
stbaa(lp839
S'12074548'
p840
ag5
(g6
g7
NtRp841
((dp842
S'GO:0005622'
p843
I01
stbaa(lp844
S'3110159'
p845
ag5
(g6
g7
NtRp846
((dp847
S'GO:0005622'
p848
I01
stbaa(lp849
S'21766205'
p850
ag5
(g6
g7
NtRp851
((dp852
S'GO:0005654'
p853
I01
sS'GO:0005737'
p854
I01
sS'GO:0005634'
p855
I01
sS'GO:0072686'
p856
I01
stbaa(lp857
S'8130037'
p858
ag5
(g6
g7
NtRp859
((dp860
S'GO:0005737'
p861
I01
sS'GO:0005634'
p862
I01
sS'GO:0005829'
p863
I01
stbaa(lp864
S'8293475'
p865
ag5
(g6
g7
NtRp866
((dp867
S'GO:0015629'
p868
I01
stbaa(lp869
S'1321427'
p870
ag5
(g6
g7
NtRp871
((dp872
S'GO:0016020'
p873
I01
stbaa(lp874
S'8769416'
p875
ag5
(g6
g7
NtRp876
((dp877
S'GO:0016020'
p878
I01
stbaa(lp879
S'9334183'
p880
ag5
(g6
g7
NtRp881
((dp882
S'GO:0005634'
p883
I01
stbaa(lp884
S'22302991'
p885
ag5
(g6
g7
NtRp886
((dp887
S'GO:0031143'
p888
I01
sS'GO:0031255'
p889
I01
sS'GO:0031254'
p890
I01
sS'GO:0032154'
p891
I01
sS'GO:0005938'
p892
I01
sS'GO:0005886'
p893
I01
sS'GO:0048471'
p894
I01
sS'GO:0001891'
p895
I01
stbaa(lp896
S'16968699'
p897
ag5
(g6
g7
NtRp898
((dp899
S'GO:0031252'
p900
I01
sS'GO:0005938'
p901
I01
stbaa(lp902
S'18992223'
p903
ag5
(g6
g7
NtRp904
((dp905
S'GO:0005737'
p906
I01
sS'GO:0005634'
p907
I01
stbaa(lp908
S'15563608'
p909
ag5
(g6
g7
NtRp910
((dp911
S'GO:0019897'
p912
I01
sS'GO:0031256'
p913
I01
sS'GO:0005829'
p914
I01
sS'GO:0005834'
p915
I01
stbaa(lp916
S'9778249'
p917
ag5
(g6
g7
NtRp918
((dp919
S'GO:0019897'
p920
I01
sS'GO:0031256'
p921
I01
sS'GO:0005829'
p922
I01
stbaa(lp923
S'15470246'
p924
ag5
(g6
g7
NtRp925
((dp926
S'GO:0019897'
p927
I01
sS'GO:0005829'
p928
I01
sS'GO:0005886'
p929
I01
stbaa(lp930
S'16267269'
p931
ag5
(g6
g7
NtRp932
((dp933
S'GO:0019897'
p934
I01
sS'GO:0005829'
p935
I01
sS'GO:0031254'
p936
I01
stbaa(lp937
S'7790361'
p938
ag5
(g6
g7
NtRp939
((dp940
S'GO:0019897'
p941
I01
stbaa(lp942
S'11686306'
p943
ag5
(g6
g7
NtRp944
((dp945
S'GO:0031164'
p946
I01
stbaa(lp947
S'8125261'
p948
ag5
(g6
g7
NtRp949
((dp950
S'GO:0005634'
p951
I01
sS'GO:0005829'
p952
I01
stbaa(lp953
S'8448193'
p954
ag5
(g6
g7
NtRp955
((dp956
S'GO:0016020'
p957
I01
stbaa(lp958
S'8950185'
p959
ag5
(g6
g7
NtRp960
((dp961
S'GO:0005737'
p962
I01
sS'GO:0005971'
p963
I01
sS'GO:0005634'
p964
I01
stbaa(lp965
S'12062087'
p966
ag5
(g6
g7
NtRp967
((dp968
S'GO:0005829'
p969
I01
sS'GO:0005634'
p970
I01
sS'GO:0005938'
p971
I01
sS'GO:0031252'
p972
I01
stbaa(lp973
S'11369235'
p974
ag5
(g6
g7
NtRp975
((dp976
S'GO:0005737'
p977
I01
sS'GO:0005938'
p978
I01
stbaa(lp979
S'16372899'
p980
ag5
(g6
g7
NtRp981
((dp982
S'GO:0005737'
p983
I01
sS'GO:0005938'
p984
I01
stbaa(lp985
S'10896781'
p986
ag5
(g6
g7
NtRp987
((dp988
S'GO:0031254'
p989
I01
sS'GO:0031252'
p990
I01
stbaa(lp991
S'9836437'
p992
ag5
(g6
g7
NtRp993
((dp994
S'GO:0005840'
p995
I01
stbaa(lp996
S'23787121'
p997
ag5
(g6
g7
NtRp998
((dp999
S'GO:0072686'
p1000
I01
stbaa(lp1001
S'11358877'
p1002
ag5
(g6
g7
NtRp1003
((dp1004
S'GO:0005737'
p1005
I01
sS'GO:0005634'
p1006
I01
sS'GO:0005938'
p1007
I01
stbaa(lp1008
S'1577798'
p1009
ag5
(g6
g7
NtRp1010
((dp1011
S'GO:0005737'
p1012
I01
stbaa(lp1013
S'8662604'
p1014
ag5
(g6
g7
NtRp1015
((dp1016
S'GO:0005737'
p1017
I01
sS'GO:0019005'
p1018
I01
stbaa(lp1019
S'20951045'
p1020
ag5
(g6
g7
NtRp1021
((dp1022
S'GO:0005938'
p1023
I01
stbaa(lp1024
S'8838672'
p1025
ag5
(g6
g7
NtRp1026
((dp1027
S'GO:0016021'
p1028
I01
stbaa(lp1029
S'11865029'
p1030
ag5
(g6
g7
NtRp1031
((dp1032
S'GO:0000331'
p1033
I01
sS'GO:0009986'
p1034
I01
sS'GO:0030666'
p1035
I01
sS'GO:0005887'
p1036
I01
stbaa(lp1037
S'8126094'
p1038
ag5
(g6
g7
NtRp1039
((dp1040
S'GO:0000331'
p1041
I01
stbaa(lp1042
S'16003496'
p1043
ag5
(g6
g7
NtRp1044
((dp1045
S'GO:0043234'
p1046
I01
sS'GO:0005829'
p1047
I01
sS'GO:0005634'
p1048
I01
stbaa(lp1049
S'16138906'
p1050
ag5
(g6
g7
NtRp1051
((dp1052
S'GO:0005737'
p1053
I01
sS'GO:0016020'
p1054
I01
sS'GO:0005938'
p1055
I01
sS'GO:0012506'
p1056
I01
sS'GO:0005774'
p1057
I01
stbaa(lp1058
S'19875452'
p1059
ag5
(g6
g7
NtRp1060
((dp1061
S'GO:0005737'
p1062
I01
sS'GO:0000331'
p1063
I01
stbaa(lp1064
S'17057715'
p1065
ag5
(g6
g7
NtRp1066
((dp1067
S'GO:0005886'
p1068
I01
stbaa(lp1069
S'9639652'
p1070
ag5
(g6
g7
NtRp1071
((dp1072
S'GO:0005730'
p1073
I01
stbaa(lp1074
S'3312238'
p1075
ag5
(g6
g7
NtRp1076
((dp1077
S'GO:0005887'
p1078
I01
stbaa(lp1079
S'8432731'
p1080
ag5
(g6
g7
NtRp1081
((dp1082
S'GO:0005887'
p1083
I01
stbaa(lp1084
S'18522444'
p1085
ag5
(g6
g7
NtRp1086
((dp1087
S'GO:0016021'
p1088
I01
stbaa(lp1089
S'8089175'
p1090
ag5
(g6
g7
NtRp1091
((dp1092
S'GO:0016021'
p1093
I01
stbaa(lp1094
S'8787732'
p1095
ag5
(g6
g7
NtRp1096
((dp1097
S'GO:0005829'
p1098
I01
sS'GO:0005576'
p1099
I01
stbaa(lp1100
S'8996086'
p1101
ag5
(g6
g7
NtRp1102
((dp1103
S'GO:0030122'
p1104
I01
sS'GO:0005905'
p1105
I01
stbaa(lp1106
S'22992464'
p1107
ag5
(g6
g7
NtRp1108
((dp1109
S'GO:0030122'
p1110
I01
sS'GO:0030132'
p1111
I01
stbaa(lp1112
S'18634783'
p1113
ag5
(g6
g7
NtRp1114
((dp1115
S'GO:0030123'
p1116
I01
sS'GO:0030666'
p1117
I01
sS'GO:0031201'
p1118
I01
sS'GO:0005886'
p1119
I01
sS'GO:0005767'
p1120
I01
stbaa(lp1121
S'15366706'
p1122
ag5
(g6
g7
NtRp1123
((dp1124
S'GO:0031254'
p1125
I01
sS'GO:0031252'
p1126
I01
stbaa(lp1127
S'9885293'
p1128
ag5
(g6
g7
NtRp1129
((dp1130
S'GO:0031164'
p1131
I01
sS'GO:0005886'
p1132
I01
stbaa(lp1133
S'7499325'
p1134
ag5
(g6
g7
NtRp1135
((dp1136
S'GO:0016021'
p1137
I01
sS'GO:0031164'
p1138
I01
stbaa(lp1139
S'9421912'
p1140
ag5
(g6
g7
NtRp1141
((dp1142
S'GO:0016020'
p1143
I01
stbaa(lp1144
S'16265631'
p1145
ag5
(g6
g7
NtRp1146
((dp1147
S'GO:0045335'
p1148
I01
sS'GO:0001891'
p1149
I01
stbaa(lp1150
S'9017597'
p1151
ag5
(g6
g7
NtRp1152
((dp1153
S'GO:0030027'
p1154
I01
sS'GO:0031252'
p1155
I01
stbaa(lp1156
S'10747962'
p1157
ag5
(g6
g7
NtRp1158
((dp1159
S'GO:0005737'
p1160
I01
stbaa(lp1161
S'7744252'
p1162
ag5
(g6
g7
NtRp1163
((dp1164
S'GO:0016021'
p1165
I01
stbaa(lp1166
S'10427097'
p1167
ag5
(g6
g7
NtRp1168
((dp1169
S'GO:0042641'
p1170
I01
sS'GO:0030864'
p1171
I01
sS'GO:0031252'
p1172
I01
sS'GO:0060187'
p1173
I01
sS'GO:0001891'
p1174
I01
stbaa(lp1175
S'18650439'
p1176
ag5
(g6
g7
NtRp1177
((dp1178
S'GO:0000331'
p1179
I01
sS'GO:0042641'
p1180
I01
stbaa(lp1181
S'7813455'
p1182
ag5
(g6
g7
NtRp1183
((dp1184
S'GO:0005945'
p1185
I01
sS'GO:0005829'
p1186
I01
stbaa(lp1187
S'12139770'
p1188
ag5
(g6
g7
NtRp1189
((dp1190
S'GO:0005737'
p1191
I01
stbaa(lp1192
S'15987738'
p1193
ag5
(g6
g7
NtRp1194
((dp1195
S'GO:0005737'
p1196
I01
sS'GO:0005826'
p1197
I01
stbaa(lp1198
S'1328220'
p1199
ag5
(g6
g7
NtRp1200
((dp1201
S'GO:0005741'
p1202
I01
stbaa(lp1203
S'14718564'
p1204
ag5
(g6
g7
NtRp1205
((dp1206
S'GO:0016020'
p1207
I01
stbaa(lp1208
S'8408201'
p1209
ag5
(g6
g7
NtRp1210
((dp1211
S'GO:0005794'
p1212
I01
sS'GO:0030867'
p1213
I01
sS'GO:0005768'
p1214
I01
sS'GO:0030660'
p1215
I01
stbaa(lp1216
S'16443752'
p1217
ag5
(g6
g7
NtRp1218
((dp1219
S'GO:0031252'
p1220
I01
sS'GO:0032009'
p1221
I01
sS'GO:0001891'
p1222
I01
stbaa(lp1223
S'12032065'
p1224
ag5
(g6
g7
NtRp1225
((dp1226
S'GO:0045160'
p1227
I01
stbaa(lp1228
S'8504170'
p1229
ag5
(g6
g7
NtRp1230
((dp1231
S'GO:0045160'
p1232
I01
stbaa(lp1233
S'16787542'
p1234
ag5
(g6
g7
NtRp1235
((dp1236
S'GO:0000331'
p1237
I01
stbaa(lp1238
S'17971415'
p1239
ag5
(g6
g7
NtRp1240
((dp1241
S'GO:0005737'
p1242
I01
sS'GO:0030136'
p1243
I01
sS'GO:0030118'
p1244
I01
sS'GO:0005886'
p1245
I01
stbaa(lp1246
S'19692567'
p1247
ag5
(g6
g7
NtRp1248
((dp1249
S'GO:0000331'
p1250
I01
sS'GO:0030136'
p1251
I01
sS'GO:0005768'
p1252
I01
sS'GO:0005886'
p1253
I01
stbaa(lp1254
S'17584488'
p1255
ag5
(g6
g7
NtRp1256
((dp1257
S'GO:0005737'
p1258
I01
sS'GO:0005856'
p1259
I01
sS'GO:0016020'
p1260
I01
sS'GO:0005938'
p1261
I01
sS'GO:0032009'
p1262
I01
stbaa(lp1263
S'22647904'
p1264
ag5
(g6
g7
NtRp1265
((dp1266
S'GO:0016021'
p1267
I01
sS'GO:0005777'
p1268
I01
sS'GO:0005783'
p1269
I01
stbaa(lp1270
S'20658257'
p1271
ag5
(g6
g7
NtRp1272
((dp1273
S'GO:0035371'
p1274
I01
sS'GO:0000235'
p1275
I01
sS'GO:0031592'
p1276
I01
sS'GO:0000776'
p1277
I01
sS'GO:0000922'
p1278
I01
stbaa(lp1279
S'10769206'
p1280
ag5
(g6
g7
NtRp1281
((dp1282
S'GO:0005813'
p1283
I01
sS'GO:0000922'
p1284
I01
stbaa(lp1285
S'18326585'
p1286
ag5
(g6
g7
NtRp1287
((dp1288
S'GO:0005737'
p1289
I01
sS'GO:0005813'
p1290
I01
sS'GO:0032154'
p1291
I01
sS'GO:0000922'
p1292
I01
sS'GO:0051233'
p1293
I01
sS'GO:0032133'
p1294
I01
stbaa(lp1295
S'12134070'
p1296
ag5
(g6
g7
NtRp1297
((dp1298
S'GO:0005819'
p1299
I01
sS'GO:0031143'
p1300
I01
sS'GO:0005813'
p1301
I01
sS'GO:0031252'
p1302
I01
sS'GO:0000922'
p1303
I01
sS'GO:0000235'
p1304
I01
sS'GO:0031592'
p1305
I01
sS'GO:0005874'
p1306
I01
sS'GO:0000776'
p1307
I01
stbaa(lp1308
S'11726513'
p1309
ag5
(g6
g7
NtRp1310
((dp1311
S'GO:0042175'
p1312
I01
sS'GO:0005783'
p1313
I01
sS'GO:0005788'
p1314
I01
sS'GO:0005789'
p1315
I01
stbaa(lp1316
S'12456012'
p1317
ag5
(g6
g7
NtRp1318
((dp1319
S'GO:0043190'
p1320
I01
sS'GO:0005779'
p1321
I01
sS'GO:0016021'
p1322
I01
sS'GO:0016020'
p1323
I01
sS'GO:0005739'
p1324
I01
sS'GO:0019898'
p1325
I01
sS'GO:0005887'
p1326
I01
sS'GO:0005829'
p1327
I01
stbaa(lp1328
S'10887966'
p1329
ag5
(g6
g7
NtRp1330
((dp1331
S'GO:0005794'
p1332
I01
sS'GO:0048471'
p1333
I01
stbaa(lp1334
S'17207566'
p1335
ag5
(g6
g7
NtRp1336
((dp1337
S'GO:0005655'
p1338
I01
stbaa(lp1339
S'18603769'
p1340
ag5
(g6
g7
NtRp1341
((dp1342
S'GO:0005759'
p1343
I01
sS'GO:0031966'
p1344
I01
stbaa(lp1345
S'16051212'
p1346
ag5
(g6
g7
NtRp1347
((dp1348
S'GO:0005737'
p1349
I01
stbaa(lp1350
S'16781008'
p1351
ag5
(g6
g7
NtRp1352
((dp1353
S'GO:0008180'
p1354
I01
stbaa(lp1355
S'11336701'
p1356
ag5
(g6
g7
NtRp1357
((dp1358
S'GO:0005634'
p1359
I01
sS'GO:0005829'
p1360
I01
stbaa(lp1361
S'12771188'
p1362
ag5
(g6
g7
NtRp1363
((dp1364
S'GO:0005634'
p1365
I01
stbaa(lp1366
S'23587254'
p1367
ag5
(g6
g7
NtRp1368
((dp1369
S'GO:0005737'
p1370
I01
sS'GO:0005654'
p1371
I01
sS'GO:0005635'
p1372
I01
sS'GO:0005730'
p1373
I01
stbaa(lp1374
S'14871937'
p1375
ag5
(g6
g7
NtRp1376
((dp1377
S'GO:0005737'
p1378
I01
sS'GO:0005634'
p1379
I01
sS'GO:0005938'
p1380
I01
stbaa(lp1381
S'19466752'
p1382
ag5
(g6
g7
NtRp1383
((dp1384
S'GO:0005813'
p1385
I01
sS'GO:0005635'
p1386
I01
sS'GO:0030496'
p1387
I01
sS'GO:0000776'
p1388
I01
sS'GO:0000922'
p1389
I01
stbaa(lp1390
S'17940044'
p1391
ag5
(g6
g7
NtRp1392
((dp1393
S'GO:0016020'
p1394
I01
sS'GO:0031982'
p1395
I01
stbaa(lp1396
S'22366457'
p1397
ag5
(g6
g7
NtRp1398
((dp1399
S'GO:0005829'
p1400
I01
sS'GO:0005938'
p1401
I01
sS'GO:0005815'
p1402
I01
stbaa(lp1403
S'23548898'
p1404
ag5
(g6
g7
NtRp1405
((dp1406
S'GO:0005765'
p1407
I01
sS'GO:0005829'
p1408
I01
sS'GO:0005739'
p1409
I01
sS'GO:0005886'
p1410
I01
stbaa(lp1411
S'18621026'
p1412
ag5
(g6
g7
NtRp1413
((dp1414
S'GO:0005783'
p1415
I01
stbaa(lp1416
S'12175335'
p1417
ag5
(g6
g7
NtRp1418
((dp1419
S'GO:0016021'
p1420
I01
sS'GO:0031201'
p1421
I01
sS'GO:0005765'
p1422
I01
sS'GO:0005887'
p1423
I01
sS'GO:0005768'
p1424
I01
sS'GO:0031902'
p1425
I01
sS'GO:0010008'
p1426
I01
stbaa(lp1427
S'23369714'
p1428
ag5
(g6
g7
NtRp1429
((dp1430
S'GO:0061474'
p1431
I01
sS'GO:0071203'
p1432
I01
stbaa(lp1433
S'21606208'
p1434
ag5
(g6
g7
NtRp1435
((dp1436
S'GO:0061474'
p1437
I01
stbaa(lp1438
S'16112620'
p1439
ag5
(g6
g7
NtRp1440
((dp1441
S'GO:0005634'
p1442
I01
sS'GO:0005958'
p1443
I01
stbaa(lp1444
S'16582628'
p1445
ag5
(g6
g7
NtRp1446
((dp1447
S'GO:0005958'
p1448
I01
stbaa(lp1449
S'15309638'
p1450
ag5
(g6
g7
NtRp1451
((dp1452
S'GO:0005576'
p1453
I01
stbaa(lp1454
S'23576747'
p1455
ag5
(g6
g7
NtRp1456
((dp1457
S'GO:0005829'
p1458
I01
stbaa(lp1459
S'11956322'
p1460
ag5
(g6
g7
NtRp1461
((dp1462
S'GO:0000331'
p1463
I01
stbaa(lp1464
S'8743951'
p1465
ag5
(g6
g7
NtRp1466
((dp1467
S'GO:0000331'
p1468
I01
stbaa(lp1469
S'12082150'
p1470
ag5
(g6
g7
NtRp1471
((dp1472
S'GO:0031164'
p1473
I01
sS'GO:0010008'
p1474
I01
stbaa(lp1475
S'18827012'
p1476
ag5
(g6
g7
NtRp1477
((dp1478
S'GO:0030122'
p1479
I01
sS'GO:0030136'
p1480
I01
sS'GO:0005905'
p1481
I01
sS'GO:0005886'
p1482
I01
stbaa(lp1483
S'21458438'
p1484
ag5
(g6
g7
NtRp1485
((dp1486
S'GO:0005634'
p1487
I01
stbaa(lp1488
S'16396914'
p1489
ag5
(g6
g7
NtRp1490
((dp1491
S'GO:0005737'
p1492
I01
sS'GO:0005634'
p1493
I01
stbaa(lp1494
S'16410410'
p1495
ag5
(g6
g7
NtRp1496
((dp1497
S'GO:0005737'
p1498
I01
sS'GO:0005634'
p1499
I01
stbaa(lp1500
S'16527814'
p1501
ag5
(g6
g7
NtRp1502
((dp1503
S'GO:0016021'
p1504
I01
stbaa(lp1505
S'22944283'
p1506
ag5
(g6
g7
NtRp1507
((dp1508
S'GO:0005634'
p1509
I01
sS'GO:0005829'
p1510
I01
stbaa(lp1511
S'15003488'
p1512
ag5
(g6
g7
NtRp1513
((dp1514
S'GO:0005759'
p1515
I01
sS'GO:0005829'
p1516
I01
sS'GO:0005967'
p1517
I01
stbaa(lp1518
S'22357942'
p1519
ag5
(g6
g7
NtRp1520
((dp1521
S'GO:0032010'
p1522
I01
stbaa(lp1523
S'16957294'
p1524
ag5
(g6
g7
NtRp1525
((dp1526
S'GO:0005813'
p1527
I01
stbaa(lp1528
S'15950752'
p1529
ag5
(g6
g7
NtRp1530
((dp1531
S'GO:0043020'
p1532
I01
sS'GO:0016021'
p1533
I01
sS'GO:0005829'
p1534
I01
stbaa(lp1535
S'17462897'
p1536
ag5
(g6
g7
NtRp1537
((dp1538
S'GO:0005737'
p1539
I01
sS'GO:0005938'
p1540
I01
stbaa(lp1541
S'16906151'
p1542
ag5
(g6
g7
NtRp1543
((dp1544
S'GO:0005622'
p1545
I01
stbaa(lp1546
S'22744750'
p1547
ag5
(g6
g7
NtRp1548
((dp1549
S'GO:0005813'
p1550
I01
stbaa(lp1551
S'16356468'
p1552
ag5
(g6
g7
NtRp1553
((dp1554
S'GO:0005634'
p1555
I01
sS'GO:0005829'
p1556
I01
stbaa(lp1557
S'18334553'
p1558
ag5
(g6
g7
NtRp1559
((dp1560
S'GO:0000331'
p1561
I01
sS'GO:0005829'
p1562
I01
stbaa(lp1563
S'16766083'
p1564
ag5
(g6
g7
NtRp1565
((dp1566
S'GO:0000815'
p1567
I01
sS'GO:0000814'
p1568
I01
sS'GO:0000813'
p1569
I01
stbaa(lp1570
S'16415352'
p1571
ag5
(g6
g7
NtRp1572
((dp1573
S'GO:0045160'
p1574
I01
stbaa(lp1575
S'16678813'
p1576
ag5
(g6
g7
NtRp1577
((dp1578
S'GO:0005622'
p1579
I01
stbaa(lp1580
S'12626495'
p1581
ag5
(g6
g7
NtRp1582
((dp1583
S'GO:0005737'
p1584
I01
sS'GO:0005829'
p1585
I01
stbaa(lp1586
S'14597204'
p1587
ag5
(g6
g7
NtRp1588
((dp1589
S'GO:0030863'
p1590
I01
stbaa(lp1591
S'15014435'
p1592
ag5
(g6
g7
NtRp1593
((dp1594
S'GO:0005737'
p1595
I01
sS'GO:0005826'
p1596
I01
sS'GO:0005938'
p1597
I01
stbaa(lp1598
S'8752217'
p1599
ag5
(g6
g7
NtRp1600
((dp1601
S'GO:0005938'
p1602
I01
sS'GO:0031252'
p1603
I01
stbaa(lp1604
S'11447112'
p1605
ag5
(g6
g7
NtRp1606
((dp1607
S'GO:0032154'
p1608
I01
sS'GO:0005938'
p1609
I01
stbaa(lp1610
S'22090348'
p1611
ag5
(g6
g7
NtRp1612
((dp1613
S'GO:0005637'
p1614
I01
stbaa(lp1615
S'16469305'
p1616
ag5
(g6
g7
NtRp1617
((dp1618
S'GO:0005634'
p1619
I01
stbaa(lp1620
S'12802059'
p1621
ag5
(g6
g7
NtRp1622
((dp1623
S'GO:0030130'
p1624
I01
sS'GO:0030121'
p1625
I01
stbaa(lp1626
S'11179674'
p1627
ag5
(g6
g7
NtRp1628
((dp1629
S'GO:0005764'
p1630
I01
sS'GO:0030130'
p1631
I01
sS'GO:0005768'
p1632
I01
sS'GO:0030124'
p1633
I01
stbaa(lp1634
S'17040207'
p1635
ag5
(g6
g7
NtRp1636
((dp1637
S'GO:0005576'
p1638
I01
stbaa(lp1639
S'17611045'
p1640
ag5
(g6
g7
NtRp1641
((dp1642
S'GO:0030677'
p1643
I01
stbaa(lp1644
S'16107728'
p1645
ag5
(g6
g7
NtRp1646
((dp1647
S'GO:0005634'
p1648
I01
sS'GO:0005938'
p1649
I01
stbaa(lp1650
S'17353263'
p1651
ag5
(g6
g7
NtRp1652
((dp1653
S'GO:0005737'
p1654
I01
sS'GO:0005634'
p1655
I01
sS'GO:0030289'
p1656
I01
stbaa(lp1657
S'15496465'
p1658
ag5
(g6
g7
NtRp1659
((dp1660
S'GO:0005813'
p1661
I01
stbaa(lp1662
S'11713866'
p1663
ag5
(g6
g7
NtRp1664
((dp1665
S'GO:0005813'
p1666
I01
sS'GO:0005634'
p1667
I01
stbaa(lp1668
S'19833731'
p1669
ag5
(g6
g7
NtRp1670
((dp1671
S'GO:0031164'
p1672
I01
stbaa(lp1673
S'12952082'
p1674
ag5
(g6
g7
NtRp1675
((dp1676
S'GO:0005739'
p1677
I01
stbaa(lp1678
S'16282589'
p1679
ag5
(g6
g7
NtRp1680
((dp1681
S'GO:0005634'
p1682
I01
stbaa(lp1683
S'23998118'
p1684
ag5
(g6
g7
NtRp1685
((dp1686
S'GO:0005739'
p1687
I01
stbaa(lp1688
S'23536703'
p1689
ag5
(g6
g7
NtRp1690
((dp1691
S'GO:0005739'
p1692
I01
stbaa(lp1693
S'10978342'
p1694
ag5
(g6
g7
NtRp1695
((dp1696
S'GO:0005768'
p1697
I01
stbaa(lp1698
S'15643062'
p1699
ag5
(g6
g7
NtRp1700
((dp1701
S'GO:0005829'
p1702
I01
stbaa(lp1703
S'17897809'
p1704
ag5
(g6
g7
NtRp1705
((dp1706
S'GO:0005938'
p1707
I01
stbaa(lp1708
S'8830653'
p1709
ag5
(g6
g7
NtRp1710
((dp1711
S'GO:0005938'
p1712
I01
stbaa(lp1713
S'18367554'
p1714
ag5
(g6
g7
NtRp1715
((dp1716
S'GO:0005634'
p1717
I01
sS'GO:0005694'
p1718
I01
sS'GO:0005829'
p1719
I01
stbaa(lp1720
S'9813063'
p1721
ag5
(g6
g7
NtRp1722
((dp1723
S'GO:0016021'
p1724
I01
stbaa(lp1725
S'15141168'
p1726
ag5
(g6
g7
NtRp1727
((dp1728
S'GO:0005737'
p1729
I01
sS'GO:0005938'
p1730
I01
stbaa(lp1731
S'16765443'
p1732
ag5
(g6
g7
NtRp1733
((dp1734
S'GO:0005764'
p1735
I01
sS'GO:0005773'
p1736
I01
stbaa(lp1737
S'20186335'
p1738
ag5
(g6
g7
NtRp1739
((dp1740
S'GO:0005829'
p1741
I01
stbaa(lp1742
S'12538772'
p1743
ag5
(g6
g7
NtRp1744
((dp1745
S'GO:0005737'
p1746
I01
sS'GO:0001891'
p1747
I01
sS'GO:0030864'
p1748
I01
stbaa(lp1749
S'22219373'
p1750
ag5
(g6
g7
NtRp1751
((dp1752
S'GO:0055037'
p1753
I01
sS'GO:0005769'
p1754
I01
sS'GO:0005886'
p1755
I01
stbaa(lp1756
S'16699495'
p1757
ag5
(g6
g7
NtRp1758
((dp1759
S'GO:0009986'
p1760
I01
stbaa(lp1761
S'18701541'
p1762
ag5
(g6
g7
NtRp1763
((dp1764
S'GO:0005634'
p1765
I01
stbaa(lp1766
S'15511086'
p1767
ag5
(g6
g7
NtRp1768
((dp1769
S'GO:0005739'
p1770
I01
stbaa(lp1771
S'7729573'
p1772
ag5
(g6
g7
NtRp1773
((dp1774
S'GO:0031012'
p1775
I01
stbaa(lp1776
S'6468764'
p1777
ag5
(g6
g7
NtRp1778
((dp1779
S'GO:0005666'
p1780
I01
stbaa(lp1781
S'21760904'
p1782
ag5
(g6
g7
NtRp1783
((dp1784
S'GO:0031410'
p1785
I01
sS'GO:0005634'
p1786
I01
stbaa(lp1787
S'16243037'
p1788
ag5
(g6
g7
NtRp1789
((dp1790
S'GO:0000125'
p1791
I01
sS'GO:0005634'
p1792
I01
sS'GO:0005958'
p1793
I01
sS'GO:0035267'
p1794
I01
sS'GO:0000786'
p1795
I01
stbaa(lp1796
S'12890554'
p1797
ag5
(g6
g7
NtRp1798
((dp1799
S'GO:0031410'
p1800
I01
sS'GO:0016021'
p1801
I01
sS'GO:0005886'
p1802
I01
stbaa(lp1803
S'23923009'
p1804
ag5
(g6
g7
NtRp1805
((dp1806
S'GO:0005739'
p1807
I01
stbaa(lp1808
S'12963116'
p1809
ag5
(g6
g7
NtRp1810
((dp1811
S'GO:0009897'
p1812
I01
stbaa(lp1813
S'21393547'
p1814
ag5
(g6
g7
NtRp1815
((dp1816
S'GO:0045179'
p1817
I01
sS'GO:0005911'
p1818
I01
stbaa(lp1819
S'19065153'
p1820
ag5
(g6
g7
NtRp1821
((dp1822
S'GO:0005938'
p1823
I01
stbaa(lp1824
S'20887559'
p1825
ag5
(g6
g7
NtRp1826
((dp1827
S'GO:0005737'
p1828
I01
sS'GO:0005773'
p1829
I01
sS'GO:0005634'
p1830
I01
stbaa(lp1831
S'15908944'
p1832
ag5
(g6
g7
NtRp1833
((dp1834
S'GO:0030175'
p1835
I01
sS'GO:0015629'
p1836
I01
stbaa(lp1837
S'20070309'
p1838
ag5
(g6
g7
NtRp1839
((dp1840
S'GO:0005794'
p1841
I01
sS'GO:0005874'
p1842
I01
sS'GO:0005815'
p1843
I01
stbaa(lp1844
S'18413611'
p1845
ag5
(g6
g7
NtRp1846
((dp1847
S'GO:0005829'
p1848
I01
stbaa(lp1849
S'18261908'
p1850
ag5
(g6
g7
NtRp1851
((dp1852
S'GO:0001726'
p1853
I01
sS'GO:0031209'
p1854
I01
stbaa(lp1855
S'16581519'
p1856
ag5
(g6
g7
NtRp1857
((dp1858
S'GO:0005938'
p1859
I01
sS'GO:0031209'
p1860
I01
stbaa(lp1861
S'16822579'
p1862
ag5
(g6
g7
NtRp1863
((dp1864
S'GO:0031143'
p1865
I01
sS'GO:0031252'
p1866
I01
stbaa(lp1867
S'17314411'
p1868
ag5
(g6
g7
NtRp1869
((dp1870
S'GO:0031209'
p1871
I01
sS'GO:0031252'
p1872
I01
stbaa(lp1873
S'18550798'
p1874
ag5
(g6
g7
NtRp1875
((dp1876
S'GO:0000331'
p1877
I01
sS'GO:0005789'
p1878
I01
stbaa(lp1879
S'10749929'
p1880
ag5
(g6
g7
NtRp1881
((dp1882
S'GO:0005938'
p1883
I01
stbaa(lp1884
S'16495485'
p1885
ag5
(g6
g7
NtRp1886
((dp1887
S'GO:0005789'
p1888
I01
stbaa(lp1889
S'15470500'
p1890
ag5
(g6
g7
NtRp1891
((dp1892
S'GO:0045335'
p1893
I01
stbaa(lp1894
S'14704357'
p1895
ag5
(g6
g7
NtRp1896
((dp1897
S'GO:0016591'
p1898
I01
stbaa(lp1899
S'8793298'
p1900
ag5
(g6
g7
NtRp1901
((dp1902
S'GO:0005829'
p1903
I01
stbaa(lp1904
S'22722653'
p1905
ag5
(g6
g7
NtRp1906
((dp1907
S'GO:0005783'
p1908
I01
stbaa(lp1909
S'10491107'
p1910
ag5
(g6
g7
NtRp1911
((dp1912
S'GO:0000159'
p1913
I01
stbaa(lp1914
S'10452519'
p1915
ag5
(g6
g7
NtRp1916
((dp1917
S'GO:0005813'
p1918
I01
sS'GO:0005829'
p1919
I01
sS'GO:0005634'
p1920
I01
stbaa(lp1921
S'8670837'
p1922
ag5
(g6
g7
NtRp1923
((dp1924
S'GO:0005634'
p1925
I01
stbaa(lp1926
S'15194808'
p1927
ag5
(g6
g7
NtRp1928
((dp1929
S'GO:0005886'
p1930
I01
stbaa(lp1931
S'16325504'
p1932
ag5
(g6
g7
NtRp1933
((dp1934
S'GO:0030666'
p1935
I01
stbaa(lp1936
S'15843041'
p1937
ag5
(g6
g7
NtRp1938
((dp1939
S'GO:0005829'
p1940
I01
sS'GO:0005938'
p1941
I01
stbaa(lp1942
S'22864416'
p1943
ag5
(g6
g7
NtRp1944
((dp1945
S'GO:0005829'
p1946
I01
stbaa(lp1947
S'12176329'
p1948
ag5
(g6
g7
NtRp1949
((dp1950
S'GO:0005834'
p1951
I01
sS'GO:0005886'
p1952
I01
stbaa(lp1953
S'9832508'
p1954
ag5
(g6
g7
NtRp1955
((dp1956
S'GO:0005938'
p1957
I01
stbaa(lp1958
S'11274054'
p1959
ag5
(g6
g7
NtRp1960
((dp1961
S'GO:0005938'
p1962
I01
stbaa(lp1963
S'17442478'
p1964
ag5
(g6
g7
NtRp1965
((dp1966
S'GO:0005743'
p1967
I01
stbaa(lp1968
S'20600701'
p1969
ag5
(g6
g7
NtRp1970
((dp1971
S'GO:0005829'
p1972
I01
sS'GO:0016604'
p1973
I01
sS'GO:0005634'
p1974
I01
stbaa(lp1975
S'16524908'
p1976
ag5
(g6
g7
NtRp1977
((dp1978
S'GO:0031618'
p1979
I01
stbaa(lp1980
S'15123660'
p1981
ag5
(g6
g7
NtRp1982
((dp1983
S'GO:0005737'
p1984
I01
stbaa(lp1985
S'18768936'
p1986
ag5
(g6
g7
NtRp1987
((dp1988
S'GO:0005886'
p1989
I01
stbaa(lp1990
S'9582274'
p1991
ag5
(g6
g7
NtRp1992
((dp1993
S'GO:0005622'
p1994
I01
stbaa(lp1995
S'15155803'
p1996
ag5
(g6
g7
NtRp1997
((dp1998
S'GO:0005742'
p1999
I01
stbaa(lp2000
S'16507593'
p2001
ag5
(g6
g7
NtRp2002
((dp2003
S'GO:0005739'
p2004
I01
stbaa(lp2005
S'20406883'
p2006
ag5
(g6
g7
NtRp2007
((dp2008
S'GO:0005739'
p2009
I01
stbaa(lp2010
S'16741867'
p2011
ag5
(g6
g7
NtRp2012
((dp2013
S'GO:0015629'
p2014
I01
stbaa(lp2015
S'16571632'
p2016
ag5
(g6
g7
NtRp2017
((dp2018
S'GO:0005634'
p2019
I01
stbaa(lp2020
S'14595117'
p2021
ag5
(g6
g7
NtRp2022
((dp2023
S'GO:0005634'
p2024
I01
sS'GO:0005938'
p2025
I01
stbaa(lp2026
S'12871696'
p2027
ag5
(g6
g7
NtRp2028
((dp2029
S'GO:0016021'
p2030
I01
stbaa(lp2031
S'17664333'
p2032
ag5
(g6
g7
NtRp2033
((dp2034
S'GO:0032010'
p2035
I01
sS'GO:0030670'
p2036
I01
stbaa(lp2037
S'22307974'
p2038
ag5
(g6
g7
NtRp2039
((dp2040
S'GO:0001726'
p2041
I01
sS'GO:0071944'
p2042
I01
sS'GO:0031941'
p2043
I01
sS'GO:0005886'
p2044
I01
stbaa(lp2045
S'10331990'
p2046
ag5
(g6
g7
NtRp2047
((dp2048
S'GO:0005634'
p2049
I01
stbaa(lp2050
S'23616924'
p2051
ag5
(g6
g7
NtRp2052
((dp2053
S'GO:0005634'
p2054
I01
sS'GO:0031941'
p2055
I01
sS'GO:0060187'
p2056
I01
sS'GO:0005886'
p2057
I01
stbaa(lp2058
S'18611962'
p2059
ag5
(g6
g7
NtRp2060
((dp2061
S'GO:0031410'
p2062
I01
sS'GO:0005576'
p2063
I01
stbaa(lp2064
S'9729488'
p2065
ag5
(g6
g7
NtRp2066
((dp2067
S'GO:0005634'
p2068
I01
stbaa(lp2069
S'14732403'
p2070
ag5
(g6
g7
NtRp2071
((dp2072
S'GO:0016021'
p2073
I01
stbaa(lp2074
S'15897458'
p2075
ag5
(g6
g7
NtRp2076
((dp2077
S'GO:0009897'
p2078
I01
sS'GO:0005576'
p2079
I01
stbaa(lp2080
S'18160177'
p2081
ag5
(g6
g7
NtRp2082
((dp2083
S'GO:0005737'
p2084
I01
sS'GO:0005783'
p2085
I01
sS'GO:0005739'
p2086
I01
stbaa(lp2087
S'18673380'
p2088
ag5
(g6
g7
NtRp2089
((dp2090
S'GO:0000159'
p2091
I01
stbaa(lp2092
S'18164290'
p2093
ag5
(g6
g7
NtRp2094
((dp2095
S'GO:0031143'
p2096
I01
sS'GO:0005938'
p2097
I01
sS'GO:0031982'
p2098
I01
stbaa(lp2099
S'21531871'
p2100
ag5
(g6
g7
NtRp2101
((dp2102
S'GO:0043234'
p2103
I01
sS'GO:0031941'
p2104
I01
stbaa(lp2105
S'22262860'
p2106
ag5
(g6
g7
NtRp2107
((dp2108
S'GO:0005773'
p2109
I01
sS'GO:0005886'
p2110
I01
stbaa(lp2111
S'9394012'
p2112
ag5
(g6
g7
NtRp2113
((dp2114
S'GO:0005773'
p2115
I01
sS'GO:0005886'
p2116
I01
stbaa(lp2117
S'16750281'
p2118
ag5
(g6
g7
NtRp2119
((dp2120
S'GO:0016020'
p2121
I01
stbaa(lp2122
S'21040356'
p2123
ag5
(g6
g7
NtRp2124
((dp2125
S'GO:0030670'
p2126
I01
stbaa(lp2127
S'19465563'
p2128
ag5
(g6
g7
NtRp2129
((dp2130
S'GO:0005634'
p2131
I01
sS'GO:0005635'
p2132
I01
stbaa(lp2133
S'20539780'
p2134
ag5
(g6
g7
NtRp2135
((dp2136
S'GO:0005654'
p2137
I01
sS'GO:0005737'
p2138
I01
stbaa(lp2139
S'22223109'
p2140
ag5
(g6
g7
NtRp2141
((dp2142
S'GO:0031592'
p2143
I01
stbaa(lp2144
S'12686622'
p2145
ag5
(g6
g7
NtRp2146
((dp2147
S'GO:0005737'
p2148
I01
sS'GO:0005938'
p2149
I01
stbaa(lp2150
S'17419997'
p2151
ag5
(g6
g7
NtRp2152
((dp2153
S'GO:0005829'
p2154
I01
stbaa(lp2155
S'565823'
p2156
ag5
(g6
g7
NtRp2157
((dp2158
S'GO:0000331'
p2159
I01
stbaa(lp2160
S'21134080'
p2161
ag5
(g6
g7
NtRp2162
((dp2163
S'GO:0005813'
p2164
I01
sS'GO:0048471'
p2165
I01
sS'GO:0072686'
p2166
I01
sS'GO:0031410'
p2167
I01
stbaa(lp2168
S'17050736'
p2169
ag5
(g6
g7
NtRp2170
((dp2171
S'GO:0030131'
p2172
I01
sS'GO:0000331'
p2173
I01
sS'GO:0005886'
p2174
I01
stbaa(lp2175
S'11493573'
p2176
ag5
(g6
g7
NtRp2177
((dp2178
S'GO:0005634'
p2179
I01
stbaa(lp2180
S'18854143'
p2181
ag5
(g6
g7
NtRp2182
((dp2183
S'GO:0005737'
p2184
I01
sS'GO:0030864'
p2185
I01
stbaa(lp2186
S'15470506'
p2187
ag5
(g6
g7
NtRp2188
((dp2189
S'GO:0005938'
p2190
I01
stbaa(lp2191
S'14665465'
p2192
ag5
(g6
g7
NtRp2193
((dp2194
S'GO:0005759'
p2195
I01
stbaa(lp2196
S'8898200'
p2197
ag5
(g6
g7
NtRp2198
((dp2199
S'GO:0005634'
p2200
I01
stbaa(lp2201
S'21034843'
p2202
ag5
(g6
g7
NtRp2203
((dp2204
S'GO:0030864'
p2205
I01
sS'GO:0005874'
p2206
I01
sS'GO:0005815'
p2207
I01
stbaa(lp2208
S'12697064'
p2209
ag5
(g6
g7
NtRp2210
((dp2211
S'GO:0005844'
p2212
I01
sS'GO:0005850'
p2213
I01
sS'GO:0005622'
p2214
I01
stbaa(lp2215
S'15193148'
p2216
ag5
(g6
g7
NtRp2217
((dp2218
S'GO:0005576'
p2219
I01
stbaa(lp2220
S'16814427'
p2221
ag5
(g6
g7
NtRp2222
((dp2223
S'GO:0005737'
p2224
I01
sS'GO:0005634'
p2225
I01
sS'GO:0005730'
p2226
I01
stbaa(lp2227
S'16790492'
p2228
ag5
(g6
g7
NtRp2229
((dp2230
S'GO:0031252'
p2231
I01
sS'GO:0015629'
p2232
I01
stbaa(lp2233
S'15851518'
p2234
ag5
(g6
g7
NtRp2235
((dp2236
S'GO:0005737'
p2237
I01
sS'GO:0031256'
p2238
I01
sS'GO:0016020'
p2239
I01
stbaa(lp2240
S'22992462'
p2241
ag5
(g6
g7
NtRp2242
((dp2243
S'GO:0031164'
p2244
I01
stbaa(lp2245
S'16782229'
p2246
ag5
(g6
g7
NtRp2247
((dp2248
S'GO:0005813'
p2249
I01
stbaa(lp2250
S'15629062'
p2251
ag5
(g6
g7
NtRp2252
((dp2253
S'GO:0005634'
p2254
I01
stbaa(lp2255
S'293714'
p2256
ag5
(g6
g7
NtRp2257
((dp2258
S'GO:0015629'
p2259
I01
stbaa(lp2260
S'23161062'
p2261
ag5
(g6
g7
NtRp2262
((dp2263
S'GO:0005635'
p2264
I01
stbaa(lp2265
S'21933174'
p2266
ag5
(g6
g7
NtRp2267
((dp2268
S'GO:0005829'
p2269
I01
sS'GO:0005634'
p2270
I01
stbaa(lp2271
S'21876387'
p2272
ag5
(g6
g7
NtRp2273
((dp2274
S'GO:0005829'
p2275
I01
stbaa(lp2276
S'12117815'
p2277
ag5
(g6
g7
NtRp2278
((dp2279
S'GO:0005576'
p2280
I01
stbaa(lp2281
S'10880352'
p2282
ag5
(g6
g7
NtRp2283
((dp2284
S'GO:0005737'
p2285
I01
sS'GO:0005634'
p2286
I01
stbaa(lp2287
S'15640146'
p2288
ag5
(g6
g7
NtRp2289
((dp2290
S'GO:0016023'
p2291
I01
sS'GO:0031410'
p2292
I01
sS'GO:0031983'
p2293
I01
stbaa(lp2294
S'22623154'
p2295
ag5
(g6
g7
NtRp2296
((dp2297
S'GO:0005654'
p2298
I01
sS'GO:0005737'
p2299
I01
sS'GO:0005730'
p2300
I01
stbaa(lp2301
S'18840649'
p2302
ag5
(g6
g7
NtRp2303
((dp2304
S'GO:0005829'
p2305
I01
stbaa(lp2306
S'16449327'
p2307
ag5
(g6
g7
NtRp2308
((dp2309
S'GO:0031252'
p2310
I01
sS'GO:0030864'
p2311
I01
stbaa(lp2312
S'20940261'
p2313
ag5
(g6
g7
NtRp2314
((dp2315
S'GO:0031143'
p2316
I01
stbaa(lp2317
S'19632001'
p2318
ag5
(g6
g7
NtRp2319
((dp2320
S'GO:0005637'
p2321
I01
sS'GO:0005640'
p2322
I01
sS'GO:0005813'
p2323
I01
stbaa(lp2324
S'15059942'
p2325
ag5
(g6
g7
NtRp2326
((dp2327
S'GO:0005783'
p2328
I01
stbaa(lp2329
S'17950724'
p2330
ag5
(g6
g7
NtRp2331
((dp2332
S'GO:0005635'
p2333
I01
sS'GO:0005886'
p2334
I01
sS'GO:0005789'
p2335
I01
stbaa(lp2336
S'9275182'
p2337
ag5
(g6
g7
NtRp2338
((dp2339
S'GO:0005813'
p2340
I01
stbaa(lp2341
S'18948008'
p2342
ag5
(g6
g7
NtRp2343
((dp2344
S'GO:0005622'
p2345
I01
stbaa(lp2346
S'21187070'
p2347
ag5
(g6
g7
NtRp2348
((dp2349
S'GO:0005634'
p2350
I01
stbaa(lp2351
S'16899512'
p2352
ag5
(g6
g7
NtRp2353
((dp2354
S'GO:0031252'
p2355
I01
stbaa(lp2356
S'11956323'
p2357
ag5
(g6
g7
NtRp2358
((dp2359
S'GO:0005737'
p2360
I01
sS'GO:0005813'
p2361
I01
stbaa(lp2362
S'19576222'
p2363
ag5
(g6
g7
NtRp2364
((dp2365
S'GO:0005634'
p2366
I01
stbaa(lp2367
S'18408056'
p2368
ag5
(g6
g7
NtRp2369
((dp2370
S'GO:0005576'
p2371
I01
stbaa(lp2372
S'22038042'
p2373
ag5
(g6
g7
NtRp2374
((dp2375
S'GO:0005654'
p2376
I01
sS'GO:0005737'
p2377
I01
sS'GO:0005874'
p2378
I01
sS'GO:0005815'
p2379
I01
stbaa(lp2380
S'17391056'
p2381
ag5
(g6
g7
NtRp2382
((dp2383
S'GO:0005737'
p2384
I01
sS'GO:0005813'
p2385
I01
sS'GO:0005634'
p2386
I01
stbaa(lp2387
S'10545500'
p2388
ag5
(g6
g7
NtRp2389
((dp2390
S'GO:0005856'
p2391
I01
stbaa(lp2392
S'18707607'
p2393
ag5
(g6
g7
NtRp2394
((dp2395
S'GO:0005634'
p2396
I01
stbaa(lp2397
S'11872142'
p2398
ag5
(g6
g7
NtRp2399
((dp2400
S'GO:0000331'
p2401
I01
stbaa(lp2402
S'10588668'
p2403
ag5
(g6
g7
NtRp2404
((dp2405
S'GO:0005737'
p2406
I01
stbaa(lp2407
S'15086784'
p2408
ag5
(g6
g7
NtRp2409
((dp2410
S'GO:0031164'
p2411
I01
stbaa(lp2412
S'14629118'
p2413
ag5
(g6
g7
NtRp2414
((dp2415
S'GO:0005737'
p2416
I01
sS'GO:0005769'
p2417
I01
sS'GO:0010009'
p2418
I01
stbaa(lp2419
S'16781009'
p2420
ag5
(g6
g7
NtRp2421
((dp2422
S'GO:0005770'
p2423
I01
sS'GO:0005938'
p2424
I01
stbaa(lp2425
S'20071332'
p2426
ag5
(g6
g7
NtRp2427
((dp2428
S'GO:0005829'
p2429
I01
sS'GO:0030864'
p2430
I01
sS'GO:0031252'
p2431
I01
sS'GO:0001891'
p2432
I01
stbaa(lp2433
S'12529423'
p2434
ag5
(g6
g7
NtRp2435
((dp2436
S'GO:0042641'
p2437
I01
stbaa(lp2438
S'20966074'
p2439
ag5
(g6
g7
NtRp2440
((dp2441
S'GO:0005635'
p2442
I01
sS'GO:0005783'
p2443
I01
stbaa(lp2444
S'18809930'
p2445
ag5
(g6
g7
NtRp2446
((dp2447
S'GO:0032154'
p2448
I01
stbaa(lp2449
S'23679940'
p2450
ag5
(g6
g7
NtRp2451
((dp2452
S'GO:0005737'
p2453
I01
sS'GO:0015629'
p2454
I01
sS'GO:0032154'
p2455
I01
stbaa(lp2456
S'9636072'
p2457
ag5
(g6
g7
NtRp2458
((dp2459
S'GO:0005634'
p2460
I01
stbaa(lp2461
S'22682495'
p2462
ag5
(g6
g7
NtRp2463
((dp2464
S'GO:0005634'
p2465
I01
sS'GO:0005829'
p2466
I01
stbaa(lp2467
S'18708585'
p2468
ag5
(g6
g7
NtRp2469
((dp2470
S'GO:0005881'
p2471
I01
sS'GO:0005815'
p2472
I01
stbaa(lp2473
S'21131095'
p2474
ag5
(g6
g7
NtRp2475
((dp2476
S'GO:0005741'
p2477
I01
stbaa(lp2478
S'11352578'
p2479
ag5
(g6
g7
NtRp2480
((dp2481
S'GO:0005955'
p2482
I01
stbaa(lp2483
S'16339076'
p2484
ag5
(g6
g7
NtRp2485
((dp2486
S'GO:0000793'
p2487
I01
sS'GO:0051233'
p2488
I01
sS'GO:0032154'
p2489
I01
sS'GO:0000922'
p2490
I01
stbaa(lp2491
S'15947191'
p2492
ag5
(g6
g7
NtRp2493
((dp2494
S'GO:0005576'
p2495
I01
stbaa(lp2496
S'20472692'
p2497
ag5
(g6
g7
NtRp2498
((dp2499
S'GO:0005938'
p2500
I01
sS'GO:0031982'
p2501
I01
stbaa(lp2502
S'12388544'
p2503
ag5
(g6
g7
NtRp2504
((dp2505
S'GO:0030175'
p2506
I01
sS'GO:0005829'
p2507
I01
sS'GO:0005938'
p2508
I01
sS'GO:0031252'
p2509
I01
stbaa(lp2510
S'16176950'
p2511
ag5
(g6
g7
NtRp2512
((dp2513
S'GO:0043234'
p2514
I01
sS'GO:0005576'
p2515
I01
sS'GO:0005622'
p2516
I01
stbaa(lp2517
S'15255188'
p2518
ag5
(g6
g7
NtRp2519
((dp2520
S'GO:0005829'
p2521
I01
sS'GO:0031982'
p2522
I01
stbaa(lp2523
S'15728726'
p2524
ag5
(g6
g7
NtRp2525
((dp2526
S'GO:0005737'
p2527
I01
sS'GO:0000331'
p2528
I01
sS'GO:0048471'
p2529
I01
stbaa(lp2530
S'14551196'
p2531
ag5
(g6
g7
NtRp2532
((dp2533
S'GO:0005829'
p2534
I01
stbaa(lp2535
S'15546981'
p2536
ag5
(g6
g7
NtRp2537
((dp2538
S'GO:0005737'
p2539
I01
sS'GO:0005819'
p2540
I01
sS'GO:0005634'
p2541
I01
sS'GO:0030496'
p2542
I01
sS'GO:0031616'
p2543
I01
sS'GO:0005871'
p2544
I01
stbaa(lp2545
S'23333327'
p2546
ag5
(g6
g7
NtRp2547
((dp2548
S'GO:0035371'
p2549
I01
sS'GO:0005876'
p2550
I01
stbaa(lp2551
S'14665466'
p2552
ag5
(g6
g7
NtRp2553
((dp2554
S'GO:0009986'
p2555
I01
sS'GO:0005622'
p2556
I01
stbaa(lp2557
S'15506982'
p2558
ag5
(g6
g7
NtRp2559
((dp2560
S'GO:0031209'
p2561
I01
stbaa(lp2562
S'20348387'
p2563
ag5
(g6
g7
NtRp2564
((dp2565
S'GO:0005829'
p2566
I01
stbaa(lp2567
S'14701681'
p2568
ag5
(g6
g7
NtRp2569
((dp2570
S'GO:0005634'
p2571
I01
stbaa(lp2572
S'14517243'
p2573
ag5
(g6
g7
NtRp2574
((dp2575
S'GO:0005829'
p2576
I01
stbaa(lp2577
S'16135826'
p2578
ag5
(g6
g7
NtRp2579
((dp2580
S'GO:0005829'
p2581
I01
stbaa(lp2582
S'18039932'
p2583
ag5
(g6
g7
NtRp2584
((dp2585
S'GO:0005737'
p2586
I01
sS'GO:0030479'
p2587
I01
sS'GO:0031252'
p2588
I01
sS'GO:0005938'
p2589
I01
stbaa(lp2590
S'17050732'
p2591
ag5
(g6
g7
NtRp2592
((dp2593
S'GO:0005938'
p2594
I01
stbaa(lp2595
S'10727946'
p2596
ag5
(g6
g7
NtRp2597
((dp2598
S'GO:0016020'
p2599
I01
stbaa(lp2600
S'15084313'
p2601
ag5
(g6
g7
NtRp2602
((dp2603
S'GO:0005739'
p2604
I01
stbaa(lp2605
S'17501984'
p2606
ag5
(g6
g7
NtRp2607
((dp2608
S'GO:0031090'
p2609
I01
sS'GO:0005886'
p2610
I01
stbaa(lp2611
S'18367552'
p2612
ag5
(g6
g7
NtRp2613
((dp2614
S'GO:0005737'
p2615
I01
sS'GO:0005634'
p2616
I01
stbaa(lp2617
S'21562226'
p2618
ag5
(g6
g7
NtRp2619
((dp2620
S'GO:0005737'
p2621
I01
stbaa(lp2622
S'8647262'
p2623
ag5
(g6
g7
NtRp2624
((dp2625
S'GO:0005737'
p2626
I01
stbaa(lp2627
S'11831389'
p2628
ag5
(g6
g7
NtRp2629
((dp2630
S'GO:0005770'
p2631
I01
stbaa(lp2632
S'16920105'
p2633
ag5
(g6
g7
NtRp2634
((dp2635
S'GO:0031902'
p2636
I01
stbaa(lp2637
S'16343335'
p2638
ag5
(g6
g7
NtRp2639
((dp2640
S'GO:0030670'
p2641
I01
sS'GO:0005829'
p2642
I01
sS'GO:0031164'
p2643
I01
sS'GO:0005886'
p2644
I01
sS'GO:0031902'
p2645
I01
sS'GO:0031901'
p2646
I01
stbaa(lp2647
S'15509655'
p2648
ag5
(g6
g7
NtRp2649
((dp2650
S'GO:0031252'
p2651
I01
sS'GO:0001891'
p2652
I01
stbaa(lp2653
S'8670893'
p2654
ag5
(g6
g7
NtRp2655
((dp2656
S'GO:0016021'
p2657
I01
stbaa(lp2658
S'11689442'
p2659
ag5
(g6
g7
NtRp2660
((dp2661
S'GO:0005634'
p2662
I01
stbaa(lp2663
S'20019080'
p2664
ag5
(g6
g7
NtRp2665
((dp2666
S'GO:0005739'
p2667
I01
stbaa(lp2668
S'10459012'
p2669
ag5
(g6
g7
NtRp2670
((dp2671
S'GO:0005765'
p2672
I01
stbaa(lp2673
S'10329620'
p2674
ag5
(g6
g7
NtRp2675
((dp2676
S'GO:0005829'
p2677
I01
stbaa(lp2678
S'14593072'
p2679
ag5
(g6
g7
NtRp2680
((dp2681
S'GO:0005737'
p2682
I01
sS'GO:0015629'
p2683
I01
stbaa(lp2684
S'15225305'
p2685
ag5
(g6
g7
NtRp2686
((dp2687
S'GO:0005829'
p2688
I01
sS'GO:0005777'
p2689
I01
stbaa(lp2690
S'14736886'
p2691
ag5
(g6
g7
NtRp2692
((dp2693
S'GO:0005737'
p2694
I01
sS'GO:0005776'
p2695
I01
stbaa(lp2696
S'16473345'
p2697
ag5
(g6
g7
NtRp2698
((dp2699
S'GO:0005635'
p2700
I01
stbaa(lp2701
S'17481898'
p2702
ag5
(g6
g7
NtRp2703
((dp2704
S'GO:0005768'
p2705
I01
stbaa(lp2706
S'22073313'
p2707
ag5
(g6
g7
NtRp2708
((dp2709
S'GO:0061474'
p2710
I01
sS'GO:0031902'
p2711
I01
stbaa(lp2712
S'18504297'
p2713
ag5
(g6
g7
NtRp2714
((dp2715
S'GO:0005829'
p2716
I01
sS'GO:0005938'
p2717
I01
stbaa(lp2718
S'16644729'
p2719
ag5
(g6
g7
NtRp2720
((dp2721
S'GO:0005886'
p2722
I01
stbaa(lp2723
S'15708561'
p2724
ag5
(g6
g7
NtRp2725
((dp2726
S'GO:0000815'
p2727
I01
sS'GO:0005737'
p2728
I01
sS'GO:0005634'
p2729
I01
sS'GO:0005768'
p2730
I01
stbaa(lp2731
S'12912898'
p2732
ag5
(g6
g7
NtRp2733
((dp2734
S'GO:0005576'
p2735
I01
stbaa(lp2736
S'9428745'
p2737
ag5
(g6
g7
NtRp2738
((dp2739
S'GO:0042175'
p2740
I01
sS'GO:0005783'
p2741
I01
stbaa(lp2742
S'12878591'
p2743
ag5
(g6
g7
NtRp2744
((dp2745
S'GO:0000139'
p2746
I01
stbaa(lp2747
S'10444594'
p2748
ag5
(g6
g7
NtRp2749
((dp2750
S'GO:0005576'
p2751
I01
stbaa(lp2752
S'17488289'
p2753
ag5
(g6
g7
NtRp2754
((dp2755
S'GO:0005764'
p2756
I01
sS'GO:0045335'
p2757
I01
stbaa(lp2758
S'17625565'
p2759
ag5
(g6
g7
NtRp2760
((dp2761
S'GO:0031164'
p2762
I01
stbaa(lp2763
S'24128258'
p2764
ag5
(g6
g7
NtRp2765
((dp2766
S'GO:0005783'
p2767
I01
stbaa(lp2768
S'12060071'
p2769
ag5
(g6
g7
NtRp2770
((dp2771
S'GO:0016591'
p2772
I01
stbaa(lp2773
S'15643073'
p2774
ag5
(g6
g7
NtRp2775
((dp2776
S'GO:0031143'
p2777
I01
sS'GO:0005634'
p2778
I01
sS'GO:0005829'
p2779
I01
stbaa(lp2780
S'23915312'
p2781
ag5
(g6
g7
NtRp2782
((dp2783
S'GO:0005829'
p2784
I01
sS'GO:0005886'
p2785
I01
stbaa(lp2786
S'15705570'
p2787
ag5
(g6
g7
NtRp2788
((dp2789
S'GO:0005737'
p2790
I01
stbaa(lp2791
S'16410554'
p2792
ag5
(g6
g7
NtRp2793
((dp2794
S'GO:0005737'
p2795
I01
sS'GO:0031143'
p2796
I01
stbaa(lp2797
S'15652353'
p2798
ag5
(g6
g7
NtRp2799
((dp2800
S'GO:0031160'
p2801
I01
sS'GO:0005798'
p2802
I01
sS'GO:0005938'
p2803
I01
sS'GO:0005739'
p2804
I01
sS'GO:0005730'
p2805
I01
stbaa(lp2806
S'12372338'
p2807
ag5
(g6
g7
NtRp2808
((dp2809
S'GO:0005739'
p2810
I01
sS'GO:0030864'
p2811
I01
stbaa(lp2812
S'15507488'
p2813
ag5
(g6
g7
NtRp2814
((dp2815
S'GO:0005938'
p2816
I01
sS'GO:0005739'
p2817
I01
stbaa(lp2818
S'16456031'
p2819
ag5
(g6
g7
NtRp2820
((dp2821
S'GO:0005634'
p2822
I01
stbaa(lp2823
S'15800059'
p2824
ag5
(g6
g7
NtRp2825
((dp2826
S'GO:0015630'
p2827
I01
sS'GO:0031592'
p2828
I01
stbaa(lp2829
S'17343681'
p2830
ag5
(g6
g7
NtRp2831
((dp2832
S'GO:0005829'
p2833
I01
stbaa(lp2834
S'12499361'
p2835
ag5
(g6
g7
NtRp2836
((dp2837
S'GO:0005938'
p2838
I01
stbaa(lp2839
S'21441344'
p2840
ag5
(g6
g7
NtRp2841
((dp2842
S'GO:0015629'
p2843
I01
sS'GO:0005886'
p2844
I01
stbaa(lp2845
S'12429831'
p2846
ag5
(g6
g7
NtRp2847
((dp2848
S'GO:0005829'
p2849
I01
stbaa(lp2850
S'16155255'
p2851
ag5
(g6
g7
NtRp2852
((dp2853
S'GO:0030175'
p2854
I01
sS'GO:0005925'
p2855
I01
stbaa(lp2856
S'16900100'
p2857
ag5
(g6
g7
NtRp2858
((dp2859
S'GO:0005925'
p2860
I01
sS'GO:0031254'
p2861
I01
stbaa(lp2862
S'22730904'
p2863
ag5
(g6
g7
NtRp2864
((dp2865
S'GO:0016020'
p2866
I01
stbaa(lp2867
S'16734666'
p2868
ag5
(g6
g7
NtRp2869
((dp2870
S'GO:0005737'
p2871
I01
stbaa(lp2872
S'14617352'
p2873
ag5
(g6
g7
NtRp2874
((dp2875
S'GO:0030125'
p2876
I01
stbaa(lp2877
S'12220630'
p2878
ag5
(g6
g7
NtRp2879
((dp2880
S'GO:0048471'
p2881
I01
sS'GO:0071944'
p2882
I01
stbaa(lp2883
S'22119747'
p2884
ag5
(g6
g7
NtRp2885
((dp2886
S'GO:0005737'
p2887
I01
sS'GO:0005938'
p2888
I01
sS'GO:0005886'
p2889
I01
stbaa(lp2890
S'12475956'
p2891
ag5
(g6
g7
NtRp2892
((dp2893
S'GO:0005826'
p2894
I01
sS'GO:0005938'
p2895
I01
stbaa(lp2896
S'20709790'
p2897
ag5
(g6
g7
NtRp2898
((dp2899
S'GO:0005737'
p2900
I01
stbaa(lp2901
S'11157987'
p2902
ag5
(g6
g7
NtRp2903
((dp2904
S'GO:0005739'
p2905
I01
stbaa(lp2906
S'14623897'
p2907
ag5
(g6
g7
NtRp2908
((dp2909
S'GO:0005737'
p2910
I01
sS'GO:0031252'
p2911
I01
sS'GO:0030864'
p2912
I01
stbaa(lp2913
S'10593934'
p2914
ag5
(g6
g7
NtRp2915
((dp2916
S'GO:0005737'
p2917
I01
stbaa(lp2918
S'12244115'
p2919
ag5
(g6
g7
NtRp2920
((dp2921
S'GO:0005737'
p2922
I01
stbaa(lp2923
S'9446571'
p2924
ag5
(g6
g7
NtRp2925
((dp2926
S'GO:0005622'
p2927
I01
stbaa(lp2928
S'17467078'
p2929
ag5
(g6
g7
NtRp2930
((dp2931
S'GO:0030175'
p2932
I01
sS'GO:0005938'
p2933
I01
stbaa(lp2934
S'19011688'
p2935
ag5
(g6
g7
NtRp2936
((dp2937
S'GO:0031254'
p2938
I01
stbaa(lp2939
S'17623773'
p2940
ag5
(g6
g7
NtRp2941
((dp2942
S'GO:0051285'
p2943
I01
stbaa(lp2944
S'9880338'
p2945
ag5
(g6
g7
NtRp2946
((dp2947
S'GO:0005737'
p2948
I01
sS'GO:0032195'
p2949
I01
stbaa(lp2950
S'8660315'
p2951
ag5
(g6
g7
NtRp2952
((dp2953
S'GO:0005737'
p2954
I01
sS'GO:0016020'
p2955
I01
stbaa(lp2956
S'9169048'
p2957
ag5
(g6
g7
NtRp2958
((dp2959
S'GO:0005737'
p2960
I01
sS'GO:0005773'
p2961
I01
stbaa(lp2962
S'15788570'
p2963
ag5
(g6
g7
NtRp2964
((dp2965
S'GO:0005886'
p2966
I01
stbaa(lp2967
S'8831554'
p2968
ag5
(g6
g7
NtRp2969
((dp2970
S'GO:0016020'
p2971
I01
stbaa(lp2972
S'15196949'
p2973
ag5
(g6
g7
NtRp2974
((dp2975
S'GO:0005634'
p2976
I01
sS'GO:0005829'
p2977
I01
stbaa(lp2978
S'11927596'
p2979
ag5
(g6
g7
NtRp2980
((dp2981
S'GO:0005737'
p2982
I01
sS'GO:0005634'
p2983
I01
stbaa(lp2984
S'11481037'
p2985
ag5
(g6
g7
NtRp2986
((dp2987
S'GO:0005737'
p2988
I01
sS'GO:0016020'
p2989
I01
stbaa(lp2990
S'12018385'
p2991
ag5
(g6
g7
NtRp2992
((dp2993
S'GO:0005813'
p2994
I01
stbaa(lp2995
S'11683919'
p2996
ag5
(g6
g7
NtRp2997
((dp2998
S'GO:0015629'
p2999
I01
stbaa(lp3000
S'19411624'
p3001
ag5
(g6
g7
NtRp3002
((dp3003
S'GO:0043234'
p3004
I01
sS'GO:0005634'
p3005
I01
stbaa(lp3006
S'15367206'
p3007
ag5
(g6
g7
NtRp3008
((dp3009
S'GO:0005576'
p3010
I01
stbaa(lp3011
S'21256841'
p3012
ag5
(g6
g7
NtRp3013
((dp3014
S'GO:0000421'
p3015
I01
sS'GO:0005774'
p3016
I01
stbaa(lp3017
S'23938384'
p3018
ag5
(g6
g7
NtRp3019
((dp3020
S'GO:0031164'
p3021
I01
stbaa(lp3022
S'17004322'
p3023
ag5
(g6
g7
NtRp3024
((dp3025
S'GO:0005764'
p3026
I01
sS'GO:0000331'
p3027
I01
sS'GO:0016020'
p3028
I01
sS'GO:0005783'
p3029
I01
sS'GO:0005794'
p3030
I01
stbaa(lp3031
S'16950926'
p3032
ag5
(g6
g7
NtRp3033
((dp3034
S'GO:0005737'
p3035
I01
sS'GO:0030175'
p3036
I01
sS'GO:0005938'
p3037
I01
sS'GO:0032009'
p3038
I01
stbaa(lp3039
S'11479029'
p3040
ag5
(g6
g7
NtRp3041
((dp3042
S'GO:0005737'
p3043
I01
sS'GO:0005938'
p3044
I01
stbaa(lp3045
S'9546041'
p3046
ag5
(g6
g7
NtRp3047
((dp3048
S'GO:0005853'
p3049
I01
stbaa(lp3050
S'11598188'
p3051
ag5
(g6
g7
NtRp3052
((dp3053
S'GO:0005634'
p3054
I01
sS'GO:0005739'
p3055
I01
stbaa(lp3056
S'15883156'
p3057
ag5
(g6
g7
NtRp3058
((dp3059
S'GO:0012506'
p3060
I01
stbaa(lp3061
S'15728724'
p3062
ag5
(g6
g7
NtRp3063
((dp3064
S'GO:0015629'
p3065
I01
stbaa(lp3066
S'12756178'
p3067
ag5
(g6
g7
NtRp3068
((dp3069
S'GO:0016021'
p3070
I01
stbaa(lp3071
S'16151245'
p3072
ag5
(g6
g7
NtRp3073
((dp3074
S'GO:0005783'
p3075
I01
stbaa(lp3076
S'10970875'
p3077
ag5
(g6
g7
NtRp3078
((dp3079
S'GO:0016021'
p3080
I01
stbaa(lp3081
S'17416892'
p3082
ag5
(g6
g7
NtRp3083
((dp3084
S'GO:0016023'
p3085
I01
sS'GO:0031160'
p3086
I01
stbaa(lp3087
S'11719559'
p3088
ag5
(g6
g7
NtRp3089
((dp3090
S'GO:0016020'
p3091
I01
sS'GO:0005768'
p3092
I01
stbaa(lp3093
S'22849378'
p3094
ag5
(g6
g7
NtRp3095
((dp3096
S'GO:0005777'
p3097
I01
stbaa(lp3098
S'10804029'
p3099
ag5
(g6
g7
NtRp3100
((dp3101
S'GO:0005829'
p3102
I01
stbaa(lp3103
S'11690648'
p3104
ag5
(g6
g7
NtRp3105
((dp3106
S'GO:0005634'
p3107
I01
sS'GO:0005829'
p3108
I01
stbaa(lp3109
S'16478785'
p3110
ag5
(g6
g7
NtRp3111
((dp3112
S'GO:0000331'
p3113
I01
sS'GO:0005768'
p3114
I01
sS'GO:0005886'
p3115
I01
stbaa(lp3116
S'11208126'
p3117
ag5
(g6
g7
NtRp3118
((dp3119
S'GO:0016461'
p3120
I01
stbaa(lp3121
S'10828443'
p3122
ag5
(g6
g7
NtRp3123
((dp3124
S'GO:0042995'
p3125
I01
stbaa(lp3126
S'11267868'
p3127
ag5
(g6
g7
NtRp3128
((dp3129
S'GO:0030175'
p3130
I01
sS'GO:0005829'
p3131
I01
sS'GO:0031252'
p3132
I01
sS'GO:0001891'
p3133
I01
stbaa(lp3134
S'21086149'
p3135
ag5
(g6
g7
NtRp3136
((dp3137
S'GO:0031143'
p3138
I01
sS'GO:0000331'
p3139
I01
sS'GO:0045335'
p3140
I01
sS'GO:0005741'
p3141
I01
sS'GO:0005886'
p3142
I01
stbaa(lp3143
S'11919178'
p3144
ag5
(g6
g7
NtRp3145
((dp3146
S'GO:0005654'
p3147
I01
stbaa(lp3148
S'21327858'
p3149
ag5
(g6
g7
NtRp3150
((dp3151
S'GO:0005654'
p3152
I01
sS'GO:0005813'
p3153
I01
sS'GO:0005635'
p3154
I01
sS'GO:0005730'
p3155
I01
stbaa(lp3156
S'10652255'
p3157
ag5
(g6
g7
NtRp3158
((dp3159
S'GO:0005737'
p3160
I01
sS'GO:0001726'
p3161
I01
sS'GO:0070685'
p3162
I01
sS'GO:0031252'
p3163
I01
sS'GO:0001891'
p3164
I01
stbaa(lp3165
S'10504413'
p3166
ag5
(g6
g7
NtRp3167
((dp3168
S'GO:0005886'
p3169
I01
stbaatRp3170
.