(dp1
S'21856340'
p2
(lp3
sS'19997487'
p4
(lp5
sS'20616082'
p6
(lp7
sS'16204380'
p8
(lp9
sS'23516444'
p10
(lp11
sS'12576479'
p12
(lp13
sS'22394678'
p14
(lp15
sS'11095740'
p16
(lp17
sS'10944490'
p18
(lp19
sS'19170609'
p20
(lp21
sS'16177003'
p22
(lp23
sS'16876762'
p24
(lp25
sS'10217146'
p26
(lp27
sS'18434326'
p28
(lp29
sS'10431240'
p30
(lp31
sS'10431247'
p32
(lp33
sS'15510220'
p34
(lp35
sS'16627472'
p36
(lp37
sS'21689730'
p38
(lp39
sS'12200364'
p40
(lp41
sS'15485925'
p42
(lp43
sS'15748150'
p44
(lp45
sS'15482256'
p46
(lp47
sS'17463056'
p48
(lp49
sS'17135251'
p50
(lp51
sS'10790368'
p52
(lp53
sS'12606483'
p54
(lp55
sS'11053421'
p56
(lp57
sS'19723774'
p58
(lp59
sS'10872802'
p60
(lp61
sS'18212736'
p62
(lp63
sS'20798359'
p64
(lp65
sS'20131354'
p66
(lp67
sS'10588879'
p68
(lp69
sS'12355421'
p70
(lp71
sS'19851463'
p72
(lp73
sS'15789338'
p74
(lp75
sS'20015956'
p76
(lp77
sS'14660681'
p78
(lp79
sS'20637498'
p80
(lp81
sS'17008311'
p82
(lp83
sS'15526030'
p84
(lp85
sS'16446141'
p86
(lp87
sS'15572405'
p88
(lp89
sS'11358869'
p90
(lp91
sS'14517278'
p92
(lp93
sS'16870733'
p94
(lp95
sS'11518511'
p96
(lp97
sS'15456761'
p98
(lp99
sS'20861021'
p100
(lp101
sS'21042282'
p102
(lp103
sS'19176879'
p104
(lp105
sS'15082531'
p106
(lp107
sS'16306232'
p108
(lp109
sS'23518348'
p110
(lp111
sS'16269335'
p112
(lp113
sS'15606491'
p114
(lp115
sS'12051767'
p116
(lp117
sS'11564874'
p118
(lp119
sS'12051765'
p120
(lp121
sS'18206965'
p122
(lp123
sS'11564878'
p124
(lp125
sS'19033661'
p126
(lp127
sS'17412810'
p128
(lp129
sS'15951841'
p130
(lp131
sS'16936075'
p132
(lp133
sS'23088492'
p134
(lp135
sS'21508411'
p136
(lp137
sS'21553379'
p138
(lp139
sS'17412818'
p140
(lp141
sS'21106753'
p142
(lp143
sS'15983371'
p144
(lp145
sS'15207008'
p146
(lp147
sS'11071879'
p148
(lp149
sS'20702777'
p150
(lp151
sS'18804439'
p152
(lp153
sS'18804437'
p154
(lp155
sS'10764796'
p156
(lp157
sS'16707121'
p158
(lp159
sS'15650876'
p160
(lp161
sS'17166926'
p162
(lp163
sS'15830352'
p164
(lp165
sS'17215516'
p166
(lp167
sS'12917627'
p168
(lp169
sS'17000770'
p170
(lp171
sS'11494128'
p172
(lp173
sS'16301330'
p174
(lp175
sS'16801545'
p176
(lp177
sS'12915479'
p178
(lp179
sS'17452521'
p180
(lp181
sS'18094260'
p182
(lp183
sS'16759287'
p184
(lp185
sS'20032212'
p186
(lp187
sS'17681148'
p188
(lp189
sS'20010690'
p190
(lp191
sS'12912983'
p192
(lp193
sS'17065522'
p194
(lp195
sS'12527917'
p196
(lp197
sS'22228629'
p198
(lp199
sS'18443282'
p200
(lp201
sS'18829961'
p202
(lp203
sS'15317934'
p204
(lp205
sS'17384148'
p206
(lp207
sS'12477932'
p208
(lp209
sS'19710174'
p210
(lp211
sS'20634897'
p212
(lp213
sS'11278685'
p214
(lp215
sS'15087461'
p216
(lp217
sS'15654325'
p218
(lp219
sS'15249232'
p220
(lp221
sS'9184696'
p222
(lp223
sS'20631153'
p224
(lp225
sS'19091015'
p226
(lp227
sS'11274145'
p228
(lp229
sS'17367784'
p230
(lp231
sS'10951563'
p232
(lp233
sS'11066060'
p234
(lp235
sS'16230358'
p236
(lp237
sS'19793887'
p238
(lp239
sS'16230351'
p240
(lp241
sS'15383550'
p242
(lp243
sS'16319126'
p244
(lp245
sS'15657431'
p246
(lp247
sS'23431145'
p248
(lp249
sS'16403806'
p250
(lp251
sS'12397177'
p252
(lp253
sS'11716489'
p254
(lp255
sS'19144821'
p256
(lp257
sS'17726538'
p258
(lp259
sS'21346190'
p260
(lp261
sS'21346191'
p262
(lp263
sS'21892189'
p264
(lp265
sS'21346198'
p266
(lp267
sS'15359272'
p268
(lp269
sS'21148103'
p270
(lp271
sS'22553199'
p272
(lp273
sS'17071745'
p274
(lp275
sS'20627076'
p276
(lp277
sS'16186258'
p278
(lp279
sS'20627074'
p280
(lp281
sS'15359279'
p282
(lp283
sS'21536733'
p284
(lp285
sS'10523863'
p286
(lp287
sS'12130539'
p288
(lp289
sS'15879306'
p290
(lp291
sS'10716720'
p292
(lp293
sS'19801974'
p294
(lp295
sS'11390422'
p296
(lp297
sS'14647292'
p298
(lp299
sS'19269367'
p300
(lp301
sS'22898775'
p302
(lp303
sS'12130536'
p304
(lp305
sS'15155459'
p306
(lp307
sS'16192288'
p308
(lp309
sS'10498652'
p310
(lp311
sS'19000668'
p312
(lp313
sS'12221714'
p314
(lp315
sS'11783999'
p316
(lp317
sS'11124544'
p318
(lp319
sS'15878874'
p320
(lp321
sS'11248026'
p322
(lp323
sS'16264195'
p324
(lp325
sS'12203715'
p326
(lp327
sS'15550985'
p328
(lp329
sS'16954378'
p330
(lp331
sS'1461282'
p332
(lp333
sS'19074552'
p334
(lp335
sS'23168168'
p336
(lp337
sS'9548375'
p338
(lp339
sS'15916963'
p340
(lp341
sS'21070968'
p342
(lp343
sS'21074248'
p344
(lp345
sS'18495661'
p346
(lp347
sS'14625387'
p348
(lp349
sS'16987870'
p350
(lp351
sS'14691133'
p352
(lp353
sS'23325319'
p354
(lp355
sS'17174564'
p356
(lp357
sS'5795329'
p358
(lp359
sS'14691139'
p360
(lp361
sS'14691138'
p362
(lp363
sS'11668602'
p364
(lp365
sS'8954745'
p366
(lp367
sS'15540117'
p368
(lp369
sS'22609986'
p370
(lp371
sS'21632880'
p372
(lp373
sS'16093361'
p374
(lp375
sS'19508861'
p376
(lp377
sS'15064401'
p378
(lp379
sS'14765194'
p380
(lp381
sS'15901639'
p382
(lp383
sS'15901638'
p384
(lp385
sS'15528209'
p386
(lp387
sS'11081504'
p388
(lp389
sS'11353846'
p390
(lp391
sS'19168544'
p392
(lp393
sS'16709231'
p394
(lp395
sS'16537902'
p396
(lp397
sS'20837545'
p398
(lp399
sS'17124501'
p400
(lp401
sS'10494839'
p402
(lp403
sS'22451653'
p404
(lp405
sS'18070594'
p406
(lp407
sS'21045808'
p408
(lp409
sS'15328538'
p410
(lp411
sS'15033976'
p412
(lp413
sS'16434494'
p414
(lp415
sS'22387195'
p416
(lp417
sS'12867411'
p418
(lp419
sS'17341663'
p420
(lp421
sS'15994349'
p422
(lp423
sS'23408841'
p424
(lp425
sS'8622765'
p426
(lp427
sS'8622766'
p428
(lp429
sS'12209834'
p430
(lp431
sS'11493596'
p432
(lp433
sS'9155026'
p434
(lp435
sS'23446454'
p436
(lp437
sS'9598300'
p438
(lp439
sS'21722636'
p440
(lp441
sS'18001149'
p442
(lp443
sS'11604420'
p444
(lp445
sS'12532266'
p446
(lp447
sS'12532265'
p448
(lp449
sS'15084468'
p450
(lp451
sS'18369314'
p452
(lp453
sS'15084464'
p454
(lp455
sS'10829076'
p456
(lp457
sS'21550054'
p458
(lp459
sS'15870106'
p460
(lp461
sS'12235133'
p462
(lp463
sS'20080746'
p464
(lp465
sS'15136581'
p466
(lp467
sS'22287103'
p468
(lp469
sS'19240112'
p470
(lp471
sS'10967099'
p472
(lp473
sS'15582606'
p474
(lp475
sS'15467743'
p476
(lp477
sS'15467741'
p478
(lp479
sS'15363390'
p480
(lp481
sS'12403827'
p482
(lp483
sS'20519502'
p484
(lp485
sS'22575648'
p486
(lp487
sS'16369483'
p488
(lp489
sS'12016217'
p490
(lp491
sS'11276224'
p492
(lp493
sS'11276227'
p494
(lp495
sS'22575646'
p496
(lp497
sS'18815260'
p498
(lp499
sS'9153393'
p500
(lp501
sS'10191086'
p502
(lp503
sS'19727199'
p504
(lp505
sS'11443127'
p506
(lp507
sS'22079989'
p508
(lp509
sS'16339073'
p510
(lp511
sS'11238923'
p512
(lp513
sS'16339075'
p514
(lp515
sS'10191088'
p516
(lp517
sS'21911940'
p518
(lp519
sS'17644741'
p520
(lp521
sS'21628588'
p522
(lp523
sS'12082075'
p524
(lp525
sS'15558031'
p526
(lp527
sS'14594818'
p528
(lp529
sS'20965152'
p530
(lp531
sS'14668413'
p532
(lp533
sS'11478795'
p534
(lp535
sS'16051690'
p536
(lp537
sS'17145779'
p538
(lp539
sS'16574095'
p540
(lp541
sS'20804756'
p542
(lp543
sS'17196582'
p544
(lp545
sS'19319192'
p546
(lp547
sS'10993896'
p548
(lp549
sS'12837755'
p550
(lp551
sS'10993894'
p552
(lp553
sS'19592082'
p554
(lp555
sS'16314520'
p556
(lp557
sS'17616641'
p558
(lp559
sS'15390100'
p560
(lp561
sS'19966784'
p562
(lp563
sS'20720167'
p564
(lp565
sS'12928441'
p566
(lp567
sS'15182301'
p568
(lp569
sS'17943183'
p570
(lp571
sS'15863367'
p572
(lp573
sS'11713292'
p574
(lp575
sS'11713295'
p576
(lp577
sS'18025262'
p578
(lp579
sS'17714700'
p580
(lp581
sS'19151727'
p582
(lp583
sS'17409423'
p584
(lp585
sS'21057547'
p586
(lp587
sS'16498405'
p588
(lp589
sS'19251639'
p590
(lp591
sS'18931657'
p592
(lp593
sS'18057121'
p594
(lp595
sS'21153519'
p596
(lp597
sS'20634317'
p598
(lp599
sS'21060781'
p600
(lp601
sS'15990875'
p602
(lp603
sS'12130579'
p604
(lp605
sS'16172272'
p606
(lp607
sS'12930873'
p608
(lp609
sS'18752272'
p610
(lp611
sS'10708578'
p612
(lp613
sS'18093975'
p614
(lp615
sS'18093972'
p616
(lp617
sS'18093970'
p618
(lp619
sS'16282979'
p620
(lp621
sS'12651948'
p622
(lp623
sS'20510672'
p624
(lp625
sS'17314271'
p626
(lp627
sS'16885411'
p628
(lp629
sS'17952069'
p630
(lp631
sS'16980309'
p632
(lp633
sS'18716284'
p634
(lp635
sS'10673330'
p636
(lp637
sS'17898041'
p638
(lp639
sS'16769892'
p640
(lp641
sS'14739254'
p642
(lp643
sS'17510064'
p644
(lp645
sS'19893577'
p646
(lp647
sS'15501603'
p648
(lp649
sS'16249178'
p650
(lp651
sS'16860792'
p652
(lp653
sS'11711429'
p654
(lp655
sS'12672659'
p656
(lp657
sS'12672658'
p658
(lp659
sS'8956278'
p660
(lp661
sS'17548362'
p662
(lp663
sS'20075857'
p664
(lp665
sS'10235262'
p666
(lp667
sS'11716496'
p668
(lp669
sS'17565372'
p670
(lp671
sS'15556296'
p672
(lp673
sS'22988117'
p674
(lp675
sS'20463215'
p676
(lp677
sS'15474286'
p678
(lp679
sS'17635665'
p680
(lp681
sS'17464331'
p682
(lp683
sS'18802469'
p684
(lp685
sS'9070930'
p686
(lp687
sS'18802465'
p688
(lp689
sS'16455790'
p690
(lp691
sS'10322635'
p692
(lp693
sS'19429709'
p694
(lp695
sS'10322633'
p696
(lp697
sS'10969066'
p698
(lp699
sS'16580864'
p700
(lp701
sS'10322639'
p702
(lp703
sS'10751406'
p704
(lp705
sS'10591209'
p706
(lp707
sS'22516263'
p708
(lp709
sS'15365173'
p710
(lp711
sS'15155732'
p712
(lp713
sS'15525938'
p714
(lp715
sS'12066189'
p716
(lp717
sS'16675541'
p718
(lp719
sS'14688250'
p720
(lp721
sS'15365178'
p722
(lp723
sS'17145500'
p724
(lp725
sS'23275340'
p726
(lp727
sS'20493731'
p728
(lp729
sS'23275342'
p730
(lp731
sS'14973287'
p732
(lp733
sS'15469977'
p734
(lp735
sS'10964517'
p736
(lp737
sS'12574114'
p738
(lp739
sS'19734317'
p740
(lp741
sS'18202317'
p742
(lp743
sS'16702404'
p744
(lp745
sS'16702405'
p746
(lp747
sS'16702408'
p748
(lp749
sS'18377888'
p750
(lp751
sS'19535332'
p752
(lp753
sS'18845144'
p754
(lp755
sS'11095744'
p756
(lp757
sS'11278875'
p758
(lp759
sS'10227293'
p760
(lp761
sS'18816825'
p762
(lp763
sS'10903840'
p764
(lp765
sS'10227294'
p766
(lp767
sS'18172555'
p768
(lp769
sS'2202907'
p770
(lp771
sS'16510873'
p772
(lp773
sS'15304517'
p774
(lp775
sS'18671743'
p776
(lp777
sS'16100120'
p778
(lp779
sS'23022482'
p780
(lp781
sS'16919471'
p782
(lp783
sS'17641689'
p784
(lp785
sS'19279136'
p786
(lp787
sS'16799046'
p788
(lp789
sS'18635606'
p790
(lp791
sS'18635608'
p792
(lp793
sS'23393138'
p794
(lp795
sS'11959851'
p796
(lp797
sS'14581480'
p798
(lp799
sS'17707228'
p800
(lp801
sS'12679338'
p802
(lp803
sS'11237729'
p804
(lp805
sS'11959859'
p806
(lp807
sS'10393849'
p808
(lp809
sS'15817708'
p810
(lp811
sS'16828733'
p812
(lp813
sS'10942597'
p814
(lp815
sS'20844123'
p816
(lp817
sS'15107403'
p818
(lp819
sS'15107405'
p820
(lp821
sS'15220916'
p822
(lp823
sS'19477969'
p824
(lp825
sS'17369357'
p826
(lp827
sS'20018847'
p828
(lp829
sS'11390982'
p830
(lp831
sS'10849425'
p832
(lp833
sS'16691571'
p834
(lp835
sS'20843790'
p836
(lp837
sS'16014715'
p838
(lp839
sS'15280373'
p840
(lp841
sS'9169132'
p842
(lp843
sS'21126319'
p844
(lp845
sS'14755333'
p846
(lp847
sS'22252131'
p848
(lp849
sS'11431700'
p850
(lp851
sS'3047555'
p852
(lp853
sS'21813695'
p854
(lp855
sS'10508517'
p856
(lp857
sS'10508511'
p858
(lp859
sS'11106648'
p860
(lp861
sS'16085792'
p862
(lp863
sS'17708681'
p864
(lp865
sS'8202139'
p866
(lp867
sS'15372036'
p868
(lp869
sS'21212101'
p870
(lp871
sS'9398841'
p872
(lp873
sS'17762867'
p874
(lp875
sS'17615359'
p876
(lp877
sS'9139828'
p878
(lp879
sS'12435627'
p880
(lp881
sS'20735826'
p882
(lp883
sS'16137671'
p884
(lp885
sS'15302918'
p886
(lp887
sS'16054099'
p888
(lp889
sS'17967977'
p890
(lp891
sS'16977320'
p892
(lp893
sS'10376525'
p894
(lp895
sS'11797010'
p896
(lp897
sS'17300923'
p898
(lp899
sS'15649713'
p900
(lp901
sS'18712936'
p902
(lp903
sS'20852044'
p904
(lp905
sS'19737524'
p906
(lp907
sS'15067314'
p908
(lp909
sS'11980719'
p910
(lp911
sS'16481423'
p912
(lp913
sS'16176974'
p914
(lp915
sS'12788935'
p916
(lp917
sS'16176978'
p918
(lp919
sS'21278383'
p920
(lp921
sS'21068316'
p922
(lp923
sS'16223484'
p924
(lp925
sS'17275685'
p926
(lp927
sS'20952458'
p928
(lp929
sS'9792859'
p930
(lp931
sS'16127703'
p932
(lp933
sS'19372391'
p934
(lp935
sS'20188654'
p936
(lp937
sS'9365243'
p938
(lp939
sS'16263759'
p940
(lp941
sS'15567715'
p942
(lp943
sS'22675671'
p944
(lp945
sS'16606840'
p946
(lp947
sS'19023134'
p948
(lp949
sS'14660795'
p950
(lp951
sS'17258189'
p952
(lp953
sS'7988453'
p954
(lp955
sS'21874024'
p956
(lp957
sS'17761775'
p958
(lp959
sS'20298674'
p960
(lp961
sS'21338882'
p962
(lp963
sS'21338885'
p964
(lp965
sS'19033647'
p966
(lp967
sS'15769945'
p968
(lp969
sS'15841184'
p970
(lp971
sS'16330018'
p972
(lp973
sS'11162572'
p974
(lp975
sS'17009331'
p976
(lp977
sS'18234909'
p978
(lp979
sS'18802677'
p980
(lp981
sS'12743174'
p982
(lp983
sS'21471008'
p984
(lp985
sS'21149567'
p986
(lp987
sS'18583567'
p988
(lp989
sS'16801560'
p990
(lp991
sS'16141316'
p992
(lp993
sS'12897786'
p994
(lp995
sS'22484733'
p996
(lp997
sS'16380103'
p998
(lp999
sS'20185686'
p1000
(lp1001
sS'11923441'
p1002
(lp1003
sS'21356043'
p1004
(lp1005
sS'16608857'
p1006
(lp1007
sS'19301398'
p1008
(lp1009
sS'16352598'
p1010
(lp1011
sS'16007083'
p1012
(lp1013
sS'10749851'
p1014
(lp1015
sS'16157280'
p1016
(lp1017
sS'15897264'
p1018
(lp1019
sS'11773073'
p1020
(lp1021
sS'17437992'
p1022
(lp1023
sS'16325781'
p1024
(lp1025
sS'9806545'
p1026
(lp1027
sS'15623503'
p1028
(lp1029
sS'11172003'
p1030
(lp1031
sS'19897600'
p1032
(lp1033
sS'21615908'
p1034
(lp1035
sS'19864490'
p1036
(lp1037
sS'19208628'
p1038
(lp1039
sS'16738141'
p1040
(lp1041
sS'10359562'
p1042
(lp1043
sS'7588219'
p1044
(lp1045
sS'21274965'
p1046
(lp1047
sS'15096597'
p1048
(lp1049
sS'12690469'
p1050
(lp1051
sS'9366570'
p1052
(lp1053
sS'12634853'
p1054
(lp1055
sS'12393690'
p1056
(lp1057
sS'18056999'
p1058
(lp1059
sS'15102918'
p1060
(lp1061
sS'18593560'
p1062
(lp1063
sS'18188448'
p1064
(lp1065
sS'12676814'
p1066
(lp1067
sS'12860923'
p1068
(lp1069
sS'17237772'
p1070
(lp1071
sS'11042197'
p1072
(lp1073
sS'19590016'
p1074
(lp1075
sS'14605212'
p1076
(lp1077
sS'19379700'
p1078
(lp1079
sS'10716701'
p1080
(lp1081
sS'21523854'
p1082
(lp1083
sS'23567299'
p1084
(lp1085
sS'16395332'
p1086
(lp1087
sS'19158676'
p1088
(lp1089
sS'19158675'
p1090
(lp1091
sS'10458914'
p1092
(lp1093
sS'17099249'
p1094
(lp1095
sS'21159800'
p1096
(lp1097
sS'16376864'
p1098
(lp1099
sS'19718435'
p1100
(lp1101
sS'22958920'
p1102
(lp1103
sS'14568978'
p1104
(lp1105
sS'15878856'
p1106
(lp1107
sS'15705807'
p1108
(lp1109
sS'2037625'
p1110
(lp1111
sS'23001144'
p1112
(lp1113
sS'11069182'
p1114
(lp1115
sS'16099819'
p1116
(lp1117
sS'11069180'
p1118
(lp1119
sS'11069181'
p1120
(lp1121
sS'11702001'
p1122
(lp1123
sS'17666591'
p1124
(lp1125
sS'17591690'
p1126
(lp1127
sS'14749725'
p1128
(lp1129
sS'16511601'
p1130
(lp1131
sS'14963330'
p1132
(lp1133
sS'17591696'
p1134
(lp1135
sS'14963332'
p1136
(lp1137
sS'15824097'
p1138
(lp1139
sS'17448994'
p1140
(lp1141
sS'17050729'
p1142
(lp1143
sS'15226263'
p1144
(lp1145
sS'15108323'
p1146
(lp1147
sS'19451227'
p1148
(lp1149
sS'15016423'
p1150
(lp1151
sS'17239249'
p1152
(lp1153
sS'16513268'
p1154
(lp1155
sS'16093349'
p1156
(lp1157
sS'14635034'
p1158
(lp1159
sS'10369391'
p1160
(lp1161
sS'21051254'
p1162
(lp1163
sS'11956138'
p1164
(lp1165
sS'16968817'
p1166
(lp1167
sS'14665434'
p1168
(lp1169
sS'16968815'
p1170
(lp1171
sS'20951351'
p1172
(lp1173
sS'10192390'
p1174
(lp1175
sS'16275384'
p1176
(lp1177
sS'10192398'
p1178
(lp1179
sS'15483136'
p1180
(lp1181
sS'11483508'
p1182
(lp1183
sS'12091391'
p1184
(lp1185
sS'19906996'
p1186
(lp1187
sS'7613514'
p1188
(lp1189
sS'18003616'
p1190
(lp1191
sS'23022564'
p1192
(lp1193
sS'15741654'
p1194
(lp1195
sS'15870292'
p1196
(lp1197
sS'15870294'
p1198
(lp1199
sS'15870295'
p1200
(lp1201
sS'12692137'
p1202
(lp1203
sS'21555464'
p1204
(lp1205
sS'17139257'
p1206
(lp1207
sS'16241904'
p1208
(lp1209
sS'19491194'
p1210
(lp1211
sS'9590691'
p1212
(lp1213
sS'16449325'
p1214
(lp1215
sS'11432869'
p1216
(lp1217
sS'10833507'
p1218
(lp1219
sS'16951251'
p1220
(lp1221
sS'19913509'
p1222
(lp1223
sS'16951258'
p1224
(lp1225
sS'9882503'
p1226
(lp1227
sS'16803872'
p1228
(lp1229
sS'17932483'
p1230
(lp1231
sS'17097608'
p1232
(lp1233
sS'8961273'
p1234
(lp1235
sS'19113921'
p1236
(lp1237
sS'8961274'
p1238
(lp1239
sS'7677753'
p1240
(lp1241
sS'16706842'
p1242
(lp1243
sS'18273060'
p1244
(lp1245
sS'19150989'
p1246
(lp1247
sS'21903422'
p1248
(lp1249
sS'21093383'
p1250
(lp1251
sS'11353393'
p1252
(lp1253
sS'16981008'
p1254
(lp1255
sS'15702972'
p1256
(lp1257
sS'15902305'
p1258
(lp1259
sS'16275926'
p1260
(lp1261
sS'20025934'
p1262
(lp1263
sS'16207837'
p1264
(lp1265
sS'15763167'
p1266
(lp1267
sS'16289705'
p1268
(lp1269
sS'11904392'
p1270
(lp1271
sS'17138659'
p1272
(lp1273
sS'19342595'
p1274
(lp1275
sS'21670248'
p1276
(lp1277
sS'15289607'
p1278
(lp1279
sS'18415932'
p1280
(lp1281
sS'18415939'
p1282
(lp1283
sS'11145610'
p1284
(lp1285
sS'18324732'
p1286
(lp1287
sS'11302691'
p1288
(lp1289
sS'11781573'
p1290
(lp1291
sS'11238905'
p1292
(lp1293
sS'9056387'
p1294
(lp1295
sS'15096606'
p1296
(lp1297
sS'15451373'
p1298
(lp1299
sS'15096601'
p1300
(lp1301
sS'18066067'
p1302
(lp1303
sS'19701194'
p1304
(lp1305
sS'9398437'
p1306
(lp1307
sS'9603431'
p1308
(lp1309
sS'19701191'
p1310
(lp1311
sS'16116430'
p1312
(lp1313
sS'12509439'
p1314
(lp1315
sS'15944124'
p1316
(lp1317
sS'16410790'
p1318
(lp1319
sS'17018642'
p1320
(lp1321
sS'14724270'
p1322
(lp1323
sS'21747913'
p1324
(lp1325
sS'12645935'
p1326
(lp1327
sS'16525474'
p1328
(lp1329
sS'21397847'
p1330
(lp1331
sS'11437453'
p1332
(lp1333
sS'11099500'
p1334
(lp1335
sS'15537391'
p1336
(lp1337
sS'22797898'
p1338
(lp1339
sS'22787056'
p1340
(lp1341
sS'16682964'
p1342
(lp1343
sS'12629219'
p1344
(lp1345
sS'15950611'
p1346
(lp1347
sS'15834429'
p1348
(lp1349
sS'10638758'
p1350
(lp1351
sS'12954717'
p1352
(lp1353
sS'17403664'
p1354
(lp1355
sS'20826699'
p1356
(lp1357
sS'12529369'
p1358
(lp1359
sS'21666598'
p1360
(lp1361
sS'22057290'
p1362
(lp1363
sS'22798068'
p1364
(lp1365
sS'14563850'
p1366
(lp1367
sS'20133819'
p1368
(lp1369
sS'16790443'
p1370
(lp1371
sS'23426694'
p1372
(lp1373
sS'11178983'
p1374
(lp1375
sS'14613968'
p1376
(lp1377
sS'17109819'
p1378
(lp1379
sS'15649457'
p1380
(lp1381
sS'7550317'
p1382
(lp1383
sS'7550312'
p1384
(lp1385
sS'18057100'
p1386
(lp1387
sS'18809582'
p1388
(lp1389
sS'17197703'
p1390
(lp1391
sS'17197705'
p1392
(lp1393
sS'10708514'
p1394
(lp1395
sS'15652749'
p1396
(lp1397
sS'21931855'
p1398
(lp1399
sS'16962653'
p1400
(lp1401
sS'10860664'
p1402
(lp1403
sS'15728238'
p1404
(lp1405
sS'16847311'
p1406
(lp1407
sS'10860663'
p1408
(lp1409
sS'16880404'
p1410
(lp1411
sS'11413142'
p1412
(lp1413
sS'22588720'
p1414
(lp1415
sS'17588549'
p1416
(lp1417
sS'14739275'
p1418
(lp1419
sS'11944913'
p1420
(lp1421
sS'18511849'
p1422
(lp1423
sS'18353661'
p1424
(lp1425
sS'15351717'
p1426
(lp1427
sS'10049721'
p1428
(lp1429
sS'12093895'
p1430
(lp1431
sS'12399432'
p1432
(lp1433
sS'18986647'
p1434
(lp1435
sS'9514916'
p1436
(lp1437
sS'15987823'
p1438
(lp1439
sS'16586441'
p1440
(lp1441
sS'22711842'
p1442
(lp1443
sS'16197522'
p1444
(lp1445
sS'16936731'
p1446
(lp1447
sS'20463238'
p1448
(lp1449
sS'12502743'
p1450
(lp1451
sS'11118286'
p1452
(lp1453
sS'16614075'
p1454
(lp1455
sS'17889673'
p1456
(lp1457
sS'15249681'
p1458
(lp1459
sS'11641270'
p1460
(lp1461
sS'21947006'
p1462
(lp1463
sS'15249684'
p1464
(lp1465
sS'9770345'
p1466
(lp1467
sS'23542032'
p1468
(lp1469
sS'15249688'
p1470
(lp1471
sS'16380713'
p1472
(lp1473
sS'16380715'
p1474
(lp1475
sS'18729827'
p1476
(lp1477
sS'15972452'
p1478
(lp1479
sS'15073279'
p1480
(lp1481
sS'22891351'
p1482
(lp1483
sS'23136392'
p1484
(lp1485
sS'14688275'
p1486
(lp1487
sS'17347670'
p1488
(lp1489
sS'23142775'
p1490
(lp1491
sS'11782431'
p1492
(lp1493
sS'17145560'
p1494
(lp1495
sS'9449685'
p1496
(lp1497
sS'9449684'
p1498
(lp1499
sS'12646564'
p1500
(lp1501
sS'21220025'
p1502
(lp1503
sS'21808016'
p1504
(lp1505
sS'15998798'
p1506
(lp1507
sS'16687444'
p1508
(lp1509
sS'9322912'
p1510
(lp1511
sS'15303968'
p1512
(lp1513
sS'22072979'
p1514
(lp1515
sS'11375492'
p1516
(lp1517
sS'17097837'
p1518
(lp1519
sS'19535641'
p1520
(lp1521
sS'20534485'
p1522
(lp1523
sS'17562701'
p1524
(lp1525
sS'19503830'
p1526
(lp1527
sS'19684086'
p1528
(lp1529
sS'9013935'
p1530
(lp1531
sS'21536471'
p1532
(lp1533
sS'20534488'
p1534
(lp1535
sS'18845616'
p1536
(lp1537
sS'15893517'
p1538
(lp1539
sS'12361953'
p1540
(lp1541
sS'12361952'
p1542
(lp1543
sS'20026769'
p1544
(lp1545
sS'16648270'
p1546
(lp1547
sS'12651616'
p1548
(lp1549
sS'7838156'
p1550
(lp1551
sS'18285345'
p1552
(lp1553
sS'7838158'
p1554
(lp1555
sS'14732290'
p1556
(lp1557
sS'21418524'
p1558
(lp1559
sS'17936262'
p1560
(lp1561
sS'17936260'
p1562
(lp1563
sS'17936261'
p1564
(lp1565
sS'12872122'
p1566
(lp1567
sS'11477102'
p1568
(lp1569
sS'18753132'
p1570
(lp1571
sS'17173483'
p1572
(lp1573
sS'17696610'
p1574
(lp1575
sS'19324890'
p1576
(lp1577
sS'18656514'
p1578
(lp1579
sS'19299493'
p1580
(lp1581
sS'21364532'
p1582
(lp1583
sS'11226230'
p1584
(lp1585
sS'19841259'
p1586
(lp1587
sS'10022836'
p1588
(lp1589
sS'20692344'
p1590
(lp1591
sS'16582910'
p1592
(lp1593
sS'17986521'
p1594
(lp1595
sS'15601854'
p1596
(lp1597
sS'15601856'
p1598
(lp1599
sS'15601857'
p1600
(lp1601
sS'19071118'
p1602
(lp1603
sS'11461925'
p1604
(lp1605
sS'11461926'
p1606
(lp1607
sS'19268662'
p1608
(lp1609
sS'19521500'
p1610
(lp1611
sS'14979875'
p1612
(lp1613
sS'20495006'
p1614
(lp1615
sS'18621058'
p1616
(lp1617
sS'17372176'
p1618
(lp1619
sS'7925842'
p1620
(lp1621
sS'15922075'
p1622
(lp1623
sS'17254973'
p1624
(lp1625
sS'22275141'
p1626
(lp1627
sS'9087981'
p1628
(lp1629
sS'9755171'
p1630
(lp1631
sS'21419380'
p1632
(lp1633
sS'9755172'
p1634
(lp1635
sS'14718568'
p1636
(lp1637
sS'19169261'
p1638
(lp1639
sS'19815093'
p1640
(lp1641
sS'11574479'
p1642
(lp1643
sS'9331331'
p1644
(lp1645
sS'17893140'
p1646
(lp1647
sS'14718562'
p1648
(lp1649
sS'12858173'
p1650
(lp1651
sS'12858174'
p1652
(lp1653
sS'21737879'
p1654
(lp1655
sS'12867591'
p1656
(lp1657
sS'15647390'
p1658
(lp1659
sS'14623822'
p1660
(lp1661
sS'14623825'
p1662
(lp1663
sS'20357111'
p1664
(lp1665
sS'20876121'
p1666
(lp1667
sS'17904126'
p1668
(lp1669
sS'20357114'
p1670
(lp1671
sS'16545622'
p1672
(lp1673
sS'17608567'
p1674
(lp1675
sS'16055520'
p1676
(lp1677
sS'14609955'
p1678
(lp1679
sS'11522791'
p1680
(lp1681
sS'10615124'
p1682
(lp1683
sS'18342295'
p1684
(lp1685
sS'22638570'
p1686
(lp1687
sS'15634787'
p1688
(lp1689
sS'11592815'
p1690
(lp1691
sS'15634781'
p1692
(lp1693
sS'19843527'
p1694
(lp1695
sS'15581876'
p1696
(lp1697
sS'17982445'
p1698
(lp1699
sS'15931390'
p1700
(lp1701
sS'22265908'
p1702
(lp1703
sS'18477613'
p1704
(lp1705
sS'15136153'
p1706
(lp1707
sS'15136151'
p1708
(lp1709
sS'16966381'
p1710
(lp1711
sS'12140278'
p1712
(lp1713
sS'15314687'
p1714
(lp1715
sS'14531729'
p1716
(lp1717
sS'10365441'
p1718
(lp1719
sS'17519333'
p1720
(lp1721
sS'21552207'
p1722
(lp1723
sS'9441684'
p1724
(lp1725
sS'15218527'
p1726
(lp1727
sS'20375365'
p1728
(lp1729
sS'17456771'
p1730
(lp1731
sS'21062742'
p1732
(lp1733
sS'18035555'
p1734
(lp1735
sS'15841212'
p1736
(lp1737
sS'9430637'
p1738
(lp1739
sS'17276355'
p1740
(lp1741
sS'22114682'
p1742
(lp1743
sS'15316081'
p1744
(lp1745
sS'11244049'
p1746
(lp1747
sS'11723121'
p1748
(lp1749
sS'11723120'
p1750
(lp1751
sS'12821655'
p1752
(lp1753
sS'17320107'
p1754
(lp1755
sS'17320102'
p1756
(lp1757
sS'15541767'
p1758
(lp1759
sS'23177478'
p1760
(lp1761
sS'15147942'
p1762
(lp1763
sS'11138008'
p1764
(lp1765
sS'11098048'
p1766
(lp1767
sS'11481456'
p1768
(lp1769
sS'20537373'
p1770
(lp1771
sS'19815549'
p1772
(lp1773
sS'12065412'
p1774
(lp1775
sS'16731527'
p1776
(lp1777
sS'14729577'
p1778
(lp1779
sS'17085523'
p1780
(lp1781
sS'18762567'
p1782
(lp1783
sS'17115059'
p1784
(lp1785
sS'19396172'
p1786
(lp1787
sS'22056358'
p1788
(lp1789
sS'14563843'
p1790
(lp1791
sS'17255172'
p1792
(lp1793
sS'19741146'
p1794
(lp1795
sS'12676787'
p1796
(lp1797
sS'11489895'
p1798
(lp1799
sS'11792622'
p1800
(lp1801
sS'11489891'
p1802
(lp1803
sS'17314409'
p1804
(lp1805
sS'17956734'
p1806
(lp1807
sS'18632611'
p1808
(lp1809
sS'20566860'
p1810
(lp1811
sS'14713950'
p1812
(lp1813
sS'22362893'
p1814
(lp1815
sS'6303755'
p1816
(lp1817
sS'15342483'
p1818
(lp1819
sS'15356634'
p1820
(lp1821
sS'17488778'
p1822
(lp1823
sS'20887964'
p1824
(lp1825
sS'15685636'
p1826
(lp1827
sS'22939628'
p1828
(lp1829
sS'22992956'
p1830
(lp1831
sS'22992957'
p1832
(lp1833
sS'14660434'
p1834
(lp1835
sS'12756295'
p1836
(lp1837
sS'17042795'
p1838
(lp1839
sS'20010697'
p1840
(lp1841
sS'17367743'
p1842
(lp1843
sS'10759559'
p1844
(lp1845
sS'22729990'
p1846
(lp1847
sS'16020526'
p1848
(lp1849
sS'21652706'
p1850
(lp1851
sS'16310179'
p1852
(lp1853
sS'15044151'
p1854
(lp1855
sS'19193890'
p1856
(lp1857
sS'21658601'
p1858
(lp1859
sS'11749037'
p1860
(lp1861
sS'17941951'
p1862
(lp1863
sS'17689562'
p1864
(lp1865
sS'16111633'
p1866
(lp1867
sS'18171936'
p1868
(lp1869
sS'9548374'
p1870
(lp1871
sS'18171685'
p1872
(lp1873
sS'10815801'
p1874
(lp1875
sS'19861488'
p1876
(lp1877
sS'20974804'
p1878
(lp1879
sS'16941024'
p1880
(lp1881
sS'21750036'
p1882
(lp1883
sS'16414041'
p1884
(lp1885
sS'19590037'
p1886
(lp1887
sS'16081543'
p1888
(lp1889
sS'16254014'
p1890
(lp1891
sS'21849499'
p1892
(lp1893
sS'16766700'
p1894
(lp1895
sS'20122409'
p1896
(lp1897
sS'10490026'
p1898
(lp1899
sS'19730684'
p1900
(lp1901
sS'22354168'
p1902
(lp1903
sS'11274052'
p1904
(lp1905
sS'17347648'
p1906
(lp1907
sS'17119023'
p1908
(lp1909
sS'15531369'
p1910
(lp1911
sS'19508371'
p1912
(lp1913
sS'17119020'
p1914
(lp1915
sS'15936721'
p1916
(lp1917
sS'16498401'
p1918
(lp1919
sS'16769894'
p1920
(lp1921
sS'7615798'
p1922
(lp1923
sS'16769890'
p1924
(lp1925
sS'21410936'
p1926
(lp1927
sS'12646573'
p1928
(lp1929
sS'10969067'
p1930
(lp1931
sS'19028838'
p1932
(lp1933
sS'11069615'
p1934
(lp1935
sS'15831703'
p1936
(lp1937
sS'17956991'
p1938
(lp1939
sS'19624305'
p1940
(lp1941
sS'16716193'
p1942
(lp1943
sS'11967891'
p1944
(lp1945
sS'15528189'
p1946
(lp1947
sS'15563592'
p1948
(lp1949
sS'15294024'
p1950
(lp1951
sS'17712281'
p1952
(lp1953
sS'19668219'
p1954
(lp1955
sS'9393880'
p1956
(lp1957
sS'19668215'
p1958
(lp1959
sS'12115678'
p1960
(lp1961
sS'12435629'
p1962
(lp1963
sS'12435628'
p1964
(lp1965
sS'22710871'
p1966
(lp1967
sS'11311045'
p1968
(lp1969
sS'8163675'
p1970
(lp1971
sS'19481455'
p1972
(lp1973
sS'15673568'
p1974
(lp1975
sS'23201684'
p1976
(lp1977
sS'11265635'
p1978
(lp1979
sS'16144965'
p1980
(lp1981
sS'19933576'
p1982
(lp1983
sS'15721235'
p1984
(lp1985
sS'16481394'
p1986
(lp1987
sS'12832289'
p1988
(lp1989
sS'16481398'
p1990
(lp1991
sS'16690745'
p1992
(lp1993
sS'16467156'
p1994
(lp1995
sS'15901672'
p1996
(lp1997
sS'15655183'
p1998
(lp1999
sS'19357276'
p2000
(lp2001
sS'16371656'
p2002
(lp2003
sS'15178420'
p2004
(lp2005
sS'17322885'
p2006
(lp2007
sS'23429752'
p2008
(lp2009
sS'17981155'
p2010
(lp2011
sS'11691837'
p2012
(lp2013
sS'14567693'
p2014
(lp2015
sS'11867747'
p2016
(lp2017
sS'15170214'
p2018
(lp2019
sS'15483117'
p2020
(lp2021
sS'17922007'
p2022
(lp2023
sS'12730328'
p2024
(lp2025
sS'12414806'
p2026
(lp2027
sS'21642987'
p2028
(lp2029
sS'19409822'
p2030
(lp2031
sS'20189985'
p2032
(lp2033
sS'10433232'
p2034
(lp2035
sS'10842358'
p2036
(lp2037
sS'9154917'
p2038
(lp2039
sS'12950100'
p2040
(lp2041
sS'12389029'
p2042
(lp2043
sS'11495928'
p2044
(lp2045
sS'22539676'
p2046
(lp2047
sS'14685273'
p2048
(lp2049
sS'19591803'
p2050
(lp2051
sS'11318609'
p2052
(lp2053
sS'10581243'
p2054
(lp2055
sS'15367676'
p2056
(lp2057
sS'11318604'
p2058
(lp2059
sS'18278053'
p2060
(lp2061
sS'19742316'
p2062
(lp2063
sS'15533722'
p2064
(lp2065
sS'11577110'
p2066
(lp2067
sS'9461216'
p2068
(lp2069
sS'12674328'
p2070
(lp2071
sS'15085192'
p2072
(lp2073
sS'15256496'
p2074
(lp2075
sS'15256493'
p2076
(lp2077
sS'17455169'
p2078
(lp2079
sS'21708977'
p2080
(lp2081
sS'12606363'
p2082
(lp2083
sS'19168674'
p2084
(lp2085
sS'16765935'
p2086
(lp2087
sS'11641275'
p2088
(lp2089
sS'21350014'
p2090
(lp2091
sS'21350016'
p2092
(lp2093
sS'17433713'
p2094
(lp2095
sS'16054043'
p2096
(lp2097
sS'17255944'
p2098
(lp2099
sS'17038506'
p2100
(lp2101
sS'23078915'
p2102
(lp2103
sS'15520446'
p2104
(lp2105
sS'18926818'
p2106
(lp2107
sS'16199866'
p2108
(lp2109
sS'16199867'
p2110
(lp2111
sS'22522702'
p2112
(lp2113
sS'16199865'
p2114
(lp2115
sS'15234987'
p2116
(lp2117
sS'17129178'
p2118
(lp2119
sS'18094055'
p2120
(lp2121
sS'8187816'
p2122
(lp2123
sS'9580260'
p2124
(lp2125
sS'17911113'
p2126
(lp2127
sS'17519332'
p2128
(lp2129
sS'16423834'
p2130
(lp2131
sS'17110924'
p2132
(lp2133
sS'18632848'
p2134
(lp2135
sS'18950615'
p2136
(lp2137
sS'18272689'
p2138
(lp2139
sS'12023293'
p2140
(lp2141
sS'17110928'
p2142
(lp2143
sS'14660436'
p2144
(lp2145
sS'20153004'
p2146
(lp2147
sS'16083859'
p2148
(lp2149
sS'16061649'
p2150
(lp2151
sS'21320481'
p2152
(lp2153
sS'15629701'
p2154
(lp2155
sS'17563371'
p2156
(lp2157
sS'16344272'
p2158
(lp2159
sS'7684329'
p2160
(lp2161
sS'12119287'
p2162
(lp2163
sS'12108679'
p2164
(lp2165
sS'15949469'
p2166
(lp2167
sS'10803590'
p2168
(lp2169
sS'19403103'
p2170
(lp2171
sS'10803593'
p2172
(lp2173
sS'18367606'
p2174
(lp2175
sS'10803597'
p2176
(lp2177
sS'15947484'
p2178
(lp2179
sS'16421188'
p2180
(lp2181
sS'19887567'
p2182
(lp2183
sS'11724816'
p2184
(lp2185
sS'11964381'
p2186
(lp2187
sS'15572693'
p2188
(lp2189
sS'15572692'
p2190
(lp2191
sS'14970209'
p2192
(lp2193
sS'20060811'
p2194
(lp2195
sS'23133519'
p2196
(lp2197
sS'15834408'
p2198
(lp2199
sS'15028753'
p2200
(lp2201
sS'14977921'
p2202
(lp2203
sS'11937514'
p2204
(lp2205
sS'15493995'
p2206
(lp2207
sS'9119111'
p2208
(lp2209
sS'12388085'
p2210
(lp2211
sS'9119112'
p2212
(lp2213
sS'15674731'
p2214
(lp2215
sS'20657015'
p2216
(lp2217
sS'7704020'
p2218
(lp2219
sS'16421295'
p2220
(lp2221
sS'17618271'
p2222
(lp2223
sS'14555653'
p2224
(lp2225
sS'20622870'
p2226
(lp2227
sS'14712235'
p2228
(lp2229
sS'23104054'
p2230
(lp2231
sS'21701506'
p2232
(lp2233
sS'16030140'
p2234
(lp2235
sS'16480949'
p2236
(lp2237
sS'16107883'
p2238
(lp2239
sS'15820316'
p2240
(lp2241
sS'12471023'
p2242
(lp2243
sS'10502458'
p2244
(lp2245
sS'14761956'
p2246
(lp2247
sS'15070830'
p2248
(lp2249
sS'10699974'
p2250
(lp2251
sS'14662765'
p2252
(lp2253
sS'15308581'
p2254
(lp2255
sS'20568247'
p2256
(lp2257
sS'15649475'
p2258
(lp2259
sS'19952108'
p2260
(lp2261
sS'16221671'
p2262
(lp2263
sS'20184720'
p2264
(lp2265
sS'16221674'
p2266
(lp2267
sS'10610726'
p2268
(lp2269
sS'11795944'
p2270
(lp2271
sS'11900456'
p2272
(lp2273
sS'15823567'
p2274
(lp2275
sS'18223155'
p2276
(lp2277
sS'15723075'
p2278
(lp2279
sS'16405865'
p2280
(lp2281
sS'20080691'
p2282
(lp2283
sS'17182001'
p2284
(lp2285
sS'17187072'
p2286
(lp2287
sS'12736726'
p2288
(lp2289
sS'17187070'
p2290
(lp2291
sS'11413164'
p2292
(lp2293
sS'11413167'
p2294
(lp2295
sS'16174769'
p2296
(lp2297
sS'12488442'
p2298
(lp2299
sS'16055087'
p2300
(lp2301
sS'12446677'
p2302
(lp2303
sS'20093627'
p2304
(lp2305
sS'21178975'
p2306
(lp2307
sS'21178974'
p2308
(lp2309
sS'15708862'
p2310
(lp2311
sS'17898001'
p2312
(lp2313
sS'21478148'
p2314
(lp2315
sS'12743034'
p2316
(lp2317
sS'18469816'
p2318
(lp2319
sS'18396146'
p2320
(lp2321
sS'18396140'
p2322
(lp2323
sS'16890542'
p2324
(lp2325
sS'10433822'
p2326
(lp2327
sS'7630421'
p2328
(lp2329
sS'16533754'
p2330
(lp2331
sS'16571625'
p2332
(lp2333
sS'9140816'
p2334
(lp2335
sS'21236676'
p2336
(lp2337
sS'17650074'
p2338
(lp2339
sS'9312051'
p2340
(lp2341
sS'21705622'
p2342
(lp2343
sS'18162531'
p2344
(lp2345
sS'17145090'
p2346
(lp2347
sS'15820310'
p2348
(lp2349
sS'15272303'
p2350
(lp2351
sS'12645009'
p2352
(lp2353
sS'17889651'
p2354
(lp2355
sS'8274012'
p2356
(lp2357
sS'15581617'
p2358
(lp2359
sS'10229200'
p2360
(lp2361
sS'15581614'
p2362
(lp2363
sS'20123964'
p2364
(lp2365
sS'20123967'
p2366
(lp2367
sS'16697380'
p2368
(lp2369
sS'8047141'
p2370
(lp2371
sS'19893486'
p2372
(lp2373
sS'18256328'
p2374
(lp2375
sS'18439490'
p2376
(lp2377
sS'15939891'
p2378
(lp2379
sS'23213483'
p2380
(lp2381
sS'15531373'
p2382
(lp2383
sS'17347650'
p2384
(lp2385
sS'15531370'
p2386
(lp2387
sS'22133874'
p2388
(lp2389
sS'15452145'
p2390
(lp2391
sS'19167491'
p2392
(lp2393
sS'15452149'
p2394
(lp2395
sS'16517118'
p2396
(lp2397
sS'21454751'
p2398
(lp2399
sS'15193144'
p2400
(lp2401
sS'16014380'
p2402
(lp2403
sS'18628982'
p2404
(lp2405
sS'19665976'
p2406
(lp2407
sS'12574157'
p2408
(lp2409
sS'10465256'
p2410
(lp2411
sS'12574155'
p2412
(lp2413
sS'11438666'
p2414
(lp2415
sS'11438662'
p2416
(lp2417
sS'18614044'
p2418
(lp2419
sS'17728398'
p2420
(lp2421
sS'11297552'
p2422
(lp2423
sS'11401393'
p2424
(lp2425
sS'22279524'
p2426
(lp2427
sS'21339740'
p2428
(lp2429
sS'18997113'
p2430
(lp2431
sS'15140875'
p2432
(lp2433
sS'17962413'
p2434
(lp2435
sS'16109376'
p2436
(lp2437
sS'12097513'
p2438
(lp2439
sS'7670489'
p2440
(lp2441
sS'16648250'
p2442
(lp2443
sS'17050673'
p2444
(lp2445
sS'18980610'
p2446
(lp2447
sS'17050573'
p2448
(lp2449
sS'11774071'
p2450
(lp2451
sS'16357131'
p2452
(lp2453
sS'16357133'
p2454
(lp2455
sS'16140987'
p2456
(lp2457
sS'16140986'
p2458
(lp2459
sS'14633973'
p2460
(lp2461
sS'12431992'
p2462
(lp2463
sS'18237440'
p2464
(lp2465
sS'11224545'
p2466
(lp2467
sS'20141836'
p2468
(lp2469
sS'21703452'
p2470
(lp2471
sS'18393392'
p2472
(lp2473
sS'16624677'
p2474
(lp2475
sS'18448665'
p2476
(lp2477
sS'19786536'
p2478
(lp2479
sS'16364285'
p2480
(lp2481
sS'19494835'
p2482
(lp2483
sS'18420585'
p2484
(lp2485
sS'16364283'
p2486
(lp2487
sS'8164737'
p2488
(lp2489
sS'11733557'
p2490
(lp2491
sS'3029599'
p2492
(lp2493
sS'17938205'
p2494
(lp2495
sS'18505367'
p2496
(lp2497
sS'20696860'
p2498
(lp2499
sS'17369396'
p2500
(lp2501
sS'17369397'
p2502
(lp2503
sS'16262627'
p2504
(lp2505
sS'16262623'
p2506
(lp2507
sS'15601870'
p2508
(lp2509
sS'14561835'
p2510
(lp2511
sS'10036186'
p2512
(lp2513
sS'10036185'
p2514
(lp2515
sS'11278962'
p2516
(lp2517
sS'21421998'
p2518
(lp2519
sS'15550757'
p2520
(lp2521
sS'14561754'
p2522
(lp2523
sS'21795692'
p2524
(lp2525
sS'14561752'
p2526
(lp2527
sS'14561759'
p2528
(lp2529
sS'19056682'
p2530
(lp2531
sS'18167348'
p2532
(lp2533
sS'11912189'
p2534
(lp2535
sS'15687259'
p2536
(lp2537
sS'22720038'
p2538
(lp2539
sS'23616533'
p2540
(lp2541
sS'9196068'
p2542
(lp2543
sS'12859204'
p2544
(lp2545
sS'21454531'
p2546
(lp2547
sS'12855582'
p2548
(lp2549
sS'19118250'
p2550
(lp2551
sS'7830794'
p2552
(lp2553
sS'22772446'
p2554
(lp2555
sS'18055550'
p2556
(lp2557
sS'22976292'
p2558
(lp2559
sS'22674187'
p2560
(lp2561
sS'15899870'
p2562
(lp2563
sS'17719541'
p2564
(lp2565
sS'21979170'
p2566
(lp2567
sS'18605988'
p2568
(lp2569
sS'18692478'
p2570
(lp2571
sS'23231322'
p2572
(lp2573
sS'12802337'
p2574
(lp2575
sS'17908177'
p2576
(lp2577
sS'20133598'
p2578
(lp2579
sS'15389316'
p2580
(lp2581
sS'17720994'
p2582
(lp2583
sS'11707424'
p2584
(lp2585
sS'16325578'
p2586
(lp2587
sS'15615785'
p2588
(lp2589
sS'15615787'
p2590
(lp2591
sS'21640725'
p2592
(lp2593
sS'10615135'
p2594
(lp2595
sS'17868091'
p2596
(lp2597
sS'11148215'
p2598
(lp2599
sS'12889071'
p2600
(lp2601
sS'12889070'
p2602
(lp2603
sS'14982883'
p2604
(lp2605
sS'19843504'
p2606
(lp2607
sS'18951881'
p2608
(lp2609
sS'23141541'
p2610
(lp2611
sS'15059932'
p2612
(lp2613
sS'11331878'
p2614
(lp2615
sS'15210109'
p2616
(lp2617
sS'19139201'
p2618
(lp2619
sS'18648510'
p2620
(lp2621
sS'8130375'
p2622
(lp2623
sS'12140292'
p2624
(lp2625
sS'22375059'
p2626
(lp2627
sS'22411990'
p2628
(lp2629
sS'12119294'
p2630
(lp2631
sS'21402900'
p2632
(lp2633
sS'21078874'
p2634
(lp2635
sS'14668445'
p2636
(lp2637
sS'23071094'
p2638
(lp2639
sS'19880522'
p2640
(lp2641
sS'16973135'
p2642
(lp2643
sS'16316988'
p2644
(lp2645
sS'15603737'
p2646
(lp2647
sS'17105447'
p2648
(lp2649
sS'16255782'
p2650
(lp2651
sS'16684770'
p2652
(lp2653
sS'11711676'
p2654
(lp2655
sS'9288969'
p2656
(lp2657
sS'19661464'
p2658
(lp2659
sS'22940692'
p2660
(lp2661
sS'18241670'
p2662
(lp2663
sS'19075240'
p2664
(lp2665
sS'11976342'
p2666
(lp2667
sS'15128702'
p2668
(lp2669
sS'14702043'
p2670
(lp2671
sS'21127502'
p2672
(lp2673
sS'16339193'
p2674
(lp2675
sS'17115031'
p2676
(lp2677
sS'22123818'
p2678
(lp2679
sS'16705167'
p2680
(lp2681
sS'17498836'
p2682
(lp2683
sS'17440044'
p2684
(lp2685
sS'15805114'
p2686
(lp2687
sS'11748237'
p2688
(lp2689
sS'12815040'
p2690
(lp2691
sS'15590698'
p2692
(lp2693
sS'21945076'
p2694
(lp2695
sS'9349820'
p2696
(lp2697
sS'16024787'
p2698
(lp2699
sS'16984970'
p2700
(lp2701
sS'18006499'
p2702
(lp2703
sS'16407977'
p2704
(lp2705
sS'19672307'
p2706
(lp2707
sS'11196687'
p2708
(lp2709
sS'15326356'
p2710
(lp2711
sS'20620870'
p2712
(lp2713
sS'19560442'
p2714
(lp2715
sS'12807912'
p2716
(lp2717
sS'14661019'
p2718
(lp2719
sS'18794365'
p2720
(lp2721
sS'11981756'
p2722
(lp2723
sS'15061865'
p2724
(lp2725
sS'16678093'
p2726
(lp2727
sS'14611647'
p2728
(lp2729
sS'21084607'
p2730
(lp2731
sS'17473173'
p2732
(lp2733
sS'19745164'
p2734
(lp2735
sS'23043106'
p2736
(lp2737
sS'15634772'
p2738
(lp2739
sS'11784036'
p2740
(lp2741
sS'15930120'
p2742
(lp2743
sS'15292196'
p2744
(lp2745
sS'16860483'
p2746
(lp2747
sS'22228304'
p2748
(lp2749
sS'15668341'
p2750
(lp2751
sS'9843922'
p2752
(lp2753
sS'11527404'
p2754
(lp2755
sS'12446740'
p2756
(lp2757
sS'20168299'
p2758
(lp2759
sS'10973246'
p2760
(lp2761
sS'2685607'
p2762
(lp2763
sS'16243356'
p2764
(lp2765
sS'22248926'
p2766
(lp2767
sS'11927537'
p2768
(lp2769
sS'22623793'
p2770
(lp2771
sS'21731775'
p2772
(lp2773
sS'15511642'
p2774
(lp2775
sS'21368124'
p2776
(lp2777
sS'21896273'
p2778
(lp2779
sS'10581169'
p2780
(lp2781
sS'19934022'
p2782
(lp2783
sS'20619712'
p2784
(lp2785
sS'21041309'
p2786
(lp2787
sS'11101528'
p2788
(lp2789
sS'20467439'
p2790
(lp2791
sS'17213233'
p2792
(lp2793
sS'18796539'
p2794
(lp2795
sS'21947081'
p2796
(lp2797
sS'16289082'
p2798
(lp2799
sS'10888889'
p2800
(lp2801
sS'14515274'
p2802
(lp2803
sS'16278671'
p2804
(lp2805
sS'22307328'
p2806
(lp2807
sS'20181743'
p2808
(lp2809
sS'18757723'
p2810
(lp2811
sS'16893422'
p2812
(lp2813
sS'21441919'
p2814
(lp2815
sS'19413900'
p2816
(lp2817
sS'18250106'
p2818
(lp2819
sS'17357786'
p2820
(lp2821
sS'22235116'
p2822
(lp2823
sS'15929941'
p2824
(lp2825
sS'15655114'
p2826
(lp2827
sS'15475008'
p2828
(lp2829
sS'11238559'
p2830
(lp2831
sS'10469351'
p2832
(lp2833
sS'16322561'
p2834
(lp2835
sS'16892067'
p2836
(lp2837
sS'23622247'
p2838
(lp2839
sS'23609450'
p2840
(lp2841
sS'16407227'
p2842
(lp2843
sS'11238885'
p2844
(lp2845
sS'7664679'
p2846
(lp2847
s.