(dp1
S'22311068'
p2
ccopy_reg
_reconstructor
p3
(csets
Set
p4
c__builtin__
object
p5
NtRp6
((dp7
S'GO:0018249'
p8
I01
sS'GO:0070179'
p9
I01
sS'GO:0000287'
p10
I01
sS'GO:0006563'
p11
I01
sS'GO:0030378'
p12
I01
stbsS'16842885'
p13
g3
(g4
g5
NtRp14
((dp15
S'GO:0005737'
p16
I01
sS'GO:0006468'
p17
I01
sS'GO:0005938'
p18
I01
sS'GO:0004672'
p19
I01
sS'GO:0046777'
p20
I01
sS'GO:0005524'
p21
I01
stbsS'10930471'
p22
g3
(g4
g5
NtRp23
((dp24
S'GO:0031276'
p25
I01
stbsS'15910751'
p26
g3
(g4
g5
NtRp27
((dp28
S'GO:0003774'
p29
I01
stbsS'21193547'
p30
g3
(g4
g5
NtRp31
((dp32
S'GO:0008283'
p33
I01
sS'GO:0030587'
p34
I01
sS'GO:0005634'
p35
I01
sS'GO:0030154'
p36
I01
sS'GO:0000792'
p37
I01
sS'GO:0005515'
p38
I01
sS'GO:0001708'
p39
I01
sS'GO:0010468'
p40
I01
stbsS'15366765'
p41
g3
(g4
g5
NtRp42
((dp43
S'GO:0005938'
p44
I01
sS'GO:0016337'
p45
I01
sS'GO:0005911'
p46
I01
sS'GO:0030155'
p47
I01
sS'GO:0045121'
p48
I01
sS'GO:0051260'
p49
I01
sS'GO:0030866'
p50
I01
sS'GO:0001726'
p51
I01
sS'GO:0046658'
p52
I01
sS'GO:0005516'
p53
I01
sS'GO:0031152'
p54
I01
sS'GO:0031159'
p55
I01
sS'GO:0042803'
p56
I01
stbsS'9578623'
p57
g3
(g4
g5
NtRp58
((dp59
S'GO:0030552'
p60
I01
sS'GO:0006935'
p61
I01
sS'GO:0004871'
p62
I01
sS'GO:0001646'
p63
I01
sS'GO:0031152'
p64
I01
sS'GO:0007190'
p65
I01
stbsS'15196949'
p66
g3
(g4
g5
NtRp67
((dp68
S'GO:0006468'
p69
I01
sS'GO:0005634'
p70
I01
sS'GO:0070816'
p71
I01
sS'GO:0031152'
p72
I01
sS'GO:0008353'
p73
I01
sS'GO:0005829'
p74
I01
sS'GO:0005524'
p75
I01
stbsS'2721503'
p76
g3
(g4
g5
NtRp77
((dp78
S'GO:0031154'
p79
I01
sS'GO:0000281'
p80
I01
stbsS'10331990'
p81
g3
(g4
g5
NtRp82
((dp83
S'GO:0003700'
p84
I01
sS'GO:0006355'
p85
I01
sS'GO:0005634'
p86
I01
sS'GO:0031154'
p87
I01
stbsS'15632431'
p88
g3
(g4
g5
NtRp89
((dp90
S'GO:0009408'
p91
I01
sS'GO:0007275'
p92
I01
stbsS'15194808'
p93
g3
(g4
g5
NtRp94
((dp95
S'GO:0007015'
p96
I01
sS'GO:0031589'
p97
I01
sS'GO:0006909'
p98
I01
sS'GO:0000902'
p99
I01
sS'GO:0000281'
p100
I01
sS'GO:0006928'
p101
I01
sS'GO:0006468'
p102
I01
sS'GO:0004674'
p103
I01
sS'GO:0005515'
p104
I01
sS'GO:0005886'
p105
I01
sS'GO:0017016'
p106
I01
sS'GO:0005524'
p107
I01
stbsS'9802899'
p108
g3
(g4
g5
NtRp109
((dp110
S'GO:0051056'
p111
I01
sS'GO:0005515'
p112
I01
sS'GO:0005622'
p113
I01
sS'GO:0048365'
p114
I01
sS'GO:0007163'
p115
I01
sS'GO:0031152'
p116
I01
sS'GO:0016477'
p117
I01
stbsS'17010123'
p118
g3
(g4
g5
NtRp119
((dp120
S'GO:0007032'
p121
I01
stbsS'15769249'
p122
g3
(g4
g5
NtRp123
((dp124
S'GO:0006383'
p125
I01
stbsS'19861424'
p126
g3
(g4
g5
NtRp127
((dp128
S'GO:0006390'
p129
I01
sS'GO:0003899'
p130
I01
sS'GO:0003677'
p131
I01
stbsS'21819985'
p132
g3
(g4
g5
NtRp133
((dp134
S'GO:0051287'
p135
I01
sS'GO:0004155'
p136
I01
stbsS'8816999'
p137
g3
(g4
g5
NtRp138
((dp139
S'GO:0015631'
p140
I01
sS'GO:0005515'
p141
I01
sS'GO:0031122'
p142
I01
stbsS'11390363'
p143
g3
(g4
g5
NtRp144
((dp145
S'GO:0006935'
p146
I01
sS'GO:0030587'
p147
I01
sS'GO:0030154'
p148
I01
sS'GO:0000082'
p149
I01
sS'GO:0006511'
p150
I01
sS'GO:0019005'
p151
I01
sS'GO:0004842'
p152
I01
stbsS'17336445'
p153
g3
(g4
g5
NtRp154
((dp155
S'GO:0004864'
p156
I01
sS'GO:0043666'
p157
I01
stbsS'9582328'
p158
g3
(g4
g5
NtRp159
((dp160
S'GO:0006468'
p161
I01
sS'GO:0015629'
p162
I01
sS'GO:0004672'
p163
I01
sS'GO:0004674'
p164
I01
sS'GO:0051781'
p165
I01
sS'GO:0032956'
p166
I01
sS'GO:0046777'
p167
I01
stbsS'16901894'
p168
g3
(g4
g5
NtRp169
((dp170
S'GO:0033275'
p171
I01
stbsS'2161991'
p172
g3
(g4
g5
NtRp173
((dp174
S'GO:0031154'
p175
I01
sS'GO:0031153'
p176
I01
stbsS'16571632'
p177
g3
(g4
g5
NtRp178
((dp179
S'GO:0043565'
p180
I01
sS'GO:0005634'
p181
I01
sS'GO:0006366'
p182
I01
sS'GO:0003677'
p183
I01
stbsS'15883156'
p184
g3
(g4
g5
NtRp185
((dp186
S'GO:0012506'
p187
I01
stbsS'22366457'
p188
g3
(g4
g5
NtRp189
((dp190
S'GO:0030587'
p191
I01
sS'GO:0005829'
p192
I01
sS'GO:0048870'
p193
I01
sS'GO:0000281'
p194
I01
sS'GO:0005815'
p195
I01
sS'GO:0043327'
p196
I01
sS'GO:0005938'
p197
I01
sS'GO:0005515'
p198
I01
sS'GO:0046847'
p199
I01
stbsS'18634783'
p200
g3
(g4
g5
NtRp201
((dp202
S'GO:0030666'
p203
I01
sS'GO:0005767'
p204
I01
sS'GO:0005515'
p205
I01
sS'GO:0005886'
p206
I01
sS'GO:0030123'
p207
I01
sS'GO:0031201'
p208
I01
stbsS'561722'
p209
g3
(g4
g5
NtRp210
((dp211
S'GO:0030515'
p212
I01
stbsS'20062541'
p213
g3
(g4
g5
NtRp214
((dp215
S'GO:0032850'
p216
I01
sS'GO:0043937'
p217
I01
sS'GO:0005096'
p218
I01
stbsS'16415352'
p219
g3
(g4
g5
NtRp220
((dp221
S'GO:0017024'
p222
I01
sS'GO:0045160'
p223
I01
sS'GO:0005509'
p224
I01
sS'GO:0005515'
p225
I01
sS'GO:0032031'
p226
I01
stbsS'18650439'
p227
g3
(g4
g5
NtRp228
((dp229
S'GO:0000331'
p230
I01
sS'GO:0000146'
p231
I01
sS'GO:0030898'
p232
I01
sS'GO:0033275'
p233
I01
sS'GO:0051015'
p234
I01
sS'GO:0043531'
p235
I01
sS'GO:0005524'
p236
I01
sS'GO:0042641'
p237
I01
stbsS'15225305'
p238
g3
(g4
g5
NtRp239
((dp240
S'GO:0050766'
p241
I01
sS'GO:0006897'
p242
I01
sS'GO:0008283'
p243
I01
sS'GO:0031288'
p244
I01
sS'GO:0005829'
p245
I01
sS'GO:0004108'
p246
I01
sS'GO:0005777'
p247
I01
sS'GO:0006099'
p248
I01
sS'GO:0006909'
p249
I01
sS'GO:0006097'
p250
I01
sS'GO:0006907'
p251
I01
stbsS'11162086'
p252
g3
(g4
g5
NtRp253
((dp254
S'GO:0005634'
p255
I01
sS'GO:0006909'
p256
I01
sS'GO:0006907'
p257
I01
sS'GO:0031152'
p258
I01
stbsS'11872142'
p259
g3
(g4
g5
NtRp260
((dp261
S'GO:0000331'
p262
I01
sS'GO:0006970'
p263
I01
sS'GO:0033298'
p264
I01
stbsS'15817229'
p265
g3
(g4
g5
NtRp266
((dp267
S'GO:0046999'
p268
I01
sS'GO:0019953'
p269
I01
stbsS'8290260'
p270
g3
(g4
g5
NtRp271
((dp272
S'GO:0005525'
p273
I01
stbsS'9927418'
p274
g3
(g4
g5
NtRp275
((dp276
S'GO:0036089'
p277
I01
sS'GO:0032154'
p278
I01
sS'GO:0000281'
p279
I01
stbsS'10725352'
p280
g3
(g4
g5
NtRp281
((dp282
S'GO:0045595'
p283
I01
stbsS'17499244'
p284
g3
(g4
g5
NtRp285
((dp286
S'GO:0009815'
p287
I01
sS'GO:0009693'
p288
I01
stbsS'10427097'
p289
g3
(g4
g5
NtRp290
((dp291
S'GO:0006909'
p292
I01
sS'GO:0006935'
p293
I01
sS'GO:0060187'
p294
I01
sS'GO:0008283'
p295
I01
sS'GO:0006907'
p296
I01
sS'GO:0031252'
p297
I01
sS'GO:0030864'
p298
I01
sS'GO:0042641'
p299
I01
sS'GO:0030042'
p300
I01
sS'GO:0001891'
p301
I01
stbsS'16087752'
p302
g3
(g4
g5
NtRp303
((dp304
S'GO:0007275'
p305
I01
stbsS'16410410'
p306
g3
(g4
g5
NtRp307
((dp308
S'GO:0005737'
p309
I01
sS'GO:0031149'
p310
I01
sS'GO:0005634'
p311
I01
sS'GO:0045184'
p312
I01
sS'GO:0012501'
p313
I01
sS'GO:0046982'
p314
I01
sS'GO:0042803'
p315
I01
stbsS'17671169'
p316
g3
(g4
g5
NtRp317
((dp318
S'GO:0016020'
p319
I01
sS'GO:0031252'
p320
I01
sS'GO:0005515'
p321
I01
stbsS'16410554'
p322
g3
(g4
g5
NtRp323
((dp324
S'GO:0005737'
p325
I01
sS'GO:0016070'
p326
I01
sS'GO:0031143'
p327
I01
stbsS'12176329'
p328
g3
(g4
g5
NtRp329
((dp330
S'GO:0005834'
p331
I01
sS'GO:0045744'
p332
I01
sS'GO:0031157'
p333
I01
sS'GO:0005886'
p334
I01
stbsS'21187070'
p335
g3
(g4
g5
NtRp336
((dp337
S'GO:0034729'
p338
I01
sS'GO:0051726'
p339
I01
sS'GO:0005634'
p340
I01
sS'GO:0006974'
p341
I01
sS'GO:0031156'
p342
I01
sS'GO:0031151'
p343
I01
stbsS'22992462'
p344
g3
(g4
g5
NtRp345
((dp346
S'GO:0055072'
p347
I01
sS'GO:0009617'
p348
I01
sS'GO:0031164'
p349
I01
sS'GO:0031152'
p350
I01
stbsS'18635356'
p351
g3
(g4
g5
NtRp352
((dp353
S'GO:0006468'
p354
I01
sS'GO:0051897'
p355
I01
sS'GO:0019933'
p356
I01
stbsS'16750281'
p357
g3
(g4
g5
NtRp358
((dp359
S'GO:0016020'
p360
I01
sS'GO:0042802'
p361
I01
sS'GO:0005515'
p362
I01
stbsS'8130037'
p363
g3
(g4
g5
NtRp364
((dp365
S'GO:0005737'
p366
I01
sS'GO:0006508'
p367
I01
sS'GO:0005634'
p368
I01
sS'GO:0005829'
p369
I01
sS'GO:0008233'
p370
I01
stbsS'10473630'
p371
g3
(g4
g5
NtRp372
((dp373
S'GO:0031284'
p374
I01
sS'GO:0043327'
p375
I01
sS'GO:0017016'
p376
I01
sS'GO:0019900'
p377
I01
sS'GO:0030250'
p378
I01
sS'GO:0005515'
p379
I01
sS'GO:0007190'
p380
I01
stbsS'10574761'
p381
g3
(g4
g5
NtRp382
((dp383
S'GO:0006909'
p384
I01
stbsS'22264729'
p385
g3
(g4
g5
NtRp386
((dp387
S'GO:0005737'
p388
I01
sS'GO:0031681'
p389
I01
sS'GO:0031252'
p390
I01
sS'GO:0044354'
p391
I01
sS'GO:0030864'
p392
I01
sS'GO:0043327'
p393
I01
sS'GO:0048365'
p394
I01
sS'GO:0005515'
p395
I01
sS'GO:0005886'
p396
I01
sS'GO:0030041'
p397
I01
stbsS'17416892'
p398
g3
(g4
g5
NtRp399
((dp400
S'GO:0016023'
p401
I01
sS'GO:0031160'
p402
I01
sS'GO:0042244'
p403
I01
sS'GO:0005199'
p404
I01
sS'GO:0005515'
p405
I01
stbsS'3139100'
p406
g3
(g4
g5
NtRp407
((dp408
S'GO:0004013'
p409
I01
stbsS'10491202'
p410
g3
(g4
g5
NtRp411
((dp412
S'GO:0003677'
p413
I01
stbsS'21766205'
p414
g3
(g4
g5
NtRp415
((dp416
S'GO:0005737'
p417
I01
sS'GO:0019901'
p418
I01
sS'GO:0072686'
p419
I01
sS'GO:0005634'
p420
I01
sS'GO:0005654'
p421
I01
sS'GO:0005515'
p422
I01
stbsS'16445684'
p423
g3
(g4
g5
NtRp424
((dp425
S'GO:0009617'
p426
I01
sS'GO:0006909'
p427
I01
sS'GO:0005802'
p428
I01
sS'GO:0045335'
p429
I01
sS'GO:0005381'
p430
I01
sS'GO:0032010'
p431
I01
sS'GO:0006879'
p432
I01
sS'GO:0034755'
p433
I01
stbsS'18673369'
p434
g3
(g4
g5
NtRp435
((dp436
S'GO:0030553'
p437
I01
sS'GO:0050920'
p438
I01
stbsS'14517319'
p439
g3
(g4
g5
NtRp440
((dp441
S'GO:0046785'
p442
I01
stbsS'14695060'
p443
g3
(g4
g5
NtRp444
((dp445
S'GO:0030435'
p446
I01
sS'GO:0051707'
p447
I01
stbsS'8643519'
p448
g3
(g4
g5
NtRp449
((dp450
S'GO:0030587'
p451
I01
stbsS'18261908'
p452
g3
(g4
g5
NtRp453
((dp454
S'GO:0045184'
p455
I01
sS'GO:0001726'
p456
I01
sS'GO:0000281'
p457
I01
sS'GO:0043326'
p458
I01
sS'GO:0031209'
p459
I01
sS'GO:0005515'
p460
I01
stbsS'7916591'
p461
g3
(g4
g5
NtRp462
((dp463
S'GO:0000822'
p464
I01
stbsS'11690648'
p465
g3
(g4
g5
NtRp466
((dp467
S'GO:0000413'
p468
I01
sS'GO:0005634'
p469
I01
sS'GO:0005829'
p470
I01
sS'GO:0003755'
p471
I01
sS'GO:0005515'
p472
I01
stbsS'1661669'
p473
g3
(g4
g5
NtRp474
((dp475
S'GO:0042995'
p476
I01
sS'GO:0015629'
p477
I01
sS'GO:0051015'
p478
I01
stbsS'15643073'
p479
g3
(g4
g5
NtRp480
((dp481
S'GO:0008284'
p482
I01
sS'GO:0017050'
p483
I01
sS'GO:0031143'
p484
I01
sS'GO:0005634'
p485
I01
sS'GO:0006648'
p486
I01
sS'GO:0005829'
p487
I01
sS'GO:0005524'
p488
I01
stbsS'12372338'
p489
g3
(g4
g5
NtRp490
((dp491
S'GO:0005739'
p492
I01
sS'GO:0030864'
p493
I01
stbsS'8389692'
p494
g3
(g4
g5
NtRp495
((dp496
S'GO:0007186'
p497
I01
sS'GO:0005886'
p498
I01
stbsS'10452519'
p499
g3
(g4
g5
NtRp500
((dp501
S'GO:0005813'
p502
I01
sS'GO:0005829'
p503
I01
sS'GO:0005634'
p504
I01
stbsS'16282589'
p505
g3
(g4
g5
NtRp506
((dp507
S'GO:0003886'
p508
I01
sS'GO:0005634'
p509
I01
sS'GO:0090116'
p510
I01
sS'GO:0032776'
p511
I01
stbsS'21239624'
p512
g3
(g4
g5
NtRp513
((dp514
S'GO:0036051'
p515
I01
sS'GO:0097230'
p516
I01
stbsS'18216168'
p517
g3
(g4
g5
NtRp518
((dp519
S'GO:0030435'
p520
I01
sS'GO:0009691'
p521
I01
stbsS'16176950'
p522
g3
(g4
g5
NtRp523
((dp524
S'GO:0043234'
p525
I01
sS'GO:0008285'
p526
I01
sS'GO:0016049'
p527
I01
sS'GO:0005622'
p528
I01
sS'GO:0030435'
p529
I01
sS'GO:0031157'
p530
I01
sS'GO:0005576'
p531
I01
stbsS'16971511'
p532
g3
(g4
g5
NtRp533
((dp534
S'GO:0000331'
p535
I01
sS'GO:0045335'
p536
I01
sS'GO:0030670'
p537
I01
stbsS'15950752'
p538
g3
(g4
g5
NtRp539
((dp540
S'GO:0042554'
p541
I01
sS'GO:0050660'
p542
I01
sS'GO:0020037'
p543
I01
sS'GO:0030587'
p544
I01
sS'GO:0016021'
p545
I01
sS'GO:0016175'
p546
I01
sS'GO:0050661'
p547
I01
sS'GO:0016176'
p548
I01
sS'GO:0030435'
p549
I01
sS'GO:0006801'
p550
I01
sS'GO:0043020'
p551
I01
sS'GO:0005829'
p552
I01
stbsS'11865029'
p553
g3
(g4
g5
NtRp554
((dp555
S'GO:0007032'
p556
I01
sS'GO:0000331'
p557
I01
sS'GO:0030666'
p558
I01
sS'GO:0006909'
p559
I01
sS'GO:0007041'
p560
I01
sS'GO:0009986'
p561
I01
sS'GO:0005887'
p562
I01
sS'GO:0007155'
p563
I01
sS'GO:0006907'
p564
I01
stbsS'9226443'
p565
g3
(g4
g5
NtRp566
((dp567
S'GO:0031154'
p568
I01
sS'GO:0005634'
p569
I01
sS'GO:0030154'
p570
I01
sS'GO:0005654'
p571
I01
sS'GO:0030435'
p572
I01
sS'GO:0007275'
p573
I01
stbsS'24096661'
p574
g3
(g4
g5
NtRp575
((dp576
S'GO:0044671'
p577
I01
sS'GO:0031149'
p578
I01
stbsS'8380174'
p579
g3
(g4
g5
NtRp580
((dp581
S'GO:0015629'
p582
I01
sS'GO:0051286'
p583
I01
sS'GO:0000281'
p584
I01
sS'GO:0006928'
p585
I01
sS'GO:0043327'
p586
I01
sS'GO:0005938'
p587
I01
stbsS'15143344'
p588
g3
(g4
g5
NtRp589
((dp590
S'GO:0007188'
p591
I01
sS'GO:0046578'
p592
I01
sS'GO:0007265'
p593
I01
sS'GO:0005525'
p594
I01
stbsS'9056774'
p595
g3
(g4
g5
NtRp596
((dp597
S'GO:0031149'
p598
I01
sS'GO:0005099'
p599
I01
sS'GO:0000281'
p600
I01
sS'GO:0031154'
p601
I01
sS'GO:0030435'
p602
I01
sS'GO:0032320'
p603
I01
stbsS'9226449'
p604
g3
(g4
g5
NtRp605
((dp606
S'GO:0005524'
p607
I01
stbsS'8325874'
p608
g3
(g4
g5
NtRp609
((dp610
S'GO:0031252'
p611
I01
stbsS'22699506'
p612
g3
(g4
g5
NtRp613
((dp614
S'GO:2000366'
p615
I01
sS'GO:0005515'
p616
I01
sS'GO:0007260'
p617
I01
stbsS'20530573'
p618
g3
(g4
g5
NtRp619
((dp620
S'GO:0008104'
p621
I01
sS'GO:0000281'
p622
I01
sS'GO:0060187'
p623
I01
sS'GO:0043148'
p624
I01
stbsS'15740584'
p625
g3
(g4
g5
NtRp626
((dp627
S'GO:0019953'
p628
I01
stbsS'22891261'
p629
g3
(g4
g5
NtRp630
((dp631
S'GO:0031143'
p632
I01
sS'GO:0032433'
p633
I01
sS'GO:0031252'
p634
I01
sS'GO:0005911'
p635
I01
stbsS'17878305'
p636
g3
(g4
g5
NtRp637
((dp638
S'GO:0006974'
p639
I01
stbsS'12686622'
p640
g3
(g4
g5
NtRp641
((dp642
S'GO:0005737'
p643
I01
sS'GO:0006468'
p644
I01
sS'GO:0007189'
p645
I01
sS'GO:0050921'
p646
I01
sS'GO:0004672'
p647
I01
sS'GO:0007275'
p648
I01
sS'GO:0005938'
p649
I01
stbsS'15757670'
p650
g3
(g4
g5
NtRp651
((dp652
S'GO:0009653'
p653
I01
stbsS'20525180'
p654
g3
(g4
g5
NtRp655
((dp656
S'GO:0031154'
p657
I01
sS'GO:0051592'
p658
I01
sS'GO:0031149'
p659
I01
sS'GO:0031157'
p660
I01
stbsS'10444594'
p661
g3
(g4
g5
NtRp662
((dp663
S'GO:0005576'
p664
I01
sS'GO:0031158'
p665
I01
sS'GO:0007165'
p666
I01
sS'GO:0004871'
p667
I01
sS'GO:0007275'
p668
I01
stbsS'20170636'
p669
g3
(g4
g5
NtRp670
((dp671
S'GO:0003976'
p672
I01
sS'GO:0018279'
p673
I01
stbsS'15123660'
p674
g3
(g4
g5
NtRp675
((dp676
S'GO:0005737'
p677
I01
stbsS'18430243'
p678
g3
(g4
g5
NtRp679
((dp680
S'GO:0090307'
p681
I01
sS'GO:0031122'
p682
I01
stbsS'14620745'
p683
g3
(g4
g5
NtRp684
((dp685
S'GO:0030554'
p686
I01
stbsS'23126556'
p687
g3
(g4
g5
NtRp688
((dp689
S'GO:0005794'
p690
I01
sS'GO:0031589'
p691
I01
sS'GO:0055037'
p692
I01
sS'GO:0044351'
p693
I01
sS'GO:0031988'
p694
I01
sS'GO:0043326'
p695
I01
sS'GO:0071944'
p696
I01
sS'GO:0030041'
p697
I01
sS'GO:0016477'
p698
I01
stbsS'18640994'
p699
g3
(g4
g5
NtRp700
((dp701
S'GO:0006970'
p702
I01
stbsS'9201999'
p703
g3
(g4
g5
NtRp704
((dp705
S'GO:0051260'
p706
I01
stbsS'14710184'
p707
g3
(g4
g5
NtRp708
((dp709
S'GO:0031037'
p710
I01
sS'GO:0031276'
p711
I01
sS'GO:0005885'
p712
I01
stbsS'8830653'
p713
g3
(g4
g5
NtRp714
((dp715
S'GO:0036360'
p716
I01
sS'GO:0016049'
p717
I01
sS'GO:0000281'
p718
I01
sS'GO:0005938'
p719
I01
stbsS'15470238'
p720
g3
(g4
g5
NtRp721
((dp722
S'GO:0009847'
p723
I01
stbsS'22262860'
p724
g3
(g4
g5
NtRp725
((dp726
S'GO:0005773'
p727
I01
sS'GO:0005886'
p728
I01
stbsS'9832508'
p729
g3
(g4
g5
NtRp730
((dp731
S'GO:0000186'
p732
I01
sS'GO:0030587'
p733
I01
sS'GO:0004709'
p734
I01
sS'GO:0000165'
p735
I01
sS'GO:0016567'
p736
I01
sS'GO:0005938'
p737
I01
sS'GO:0009653'
p738
I01
sS'GO:0016579'
p739
I01
stbsS'19632001'
p740
g3
(g4
g5
NtRp741
((dp742
S'GO:0006997'
p743
I01
sS'GO:0000070'
p744
I01
sS'GO:0005637'
p745
I01
sS'GO:0051297'
p746
I01
sS'GO:0005640'
p747
I01
sS'GO:0034508'
p748
I01
sS'GO:0005813'
p749
I01
sS'GO:0051642'
p750
I01
stbsS'1328220'
p751
g3
(g4
g5
NtRp752
((dp753
S'GO:0034765'
p754
I01
sS'GO:0005244'
p755
I01
sS'GO:0005741'
p756
I01
sS'GO:0015288'
p757
I01
stbsS'15728724'
p758
g3
(g4
g5
NtRp759
((dp760
S'GO:0015629'
p761
I01
sS'GO:0030950'
p762
I01
sS'GO:0030838'
p763
I01
sS'GO:0017048'
p764
I01
sS'GO:0005547'
p765
I01
sS'GO:0005546'
p766
I01
stbsS'16782229'
p767
g3
(g4
g5
NtRp768
((dp769
S'GO:0005813'
p770
I01
stbsS'15821735'
p771
g3
(g4
g5
NtRp772
((dp773
S'GO:0003723'
p774
I01
stbsS'8898113'
p775
g3
(g4
g5
NtRp776
((dp777
S'GO:0046777'
p778
I01
sS'GO:0004713'
p779
I01
sS'GO:0005524'
p780
I01
sS'GO:0018108'
p781
I01
stbsS'14729573'
p782
g3
(g4
g5
NtRp783
((dp784
S'GO:0006355'
p785
I01
sS'GO:0045595'
p786
I01
sS'GO:0043565'
p787
I01
sS'GO:0030587'
p788
I01
stbsS'16507593'
p789
g3
(g4
g5
NtRp790
((dp791
S'GO:0006909'
p792
I01
sS'GO:0005977'
p793
I01
sS'GO:0046034'
p794
I01
sS'GO:0006907'
p795
I01
sS'GO:0005739'
p796
I01
sS'GO:0031154'
p797
I01
sS'GO:0030435'
p798
I01
sS'GO:0006536'
p799
I01
stbsS'16051212'
p800
g3
(g4
g5
NtRp801
((dp802
S'GO:0005737'
p803
I01
sS'GO:0043326'
p804
I01
sS'GO:0031589'
p805
I01
sS'GO:0030833'
p806
I01
sS'GO:0016337'
p807
I01
sS'GO:0031154'
p808
I01
sS'GO:0043327'
p809
I01
sS'GO:0007163'
p810
I01
sS'GO:0031152'
p811
I01
stbsS'19763158'
p812
g3
(g4
g5
NtRp813
((dp814
S'GO:0006974'
p815
I01
sS'GO:0000724'
p816
I01
stbsS'15896312'
p817
g3
(g4
g5
NtRp818
((dp819
S'GO:0005516'
p820
I01
sS'GO:0005515'
p821
I01
stbsS'8016318'
p822
g3
(g4
g5
NtRp823
((dp824
S'GO:0031012'
p825
I01
sS'GO:0030198'
p826
I01
sS'GO:0005198'
p827
I01
stbsS'22811266'
p828
g3
(g4
g5
NtRp829
((dp830
S'GO:0003700'
p831
I01
sS'GO:0031285'
p832
I01
sS'GO:0045893'
p833
I01
sS'GO:0043565'
p834
I01
stbsS'21247092'
p835
g3
(g4
g5
NtRp836
((dp837
S'GO:0018401'
p838
I01
sS'GO:0031545'
p839
I01
sS'GO:0005515'
p840
I01
sS'GO:0033830'
p841
I01
stbsS'10593934'
p842
g3
(g4
g5
NtRp843
((dp844
S'GO:0005737'
p845
I01
sS'GO:0008375'
p846
I01
stbsS'22864416'
p847
g3
(g4
g5
NtRp848
((dp849
S'GO:0005829'
p850
I01
sS'GO:0009190'
p851
I01
sS'GO:0052621'
p852
I01
sS'GO:0031149'
p853
I01
stbsS'15261655'
p854
g3
(g4
g5
NtRp855
((dp856
S'GO:0004888'
p857
I01
sS'GO:0006909'
p858
I01
sS'GO:0031152'
p859
I01
sS'GO:0005887'
p860
I01
stbsS'20670432'
p861
g3
(g4
g5
NtRp862
((dp863
S'GO:0008283'
p864
I01
sS'GO:0051591'
p865
I01
sS'GO:0010628'
p866
I01
sS'GO:0031152'
p867
I01
sS'GO:0019933'
p868
I01
sS'GO:0051409'
p869
I01
sS'GO:0006979'
p870
I01
stbsS'22722653'
p871
g3
(g4
g5
NtRp872
((dp873
S'GO:0005783'
p874
I01
stbsS'1535025'
p875
g3
(g4
g5
NtRp876
((dp877
S'GO:0000281'
p878
I01
sS'GO:0030898'
p879
I01
stbsS'12060071'
p880
g3
(g4
g5
NtRp881
((dp882
S'GO:0006355'
p883
I01
sS'GO:0016591'
p884
I01
sS'GO:0043689'
p885
I01
sS'GO:0031152'
p886
I01
stbsS'14732403'
p887
g3
(g4
g5
NtRp888
((dp889
S'GO:0001646'
p890
I01
sS'GO:0016021'
p891
I01
sS'GO:0030308'
p892
I01
stbsS'3288206'
p893
g3
(g4
g5
NtRp894
((dp895
S'GO:0004013'
p896
I01
stbsS'10887966'
p897
g3
(g4
g5
NtRp898
((dp899
S'GO:0005794'
p900
I01
sS'GO:0048471'
p901
I01
stbsS'3312238'
p902
g3
(g4
g5
NtRp903
((dp904
S'GO:0051015'
p905
I01
sS'GO:0030246'
p906
I01
sS'GO:0005887'
p907
I01
stbsS'14701681'
p908
g3
(g4
g5
NtRp909
((dp910
S'GO:0042127'
p911
I01
sS'GO:0005634'
p912
I01
sS'GO:0045892'
p913
I01
sS'GO:0045893'
p914
I01
sS'GO:0042803'
p915
I01
stbsS'17606910'
p916
g3
(g4
g5
NtRp917
((dp918
S'GO:0050660'
p919
I01
stbsS'16854454'
p920
g3
(g4
g5
NtRp921
((dp922
S'GO:0007205'
p923
I01
sS'GO:0035556'
p924
I01
sS'GO:0004143'
p925
I01
stbsS'21760904'
p926
g3
(g4
g5
NtRp927
((dp928
S'GO:0008285'
p929
I01
sS'GO:0005634'
p930
I01
sS'GO:0031410'
p931
I01
stbsS'15255188'
p932
g3
(g4
g5
NtRp933
((dp934
S'GO:0004869'
p935
I01
sS'GO:0005829'
p936
I01
sS'GO:0031982'
p937
I01
sS'GO:0006508'
p938
I01
stbsS'22307974'
p939
g3
(g4
g5
NtRp940
((dp941
S'GO:0001726'
p942
I01
sS'GO:0006897'
p943
I01
sS'GO:0006935'
p944
I01
sS'GO:0031941'
p945
I01
sS'GO:0071944'
p946
I01
sS'GO:0005886'
p947
I01
sS'GO:0016477'
p948
I01
sS'GO:0031268'
p949
I01
stbsS'9115238'
p950
g3
(g4
g5
NtRp951
((dp952
S'GO:0016905'
p953
I01
stbsS'12204259'
p954
g3
(g4
g5
NtRp955
((dp956
S'GO:0051344'
p957
I01
stbsS'19692567'
p958
g3
(g4
g5
NtRp959
((dp960
S'GO:0009992'
p961
I01
sS'GO:0000331'
p962
I01
sS'GO:0000149'
p963
I01
sS'GO:0033298'
p964
I01
sS'GO:0006971'
p965
I01
sS'GO:0005515'
p966
I01
sS'GO:0005886'
p967
I01
sS'GO:0005768'
p968
I01
sS'GO:0030136'
p969
I01
stbsS'12840076'
p970
g3
(g4
g5
NtRp971
((dp972
S'GO:0004784'
p973
I01
sS'GO:0006801'
p974
I01
sS'GO:0031152'
p975
I01
stbsS'16987957'
p976
g3
(g4
g5
NtRp977
((dp978
S'GO:0031670'
p979
I01
sS'GO:0031156'
p980
I01
sS'GO:0030154'
p981
I01
sS'GO:0016049'
p982
I01
sS'GO:0005515'
p983
I01
stbsS'15855234'
p984
g3
(g4
g5
NtRp985
((dp986
S'GO:0046847'
p987
I01
stbsS'16495312'
p988
g3
(g4
g5
NtRp989
((dp990
S'GO:0000122'
p991
I01
stbsS'21169559'
p992
g3
(g4
g5
NtRp993
((dp994
S'GO:0006468'
p995
I01
sS'GO:0032148'
p996
I01
sS'GO:0000281'
p997
I01
sS'GO:0043327'
p998
I01
sS'GO:0031156'
p999
I01
sS'GO:0030010'
p1000
I01
sS'GO:0036051'
p1001
I01
sS'GO:0071902'
p1002
I01
sS'GO:0071901'
p1003
I01
stbsS'9808785'
p1004
g3
(g4
g5
NtRp1005
((dp1006
S'GO:0009847'
p1007
I01
stbsS'16461463'
p1008
g3
(g4
g5
NtRp1009
((dp1010
S'GO:0005938'
p1011
I01
sS'GO:0030866'
p1012
I01
stbsS'20197546'
p1013
g3
(g4
g5
NtRp1014
((dp1015
S'GO:0006468'
p1016
I01
sS'GO:0016887'
p1017
I01
sS'GO:0006200'
p1018
I01
sS'GO:0004672'
p1019
I01
stbsS'2049870'
p1020
g3
(g4
g5
NtRp1021
((dp1022
S'GO:0047555'
p1023
I01
sS'GO:0046069'
p1024
I01
stbsS'8660315'
p1025
g3
(g4
g5
NtRp1026
((dp1027
S'GO:0006729'
p1028
I01
sS'GO:0005737'
p1029
I01
sS'GO:0016020'
p1030
I01
sS'GO:0003934'
p1031
I01
sS'GO:0004757'
p1032
I01
sS'GO:0003874'
p1033
I01
sS'GO:0046656'
p1034
I01
stbsS'17267449'
p1035
g3
(g4
g5
NtRp1036
((dp1037
S'GO:0030435'
p1038
I01
stbsS'7729573'
p1039
g3
(g4
g5
NtRp1040
((dp1041
S'GO:0005201'
p1042
I01
sS'GO:0030198'
p1043
I01
sS'GO:0030248'
p1044
I01
sS'GO:0031012'
p1045
I01
stbsS'22223109'
p1046
g3
(g4
g5
NtRp1047
((dp1048
S'GO:0034508'
p1049
I01
sS'GO:0030953'
p1050
I01
sS'GO:0000226'
p1051
I01
sS'GO:0031592'
p1052
I01
sS'GO:0007051'
p1053
I01
stbsS'21131095'
p1054
g3
(g4
g5
NtRp1055
((dp1056
S'GO:0070584'
p1057
I01
sS'GO:0005741'
p1058
I01
sS'GO:0048311'
p1059
I01
stbsS'23161062'
p1060
g3
(g4
g5
NtRp1061
((dp1062
S'GO:0008104'
p1063
I01
sS'GO:0051661'
p1064
I01
sS'GO:0051297'
p1065
I01
sS'GO:0005635'
p1066
I01
sS'GO:0007019'
p1067
I01
stbsS'18067324'
p1068
g3
(g4
g5
NtRp1069
((dp1070
S'GO:0051015'
p1071
I01
sS'GO:0030898'
p1072
I01
stbsS'15342480'
p1073
g3
(g4
g5
NtRp1074
((dp1075
S'GO:0031154'
p1076
I01
sS'GO:0030435'
p1077
I01
sS'GO:0007275'
p1078
I01
stbsS'16962888'
p1079
g3
(g4
g5
NtRp1080
((dp1081
S'GO:0006468'
p1082
I01
sS'GO:0007186'
p1083
I01
sS'GO:0004672'
p1084
I01
stbsS'15733068'
p1085
g3
(g4
g5
NtRp1086
((dp1087
S'GO:0003987'
p1088
I01
sS'GO:0016208'
p1089
I01
sS'GO:0010468'
p1090
I01
sS'GO:0006085'
p1091
I01
stbsS'9700162'
p1092
g3
(g4
g5
NtRp1093
((dp1094
S'GO:0003779'
p1095
I01
sS'GO:0042175'
p1096
I01
sS'GO:0016337'
p1097
I01
sS'GO:0005789'
p1098
I01
stbsS'9639652'
p1099
g3
(g4
g5
NtRp1100
((dp1101
S'GO:0000182'
p1102
I01
sS'GO:0005730'
p1103
I01
stbsS'18550798'
p1104
g3
(g4
g5
NtRp1105
((dp1106
S'GO:0000331'
p1107
I01
sS'GO:0007030'
p1108
I01
sS'GO:0008283'
p1109
I01
sS'GO:0007029'
p1110
I01
sS'GO:0006907'
p1111
I01
sS'GO:0006887'
p1112
I01
sS'GO:0005789'
p1113
I01
sS'GO:0033298'
p1114
I01
sS'GO:0006971'
p1115
I01
sS'GO:0031152'
p1116
I01
stbsS'9017597'
p1117
g3
(g4
g5
NtRp1118
((dp1119
S'GO:0030027'
p1120
I01
sS'GO:0051017'
p1121
I01
sS'GO:0005509'
p1122
I01
sS'GO:0051015'
p1123
I01
sS'GO:0031252'
p1124
I01
stbsS'21327858'
p1125
g3
(g4
g5
NtRp1126
((dp1127
S'GO:0005654'
p1128
I01
sS'GO:0005813'
p1129
I01
sS'GO:0005635'
p1130
I01
sS'GO:0005730'
p1131
I01
stbsS'12538772'
p1132
g3
(g4
g5
NtRp1133
((dp1134
S'GO:0005737'
p1135
I01
sS'GO:0031154'
p1136
I01
sS'GO:0001891'
p1137
I01
sS'GO:0030864'
p1138
I01
stbsS'20300194'
p1139
g3
(g4
g5
NtRp1140
((dp1141
S'GO:0010629'
p1142
I01
sS'GO:0010628'
p1143
I01
sS'GO:0045165'
p1144
I01
stbsS'15752425'
p1145
g3
(g4
g5
NtRp1146
((dp1147
S'GO:0004115'
p1148
I01
sS'GO:0051279'
p1149
I01
sS'GO:0031276'
p1150
I01
sS'GO:0046058'
p1151
I01
sS'GO:0051281'
p1152
I01
stbsS'10793140'
p1153
g3
(g4
g5
NtRp1154
((dp1155
S'GO:0051093'
p1156
I01
stbsS'21087028'
p1157
g3
(g4
g5
NtRp1158
((dp1159
S'GO:0033204'
p1160
I01
stbsS'17584488'
p1161
g3
(g4
g5
NtRp1162
((dp1163
S'GO:0005737'
p1164
I01
sS'GO:0005856'
p1165
I01
sS'GO:0032009'
p1166
I01
sS'GO:0030587'
p1167
I01
sS'GO:0016020'
p1168
I01
sS'GO:0048365'
p1169
I01
sS'GO:0005938'
p1170
I01
sS'GO:0031152'
p1171
I01
stbsS'11102804'
p1172
g3
(g4
g5
NtRp1173
((dp1174
S'GO:0050766'
p1175
I01
sS'GO:0051271'
p1176
I01
sS'GO:0006909'
p1177
I01
sS'GO:0006935'
p1178
I01
sS'GO:0005085'
p1179
I01
sS'GO:0030866'
p1180
I01
sS'GO:0000281'
p1181
I01
sS'GO:0045807'
p1182
I01
sS'GO:0031152'
p1183
I01
sS'GO:0007265'
p1184
I01
sS'GO:0007275'
p1185
I01
stbsS'16573737'
p1186
g3
(g4
g5
NtRp1187
((dp1188
S'GO:0016337'
p1189
I01
sS'GO:0019953'
p1190
I01
sS'GO:0031152'
p1191
I01
stbsS'7589554'
p1192
g3
(g4
g5
NtRp1193
((dp1194
S'GO:0030833'
p1195
I01
stbsS'10459012'
p1196
g3
(g4
g5
NtRp1197
((dp1198
S'GO:0005765'
p1199
I01
stbsS'17951519'
p1200
g3
(g4
g5
NtRp1201
((dp1202
S'GO:0031159'
p1203
I01
sS'GO:0015696'
p1204
I01
stbsS'16822579'
p1205
g3
(g4
g5
NtRp1206
((dp1207
S'GO:0031589'
p1208
I01
sS'GO:0000902'
p1209
I01
sS'GO:0031143'
p1210
I01
sS'GO:0031252'
p1211
I01
sS'GO:0006928'
p1212
I01
sS'GO:0000281'
p1213
I01
stbsS'2500658'
p1214
g3
(g4
g5
NtRp1215
((dp1216
S'GO:0005834'
p1217
I01
stbsS'15470500'
p1218
g3
(g4
g5
NtRp1219
((dp1220
S'GO:0045335'
p1221
I01
stbsS'22992464'
p1222
g3
(g4
g5
NtRp1223
((dp1224
S'GO:0030122'
p1225
I01
sS'GO:0030132'
p1226
I01
sS'GO:0072583'
p1227
I01
sS'GO:0005515'
p1228
I01
stbsS'12796307'
p1229
g3
(g4
g5
NtRp1230
((dp1231
S'GO:0031154'
p1232
I01
sS'GO:0030435'
p1233
I01
sS'GO:0019933'
p1234
I01
sS'GO:0030587'
p1235
I01
stbsS'15470506'
p1236
g3
(g4
g5
NtRp1237
((dp1238
S'GO:0030676'
p1239
I01
sS'GO:0006935'
p1240
I01
sS'GO:0048365'
p1241
I01
sS'GO:0035020'
p1242
I01
sS'GO:0005515'
p1243
I01
sS'GO:0031152'
p1244
I01
sS'GO:0030041'
p1245
I01
sS'GO:0005938'
p1246
I01
stbsS'17085634'
p1247
g3
(g4
g5
NtRp1248
((dp1249
S'GO:0004691'
p1250
I01
sS'GO:0019933'
p1251
I01
stbsS'9716534'
p1252
g3
(g4
g5
NtRp1253
((dp1254
S'GO:0010043'
p1255
I01
sS'GO:0003677'
p1256
I01
stbsS'18388319'
p1257
g3
(g4
g5
NtRp1258
((dp1259
S'GO:0060328'
p1260
I01
sS'GO:0034461'
p1261
I01
sS'GO:0031270'
p1262
I01
stbsS'21045112'
p1263
g3
(g4
g5
NtRp1264
((dp1265
S'GO:0009617'
p1266
I01
stbsS'11208126'
p1267
g3
(g4
g5
NtRp1268
((dp1269
S'GO:0030676'
p1270
I01
sS'GO:0000146'
p1271
I01
sS'GO:0016887'
p1272
I01
sS'GO:0051015'
p1273
I01
sS'GO:0006200'
p1274
I01
sS'GO:0016461'
p1275
I01
sS'GO:0035020'
p1276
I01
sS'GO:0006971'
p1277
I01
sS'GO:0006972'
p1278
I01
sS'GO:0031268'
p1279
I01
sS'GO:0005524'
p1280
I01
stbsS'11737154'
p1281
g3
(g4
g5
NtRp1282
((dp1283
S'GO:0016337'
p1284
I01
sS'GO:0031152'
p1285
I01
stbsS'22114350'
p1286
g3
(g4
g5
NtRp1287
((dp1288
S'GO:0015629'
p1289
I01
sS'GO:0030587'
p1290
I01
sS'GO:0031254'
p1291
I01
sS'GO:0030866'
p1292
I01
sS'GO:0043520'
p1293
I01
sS'GO:0010628'
p1294
I01
sS'GO:0031152'
p1295
I01
sS'GO:0001934'
p1296
I01
stbsS'3972891'
p1297
g3
(g4
g5
NtRp1298
((dp1299
S'GO:0003785'
p1300
I01
sS'GO:0051015'
p1301
I01
stbsS'8831554'
p1302
g3
(g4
g5
NtRp1303
((dp1304
S'GO:0016020'
p1305
I01
stbsS'23923009'
p1306
g3
(g4
g5
NtRp1307
((dp1308
S'GO:0031167'
p1309
I01
sS'GO:0006352'
p1310
I01
sS'GO:0005739'
p1311
I01
sS'GO:0008649'
p1312
I01
stbsS'17625565'
p1313
g3
(g4
g5
NtRp1314
((dp1315
S'GO:0009992'
p1316
I01
sS'GO:0031164'
p1317
I01
sS'GO:0006971'
p1318
I01
sS'GO:0005524'
p1319
I01
sS'GO:0015276'
p1320
I01
stbsS'16765443'
p1321
g3
(g4
g5
NtRp1322
((dp1323
S'GO:0005764'
p1324
I01
sS'GO:0005773'
p1325
I01
stbsS'22266904'
p1326
g3
(g4
g5
NtRp1327
((dp1328
S'GO:0050766'
p1329
I01
sS'GO:0008284'
p1330
I01
sS'GO:0044351'
p1331
I01
sS'GO:0050765'
p1332
I01
sS'GO:1901355'
p1333
I01
stbsS'12062087'
p1334
g3
(g4
g5
NtRp1335
((dp1336
S'GO:0000187'
p1337
I01
sS'GO:0006468'
p1338
I01
sS'GO:0030010'
p1339
I01
sS'GO:0005515'
p1340
I01
sS'GO:0016567'
p1341
I01
sS'GO:0005829'
p1342
I01
sS'GO:0031434'
p1343
I01
sS'GO:0000165'
p1344
I01
sS'GO:0031252'
p1345
I01
sS'GO:0004708'
p1346
I01
sS'GO:0043327'
p1347
I01
sS'GO:0005938'
p1348
I01
sS'GO:0031152'
p1349
I01
sS'GO:0004672'
p1350
I01
sS'GO:0016925'
p1351
I01
sS'GO:0005634'
p1352
I01
stbsS'8099335'
p1353
g3
(g4
g5
NtRp1354
((dp1355
S'GO:0031152'
p1356
I01
stbsS'12756178'
p1357
g3
(g4
g5
NtRp1358
((dp1359
S'GO:0016021'
p1360
I01
sS'GO:0045595'
p1361
I01
stbsS'18708585'
p1362
g3
(g4
g5
NtRp1363
((dp1364
S'GO:0043326'
p1365
I01
sS'GO:0030837'
p1366
I01
sS'GO:0060176'
p1367
I01
sS'GO:0005815'
p1368
I01
sS'GO:0005881'
p1369
I01
sS'GO:0004674'
p1370
I01
sS'GO:0043327'
p1371
I01
sS'GO:0030010'
p1372
I01
sS'GO:0031272'
p1373
I01
stbsS'11223952'
p1374
g3
(g4
g5
NtRp1375
((dp1376
S'GO:0006898'
p1377
I01
sS'GO:0000281'
p1378
I01
stbsS'17880704'
p1379
g3
(g4
g5
NtRp1380
((dp1381
S'GO:0016259'
p1382
I01
stbsS'18218133'
p1383
g3
(g4
g5
NtRp1384
((dp1385
S'GO:0003958'
p1386
I01
sS'GO:0050661'
p1387
I01
sS'GO:0030587'
p1388
I01
sS'GO:0050660'
p1389
I01
sS'GO:0010181'
p1390
I01
stbsS'19466752'
p1391
g3
(g4
g5
NtRp1392
((dp1393
S'GO:0005813'
p1394
I01
sS'GO:0005635'
p1395
I01
sS'GO:0030496'
p1396
I01
sS'GO:0000776'
p1397
I01
sS'GO:0000922'
p1398
I01
stbsS'8647262'
p1399
g3
(g4
g5
NtRp1400
((dp1401
S'GO:0005737'
p1402
I01
stbsS'16188250'
p1403
g3
(g4
g5
NtRp1404
((dp1405
S'GO:0031154'
p1406
I01
stbsS'8793298'
p1407
g3
(g4
g5
NtRp1408
((dp1409
S'GO:0007190'
p1410
I01
sS'GO:0005829'
p1411
I01
sS'GO:0006935'
p1412
I01
sS'GO:0031152'
p1413
I01
sS'GO:0006928'
p1414
I01
stbsS'11956322'
p1415
g3
(g4
g5
NtRp1416
((dp1417
S'GO:0051453'
p1418
I01
sS'GO:0000331'
p1419
I01
sS'GO:0006911'
p1420
I01
stbsS'12429832'
p1421
g3
(g4
g5
NtRp1422
((dp1423
S'GO:0019934'
p1424
I01
stbsS'21458438'
p1425
g3
(g4
g5
NtRp1426
((dp1427
S'GO:0005634'
p1428
I01
sS'GO:0010628'
p1429
I01
sS'GO:0000976'
p1430
I01
stbsS'11598188'
p1431
g3
(g4
g5
NtRp1432
((dp1433
S'GO:0030261'
p1434
I01
sS'GO:0005634'
p1435
I01
sS'GO:0005739'
p1436
I01
sS'GO:0006308'
p1437
I01
stbsS'9207087'
p1438
g3
(g4
g5
NtRp1439
((dp1440
S'GO:0005737'
p1441
I01
sS'GO:0048312'
p1442
I01
sS'GO:0000281'
p1443
I01
stbsS'9230077'
p1444
g3
(g4
g5
NtRp1445
((dp1446
S'GO:0016337'
p1447
I01
sS'GO:0031589'
p1448
I01
sS'GO:0006909'
p1449
I01
sS'GO:0000281'
p1450
I01
stbsS'11428129'
p1451
g3
(g4
g5
NtRp1452
((dp1453
S'GO:0031160'
p1454
I01
sS'GO:0042244'
p1455
I01
stbsS'12871696'
p1456
g3
(g4
g5
NtRp1457
((dp1458
S'GO:0004028'
p1459
I01
sS'GO:0030587'
p1460
I01
sS'GO:0005215'
p1461
I01
sS'GO:0016021'
p1462
I01
sS'GO:0006810'
p1463
I01
sS'GO:0031154'
p1464
I01
sS'GO:0031152'
p1465
I01
sS'GO:0005525'
p1466
I01
stbsS'11274054'
p1467
g3
(g4
g5
NtRp1468
((dp1469
S'GO:0006909'
p1470
I01
sS'GO:0006935'
p1471
I01
sS'GO:0009968'
p1472
I01
sS'GO:0018108'
p1473
I01
sS'GO:0004674'
p1474
I01
sS'GO:0004713'
p1475
I01
sS'GO:0030036'
p1476
I01
sS'GO:0005938'
p1477
I01
stbsS'20071332'
p1478
g3
(g4
g5
NtRp1479
((dp1480
S'GO:0031589'
p1481
I01
sS'GO:0006909'
p1482
I01
sS'GO:0030835'
p1483
I01
sS'GO:0005829'
p1484
I01
sS'GO:0009617'
p1485
I01
sS'GO:0030866'
p1486
I01
sS'GO:0051015'
p1487
I01
sS'GO:0030864'
p1488
I01
sS'GO:0031252'
p1489
I01
sS'GO:0031276'
p1490
I01
sS'GO:0001667'
p1491
I01
sS'GO:0005525'
p1492
I01
sS'GO:0001891'
p1493
I01
stbsS'16581519'
p1494
g3
(g4
g5
NtRp1495
((dp1496
S'GO:0031589'
p1497
I01
sS'GO:0016337'
p1498
I01
sS'GO:0030835'
p1499
I01
sS'GO:0030838'
p1500
I01
sS'GO:0006935'
p1501
I01
sS'GO:0006928'
p1502
I01
sS'GO:0005938'
p1503
I01
sS'GO:0046956'
p1504
I01
sS'GO:0031209'
p1505
I01
stbsS'1522112'
p1506
g3
(g4
g5
NtRp1507
((dp1508
S'GO:0007033'
p1509
I01
sS'GO:0006909'
p1510
I01
sS'GO:0006907'
p1511
I01
sS'GO:0006898'
p1512
I01
sS'GO:0006970'
p1513
I01
sS'GO:0031152'
p1514
I01
stbsS'10878573'
p1515
g3
(g4
g5
NtRp1516
((dp1517
S'GO:0016303'
p1518
I01
sS'GO:0036092'
p1519
I01
stbsS'15507682'
p1520
g3
(g4
g5
NtRp1521
((dp1522
S'GO:0030552'
p1523
I01
sS'GO:0006935'
p1524
I01
sS'GO:0009986'
p1525
I01
sS'GO:0004016'
p1526
I01
sS'GO:0031152'
p1527
I01
sS'GO:0045860'
p1528
I01
sS'GO:0006171'
p1529
I01
stbsS'2161830'
p1530
g3
(g4
g5
NtRp1531
((dp1532
S'GO:0006187'
p1533
I01
sS'GO:0006186'
p1534
I01
sS'GO:0004550'
p1535
I01
sS'GO:0009142'
p1536
I01
sS'GO:0005524'
p1537
I01
stbsS'23187822'
p1538
g3
(g4
g5
NtRp1539
((dp1540
S'GO:0070291'
p1541
I01
stbsS'14718564'
p1542
g3
(g4
g5
NtRp1543
((dp1544
S'GO:0016020'
p1545
I01
sS'GO:0045859'
p1546
I01
sS'GO:0004016'
p1547
I01
sS'GO:0006970'
p1548
I01
sS'GO:0009847'
p1549
I01
sS'GO:0046982'
p1550
I01
sS'GO:0006171'
p1551
I01
stbsS'15059962'
p1552
g3
(g4
g5
NtRp1553
((dp1554
S'GO:0007194'
p1555
I01
stbsS'23967067'
p1556
g3
(g4
g5
NtRp1557
((dp1558
S'GO:0031154'
p1559
I01
sS'GO:0031288'
p1560
I01
sS'GO:0031152'
p1561
I01
sS'GO:0030587'
p1562
I01
stbsS'17635933'
p1563
g3
(g4
g5
NtRp1564
((dp1565
S'GO:0004674'
p1566
I01
sS'GO:0032320'
p1567
I01
stbsS'2176841'
p1568
g3
(g4
g5
NtRp1569
((dp1570
S'GO:0046777'
p1571
I01
stbsS'8662604'
p1572
g3
(g4
g5
NtRp1573
((dp1574
S'GO:0005737'
p1575
I01
sS'GO:0036065'
p1576
I01
sS'GO:0019005'
p1577
I01
sS'GO:0008417'
p1578
I01
stbsS'22689969'
p1579
g3
(g4
g5
NtRp1580
((dp1581
S'GO:0004672'
p1582
I01
stbsS'16339076'
p1583
g3
(g4
g5
NtRp1584
((dp1585
S'GO:0030472'
p1586
I01
sS'GO:0008104'
p1587
I01
sS'GO:0000281'
p1588
I01
sS'GO:0032154'
p1589
I01
sS'GO:0000793'
p1590
I01
sS'GO:0005515'
p1591
I01
sS'GO:0007059'
p1592
I01
sS'GO:0007067'
p1593
I01
sS'GO:0000922'
p1594
I01
sS'GO:0051233'
p1595
I01
stbsS'18504297'
p1596
g3
(g4
g5
NtRp1597
((dp1598
S'GO:0005088'
p1599
I01
sS'GO:0045159'
p1600
I01
sS'GO:0030587'
p1601
I01
sS'GO:0005829'
p1602
I01
sS'GO:0051015'
p1603
I01
sS'GO:0043520'
p1604
I01
sS'GO:0005938'
p1605
I01
sS'GO:0005515'
p1606
I01
sS'GO:0007265'
p1607
I01
stbsS'8947030'
p1608
g3
(g4
g5
NtRp1609
((dp1610
S'GO:0046777'
p1611
I01
stbsS'8703943'
p1612
g3
(g4
g5
NtRp1613
((dp1614
S'GO:0043100'
p1615
I01
sS'GO:0000287'
p1616
I01
sS'GO:0005524'
p1617
I01
stbsS'16606621'
p1618
g3
(g4
g5
NtRp1619
((dp1620
S'GO:0032114'
p1621
I01
stbsS'18359017'
p1622
g3
(g4
g5
NtRp1623
((dp1624
S'GO:0051209'
p1625
I01
stbsS'18334553'
p1626
g3
(g4
g5
NtRp1627
((dp1628
S'GO:0000331'
p1629
I01
sS'GO:0051270'
p1630
I01
sS'GO:0042331'
p1631
I01
sS'GO:0030587'
p1632
I01
sS'GO:0005829'
p1633
I01
sS'GO:0006887'
p1634
I01
sS'GO:0051490'
p1635
I01
sS'GO:0033298'
p1636
I01
stbsS'11352940'
p1637
g3
(g4
g5
NtRp1638
((dp1639
S'GO:0030041'
p1640
I01
sS'GO:0007163'
p1641
I01
sS'GO:0000281'
p1642
I01
sS'GO:0031152'
p1643
I01
sS'GO:0031269'
p1644
I01
stbsS'4300706'
p1645
g3
(g4
g5
NtRp1646
((dp1647
S'GO:0003872'
p1648
I01
stbsS'15563608'
p1649
g3
(g4
g5
NtRp1650
((dp1651
S'GO:0019897'
p1652
I01
sS'GO:0031681'
p1653
I01
sS'GO:0031682'
p1654
I01
sS'GO:0005834'
p1655
I01
sS'GO:0031256'
p1656
I01
sS'GO:0005829'
p1657
I01
sS'GO:0007188'
p1658
I01
sS'GO:0008047'
p1659
I01
sS'GO:0005515'
p1660
I01
sS'GO:0043085'
p1661
I01
stbsS'565823'
p1662
g3
(g4
g5
NtRp1663
((dp1664
S'GO:0000331'
p1665
I01
stbsS'23536703'
p1666
g3
(g4
g5
NtRp1667
((dp1668
S'GO:0042331'
p1669
I01
sS'GO:0032981'
p1670
I01
sS'GO:0005739'
p1671
I01
sS'GO:0031154'
p1672
I01
sS'GO:0030435'
p1673
I01
sS'GO:0010507'
p1674
I01
stbsS'8635456'
p1675
g3
(g4
g5
NtRp1676
((dp1677
S'GO:0051017'
p1678
I01
sS'GO:0051015'
p1679
I01
sS'GO:0005537'
p1680
I01
sS'GO:0042803'
p1681
I01
stbsS'8609164'
p1682
g3
(g4
g5
NtRp1683
((dp1684
S'GO:0006909'
p1685
I01
sS'GO:0031252'
p1686
I01
sS'GO:0006928'
p1687
I01
stbsS'12771188'
p1688
g3
(g4
g5
NtRp1689
((dp1690
S'GO:0009408'
p1691
I01
sS'GO:0005634'
p1692
I01
sS'GO:0006979'
p1693
I01
sS'GO:0006972'
p1694
I01
sS'GO:0047484'
p1695
I01
stbsS'10978342'
p1696
g3
(g4
g5
NtRp1697
((dp1698
S'GO:0006906'
p1699
I01
sS'GO:0005768'
p1700
I01
sS'GO:0005515'
p1701
I01
stbsS'11358877'
p1702
g3
(g4
g5
NtRp1703
((dp1704
S'GO:0005737'
p1705
I01
sS'GO:0005634'
p1706
I01
sS'GO:0005938'
p1707
I01
stbsS'21205787'
p1708
g3
(g4
g5
NtRp1709
((dp1710
S'GO:0006468'
p1711
I01
sS'GO:0030154'
p1712
I01
sS'GO:0031288'
p1713
I01
sS'GO:0018108'
p1714
I01
sS'GO:0061118'
p1715
I01
sS'GO:0030435'
p1716
I01
sS'GO:0042659'
p1717
I01
sS'GO:0060176'
p1718
I01
sS'GO:0045860'
p1719
I01
sS'GO:0010468'
p1720
I01
sS'GO:0004713'
p1721
I01
stbsS'4278009'
p1722
g3
(g4
g5
NtRp1723
((dp1724
S'GO:0031034'
p1725
I01
sS'GO:0032982'
p1726
I01
sS'GO:0030898'
p1727
I01
sS'GO:0016460'
p1728
I01
sS'GO:0005524'
p1729
I01
sS'GO:0042641'
p1730
I01
stbsS'1989999'
p1731
g3
(g4
g5
NtRp1732
((dp1733
S'GO:0004019'
p1734
I01
sS'GO:0005829'
p1735
I01
sS'GO:0006164'
p1736
I01
sS'GO:0046086'
p1737
I01
sS'GO:0005525'
p1738
I01
stbsS'16151245'
p1739
g3
(g4
g5
NtRp1740
((dp1741
S'GO:0005261'
p1742
I01
sS'GO:0005783'
p1743
I01
sS'GO:0005262'
p1744
I01
stbsS'10652255'
p1745
g3
(g4
g5
NtRp1746
((dp1747
S'GO:0005737'
p1748
I01
sS'GO:0033109'
p1749
I01
sS'GO:0001726'
p1750
I01
sS'GO:0031252'
p1751
I01
sS'GO:0051015'
p1752
I01
sS'GO:0006911'
p1753
I01
sS'GO:2000147'
p1754
I01
sS'GO:0070685'
p1755
I01
sS'GO:0001891'
p1756
I01
stbsS'9883904'
p1757
g3
(g4
g5
NtRp1758
((dp1759
S'GO:0005509'
p1760
I01
stbsS'9880334'
p1761
g3
(g4
g5
NtRp1762
((dp1763
S'GO:0031410'
p1764
I01
sS'GO:0042331'
p1765
I01
stbsS'22928977'
p1766
g3
(g4
g5
NtRp1767
((dp1768
S'GO:0031000'
p1769
I01
stbsS'9428745'
p1770
g3
(g4
g5
NtRp1771
((dp1772
S'GO:0042175'
p1773
I01
sS'GO:0006457'
p1774
I01
sS'GO:0005783'
p1775
I01
stbsS'9880338'
p1776
g3
(g4
g5
NtRp1777
((dp1778
S'GO:0005737'
p1779
I01
sS'GO:0006997'
p1780
I01
sS'GO:0006909'
p1781
I01
sS'GO:0032195'
p1782
I01
sS'GO:0006907'
p1783
I01
sS'GO:0031288'
p1784
I01
sS'GO:0000920'
p1785
I01
sS'GO:0007032'
p1786
I01
sS'GO:0007163'
p1787
I01
sS'GO:0007005'
p1788
I01
stbsS'9885293'
p1789
g3
(g4
g5
NtRp1790
((dp1791
S'GO:0005388'
p1792
I01
sS'GO:0006816'
p1793
I01
sS'GO:0031164'
p1794
I01
sS'GO:0005886'
p1795
I01
stbsS'18603769'
p1796
g3
(g4
g5
NtRp1797
((dp1798
S'GO:0005759'
p1799
I01
sS'GO:0006627'
p1800
I01
sS'GO:0004222'
p1801
I01
sS'GO:0031930'
p1802
I01
sS'GO:0031966'
p1803
I01
stbsS'8126094'
p1804
g3
(g4
g5
NtRp1805
((dp1806
S'GO:0000331'
p1807
I01
stbsS'20709790'
p1808
g3
(g4
g5
NtRp1809
((dp1810
S'GO:0005737'
p1811
I01
sS'GO:0006997'
p1812
I01
sS'GO:0016049'
p1813
I01
sS'GO:0048837'
p1814
I01
sS'GO:0008285'
p1815
I01
stbsS'12956949'
p1816
g3
(g4
g5
NtRp1817
((dp1818
S'GO:0030835'
p1819
I01
stbsS'17077123'
p1820
g3
(g4
g5
NtRp1821
((dp1822
S'GO:0006816'
p1823
I01
stbsS'16899512'
p1824
g3
(g4
g5
NtRp1825
((dp1826
S'GO:0031252'
p1827
I01
sS'GO:0043327'
p1828
I01
sS'GO:0005515'
p1829
I01
sS'GO:0030041'
p1830
I01
sS'GO:0046847'
p1831
I01
sS'GO:0031269'
p1832
I01
stbsS'15236669'
p1833
g3
(g4
g5
NtRp1834
((dp1835
S'GO:0051093'
p1836
I01
stbsS'11606416'
p1837
g3
(g4
g5
NtRp1838
((dp1839
S'GO:0042127'
p1840
I01
sS'GO:0016363'
p1841
I01
sS'GO:0000281'
p1842
I01
sS'GO:0005622'
p1843
I01
sS'GO:0051726'
p1844
I01
stbsS'15506982'
p1845
g3
(g4
g5
NtRp1846
((dp1847
S'GO:0008064'
p1848
I01
sS'GO:0031209'
p1849
I01
stbsS'12843630'
p1850
g3
(g4
g5
NtRp1851
((dp1852
S'GO:0006508'
p1853
I01
sS'GO:0004185'
p1854
I01
stbsS'8951083'
p1855
g3
(g4
g5
NtRp1856
((dp1857
S'GO:0031154'
p1858
I01
sS'GO:0045595'
p1859
I01
sS'GO:0051726'
p1860
I01
stbsS'23773804'
p1861
g3
(g4
g5
NtRp1862
((dp1863
S'GO:0010628'
p1864
I01
sS'GO:0031152'
p1865
I01
stbsS'12654899'
p1866
g3
(g4
g5
NtRp1867
((dp1868
S'GO:0048102'
p1869
I01
stbsS'8065317'
p1870
g3
(g4
g5
NtRp1871
((dp1872
S'GO:0003677'
p1873
I01
stbsS'15496465'
p1874
g3
(g4
g5
NtRp1875
((dp1876
S'GO:0005813'
p1877
I01
sS'GO:0008976'
p1878
I01
sS'GO:0016192'
p1879
I01
stbsS'16356468'
p1880
g3
(g4
g5
NtRp1881
((dp1882
S'GO:0043565'
p1883
I01
sS'GO:0004329'
p1884
I01
sS'GO:0009396'
p1885
I01
sS'GO:0005829'
p1886
I01
sS'GO:0006355'
p1887
I01
sS'GO:0005634'
p1888
I01
sS'GO:0005524'
p1889
I01
stbsS'15155803'
p1890
g3
(g4
g5
NtRp1891
((dp1892
S'GO:0005742'
p1893
I01
sS'GO:0045040'
p1894
I01
sS'GO:0015450'
p1895
I01
stbsS'16735078'
p1896
g3
(g4
g5
NtRp1897
((dp1898
S'GO:0005515'
p1899
I01
stbsS'16086850'
p1900
g3
(g4
g5
NtRp1901
((dp1902
S'GO:0046956'
p1903
I01
sS'GO:0043052'
p1904
I01
stbsS'10898960'
p1905
g3
(g4
g5
NtRp1906
((dp1907
S'GO:0031154'
p1908
I01
sS'GO:0016567'
p1909
I01
sS'GO:0045595'
p1910
I01
sS'GO:0004842'
p1911
I01
stbsS'16299590'
p1912
g3
(g4
g5
NtRp1913
((dp1914
S'GO:0000271'
p1915
I01
stbsS'9275182'
p1916
g3
(g4
g5
NtRp1917
((dp1918
S'GO:0005813'
p1919
I01
stbsS'2996629'
p1920
g3
(g4
g5
NtRp1921
((dp1922
S'GO:0006207'
p1923
I01
sS'GO:0004152'
p1924
I01
stbsS'22345351'
p1925
g3
(g4
g5
NtRp1926
((dp1927
S'GO:0004177'
p1928
I01
sS'GO:0031288'
p1929
I01
sS'GO:0008270'
p1930
I01
stbsS'7813455'
p1931
g3
(g4
g5
NtRp1932
((dp1933
S'GO:0003872'
p1934
I01
sS'GO:0005945'
p1935
I01
sS'GO:0005829'
p1936
I01
sS'GO:0006002'
p1937
I01
stbsS'19207182'
p1938
g3
(g4
g5
NtRp1939
((dp1940
S'GO:0031154'
p1941
I01
stbsS'17057715'
p1942
g3
(g4
g5
NtRp1943
((dp1944
S'GO:0016339'
p1945
I01
sS'GO:0005886'
p1946
I01
sS'GO:0005509'
p1947
I01
sS'GO:0042803'
p1948
I01
stbsS'17725968'
p1949
g3
(g4
g5
NtRp1950
((dp1951
S'GO:0046956'
p1952
I01
sS'GO:0008283'
p1953
I01
stbsS'3576222'
p1954
g3
(g4
g5
NtRp1955
((dp1956
S'GO:0031154'
p1957
I01
sS'GO:0000281'
p1958
I01
stbsS'15014435'
p1959
g3
(g4
g5
NtRp1960
((dp1961
S'GO:0005737'
p1962
I01
sS'GO:0007015'
p1963
I01
sS'GO:0005826'
p1964
I01
sS'GO:0008283'
p1965
I01
sS'GO:0000281'
p1966
I01
sS'GO:0051015'
p1967
I01
sS'GO:0005938'
p1968
I01
sS'GO:0042803'
p1969
I01
stbsS'21531871'
p1970
g3
(g4
g5
NtRp1971
((dp1972
S'GO:0043234'
p1973
I01
sS'GO:0031941'
p1974
I01
sS'GO:0045921'
p1975
I01
sS'GO:0043326'
p1976
I01
sS'GO:0043327'
p1977
I01
sS'GO:2000249'
p1978
I01
sS'GO:0050765'
p1979
I01
stbsS'11437439'
p1980
g3
(g4
g5
NtRp1981
((dp1982
S'GO:0031154'
p1983
I01
sS'GO:0040011'
p1984
I01
stbsS'16766083'
p1985
g3
(g4
g5
NtRp1986
((dp1987
S'GO:0000815'
p1988
I01
sS'GO:0000814'
p1989
I01
sS'GO:0000813'
p1990
I01
sS'GO:0030587'
p1991
I01
stbsS'19465563'
p1992
g3
(g4
g5
NtRp1993
((dp1994
S'GO:0006997'
p1995
I01
sS'GO:0007020'
p1996
I01
sS'GO:0005634'
p1997
I01
sS'GO:0005635'
p1998
I01
sS'GO:0000281'
p1999
I01
sS'GO:0006998'
p2000
I01
sS'GO:0010824'
p2001
I01
sS'GO:0051297'
p2002
I01
stbsS'9765812'
p2003
g3
(g4
g5
NtRp2004
((dp2005
S'GO:0006470'
p2006
I01
sS'GO:0004722'
p2007
I01
stbsS'22944283'
p2008
g3
(g4
g5
NtRp2009
((dp2010
S'GO:0071285'
p2011
I01
sS'GO:0005634'
p2012
I01
sS'GO:0010629'
p2013
I01
sS'GO:0046827'
p2014
I01
sS'GO:0043157'
p2015
I01
sS'GO:0006970'
p2016
I01
sS'GO:0031150'
p2017
I01
sS'GO:0005829'
p2018
I01
stbsS'16473345'
p2019
g3
(g4
g5
NtRp2020
((dp2021
S'GO:0031154'
p2022
I01
sS'GO:0005635'
p2023
I01
sS'GO:0019933'
p2024
I01
stbsS'14665466'
p2025
g3
(g4
g5
NtRp2026
((dp2027
S'GO:0009986'
p2028
I01
sS'GO:0006357'
p2029
I01
sS'GO:0005622'
p2030
I01
sS'GO:0004470'
p2031
I01
stbsS'11782526'
p2032
g3
(g4
g5
NtRp2033
((dp2034
S'GO:0033986'
p2035
I01
stbsS'15470429'
p2036
g3
(g4
g5
NtRp2037
((dp2038
S'GO:0030435'
p2039
I01
stbsS'14665465'
p2040
g3
(g4
g5
NtRp2041
((dp2042
S'GO:0005759'
p2043
I01
sS'GO:0003924'
p2044
I01
sS'GO:0042802'
p2045
I01
sS'GO:0007005'
p2046
I01
sS'GO:0005525'
p2047
I01
stbsS'21103944'
p2048
g3
(g4
g5
NtRp2049
((dp2050
S'GO:0032861'
p2051
I01
stbsS'17553489'
p2052
g3
(g4
g5
NtRp2053
((dp2054
S'GO:0030041'
p2055
I01
sS'GO:0005938'
p2056
I01
stbsS'15653432'
p2057
g3
(g4
g5
NtRp2058
((dp2059
S'GO:0005515'
p2060
I01
stbsS'8455930'
p2061
g3
(g4
g5
NtRp2062
((dp2063
S'GO:0005525'
p2064
I01
stbsS'22391412'
p2065
g3
(g4
g5
NtRp2066
((dp2067
S'GO:0051592'
p2068
I01
sS'GO:0043327'
p2069
I01
sS'GO:0005783'
p2070
I01
sS'GO:0005515'
p2071
I01
sS'GO:0031012'
p2072
I01
stbsS'8743951'
p2073
g3
(g4
g5
NtRp2074
((dp2075
S'GO:0000331'
p2076
I01
stbsS'9446571'
p2077
g3
(g4
g5
NtRp2078
((dp2079
S'GO:0005622'
p2080
I01
stbsS'9254905'
p2081
g3
(g4
g5
NtRp2082
((dp2083
S'GO:0030435'
p2084
I01
sS'GO:0009653'
p2085
I01
sS'GO:0030587'
p2086
I01
stbsS'16336640'
p2087
g3
(g4
g5
NtRp2088
((dp2089
S'GO:0050850'
p2090
I01
sS'GO:0043327'
p2091
I01
sS'GO:0045762'
p2092
I01
stbsS'12018385'
p2093
g3
(g4
g5
NtRp2094
((dp2095
S'GO:0005813'
p2096
I01
sS'GO:0043015'
p2097
I01
stbsS'9348538'
p2098
g3
(g4
g5
NtRp2099
((dp2100
S'GO:0009653'
p2101
I01
sS'GO:0004842'
p2102
I01
stbsS'9435289'
p2103
g3
(g4
g5
NtRp2104
((dp2105
S'GO:0047555'
p2106
I01
sS'GO:0004115'
p2107
I01
sS'GO:0006198'
p2108
I01
stbsS'15276209'
p2109
g3
(g4
g5
NtRp2110
((dp2111
S'GO:0007275'
p2112
I01
stbsS'17889831'
p2113
g3
(g4
g5
NtRp2114
((dp2115
S'GO:0070265'
p2116
I01
sS'GO:0048102'
p2117
I01
stbsS'22875808'
p2118
g3
(g4
g5
NtRp2119
((dp2120
S'GO:0010586'
p2121
I01
sS'GO:0010587'
p2122
I01
sS'GO:0031054'
p2123
I01
stbsS'11927596'
p2124
g3
(g4
g5
NtRp2125
((dp2126
S'GO:0005737'
p2127
I01
sS'GO:0005634'
p2128
I01
sS'GO:0005509'
p2129
I01
sS'GO:0005515'
p2130
I01
sS'GO:0046982'
p2131
I01
sS'GO:0042803'
p2132
I01
stbsS'9425628'
p2133
g3
(g4
g5
NtRp2134
((dp2135
S'GO:0030118'
p2136
I01
sS'GO:0005515'
p2137
I01
sS'GO:0071439'
p2138
I01
stbsS'14651934'
p2139
g3
(g4
g5
NtRp2140
((dp2141
S'GO:0031152'
p2142
I01
stbsS'22219373'
p2143
g3
(g4
g5
NtRp2144
((dp2145
S'GO:0006909'
p2146
I01
sS'GO:0055037'
p2147
I01
sS'GO:0034394'
p2148
I01
sS'GO:0050821'
p2149
I01
sS'GO:0010467'
p2150
I01
sS'GO:0005886'
p2151
I01
sS'GO:0005769'
p2152
I01
stbsS'15788570'
p2153
g3
(g4
g5
NtRp2154
((dp2155
S'GO:0006907'
p2156
I01
sS'GO:0005886'
p2157
I01
stbsS'12413895'
p2158
g3
(g4
g5
NtRp2159
((dp2160
S'GO:0005737'
p2161
I01
sS'GO:0007190'
p2162
I01
sS'GO:0031152'
p2163
I01
stbsS'12032065'
p2164
g3
(g4
g5
NtRp2165
((dp2166
S'GO:0003779'
p2167
I01
sS'GO:0045160'
p2168
I01
sS'GO:0005524'
p2169
I01
stbsS'9837757'
p2170
g3
(g4
g5
NtRp2171
((dp2172
S'GO:0008609'
p2173
I01
sS'GO:0005777'
p2174
I01
sS'GO:0008611'
p2175
I01
stbsS'15507488'
p2176
g3
(g4
g5
NtRp2177
((dp2178
S'GO:0030154'
p2179
I01
sS'GO:0007275'
p2180
I01
sS'GO:0005739'
p2181
I01
sS'GO:0005938'
p2182
I01
stbsS'9630545'
p2183
g3
(g4
g5
NtRp2184
((dp2185
S'GO:0030587'
p2186
I01
stbsS'12464622'
p2187
g3
(g4
g5
NtRp2188
((dp2189
S'GO:0031152'
p2190
I01
sS'GO:0008283'
p2191
I01
sS'GO:0004439'
p2192
I01
sS'GO:0034485'
p2193
I01
sS'GO:0046856'
p2194
I01
sS'GO:0046855'
p2195
I01
sS'GO:0004445'
p2196
I01
stbsS'15701689'
p2197
g3
(g4
g5
NtRp2198
((dp2199
S'GO:0030435'
p2200
I01
sS'GO:0006797'
p2201
I01
sS'GO:0006909'
p2202
I01
stbsS'19011688'
p2203
g3
(g4
g5
NtRp2204
((dp2205
S'GO:0022604'
p2206
I01
sS'GO:0031254'
p2207
I01
sS'GO:0031272'
p2208
I01
stbsS'10092866'
p2209
g3
(g4
g5
NtRp2210
((dp2211
S'GO:0015866'
p2212
I01
sS'GO:0005743'
p2213
I01
sS'GO:0005471'
p2214
I01
sS'GO:0015867'
p2215
I01
stbsS'2885843'
p2216
g3
(g4
g5
NtRp2217
((dp2218
S'GO:0006935'
p2219
I01
sS'GO:0007275'
p2220
I01
stbsS'18835579'
p2221
g3
(g4
g5
NtRp2222
((dp2223
S'GO:0006571'
p2224
I01
sS'GO:0004505'
p2225
I01
sS'GO:0034617'
p2226
I01
sS'GO:0051262'
p2227
I01
sS'GO:0006559'
p2228
I01
stbsS'17630977'
p2229
g3
(g4
g5
NtRp2230
((dp2231
S'GO:0030552'
p2232
I01
sS'GO:0032148'
p2233
I01
sS'GO:0031152'
p2234
I01
stbsS'9729488'
p2235
g3
(g4
g5
NtRp2236
((dp2237
S'GO:0003700'
p2238
I01
sS'GO:0030435'
p2239
I01
sS'GO:0005634'
p2240
I01
sS'GO:0006357'
p2241
I01
stbsS'16781008'
p2242
g3
(g4
g5
NtRp2243
((dp2244
S'GO:0043161'
p2245
I01
sS'GO:0008283'
p2246
I01
sS'GO:0005515'
p2247
I01
sS'GO:0008180'
p2248
I01
stbsS'9238018'
p2249
g3
(g4
g5
NtRp2250
((dp2251
S'GO:0000915'
p2252
I01
sS'GO:0005826'
p2253
I01
sS'GO:0000281'
p2254
I01
stbsS'16672332'
p2255
g3
(g4
g5
NtRp2256
((dp2257
S'GO:0004965'
p2258
I01
sS'GO:0008066'
p2259
I01
sS'GO:0007214'
p2260
I01
stbsS'11229601'
p2261
g3
(g4
g5
NtRp2262
((dp2263
S'GO:0000331'
p2264
I01
sS'GO:0005794'
p2265
I01
sS'GO:0016021'
p2266
I01
sS'GO:0005789'
p2267
I01
sS'GO:0030173'
p2268
I01
sS'GO:0010008'
p2269
I01
stbsS'19002378'
p2270
g3
(g4
g5
NtRp2271
((dp2272
S'GO:0046956'
p2273
I01
sS'GO:0031288'
p2274
I01
sS'GO:0022408'
p2275
I01
stbsS'10205164'
p2276
g3
(g4
g5
NtRp2277
((dp2278
S'GO:0004674'
p2279
I01
stbsS'17462897'
p2280
g3
(g4
g5
NtRp2281
((dp2282
S'GO:0030041'
p2283
I01
sS'GO:0005737'
p2284
I01
sS'GO:0005938'
p2285
I01
sS'GO:0006935'
p2286
I01
sS'GO:0006928'
p2287
I01
stbsS'8769416'
p2288
g3
(g4
g5
NtRp2289
((dp2290
S'GO:0016020'
p2291
I01
sS'GO:0004672'
p2292
I01
stbsS'3032987'
p2293
g3
(g4
g5
NtRp2294
((dp2295
S'GO:0004687'
p2296
I01
sS'GO:0030898'
p2297
I01
sS'GO:0005524'
p2298
I01
sS'GO:0004683'
p2299
I01
stbsS'17056744'
p2300
g3
(g4
g5
NtRp2301
((dp2302
S'GO:0045595'
p2303
I01
stbsS'10224056'
p2304
g3
(g4
g5
NtRp2305
((dp2306
S'GO:0051509'
p2307
I01
sS'GO:0051508'
p2308
I01
sS'GO:0016125'
p2309
I01
sS'GO:0051505'
p2310
I01
sS'GO:0051507'
p2311
I01
sS'GO:0051506'
p2312
I01
stbsS'16042397'
p2313
g3
(g4
g5
NtRp2314
((dp2315
S'GO:0019992'
p2316
I01
sS'GO:0004143'
p2317
I01
sS'GO:0005524'
p2318
I01
sS'GO:0000166'
p2319
I01
stbsS'8280098'
p2320
g3
(g4
g5
NtRp2321
((dp2322
S'GO:0007186'
p2323
I01
sS'GO:0003924'
p2324
I01
sS'GO:0007165'
p2325
I01
sS'GO:0004871'
p2326
I01
sS'GO:0005525'
p2327
I01
stbsS'17548361'
p2328
g3
(g4
g5
NtRp2329
((dp2330
S'GO:0016887'
p2331
I01
sS'GO:0006200'
p2332
I01
stbsS'20408569'
p2333
g3
(g4
g5
NtRp2334
((dp2335
S'GO:0000302'
p2336
I01
sS'GO:0046689'
p2337
I01
stbsS'17362909'
p2338
g3
(g4
g5
NtRp2339
((dp2340
S'GO:0005737'
p2341
I01
sS'GO:0031152'
p2342
I01
sS'GO:0007165'
p2343
I01
sS'GO:0006972'
p2344
I01
sS'GO:0045762'
p2345
I01
stbsS'9015266'
p2346
g3
(g4
g5
NtRp2347
((dp2348
S'GO:0030154'
p2349
I01
stbsS'23576747'
p2350
g3
(g4
g5
NtRp2351
((dp2352
S'GO:0031684'
p2353
I01
sS'GO:0005829'
p2354
I01
sS'GO:0005085'
p2355
I01
sS'GO:0046579'
p2356
I01
sS'GO:0043326'
p2357
I01
sS'GO:0001965'
p2358
I01
sS'GO:0010628'
p2359
I01
sS'GO:0005515'
p2360
I01
sS'GO:0007186'
p2361
I01
sS'GO:0061122'
p2362
I01
stbsS'15643062'
p2363
g3
(g4
g5
NtRp2364
((dp2365
S'GO:0005829'
p2366
I01
sS'GO:0004340'
p2367
I01
sS'GO:0042593'
p2368
I01
sS'GO:0051156'
p2369
I01
sS'GO:0006110'
p2370
I01
sS'GO:0006096'
p2371
I01
stbsS'15545285'
p2372
g3
(g4
g5
NtRp2373
((dp2374
S'GO:0051015'
p2375
I01
stbsS'22120990'
p2376
g3
(g4
g5
NtRp2377
((dp2378
S'GO:0044351'
p2379
I01
stbsS'23587254'
p2380
g3
(g4
g5
NtRp2381
((dp2382
S'GO:0005737'
p2383
I01
sS'GO:0005654'
p2384
I01
sS'GO:0005635'
p2385
I01
sS'GO:0005730'
p2386
I01
stbsS'21209787'
p2387
g3
(g4
g5
NtRp2388
((dp2389
S'GO:0003985'
p2390
I01
stbsS'16926386'
p2391
g3
(g4
g5
NtRp2392
((dp2393
S'GO:0045335'
p2394
I01
stbsS'16396914'
p2395
g3
(g4
g5
NtRp2396
((dp2397
S'GO:0005737'
p2398
I01
sS'GO:0040011'
p2399
I01
sS'GO:0031149'
p2400
I01
sS'GO:0005634'
p2401
I01
sS'GO:0043565'
p2402
I01
stbsS'2835631'
p2403
g3
(g4
g5
NtRp2404
((dp2405
S'GO:0004590'
p2406
I01
sS'GO:0019856'
p2407
I01
sS'GO:0004588'
p2408
I01
stbsS'8504170'
p2409
g3
(g4
g5
NtRp2410
((dp2411
S'GO:0045160'
p2412
I01
stbsS'8486739'
p2413
g3
(g4
g5
NtRp2414
((dp2415
S'GO:0051764'
p2416
I01
sS'GO:0005509'
p2417
I01
stbsS'11330860'
p2418
g3
(g4
g5
NtRp2419
((dp2420
S'GO:0006874'
p2421
I01
stbsS'20351273'
p2422
g3
(g4
g5
NtRp2423
((dp2424
S'GO:0030041'
p2425
I01
sS'GO:0043327'
p2426
I01
sS'GO:0072657'
p2427
I01
sS'GO:0030010'
p2428
I01
sS'GO:0030587'
p2429
I01
stbsS'22302991'
p2430
g3
(g4
g5
NtRp2431
((dp2432
S'GO:0016601'
p2433
I01
sS'GO:0031143'
p2434
I01
sS'GO:0031255'
p2435
I01
sS'GO:0031254'
p2436
I01
sS'GO:0032154'
p2437
I01
sS'GO:0005938'
p2438
I01
sS'GO:0005886'
p2439
I01
sS'GO:0048471'
p2440
I01
sS'GO:0001891'
p2441
I01
stbsS'16527814'
p2442
g3
(g4
g5
NtRp2443
((dp2444
S'GO:0043327'
p2445
I01
sS'GO:0016021'
p2446
I01
sS'GO:0031152'
p2447
I01
stbsS'18676957'
p2448
g3
(g4
g5
NtRp2449
((dp2450
S'GO:0006909'
p2451
I01
stbsS'1885577'
p2452
g3
(g4
g5
NtRp2453
((dp2454
S'GO:0003922'
p2455
I01
sS'GO:0006177'
p2456
I01
sS'GO:0005524'
p2457
I01
stbsS'12139770'
p2458
g3
(g4
g5
NtRp2459
((dp2460
S'GO:0005737'
p2461
I01
stbsS'9670017'
p2462
g3
(g4
g5
NtRp2463
((dp2464
S'GO:0005634'
p2465
I01
sS'GO:0005829'
p2466
I01
sS'GO:0001637'
p2467
I01
stbsS'16624291'
p2468
g3
(g4
g5
NtRp2469
((dp2470
S'GO:0032060'
p2471
I01
stbsS'15473840'
p2472
g3
(g4
g5
NtRp2473
((dp2474
S'GO:0031036'
p2475
I01
sS'GO:0006909'
p2476
I01
sS'GO:0004871'
p2477
I01
sS'GO:0047555'
p2478
I01
sS'GO:0004115'
p2479
I01
sS'GO:0016314'
p2480
I01
sS'GO:0031154'
p2481
I01
sS'GO:0001646'
p2482
I01
sS'GO:0007163'
p2483
I01
sS'GO:0007165'
p2484
I01
sS'GO:0031152'
p2485
I01
sS'GO:0004691'
p2486
I01
sS'GO:0046069'
p2487
I01
sS'GO:0019887'
p2488
I01
sS'GO:0030833'
p2489
I01
sS'GO:0016021'
p2490
I01
sS'GO:0016020'
p2491
I01
sS'GO:0006198'
p2492
I01
sS'GO:0043326'
p2493
I01
sS'GO:0046856'
p2494
I01
sS'GO:0004672'
p2495
I01
sS'GO:0005524'
p2496
I01
sS'GO:0051272'
p2497
I01
sS'GO:0006468'
p2498
I01
sS'GO:0030010'
p2499
I01
sS'GO:0006935'
p2500
I01
sS'GO:0030826'
p2501
I01
sS'GO:0004383'
p2502
I01
sS'GO:0045859'
p2503
I01
sS'GO:0030435'
p2504
I01
sS'GO:0005887'
p2505
I01
sS'GO:0005886'
p2506
I01
sS'GO:0006182'
p2507
I01
sS'GO:0051093'
p2508
I01
sS'GO:0030552'
p2509
I01
sS'GO:0007015'
p2510
I01
sS'GO:0005829'
p2511
I01
sS'GO:0005622'
p2512
I01
sS'GO:0005576'
p2513
I01
sS'GO:0007190'
p2514
I01
stbsS'12678488'
p2515
g3
(g4
g5
NtRp2516
((dp2517
S'GO:0030587'
p2518
I01
stbsS'10987137'
p2519
g3
(g4
g5
NtRp2520
((dp2521
S'GO:0006729'
p2522
I01
sS'GO:0004757'
p2523
I01
stbsS'15060630'
p2524
g3
(g4
g5
NtRp2525
((dp2526
S'GO:0051015'
p2527
I01
stbsS'7499325'
p2528
g3
(g4
g5
NtRp2529
((dp2530
S'GO:0015085'
p2531
I01
sS'GO:0016021'
p2532
I01
sS'GO:0006816'
p2533
I01
sS'GO:0005509'
p2534
I01
sS'GO:0005388'
p2535
I01
sS'GO:0005524'
p2536
I01
sS'GO:0031164'
p2537
I01
stbsS'12455979'
p2538
g3
(g4
g5
NtRp2539
((dp2540
S'GO:0031285'
p2541
I01
sS'GO:0031286'
p2542
I01
stbsS'15476260'
p2543
g3
(g4
g5
NtRp2544
((dp2545
S'GO:0001667'
p2546
I01
sS'GO:0031276'
p2547
I01
sS'GO:0006935'
p2548
I01
sS'GO:0030036'
p2549
I01
sS'GO:0006928'
p2550
I01
stbsS'22008230'
p2551
g3
(g4
g5
NtRp2552
((dp2553
S'GO:0090382'
p2554
I01
sS'GO:0090383'
p2555
I01
sS'GO:0045335'
p2556
I01
sS'GO:0044656'
p2557
I01
sS'GO:0044655'
p2558
I01
sS'GO:1900756'
p2559
I01
stbsS'16478785'
p2560
g3
(g4
g5
NtRp2561
((dp2562
S'GO:0000331'
p2563
I01
sS'GO:0005768'
p2564
I01
sS'GO:0005515'
p2565
I01
sS'GO:0005886'
p2566
I01
stbsS'19176583'
p2567
g3
(g4
g5
NtRp2568
((dp2569
S'GO:0007214'
p2570
I01
sS'GO:0004871'
p2571
I01
stbsS'22038042'
p2572
g3
(g4
g5
NtRp2573
((dp2574
S'GO:0005654'
p2575
I01
sS'GO:0005737'
p2576
I01
sS'GO:0005874'
p2577
I01
sS'GO:0005815'
p2578
I01
stbsS'8408201'
p2579
g3
(g4
g5
NtRp2580
((dp2581
S'GO:0005794'
p2582
I01
sS'GO:0030660'
p2583
I01
sS'GO:0030867'
p2584
I01
sS'GO:0051015'
p2585
I01
sS'GO:0051645'
p2586
I01
sS'GO:0005768'
p2587
I01
stbsS'12175335'
p2588
g3
(g4
g5
NtRp2589
((dp2590
S'GO:0006810'
p2591
I01
sS'GO:0016192'
p2592
I01
sS'GO:0008333'
p2593
I01
sS'GO:0016021'
p2594
I01
sS'GO:0006906'
p2595
I01
sS'GO:0031902'
p2596
I01
sS'GO:0005765'
p2597
I01
sS'GO:0005515'
p2598
I01
sS'GO:0005887'
p2599
I01
sS'GO:0005768'
p2600
I01
sS'GO:0031201'
p2601
I01
sS'GO:0010008'
p2602
I01
stbsS'7806571'
p2603
g3
(g4
g5
NtRp2604
((dp2605
S'GO:0000281'
p2606
I01
sS'GO:0030587'
p2607
I01
stbsS'22809629'
p2608
g3
(g4
g5
NtRp2609
((dp2610
S'GO:0031941'
p2611
I01
sS'GO:0016020'
p2612
I01
sS'GO:0006935'
p2613
I01
sS'GO:0060187'
p2614
I01
sS'GO:0005634'
p2615
I01
sS'GO:0044351'
p2616
I01
sS'GO:0071944'
p2617
I01
sS'GO:0031268'
p2618
I01
stbsS'1321427'
p2619
g3
(g4
g5
NtRp2620
((dp2621
S'GO:0016020'
p2622
I01
stbsS'18402932'
p2623
g3
(g4
g5
NtRp2624
((dp2625
S'GO:0031149'
p2626
I01
sS'GO:0031288'
p2627
I01
stbsS'16368684'
p2628
g3
(g4
g5
NtRp2629
((dp2630
S'GO:0004748'
p2631
I01
sS'GO:0009142'
p2632
I01
stbsS'6897549'
p2633
g3
(g4
g5
NtRp2634
((dp2635
S'GO:0030043'
p2636
I01
sS'GO:0051014'
p2637
I01
stbsS'15366706'
p2638
g3
(g4
g5
NtRp2639
((dp2640
S'GO:0031254'
p2641
I01
sS'GO:0048015'
p2642
I01
sS'GO:0031252'
p2643
I01
stbsS'21606208'
p2644
g3
(g4
g5
NtRp2645
((dp2646
S'GO:0003779'
p2647
I01
sS'GO:0061474'
p2648
I01
sS'GO:0006887'
p2649
I01
sS'GO:0045010'
p2650
I01
sS'GO:0044655'
p2651
I01
stbsS'9649625'
p2652
g3
(g4
g5
NtRp2653
((dp2654
S'GO:0006974'
p2655
I01
stbsS'17916577'
p2656
g3
(g4
g5
NtRp2657
((dp2658
S'GO:0010586'
p2659
I01
stbsS'16678813'
p2660
g3
(g4
g5
NtRp2661
((dp2662
S'GO:0050661'
p2663
I01
sS'GO:0004364'
p2664
I01
sS'GO:0004362'
p2665
I01
sS'GO:0005622'
p2666
I01
sS'GO:0031154'
p2667
I01
sS'GO:0006749'
p2668
I01
sS'GO:0045454'
p2669
I01
sS'GO:0006979'
p2670
I01
sS'GO:0043295'
p2671
I01
stbsS'21991393'
p2672
g3
(g4
g5
NtRp2673
((dp2674
S'GO:0005737'
p2675
I01
sS'GO:0045920'
p2676
I01
sS'GO:0050765'
p2677
I01
sS'GO:0048550'
p2678
I01
sS'GO:0015629'
p2679
I01
sS'GO:0016049'
p2680
I01
stbsS'15896778'
p2681
g3
(g4
g5
NtRp2682
((dp2683
S'GO:0004757'
p2684
I01
sS'GO:0042559'
p2685
I01
stbsS'11884033'
p2686
g3
(g4
g5
NtRp2687
((dp2688
S'GO:0007155'
p2689
I01
sS'GO:0031288'
p2690
I01
sS'GO:0005576'
p2691
I01
sS'GO:0016337'
p2692
I01
sS'GO:0030587'
p2693
I01
stbsS'20019080'
p2694
g3
(g4
g5
NtRp2695
((dp2696
S'GO:0004175'
p2697
I01
sS'GO:0005739'
p2698
I01
sS'GO:0006627'
p2699
I01
stbsS'20052281'
p2700
g3
(g4
g5
NtRp2701
((dp2702
S'GO:0032010'
p2703
I01
sS'GO:0045335'
p2704
I01
sS'GO:0032009'
p2705
I01
sS'GO:0001891'
p2706
I01
stbsS'8752217'
p2707
g3
(g4
g5
NtRp2708
((dp2709
S'GO:0000902'
p2710
I01
sS'GO:0051017'
p2711
I01
sS'GO:0031252'
p2712
I01
sS'GO:0051015'
p2713
I01
sS'GO:0000281'
p2714
I01
sS'GO:0051639'
p2715
I01
sS'GO:0005938'
p2716
I01
sS'GO:0042803'
p2717
I01
stbsS'11823417'
p2718
g3
(g4
g5
NtRp2719
((dp2720
S'GO:0006184'
p2721
I01
sS'GO:0005543'
p2722
I01
sS'GO:0003924'
p2723
I01
sS'GO:0042802'
p2724
I01
sS'GO:0005525'
p2725
I01
stbsS'23516620'
p2726
g3
(g4
g5
NtRp2727
((dp2728
S'GO:1902168'
p2729
I01
stbsS'15383615'
p2730
g3
(g4
g5
NtRp2731
((dp2732
S'GO:0005737'
p2733
I01
sS'GO:0030587'
p2734
I01
sS'GO:0042331'
p2735
I01
sS'GO:0031005'
p2736
I01
sS'GO:0030864'
p2737
I01
sS'GO:0005938'
p2738
I01
sS'GO:0005515'
p2739
I01
sS'GO:0005886'
p2740
I01
sS'GO:0001891'
p2741
I01
stbsS'9053320'
p2742
g3
(g4
g5
NtRp2743
((dp2744
S'GO:0030435'
p2745
I01
sS'GO:0031152'
p2746
I01
stbsS'16005849'
p2747
g3
(g4
g5
NtRp2748
((dp2749
S'GO:0042493'
p2750
I01
stbsS'16762449'
p2751
g3
(g4
g5
NtRp2752
((dp2753
S'GO:0006874'
p2754
I01
sS'GO:0005509'
p2755
I01
sS'GO:0005515'
p2756
I01
sS'GO:0005886'
p2757
I01
sS'GO:0048471'
p2758
I01
sS'GO:0010008'
p2759
I01
stbsS'15708561'
p2760
g3
(g4
g5
NtRp2761
((dp2762
S'GO:0008565'
p2763
I01
sS'GO:0005737'
p2764
I01
sS'GO:0031286'
p2765
I01
sS'GO:0000815'
p2766
I01
sS'GO:0005634'
p2767
I01
sS'GO:0008333'
p2768
I01
sS'GO:0045324'
p2769
I01
sS'GO:0007040'
p2770
I01
sS'GO:0045881'
p2771
I01
sS'GO:0001919'
p2772
I01
sS'GO:0009653'
p2773
I01
sS'GO:0005768'
p2774
I01
stbsS'18997329'
p2775
g3
(g4
g5
NtRp2776
((dp2777
S'GO:0042803'
p2778
I01
stbsS'2830141'
p2779
g3
(g4
g5
NtRp2780
((dp2781
S'GO:0009927'
p2782
I01
stbsS'8838672'
p2783
g3
(g4
g5
NtRp2784
((dp2785
S'GO:0016021'
p2786
I01
sS'GO:0030587'
p2787
I01
sS'GO:0006816'
p2788
I01
sS'GO:0046961'
p2789
I01
sS'GO:0008283'
p2790
I01
stbsS'11371560'
p2791
g3
(g4
g5
NtRp2792
((dp2793
S'GO:0030827'
p2794
I01
stbsS'17371831'
p2795
g3
(g4
g5
NtRp2796
((dp2797
S'GO:0051489'
p2798
I01
sS'GO:0031589'
p2799
I01
sS'GO:0030833'
p2800
I01
sS'GO:0006935'
p2801
I01
sS'GO:0031256'
p2802
I01
sS'GO:0005829'
p2803
I01
sS'GO:0003924'
p2804
I01
sS'GO:0031252'
p2805
I01
sS'GO:0043520'
p2806
I01
sS'GO:0005938'
p2807
I01
sS'GO:0005886'
p2808
I01
stbsS'9620859'
p2809
g3
(g4
g5
NtRp2810
((dp2811
S'GO:0005634'
p2812
I01
sS'GO:0031152'
p2813
I01
sS'GO:0003677'
p2814
I01
stbsS'8552657'
p2815
g3
(g4
g5
NtRp2816
((dp2817
S'GO:0031143'
p2818
I01
sS'GO:0032154'
p2819
I01
stbsS'16135826'
p2820
g3
(g4
g5
NtRp2821
((dp2822
S'GO:0005829'
p2823
I01
sS'GO:0043497'
p2824
I01
sS'GO:0008277'
p2825
I01
sS'GO:0031399'
p2826
I01
stbsS'20472692'
p2827
g3
(g4
g5
NtRp2828
((dp2829
S'GO:0009306'
p2830
I01
sS'GO:0005938'
p2831
I01
sS'GO:0031982'
p2832
I01
stbsS'11854420'
p2833
g3
(g4
g5
NtRp2834
((dp2835
S'GO:0005764'
p2836
I01
sS'GO:0007040'
p2837
I01
stbsS'16372899'
p2838
g3
(g4
g5
NtRp2839
((dp2840
S'GO:0005737'
p2841
I01
sS'GO:0051017'
p2842
I01
sS'GO:0051260'
p2843
I01
sS'GO:0051015'
p2844
I01
sS'GO:0005938'
p2845
I01
sS'GO:0051764'
p2846
I01
stbsS'7790361'
p2847
g3
(g4
g5
NtRp2848
((dp2849
S'GO:0019897'
p2850
I01
stbsS'7790362'
p2851
g3
(g4
g5
NtRp2852
((dp2853
S'GO:0043326'
p2854
I01
sS'GO:0043327'
p2855
I01
sS'GO:0031152'
p2856
I01
stbsS'15947191'
p2857
g3
(g4
g5
NtRp2858
((dp2859
S'GO:0046871'
p2860
I01
sS'GO:0005576'
p2861
I01
sS'GO:0007010'
p2862
I01
sS'GO:0006928'
p2863
I01
stbsS'7589492'
p2864
g3
(g4
g5
NtRp2865
((dp2866
S'GO:0003872'
p2867
I01
sS'GO:0006007'
p2868
I01
stbsS'10769206'
p2869
g3
(g4
g5
NtRp2870
((dp2871
S'GO:0005813'
p2872
I01
sS'GO:0000281'
p2873
I01
sS'GO:0051298'
p2874
I01
sS'GO:0000922'
p2875
I01
stbsS'21401524'
p2876
g3
(g4
g5
NtRp2877
((dp2878
S'GO:0031143'
p2879
I01
sS'GO:0072583'
p2880
I01
sS'GO:0031252'
p2881
I01
sS'GO:0005885'
p2882
I01
sS'GO:0005905'
p2883
I01
sS'GO:0031150'
p2884
I01
sS'GO:0046847'
p2885
I01
stbsS'23915312'
p2886
g3
(g4
g5
NtRp2887
((dp2888
S'GO:0006909'
p2889
I01
sS'GO:0042331'
p2890
I01
sS'GO:0005829'
p2891
I01
sS'GO:0048870'
p2892
I01
sS'GO:0005546'
p2893
I01
sS'GO:0005547'
p2894
I01
sS'GO:0043325'
p2895
I01
sS'GO:0005515'
p2896
I01
sS'GO:0005886'
p2897
I01
stbsS'16814427'
p2898
g3
(g4
g5
NtRp2899
((dp2900
S'GO:0005737'
p2901
I01
sS'GO:0042273'
p2902
I01
sS'GO:0005634'
p2903
I01
sS'GO:0043023'
p2904
I01
sS'GO:0005730'
p2905
I01
stbsS'10712614'
p2906
g3
(g4
g5
NtRp2907
((dp2908
S'GO:0016491'
p2909
I01
sS'GO:0006636'
p2910
I01
sS'GO:0005886'
p2911
I01
stbsS'11959103'
p2912
g3
(g4
g5
NtRp2913
((dp2914
S'GO:0051015'
p2915
I01
stbsS'15186508'
p2916
g3
(g4
g5
NtRp2917
((dp2918
S'GO:0005794'
p2919
I01
sS'GO:0007030'
p2920
I01
sS'GO:0005813'
p2921
I01
sS'GO:0045502'
p2922
I01
sS'GO:0030139'
p2923
I01
sS'GO:0000226'
p2924
I01
sS'GO:0005938'
p2925
I01
sS'GO:0005515'
p2926
I01
stbsS'15689527'
p2927
g3
(g4
g5
NtRp2928
((dp2929
S'GO:0003886'
p2930
I01
sS'GO:0090116'
p2931
I01
sS'GO:0006306'
p2932
I01
sS'GO:0003677'
p2933
I01
stbsS'9698452'
p2934
g3
(g4
g5
NtRp2935
((dp2936
S'GO:0007275'
p2937
I01
stbsS'2156849'
p2938
g3
(g4
g5
NtRp2939
((dp2940
S'GO:0006225'
p2941
I01
sS'GO:0033862'
p2942
I01
sS'GO:0046705'
p2943
I01
sS'GO:0043173'
p2944
I01
sS'GO:0016776'
p2945
I01
sS'GO:0004127'
p2946
I01
sS'GO:0005622'
p2947
I01
sS'GO:0005524'
p2948
I01
stbsS'15131307'
p2949
g3
(g4
g5
NtRp2950
((dp2951
S'GO:0019933'
p2952
I01
sS'GO:0051344'
p2953
I01
sS'GO:0030819'
p2954
I01
stbsS'18992223'
p2955
g3
(g4
g5
NtRp2956
((dp2957
S'GO:0005737'
p2958
I01
sS'GO:0003899'
p2959
I01
sS'GO:0005634'
p2960
I01
sS'GO:0006366'
p2961
I01
stbsS'12183371'
p2962
g3
(g4
g5
NtRp2963
((dp2964
S'GO:0006909'
p2965
I01
sS'GO:0006897'
p2966
I01
sS'GO:0006928'
p2967
I01
stbsS'17673666'
p2968
g3
(g4
g5
NtRp2969
((dp2970
S'GO:0006952'
p2971
I01
sS'GO:0008283'
p2972
I01
stbsS'12074548'
p2973
g3
(g4
g5
NtRp2974
((dp2975
S'GO:0006468'
p2976
I01
sS'GO:0006909'
p2977
I01
sS'GO:0008283'
p2978
I01
sS'GO:0006907'
p2979
I01
sS'GO:0005622'
p2980
I01
sS'GO:0030435'
p2981
I01
sS'GO:0031157'
p2982
I01
sS'GO:0031152'
p2983
I01
sS'GO:0004693'
p2984
I01
sS'GO:0005524'
p2985
I01
stbsS'18621026'
p2986
g3
(g4
g5
NtRp2987
((dp2988
S'GO:0009922'
p2989
I01
sS'GO:0034625'
p2990
I01
sS'GO:0005783'
p2991
I01
stbsS'14686953'
p2992
g3
(g4
g5
NtRp2993
((dp2994
S'GO:0050793'
p2995
I01
sS'GO:0008519'
p2996
I01
sS'GO:0015696'
p2997
I01
stbsS'19411624'
p2998
g3
(g4
g5
NtRp2999
((dp3000
S'GO:0043234'
p3001
I01
sS'GO:0005634'
p3002
I01
sS'GO:0030163'
p3003
I01
stbsS'12912898'
p3004
g3
(g4
g5
NtRp3005
((dp3006
S'GO:0016337'
p3007
I01
sS'GO:0031152'
p3008
I01
sS'GO:0006928'
p3009
I01
sS'GO:0042593'
p3010
I01
sS'GO:0005576'
p3011
I01
sS'GO:0007165'
p3012
I01
sS'GO:0004871'
p3013
I01
stbsS'9177484'
p3014
g3
(g4
g5
NtRp3015
((dp3016
S'GO:0006265'
p3017
I01
sS'GO:0003918'
p3018
I01
sS'GO:0005524'
p3019
I01
sS'GO:0003677'
p3020
I01
stbsS'16243037'
p3021
g3
(g4
g5
NtRp3022
((dp3023
S'GO:0003677'
p3024
I01
sS'GO:0035267'
p3025
I01
sS'GO:0000786'
p3026
I01
sS'GO:0000125'
p3027
I01
sS'GO:0006303'
p3028
I01
sS'GO:0006302'
p3029
I01
sS'GO:0005634'
p3030
I01
sS'GO:0003712'
p3031
I01
sS'GO:0006266'
p3032
I01
sS'GO:0016573'
p3033
I01
sS'GO:0004672'
p3034
I01
sS'GO:0003690'
p3035
I01
sS'GO:0005524'
p3036
I01
sS'GO:0006468'
p3037
I01
sS'GO:0004003'
p3038
I01
sS'GO:0006974'
p3039
I01
sS'GO:0006975'
p3040
I01
sS'GO:0005958'
p3041
I01
sS'GO:0045893'
p3042
I01
sS'GO:0006310'
p3043
I01
sS'GO:0051276'
p3044
I01
sS'GO:0006334'
p3045
I01
stbsS'17517960'
p3046
g3
(g4
g5
NtRp3047
((dp3048
S'GO:0050919'
p3049
I01
sS'GO:0050922'
p3050
I01
stbsS'20422638'
p3051
g3
(g4
g5
NtRp3052
((dp3053
S'GO:0005615'
p3054
I01
stbsS'20080085'
p3055
g3
(g4
g5
NtRp3056
((dp3057
S'GO:0010629'
p3058
I01
stbsS'22744750'
p3059
g3
(g4
g5
NtRp3060
((dp3061
S'GO:0071988'
p3062
I01
sS'GO:0016049'
p3063
I01
sS'GO:0005813'
p3064
I01
sS'GO:0010824'
p3065
I01
sS'GO:0090307'
p3066
I01
sS'GO:0051645'
p3067
I01
stbsS'17314411'
p3068
g3
(g4
g5
NtRp3069
((dp3070
S'GO:0031252'
p3071
I01
sS'GO:0000281'
p3072
I01
sS'GO:0008064'
p3073
I01
sS'GO:0043327'
p3074
I01
sS'GO:0031209'
p3075
I01
sS'GO:0005515'
p3076
I01
stbsS'2580557'
p3077
g3
(g4
g5
NtRp3078
((dp3079
S'GO:0016889'
p3080
I01
sS'GO:0006284'
p3081
I01
stbsS'16265631'
p3082
g3
(g4
g5
NtRp3083
((dp3084
S'GO:0045335'
p3085
I01
sS'GO:0051015'
p3086
I01
sS'GO:0001891'
p3087
I01
stbsS'7822284'
p3088
g3
(g4
g5
NtRp3089
((dp3090
S'GO:0005504'
p3091
I01
sS'GO:0005829'
p3092
I01
sS'GO:0005886'
p3093
I01
stbsS'18611962'
p3094
g3
(g4
g5
NtRp3095
((dp3096
S'GO:0008285'
p3097
I01
sS'GO:0031410'
p3098
I01
sS'GO:0031288'
p3099
I01
sS'GO:0005576'
p3100
I01
sS'GO:0005515'
p3101
I01
sS'GO:0006508'
p3102
I01
sS'GO:0008234'
p3103
I01
stbsS'9191038'
p3104
g3
(g4
g5
NtRp3105
((dp3106
S'GO:0005524'
p3107
I01
stbsS'15726806'
p3108
g3
(g4
g5
NtRp3109
((dp3110
S'GO:0051126'
p3111
I01
sS'GO:0006909'
p3112
I01
sS'GO:0015629'
p3113
I01
sS'GO:0017024'
p3114
I01
sS'GO:0006907'
p3115
I01
sS'GO:0017048'
p3116
I01
sS'GO:0006928'
p3117
I01
sS'GO:0042989'
p3118
I01
sS'GO:0035023'
p3119
I01
sS'GO:0050765'
p3120
I01
sS'GO:0000902'
p3121
I01
sS'GO:0045010'
p3122
I01
sS'GO:0042331'
p3123
I01
sS'GO:0006887'
p3124
I01
sS'GO:0000281'
p3125
I01
sS'GO:0003779'
p3126
I01
sS'GO:0006935'
p3127
I01
sS'GO:0051015'
p3128
I01
sS'GO:0045335'
p3129
I01
sS'GO:0005885'
p3130
I01
sS'GO:0005094'
p3131
I01
sS'GO:0030041'
p3132
I01
sS'GO:0030042'
p3133
I01
sS'GO:0007015'
p3134
I01
sS'GO:0006897'
p3135
I01
sS'GO:0016192'
p3136
I01
sS'GO:0030837'
p3137
I01
sS'GO:0008290'
p3138
I01
sS'GO:0003785'
p3139
I01
stbsS'18408056'
p3140
g3
(g4
g5
NtRp3141
((dp3142
S'GO:0051270'
p3143
I01
sS'GO:0016791'
p3144
I01
sS'GO:0008138'
p3145
I01
sS'GO:0016311'
p3146
I01
sS'GO:0006470'
p3147
I01
sS'GO:0043407'
p3148
I01
sS'GO:0043327'
p3149
I01
sS'GO:0005576'
p3150
I01
stbsS'6468764'
p3151
g3
(g4
g5
NtRp3152
((dp3153
S'GO:0005666'
p3154
I01
stbsS'7593282'
p3155
g3
(g4
g5
NtRp3156
((dp3157
S'GO:0030587'
p3158
I01
sS'GO:0016477'
p3159
I01
sS'GO:0006928'
p3160
I01
stbsS'10393118'
p3161
g3
(g4
g5
NtRp3162
((dp3163
S'GO:0031154'
p3164
I01
sS'GO:0031149'
p3165
I01
sS'GO:0045892'
p3166
I01
stbsS'10828443'
p3167
g3
(g4
g5
NtRp3168
((dp3169
S'GO:0030676'
p3170
I01
sS'GO:0042995'
p3171
I01
sS'GO:0000146'
p3172
I01
stbsS'19833731'
p3173
g3
(g4
g5
NtRp3174
((dp3175
S'GO:0004931'
p3176
I01
sS'GO:0006811'
p3177
I01
sS'GO:0015276'
p3178
I01
sS'GO:0050848'
p3179
I01
sS'GO:0006971'
p3180
I01
sS'GO:0031164'
p3181
I01
stbsS'2017144'
p3182
g3
(g4
g5
NtRp3183
((dp3184
S'GO:0004590'
p3185
I01
stbsS'18827012'
p3186
g3
(g4
g5
NtRp3187
((dp3188
S'GO:0000281'
p3189
I01
sS'GO:0005546'
p3190
I01
sS'GO:0030435'
p3191
I01
sS'GO:0030276'
p3192
I01
sS'GO:0005905'
p3193
I01
sS'GO:0005886'
p3194
I01
sS'GO:0030122'
p3195
I01
sS'GO:0030136'
p3196
I01
stbsS'17606871'
p3197
g3
(g4
g5
NtRp3198
((dp3199
S'GO:0007188'
p3200
I01
stbsS'3110159'
p3201
g3
(g4
g5
NtRp3202
((dp3203
S'GO:0005980'
p3204
I01
sS'GO:0008184'
p3205
I01
sS'GO:0005622'
p3206
I01
stbsS'15993406'
p3207
g3
(g4
g5
NtRp3208
((dp3209
S'GO:0006750'
p3210
I01
sS'GO:0004357'
p3211
I01
sS'GO:0007346'
p3212
I01
sS'GO:0030435'
p3213
I01
stbsS'15053873'
p3214
g3
(g4
g5
NtRp3215
((dp3216
S'GO:0031154'
p3217
I01
sS'GO:0042803'
p3218
I01
sS'GO:0003677'
p3219
I01
stbsS'18204858'
p3220
g3
(g4
g5
NtRp3221
((dp3222
S'GO:0030587'
p3223
I01
stbsS'22644079'
p3224
g3
(g4
g5
NtRp3225
((dp3226
S'GO:0005515'
p3227
I01
stbsS'15075287'
p3228
g3
(g4
g5
NtRp3229
((dp3230
S'GO:0003723'
p3231
I01
sS'GO:0051082'
p3232
I01
sS'GO:0030587'
p3233
I01
stbsS'3024983'
p3234
g3
(g4
g5
NtRp3235
((dp3236
S'GO:0042132'
p3237
I01
stbsS'9397534'
p3238
g3
(g4
g5
NtRp3239
((dp3240
S'GO:0031288'
p3241
I01
stbsS'12388544'
p3242
g3
(g4
g5
NtRp3243
((dp3244
S'GO:0007015'
p3245
I01
sS'GO:0031589'
p3246
I01
sS'GO:0005829'
p3247
I01
sS'GO:0031252'
p3248
I01
sS'GO:0030175'
p3249
I01
sS'GO:0005938'
p3250
I01
sS'GO:0050922'
p3251
I01
sS'GO:0030041'
p3252
I01
sS'GO:0046847'
p3253
I01
stbsS'15987738'
p3254
g3
(g4
g5
NtRp3255
((dp3256
S'GO:0031037'
p3257
I01
sS'GO:0005737'
p3258
I01
sS'GO:0006468'
p3259
I01
sS'GO:0005826'
p3260
I01
sS'GO:0000281'
p3261
I01
sS'GO:0004674'
p3262
I01
sS'GO:0005524'
p3263
I01
stbsS'11004503'
p3264
g3
(g4
g5
NtRp3265
((dp3266
S'GO:0005829'
p3267
I01
sS'GO:0042744'
p3268
I01
sS'GO:0005777'
p3269
I01
sS'GO:0006979'
p3270
I01
sS'GO:0004096'
p3271
I01
stbsS'18305004'
p3272
g3
(g4
g5
NtRp3273
((dp3274
S'GO:0034504'
p3275
I01
sS'GO:0016791'
p3276
I01
sS'GO:0016311'
p3277
I01
sS'GO:0042501'
p3278
I01
sS'GO:0006970'
p3279
I01
sS'GO:0005515'
p3280
I01
sS'GO:0035556'
p3281
I01
stbsS'16456031'
p3282
g3
(g4
g5
NtRp3283
((dp3284
S'GO:0005634'
p3285
I01
sS'GO:0031149'
p3286
I01
sS'GO:1900370'
p3287
I01
stbsS'16957294'
p3288
g3
(g4
g5
NtRp3289
((dp3290
S'GO:0005813'
p3291
I01
stbsS'2549052'
p3292
g3
(g4
g5
NtRp3293
((dp3294
S'GO:0046777'
p3295
I01
stbsS'16267269'
p3296
g3
(g4
g5
NtRp3297
((dp3298
S'GO:0019897'
p3299
I01
sS'GO:0006935'
p3300
I01
sS'GO:0045761'
p3301
I01
sS'GO:0005829'
p3302
I01
sS'GO:0031254'
p3303
I01
sS'GO:0007186'
p3304
I01
stbsS'17467078'
p3305
g3
(g4
g5
NtRp3306
((dp3307
S'GO:0030837'
p3308
I01
sS'GO:0005546'
p3309
I01
sS'GO:0030175'
p3310
I01
sS'GO:0043327'
p3311
I01
sS'GO:0005938'
p3312
I01
sS'GO:0005515'
p3313
I01
stbsS'20231486'
p3314
g3
(g4
g5
NtRp3315
((dp3316
S'GO:0031154'
p3317
I01
sS'GO:0003824'
p3318
I01
sS'GO:0031148'
p3319
I01
sS'GO:0031153'
p3320
I01
stbsS'18042625'
p3321
g3
(g4
g5
NtRp3322
((dp3323
S'GO:0005737'
p3324
I01
sS'GO:0005813'
p3325
I01
sS'GO:0031156'
p3326
I01
sS'GO:0032154'
p3327
I01
sS'GO:0010590'
p3328
I01
stbsS'10747962'
p3329
g3
(g4
g5
NtRp3330
((dp3331
S'GO:0005737'
p3332
I01
sS'GO:0006906'
p3333
I01
sS'GO:0006885'
p3334
I01
sS'GO:0006887'
p3335
I01
sS'GO:0061025'
p3336
I01
sS'GO:0006970'
p3337
I01
sS'GO:0005509'
p3338
I01
stbsS'10491107'
p3339
g3
(g4
g5
NtRp3340
((dp3341
S'GO:0008601'
p3342
I01
sS'GO:0017018'
p3343
I01
sS'GO:0031034'
p3344
I01
sS'GO:0000159'
p3345
I01
sS'GO:0004722'
p3346
I01
stbsS'6243626'
p3347
g3
(g4
g5
NtRp3348
((dp3349
S'GO:0051343'
p3350
I01
sS'GO:0005509'
p3351
I01
stbsS'19065153'
p3352
g3
(g4
g5
NtRp3353
((dp3354
S'GO:0048870'
p3355
I01
sS'GO:0031589'
p3356
I01
sS'GO:0007109'
p3357
I01
sS'GO:0000281'
p3358
I01
sS'GO:0005938'
p3359
I01
stbsS'18164290'
p3360
g3
(g4
g5
NtRp3361
((dp3362
S'GO:0031143'
p3363
I01
sS'GO:0031982'
p3364
I01
sS'GO:0005938'
p3365
I01
sS'GO:0006928'
p3366
I01
stbsS'8156999'
p3367
g3
(g4
g5
NtRp3368
((dp3369
S'GO:0032959'
p3370
I01
sS'GO:0004435'
p3371
I01
stbsS'10026266'
p3372
g3
(g4
g5
NtRp3373
((dp3374
S'GO:0015631'
p3375
I01
sS'GO:0031115'
p3376
I01
stbsS'8224535'
p3377
g3
(g4
g5
NtRp3378
((dp3379
S'GO:0045859'
p3380
I01
stbsS'18375618'
p3381
g3
(g4
g5
NtRp3382
((dp3383
S'GO:0031589'
p3384
I01
sS'GO:0030587'
p3385
I01
stbsS'16367873'
p3386
g3
(g4
g5
NtRp3387
((dp3388
S'GO:0042742'
p3389
I01
sS'GO:0006477'
p3390
I01
sS'GO:0008146'
p3391
I01
stbsS'22389384'
p3392
g3
(g4
g5
NtRp3393
((dp3394
S'GO:0000747'
p3395
I01
stbsS'17655921'
p3396
g3
(g4
g5
NtRp3397
((dp3398
S'GO:0009306'
p3399
I01
sS'GO:0009847'
p3400
I01
stbsS'8620848'
p3401
g3
(g4
g5
NtRp3402
((dp3403
S'GO:0030587'
p3404
I01
stbsS'23391225'
p3405
g3
(g4
g5
NtRp3406
((dp3407
S'GO:0043326'
p3408
I01
sS'GO:0044351'
p3409
I01
sS'GO:0031152'
p3410
I01
stbsS'10873800'
p3411
g3
(g4
g5
NtRp3412
((dp3413
S'GO:0043327'
p3414
I01
sS'GO:0004691'
p3415
I01
sS'GO:0031288'
p3416
I01
sS'GO:0006468'
p3417
I01
sS'GO:0005886'
p3418
I01
stbsS'8089175'
p3419
g3
(g4
g5
NtRp3420
((dp3421
S'GO:0016021'
p3422
I01
stbsS'8089176'
p3423
g3
(g4
g5
NtRp3424
((dp3425
S'GO:0030587'
p3426
I01
stbsS'23355006'
p3427
g3
(g4
g5
NtRp3428
((dp3429
S'GO:0010629'
p3430
I01
sS'GO:0010628'
p3431
I01
stbsS'16835457'
p3432
g3
(g4
g5
NtRp3433
((dp3434
S'GO:0043326'
p3435
I01
sS'GO:0043327'
p3436
I01
sS'GO:0030587'
p3437
I01
sS'GO:0008283'
p3438
I01
stbsS'8996086'
p3439
g3
(g4
g5
NtRp3440
((dp3441
S'GO:0030122'
p3442
I01
sS'GO:0005905'
p3443
I01
stbsS'16885420'
p3444
g3
(g4
g5
NtRp3445
((dp3446
S'GO:0043327'
p3447
I01
sS'GO:0051897'
p3448
I01
sS'GO:0031152'
p3449
I01
sS'GO:0030828'
p3450
I01
stbsS'17761194'
p3451
g3
(g4
g5
NtRp3452
((dp3453
S'GO:0015631'
p3454
I01
sS'GO:0005868'
p3455
I01
stbsS'18252726'
p3456
g3
(g4
g5
NtRp3457
((dp3458
S'GO:0019505'
p3459
I01
sS'GO:0008168'
p3460
I01
sS'GO:0030639'
p3461
I01
sS'GO:0019438'
p3462
I01
stbsS'15652354'
p3463
g3
(g4
g5
NtRp3464
((dp3465
S'GO:0030435'
p3466
I01
stbsS'18768936'
p3467
g3
(g4
g5
NtRp3468
((dp3469
S'GO:0032956'
p3470
I01
sS'GO:0000281'
p3471
I01
sS'GO:0007163'
p3472
I01
sS'GO:0031152'
p3473
I01
sS'GO:0005886'
p3474
I01
sS'GO:0004784'
p3475
I01
sS'GO:0032880'
p3476
I01
stbsS'11919178'
p3477
g3
(g4
g5
NtRp3478
((dp3479
S'GO:0005654'
p3480
I01
sS'GO:0007088'
p3481
I01
sS'GO:0005516'
p3482
I01
sS'GO:0005515'
p3483
I01
stbsS'15366936'
p3484
g3
(g4
g5
NtRp3485
((dp3486
S'GO:0005737'
p3487
I01
sS'GO:0005874'
p3488
I01
sS'GO:0005524'
p3489
I01
sS'GO:0042623'
p3490
I01
stbsS'16597702'
p3491
g3
(g4
g5
NtRp3492
((dp3493
S'GO:0046847'
p3494
I01
stbsS'15358428'
p3495
g3
(g4
g5
NtRp3496
((dp3497
S'GO:0005737'
p3498
I01
sS'GO:0005634'
p3499
I01
sS'GO:0005938'
p3500
I01
stbsS'18326585'
p3501
g3
(g4
g5
NtRp3502
((dp3503
S'GO:0005737'
p3504
I01
sS'GO:0051233'
p3505
I01
sS'GO:0005813'
p3506
I01
sS'GO:0032154'
p3507
I01
sS'GO:0000922'
p3508
I01
sS'GO:0005515'
p3509
I01
sS'GO:0032133'
p3510
I01
stbsS'12529423'
p3511
g3
(g4
g5
NtRp3512
((dp3513
S'GO:0006470'
p3514
I01
sS'GO:0000281'
p3515
I01
sS'GO:0004721'
p3516
I01
sS'GO:0042641'
p3517
I01
stbsS'15003488'
p3518
g3
(g4
g5
NtRp3519
((dp3520
S'GO:0006086'
p3521
I01
sS'GO:0006564'
p3522
I01
sS'GO:0006574'
p3523
I01
sS'GO:0005967'
p3524
I01
sS'GO:0005829'
p3525
I01
sS'GO:0006546'
p3526
I01
sS'GO:0006552'
p3527
I01
sS'GO:0006550'
p3528
I01
sS'GO:0004148'
p3529
I01
sS'GO:0005759'
p3530
I01
sS'GO:0006094'
p3531
I01
stbsS'17588537'
p3532
g3
(g4
g5
NtRp3533
((dp3534
S'GO:0016338'
p3535
I01
sS'GO:0030587'
p3536
I01
stbsS'20940261'
p3537
g3
(g4
g5
NtRp3538
((dp3539
S'GO:0031143'
p3540
I01
sS'GO:2000145'
p3541
I01
sS'GO:0032970'
p3542
I01
sS'GO:0031288'
p3543
I01
stbsS'12475956'
p3544
g3
(g4
g5
NtRp3545
((dp3546
S'GO:0031037'
p3547
I01
sS'GO:0006468'
p3548
I01
sS'GO:0005826'
p3549
I01
sS'GO:0000281'
p3550
I01
sS'GO:0004674'
p3551
I01
sS'GO:0005938'
p3552
I01
sS'GO:0016905'
p3553
I01
stbsS'9200609'
p3554
g3
(g4
g5
NtRp3555
((dp3556
S'GO:0003677'
p3557
I01
stbsS'15715993'
p3558
g3
(g4
g5
NtRp3559
((dp3560
S'GO:0031284'
p3561
I01
sS'GO:0045762'
p3562
I01
sS'GO:0007189'
p3563
I01
sS'GO:0006935'
p3564
I01
sS'GO:0031152'
p3565
I01
stbsS'14561408'
p3566
g3
(g4
g5
NtRp3567
((dp3568
S'GO:0005770'
p3569
I01
stbsS'12532328'
p3570
g3
(g4
g5
NtRp3571
((dp3572
S'GO:0000281'
p3573
I01
stbsS'15309638'
p3574
g3
(g4
g5
NtRp3575
((dp3576
S'GO:0005576'
p3577
I01
sS'GO:0030248'
p3578
I01
stbsS'16490188'
p3579
g3
(g4
g5
NtRp3580
((dp3581
S'GO:0031152'
p3582
I01
sS'GO:0030587'
p3583
I01
stbsS'23679940'
p3584
g3
(g4
g5
NtRp3585
((dp3586
S'GO:0005737'
p3587
I01
sS'GO:0006997'
p3588
I01
sS'GO:0015629'
p3589
I01
sS'GO:0007015'
p3590
I01
sS'GO:0000920'
p3591
I01
sS'GO:0032154'
p3592
I01
sS'GO:0030835'
p3593
I01
stbsS'19482547'
p3594
g3
(g4
g5
NtRp3595
((dp3596
S'GO:0045335'
p3597
I01
sS'GO:0009617'
p3598
I01
stbsS'17442478'
p3599
g3
(g4
g5
NtRp3600
((dp3601
S'GO:0015813'
p3602
I01
sS'GO:0005313'
p3603
I01
sS'GO:0015810'
p3604
I01
sS'GO:0005743'
p3605
I01
sS'GO:0005509'
p3606
I01
sS'GO:0015183'
p3607
I01
stbsS'15193148'
p3608
g3
(g4
g5
NtRp3609
((dp3610
S'GO:0009395'
p3611
I01
sS'GO:0031161'
p3612
I01
sS'GO:0005576'
p3613
I01
sS'GO:0005515'
p3614
I01
sS'GO:0004620'
p3615
I01
sS'GO:0046338'
p3616
I01
stbsS'18701541'
p3617
g3
(g4
g5
NtRp3618
((dp3619
S'GO:0043565'
p3620
I01
sS'GO:0005634'
p3621
I01
stbsS'12082150'
p3622
g3
(g4
g5
NtRp3623
((dp3624
S'GO:0031164'
p3625
I01
sS'GO:0010008'
p3626
I01
stbsS'8870645'
p3627
g3
(g4
g5
NtRp3628
((dp3629
S'GO:0006729'
p3630
I01
sS'GO:0003934'
p3631
I01
stbsS'11956323'
p3632
g3
(g4
g5
NtRp3633
((dp3634
S'GO:0005737'
p3635
I01
sS'GO:0004674'
p3636
I01
sS'GO:0006468'
p3637
I01
sS'GO:0007098'
p3638
I01
sS'GO:0005813'
p3639
I01
stbsS'23264736'
p3640
g3
(g4
g5
NtRp3641
((dp3642
S'GO:0051489'
p3643
I01
sS'GO:0000242'
p3644
I01
sS'GO:0048870'
p3645
I01
sS'GO:0005829'
p3646
I01
sS'GO:0000281'
p3647
I01
sS'GO:0030036'
p3648
I01
sS'GO:0032154'
p3649
I01
sS'GO:0030175'
p3650
I01
sS'GO:0005938'
p3651
I01
sS'GO:0005886'
p3652
I01
sS'GO:0031941'
p3653
I01
sS'GO:0048471'
p3654
I01
stbsS'21085675'
p3655
g3
(g4
g5
NtRp3656
((dp3657
S'GO:0051259'
p3658
I01
sS'GO:0005829'
p3659
I01
sS'GO:0032154'
p3660
I01
sS'GO:0030175'
p3661
I01
sS'GO:0005938'
p3662
I01
sS'GO:0005515'
p3663
I01
sS'GO:0032956'
p3664
I01
stbsS'22253818'
p3665
g3
(g4
g5
NtRp3666
((dp3667
S'GO:0044212'
p3668
I01
sS'GO:0010629'
p3669
I01
stbsS'15363631'
p3670
g3
(g4
g5
NtRp3671
((dp3672
S'GO:0006096'
p3673
I01
sS'GO:0004618'
p3674
I01
sS'GO:0005516'
p3675
I01
sS'GO:0006094'
p3676
I01
stbsS'16599905'
p3677
g3
(g4
g5
NtRp3678
((dp3679
S'GO:0004512'
p3680
I01
sS'GO:0006021'
p3681
I01
stbsS'15826949'
p3682
g3
(g4
g5
NtRp3683
((dp3684
S'GO:0005515'
p3685
I01
stbsS'12954783'
p3686
g3
(g4
g5
NtRp3687
((dp3688
S'GO:0008285'
p3689
I01
sS'GO:0007264'
p3690
I01
sS'GO:0031158'
p3691
I01
stbsS'9778249'
p3692
g3
(g4
g5
NtRp3693
((dp3694
S'GO:0019897'
p3695
I01
sS'GO:0031256'
p3696
I01
sS'GO:0005829'
p3697
I01
sS'GO:0006935'
p3698
I01
stbsS'15470642'
p3699
g3
(g4
g5
NtRp3700
((dp3701
S'GO:0010628'
p3702
I01
stbsS'12499361'
p3703
g3
(g4
g5
NtRp3704
((dp3705
S'GO:0007015'
p3706
I01
sS'GO:0031589'
p3707
I01
sS'GO:0006909'
p3708
I01
sS'GO:0000902'
p3709
I01
sS'GO:0000281'
p3710
I01
sS'GO:0005938'
p3711
I01
stbsS'12244115'
p3712
g3
(g4
g5
NtRp3713
((dp3714
S'GO:0005737'
p3715
I01
sS'GO:0008375'
p3716
I01
sS'GO:0006486'
p3717
I01
stbsS'11352578'
p3718
g3
(g4
g5
NtRp3719
((dp3720
S'GO:0033192'
p3721
I01
sS'GO:0006470'
p3722
I01
sS'GO:0005955'
p3723
I01
sS'GO:0005515'
p3724
I01
stbsS'10744862'
p3725
g3
(g4
g5
NtRp3726
((dp3727
S'GO:0051014'
p3728
I01
stbsS'16421252'
p3729
g3
(g4
g5
NtRp3730
((dp3731
S'GO:0051591'
p3732
I01
stbsS'7926779'
p3733
g3
(g4
g5
NtRp3734
((dp3735
S'GO:0031152'
p3736
I01
stbsS'15629062'
p3737
g3
(g4
g5
NtRp3738
((dp3739
S'GO:0006355'
p3740
I01
sS'GO:0005634'
p3741
I01
sS'GO:0008270'
p3742
I01
sS'GO:0003677'
p3743
I01
stbsS'11179674'
p3744
g3
(g4
g5
NtRp3745
((dp3746
S'GO:0005764'
p3747
I01
sS'GO:0030130'
p3748
I01
sS'GO:0006886'
p3749
I01
sS'GO:0005768'
p3750
I01
sS'GO:0030124'
p3751
I01
stbsS'15352238'
p3752
g3
(g4
g5
NtRp3753
((dp3754
S'GO:0001932'
p3755
I01
stbsS'9422733'
p3756
g3
(g4
g5
NtRp3757
((dp3758
S'GO:0006909'
p3759
I01
stbsS'17606989'
p3760
g3
(g4
g5
NtRp3761
((dp3762
S'GO:0006887'
p3763
I01
sS'GO:0007040'
p3764
I01
stbsS'9171087'
p3765
g3
(g4
g5
NtRp3766
((dp3767
S'GO:0043141'
p3768
I01
sS'GO:0000287'
p3769
I01
sS'GO:0006289'
p3770
I01
sS'GO:0043140'
p3771
I01
sS'GO:0006366'
p3772
I01
sS'GO:0005675'
p3773
I01
sS'GO:0003684'
p3774
I01
sS'GO:0005524'
p3775
I01
stbsS'22902739'
p3776
g3
(g4
g5
NtRp3777
((dp3778
S'GO:0003382'
p3779
I01
sS'GO:0036360'
p3780
I01
sS'GO:0034613'
p3781
I01
sS'GO:0045179'
p3782
I01
sS'GO:0045180'
p3783
I01
sS'GO:0005515'
p3784
I01
sS'GO:0051495'
p3785
I01
stbsS'17587329'
p3786
g3
(g4
g5
NtRp3787
((dp3788
S'GO:0009617'
p3789
I01
stbsS'23441816'
p3790
g3
(g4
g5
NtRp3791
((dp3792
S'GO:0050839'
p3793
I01
sS'GO:0072666'
p3794
I01
sS'GO:0005515'
p3795
I01
sS'GO:0005516'
p3796
I01
stbsS'15883042'
p3797
g3
(g4
g5
NtRp3798
((dp3799
S'GO:0006139'
p3800
I01
sS'GO:0004683'
p3801
I01
sS'GO:0005516'
p3802
I01
sS'GO:0005515'
p3803
I01
sS'GO:0004797'
p3804
I01
sS'GO:0005524'
p3805
I01
stbsS'9389653'
p3806
g3
(g4
g5
NtRp3807
((dp3808
S'GO:0006935'
p3809
I01
sS'GO:0005829'
p3810
I01
sS'GO:0008047'
p3811
I01
sS'GO:0031152'
p3812
I01
sS'GO:0007190'
p3813
I01
sS'GO:0016021'
p3814
I01
stbsS'17535967'
p3815
g3
(g4
g5
NtRp3816
((dp3817
S'GO:0032959'
p3818
I01
sS'GO:0043327'
p3819
I01
stbsS'14706699'
p3820
g3
(g4
g5
NtRp3821
((dp3822
S'GO:0030435'
p3823
I01
sS'GO:0031289'
p3824
I01
sS'GO:0042244'
p3825
I01
sS'GO:0031247'
p3826
I01
stbsS'17501984'
p3827
g3
(g4
g5
NtRp3828
((dp3829
S'GO:0031153'
p3830
I01
sS'GO:0030435'
p3831
I01
sS'GO:0030587'
p3832
I01
sS'GO:0031090'
p3833
I01
sS'GO:0005886'
p3834
I01
stbsS'9169048'
p3835
g3
(g4
g5
NtRp3836
((dp3837
S'GO:0005737'
p3838
I01
sS'GO:0031154'
p3839
I01
sS'GO:0005773'
p3840
I01
stbsS'17332500'
p3841
g3
(g4
g5
NtRp3842
((dp3843
S'GO:0046956'
p3844
I01
sS'GO:0006754'
p3845
I01
sS'GO:0007005'
p3846
I01
sS'GO:0008283'
p3847
I01
stbsS'21040356'
p3848
g3
(g4
g5
NtRp3849
((dp3850
S'GO:1900756'
p3851
I01
sS'GO:0032026'
p3852
I01
sS'GO:0042742'
p3853
I01
sS'GO:0030670'
p3854
I01
stbsS'11728467'
p3855
g3
(g4
g5
NtRp3856
((dp3857
S'GO:0005737'
p3858
I01
sS'GO:0005634'
p3859
I01
sS'GO:0031002'
p3860
I01
stbsS'16835443'
p3861
g3
(g4
g5
NtRp3862
((dp3863
S'GO:0030587'
p3864
I01
sS'GO:0008283'
p3865
I01
stbsS'21402150'
p3866
g3
(g4
g5
NtRp3867
((dp3868
S'GO:0005615'
p3869
I01
sS'GO:0031012'
p3870
I01
sS'GO:0005516'
p3871
I01
sS'GO:0005515'
p3872
I01
sS'GO:0045861'
p3873
I01
sS'GO:0005622'
p3874
I01
stbsS'18809930'
p3875
g3
(g4
g5
NtRp3876
((dp3877
S'GO:0000281'
p3878
I01
sS'GO:0032154'
p3879
I01
stbsS'8125261'
p3880
g3
(g4
g5
NtRp3881
((dp3882
S'GO:0003700'
p3883
I01
sS'GO:0005634'
p3884
I01
sS'GO:0006357'
p3885
I01
sS'GO:0005829'
p3886
I01
sS'GO:0007275'
p3887
I01
stbsS'23998118'
p3888
g3
(g4
g5
NtRp3889
((dp3890
S'GO:0005739'
p3891
I01
sS'GO:0008283'
p3892
I01
stbsS'18712789'
p3893
g3
(g4
g5
NtRp3894
((dp3895
S'GO:0043146'
p3896
I01
sS'GO:0051231'
p3897
I01
stbsS'20887559'
p3898
g3
(g4
g5
NtRp3899
((dp3900
S'GO:0005737'
p3901
I01
sS'GO:0005773'
p3902
I01
sS'GO:0005634'
p3903
I01
sS'GO:0000281'
p3904
I01
sS'GO:0031154'
p3905
I01
stbsS'16524908'
p3906
g3
(g4
g5
NtRp3907
((dp3908
S'GO:0046982'
p3909
I01
sS'GO:0031618'
p3910
I01
sS'GO:0051260'
p3911
I01
sS'GO:0051276'
p3912
I01
sS'GO:0008283'
p3913
I01
stbsS'15259052'
p3914
g3
(g4
g5
NtRp3915
((dp3916
S'GO:0030036'
p3917
I01
sS'GO:0006928'
p3918
I01
stbsS'14551196'
p3919
g3
(g4
g5
NtRp3920
((dp3921
S'GO:0042593'
p3922
I01
sS'GO:0004032'
p3923
I01
sS'GO:0005829'
p3924
I01
sS'GO:0031158'
p3925
I01
sS'GO:0006928'
p3926
I01
stbsS'11220631'
p3927
g3
(g4
g5
NtRp3928
((dp3929
S'GO:0000331'
p3930
I01
sS'GO:0016021'
p3931
I01
sS'GO:0006970'
p3932
I01
stbsS'17172447'
p3933
g3
(g4
g5
NtRp3934
((dp3935
S'GO:0005737'
p3936
I01
sS'GO:0031941'
p3937
I01
sS'GO:0007163'
p3938
I01
sS'GO:0031252'
p3939
I01
stbsS'19875452'
p3940
g3
(g4
g5
NtRp3941
((dp3942
S'GO:0005737'
p3943
I01
sS'GO:0000331'
p3944
I01
stbsS'293714'
p3945
g3
(g4
g5
NtRp3946
((dp3947
S'GO:0005200'
p3948
I01
sS'GO:0015629'
p3949
I01
stbsS'17897809'
p3950
g3
(g4
g5
NtRp3951
((dp3952
S'GO:0048365'
p3953
I01
sS'GO:0005516'
p3954
I01
sS'GO:0005938'
p3955
I01
stbsS'17950724'
p3956
g3
(g4
g5
NtRp3957
((dp3958
S'GO:0030587'
p3959
I01
sS'GO:0030435'
p3960
I01
sS'GO:0005635'
p3961
I01
sS'GO:0005886'
p3962
I01
sS'GO:0005789'
p3963
I01
stbsS'10209124'
p3964
g3
(g4
g5
NtRp3965
((dp3966
S'GO:0030587'
p3967
I01
stbsS'24137657'
p3968
g3
(g4
g5
NtRp3969
((dp3970
S'GO:0061077'
p3971
I01
stbsS'15821137'
p3972
g3
(g4
g5
NtRp3973
((dp3974
S'GO:0031275'
p3975
I01
sS'GO:0007015'
p3976
I01
sS'GO:0008360'
p3977
I01
sS'GO:0050920'
p3978
I01
stbsS'15086784'
p3979
g3
(g4
g5
NtRp3980
((dp3981
S'GO:0005543'
p3982
I01
sS'GO:0031164'
p3983
I01
stbsS'15668169'
p3984
g3
(g4
g5
NtRp3985
((dp3986
S'GO:0006935'
p3987
I01
sS'GO:0045762'
p3988
I01
sS'GO:0005547'
p3989
I01
sS'GO:0008064'
p3990
I01
sS'GO:0043325'
p3991
I01
sS'GO:0031152'
p3992
I01
stbsS'9784196'
p3993
g3
(g4
g5
NtRp3994
((dp3995
S'GO:0006468'
p3996
I01
sS'GO:0005524'
p3997
I01
stbsS'15289548'
p3998
g3
(g4
g5
NtRp3999
((dp4000
S'GO:0016339'
p4001
I01
sS'GO:0031157'
p4002
I01
sS'GO:0050708'
p4003
I01
sS'GO:0030036'
p4004
I01
sS'GO:0005525'
p4005
I01
stbsS'20658257'
p4006
g3
(g4
g5
NtRp4007
((dp4008
S'GO:0030953'
p4009
I01
sS'GO:0035371'
p4010
I01
sS'GO:0035372'
p4011
I01
sS'GO:0000922'
p4012
I01
sS'GO:0000235'
p4013
I01
sS'GO:0031592'
p4014
I01
sS'GO:0072712'
p4015
I01
sS'GO:0000776'
p4016
I01
stbsS'14706075'
p4017
g3
(g4
g5
NtRp4018
((dp4019
S'GO:0005509'
p4020
I01
stbsS'9660787'
p4021
g3
(g4
g5
NtRp4022
((dp4023
S'GO:0016567'
p4024
I01
stbsS'10749929'
p4025
g3
(g4
g5
NtRp4026
((dp4027
S'GO:0006935'
p4028
I01
sS'GO:0031154'
p4029
I01
sS'GO:0008270'
p4030
I01
sS'GO:0031152'
p4031
I01
sS'GO:0007155'
p4032
I01
sS'GO:0005938'
p4033
I01
stbsS'17481898'
p4034
g3
(g4
g5
NtRp4035
((dp4036
S'GO:0043327'
p4037
I01
sS'GO:0007186'
p4038
I01
sS'GO:0005768'
p4039
I01
sS'GO:0007165'
p4040
I01
sS'GO:0030587'
p4041
I01
stbsS'15728726'
p4042
g3
(g4
g5
NtRp4043
((dp4044
S'GO:0005737'
p4045
I01
sS'GO:0000331'
p4046
I01
sS'GO:0006468'
p4047
I01
sS'GO:0031288'
p4048
I01
sS'GO:0000281'
p4049
I01
sS'GO:0031038'
p4050
I01
sS'GO:0031156'
p4051
I01
sS'GO:0005516'
p4052
I01
sS'GO:0004672'
p4053
I01
sS'GO:0048471'
p4054
I01
sS'GO:0016905'
p4055
I01
stbsS'12717731'
p4056
g3
(g4
g5
NtRp4057
((dp4058
S'GO:0004035'
p4059
I01
stbsS'11479029'
p4060
g3
(g4
g5
NtRp4061
((dp4062
S'GO:0005737'
p4063
I01
sS'GO:0030041'
p4064
I01
sS'GO:0003785'
p4065
I01
sS'GO:0005938'
p4066
I01
stbsS'17606987'
p4067
g3
(g4
g5
NtRp4068
((dp4069
S'GO:0006897'
p4070
I01
sS'GO:0006928'
p4071
I01
stbsS'22090348'
p4072
g3
(g4
g5
NtRp4073
((dp4074
S'GO:0005637'
p4075
I01
sS'GO:0051297'
p4076
I01
sS'GO:0010847'
p4077
I01
sS'GO:0051642'
p4078
I01
sS'GO:0030527'
p4079
I01
stbsS'16107728'
p4080
g3
(g4
g5
NtRp4081
((dp4082
S'GO:0043327'
p4083
I01
sS'GO:0005634'
p4084
I01
sS'GO:0005938'
p4085
I01
sS'GO:0007165'
p4086
I01
stbsS'17353263'
p4087
g3
(g4
g5
NtRp4088
((dp4089
S'GO:0005737'
p4090
I01
sS'GO:0005515'
p4091
I01
sS'GO:0005634'
p4092
I01
sS'GO:0004722'
p4093
I01
sS'GO:0031156'
p4094
I01
sS'GO:0050920'
p4095
I01
sS'GO:0030289'
p4096
I01
stbsS'14680693'
p4097
g3
(g4
g5
NtRp4098
((dp4099
S'GO:0030435'
p4100
I01
sS'GO:0042173'
p4101
I01
stbsS'6259174'
p4102
g3
(g4
g5
NtRp4103
((dp4104
S'GO:0051343'
p4105
I01
sS'GO:0032781'
p4106
I01
sS'GO:0031013'
p4107
I01
stbsS'15851518'
p4108
g3
(g4
g5
NtRp4109
((dp4110
S'GO:0005737'
p4111
I01
sS'GO:0003365'
p4112
I01
sS'GO:0030838'
p4113
I01
sS'GO:0031256'
p4114
I01
sS'GO:0016020'
p4115
I01
sS'GO:0070650'
p4116
I01
sS'GO:0051453'
p4117
I01
sS'GO:0061118'
p4118
I01
stbsS'22119747'
p4119
g3
(g4
g5
NtRp4120
((dp4121
S'GO:0005737'
p4122
I01
sS'GO:0005543'
p4123
I01
sS'GO:0019934'
p4124
I01
sS'GO:0005938'
p4125
I01
sS'GO:0005886'
p4126
I01
sS'GO:0005525'
p4127
I01
stbsS'9546041'
p4128
g3
(g4
g5
NtRp4129
((dp4130
S'GO:0003746'
p4131
I01
sS'GO:0006414'
p4132
I01
sS'GO:0005853'
p4133
I01
stbsS'16777069'
p4134
g3
(g4
g5
NtRp4135
((dp4136
S'GO:0005516'
p4137
I01
stbsS'2745547'
p4138
g3
(g4
g5
NtRp4139
((dp4140
S'GO:0042803'
p4141
I01
stbsS'17237363'
p4142
g3
(g4
g5
NtRp4143
((dp4144
S'GO:0043565'
p4145
I01
stbsS'12134070'
p4146
g3
(g4
g5
NtRp4147
((dp4148
S'GO:0005819'
p4149
I01
sS'GO:0031592'
p4150
I01
sS'GO:0031143'
p4151
I01
sS'GO:0005813'
p4152
I01
sS'GO:0008017'
p4153
I01
sS'GO:0000281'
p4154
I01
sS'GO:0000922'
p4155
I01
sS'GO:0031252'
p4156
I01
sS'GO:0000235'
p4157
I01
sS'GO:0005515'
p4158
I01
sS'GO:0000022'
p4159
I01
sS'GO:0005874'
p4160
I01
sS'GO:0051225'
p4161
I01
sS'GO:0000776'
p4162
I01
sS'GO:0042803'
p4163
I01
stbsS'10896781'
p4164
g3
(g4
g5
NtRp4165
((dp4166
S'GO:0031252'
p4167
I01
sS'GO:0031254'
p4168
I01
sS'GO:0031152'
p4169
I01
sS'GO:0005515'
p4170
I01
sS'GO:0006928'
p4171
I01
stbsS'10970875'
p4172
g3
(g4
g5
NtRp4173
((dp4174
S'GO:0005220'
p4175
I01
sS'GO:0016021'
p4176
I01
sS'GO:0048016'
p4177
I01
sS'GO:0006816'
p4178
I01
sS'GO:0015085'
p4179
I01
stbsS'23223240'
p4180
g3
(g4
g5
NtRp4181
((dp4182
S'GO:0043327'
p4183
I01
sS'GO:0031152'
p4184
I01
stbsS'16622066'
p4185
g3
(g4
g5
NtRp4186
((dp4187
S'GO:0016339'
p4188
I01
sS'GO:0001932'
p4189
I01
sS'GO:0046586'
p4190
I01
stbsS'8986798'
p4191
g3
(g4
g5
NtRp4192
((dp4193
S'GO:0042626'
p4194
I01
sS'GO:0006810'
p4195
I01
sS'GO:0004674'
p4196
I01
sS'GO:0045595'
p4197
I01
sS'GO:0006508'
p4198
I01
sS'GO:0008236'
p4199
I01
stbsS'19213599'
p4200
g3
(g4
g5
NtRp4201
((dp4202
S'GO:0040011'
p4203
I01
sS'GO:0043326'
p4204
I01
sS'GO:0031589'
p4205
I01
sS'GO:0006897'
p4206
I01
sS'GO:0016339'
p4207
I01
sS'GO:0031154'
p4208
I01
sS'GO:0016477'
p4209
I01
stbsS'16155255'
p4210
g3
(g4
g5
NtRp4211
((dp4212
S'GO:0040011'
p4213
I01
sS'GO:0031154'
p4214
I01
sS'GO:0031589'
p4215
I01
sS'GO:0016477'
p4216
I01
sS'GO:0030175'
p4217
I01
sS'GO:0005925'
p4218
I01
stbsS'11784104'
p4219
g3
(g4
g5
NtRp4220
((dp4221
S'GO:0009167'
p4222
I01
sS'GO:0003876'
p4223
I01
sS'GO:0030435'
p4224
I01
stbsS'7733916'
p4225
g3
(g4
g5
NtRp4226
((dp4227
S'GO:0006414'
p4228
I01
sS'GO:0005840'
p4229
I01
stbsS'18718841'
p4230
g3
(g4
g5
NtRp4231
((dp4232
S'GO:0031152'
p4233
I01
stbsS'14597204'
p4234
g3
(g4
g5
NtRp4235
((dp4236
S'GO:0030863'
p4237
I01
sS'GO:0007275'
p4238
I01
sS'GO:0005515'
p4239
I01
stbsS'7657724'
p4240
g3
(g4
g5
NtRp4241
((dp4242
S'GO:0005737'
p4243
I01
sS'GO:0006874'
p4244
I01
sS'GO:0005634'
p4245
I01
sS'GO:0030587'
p4246
I01
sS'GO:0005886'
p4247
I01
stbsS'9585512'
p4248
g3
(g4
g5
NtRp4249
((dp4250
S'GO:0001726'
p4251
I01
sS'GO:0016020'
p4252
I01
sS'GO:0006470'
p4253
I01
sS'GO:0000287'
p4254
I01
sS'GO:0004722'
p4255
I01
sS'GO:0030145'
p4256
I01
sS'GO:0030154'
p4257
I01
sS'GO:0009653'
p4258
I01
sS'GO:0005525'
p4259
I01
stbsS'11447112'
p4260
g3
(g4
g5
NtRp4261
((dp4262
S'GO:0032154'
p4263
I01
sS'GO:0005515'
p4264
I01
sS'GO:0005938'
p4265
I01
stbsS'20375146'
p4266
g3
(g4
g5
NtRp4267
((dp4268
S'GO:0048102'
p4269
I01
stbsS'17086450'
p4270
g3
(g4
g5
NtRp4271
((dp4272
S'GO:0015085'
p4273
I01
sS'GO:0070588'
p4274
I01
sS'GO:0006816'
p4275
I01
stbsS'12913271'
p4276
g3
(g4
g5
NtRp4277
((dp4278
S'GO:0006979'
p4279
I01
sS'GO:0000281'
p4280
I01
stbsS'11719559'
p4281
g3
(g4
g5
NtRp4282
((dp4283
S'GO:0016020'
p4284
I01
sS'GO:0042626'
p4285
I01
sS'GO:0006887'
p4286
I01
sS'GO:0006897'
p4287
I01
sS'GO:0030154'
p4288
I01
sS'GO:0031154'
p4289
I01
sS'GO:0048388'
p4290
I01
sS'GO:0031210'
p4291
I01
sS'GO:0005768'
p4292
I01
stbsS'15059942'
p4293
g3
(g4
g5
NtRp4294
((dp4295
S'GO:0042392'
p4296
I01
sS'GO:0005783'
p4297
I01
stbsS'17207566'
p4298
g3
(g4
g5
NtRp4299
((dp4300
S'GO:0005655'
p4301
I01
sS'GO:0000049'
p4302
I01
sS'GO:0008033'
p4303
I01
sS'GO:0003723'
p4304
I01
sS'GO:0004526'
p4305
I01
stbsS'16325504'
p4306
g3
(g4
g5
NtRp4307
((dp4308
S'GO:0030666'
p4309
I01
sS'GO:0005546'
p4310
I01
stbsS'2163458'
p4311
g3
(g4
g5
NtRp4312
((dp4313
S'GO:0009142'
p4314
I01
sS'GO:0004550'
p4315
I01
stbsS'12244067'
p4316
g3
(g4
g5
NtRp4317
((dp4318
S'GO:0016263'
p4319
I01
sS'GO:0006486'
p4320
I01
stbsS'10564654'
p4321
g3
(g4
g5
NtRp4322
((dp4323
S'GO:0005515'
p4324
I01
stbsS'19325115'
p4325
g3
(g4
g5
NtRp4326
((dp4327
S'GO:0042742'
p4328
I01
stbsS'11029049'
p4329
g3
(g4
g5
NtRp4330
((dp4331
S'GO:0003756'
p4332
I01
stbsS'10880352'
p4333
g3
(g4
g5
NtRp4334
((dp4335
S'GO:0005737'
p4336
I01
sS'GO:0004674'
p4337
I01
sS'GO:0005634'
p4338
I01
sS'GO:0006281'
p4339
I01
stbsS'17905919'
p4340
g3
(g4
g5
NtRp4341
((dp4342
S'GO:0050764'
p4343
I01
stbsS'11267868'
p4344
g3
(g4
g5
NtRp4345
((dp4346
S'GO:0030175'
p4347
I01
sS'GO:0005829'
p4348
I01
sS'GO:0046847'
p4349
I01
sS'GO:0031252'
p4350
I01
sS'GO:0001891'
p4351
I01
stbsS'11090633'
p4352
g3
(g4
g5
NtRp4353
((dp4354
S'GO:0007162'
p4355
I01
stbsS'18676953'
p4356
g3
(g4
g5
NtRp4357
((dp4358
S'GO:0016791'
p4359
I01
sS'GO:0030835'
p4360
I01
sS'GO:0030818'
p4361
I01
sS'GO:0030587'
p4362
I01
sS'GO:0016311'
p4363
I01
sS'GO:0031152'
p4364
I01
sS'GO:0014066'
p4365
I01
stbsS'18703517'
p4366
g3
(g4
g5
NtRp4367
((dp4368
S'GO:0005088'
p4369
I01
sS'GO:0046579'
p4370
I01
stbsS'9582274'
p4371
g3
(g4
g5
NtRp4372
((dp4373
S'GO:0030435'
p4374
I01
sS'GO:0005622'
p4375
I01
stbsS'1326523'
p4376
g3
(g4
g5
NtRp4377
((dp4378
S'GO:0004435'
p4379
I01
stbsS'16769729'
p4380
g3
(g4
g5
NtRp4381
((dp4382
S'GO:0017034'
p4383
I01
stbsS'2451126'
p4384
g3
(g4
g5
NtRp4385
((dp4386
S'GO:0005509'
p4387
I01
stbsS'16443752'
p4388
g3
(g4
g5
NtRp4389
((dp4390
S'GO:0006909'
p4391
I01
sS'GO:0000146'
p4392
I01
sS'GO:0031252'
p4393
I01
sS'GO:0030898'
p4394
I01
sS'GO:0032009'
p4395
I01
sS'GO:0005524'
p4396
I01
sS'GO:0001891'
p4397
I01
stbsS'11686306'
p4398
g3
(g4
g5
NtRp4399
((dp4400
S'GO:0031164'
p4401
I01
sS'GO:0005525'
p4402
I01
sS'GO:0007231'
p4403
I01
sS'GO:0007264'
p4404
I01
sS'GO:0000166'
p4405
I01
stbsS'17004322'
p4406
g3
(g4
g5
NtRp4407
((dp4408
S'GO:0000331'
p4409
I01
sS'GO:0008104'
p4410
I01
sS'GO:0006909'
p4411
I01
sS'GO:0005783'
p4412
I01
sS'GO:0005794'
p4413
I01
sS'GO:0006907'
p4414
I01
sS'GO:0006887'
p4415
I01
sS'GO:0000281'
p4416
I01
sS'GO:0005764'
p4417
I01
sS'GO:0048388'
p4418
I01
sS'GO:0030833'
p4419
I01
sS'GO:0016020'
p4420
I01
stbsS'10651904'
p4421
g3
(g4
g5
NtRp4422
((dp4423
S'GO:0006935'
p4424
I01
sS'GO:0031152'
p4425
I01
sS'GO:0010468'
p4426
I01
stbsS'17031003'
p4427
g3
(g4
g5
NtRp4428
((dp4429
S'GO:0030435'
p4430
I01
stbsS'12626495'
p4431
g3
(g4
g5
NtRp4432
((dp4433
S'GO:0005737'
p4434
I01
sS'GO:0019787'
p4435
I01
sS'GO:0006995'
p4436
I01
sS'GO:0030587'
p4437
I01
sS'GO:0016236'
p4438
I01
sS'GO:0006914'
p4439
I01
sS'GO:0031288'
p4440
I01
sS'GO:0030435'
p4441
I01
sS'GO:0005829'
p4442
I01
stbsS'11683919'
p4443
g3
(g4
g5
NtRp4444
((dp4445
S'GO:0003779'
p4446
I01
sS'GO:0030042'
p4447
I01
sS'GO:0015629'
p4448
I01
stbsS'3243026'
p4449
g3
(g4
g5
NtRp4450
((dp4451
S'GO:0007155'
p4452
I01
stbsS'8089184'
p4453
g3
(g4
g5
NtRp4454
((dp4455
S'GO:0045762'
p4456
I01
sS'GO:0008047'
p4457
I01
sS'GO:0031152'
p4458
I01
stbsS'1972546'
p4459
g3
(g4
g5
NtRp4460
((dp4461
S'GO:0004713'
p4462
I01
sS'GO:0018108'
p4463
I01
stbsS'16781869'
p4464
g3
(g4
g5
NtRp4465
((dp4466
S'GO:0042803'
p4467
I01
stbsS'15908944'
p4468
g3
(g4
g5
NtRp4469
((dp4470
S'GO:0031589'
p4471
I01
sS'GO:0046847'
p4472
I01
sS'GO:0015629'
p4473
I01
sS'GO:0045010'
p4474
I01
sS'GO:0030838'
p4475
I01
sS'GO:0051015'
p4476
I01
sS'GO:0017049'
p4477
I01
sS'GO:0030175'
p4478
I01
sS'GO:0051638'
p4479
I01
sS'GO:0005515'
p4480
I01
sS'GO:0005522'
p4481
I01
sS'GO:0006928'
p4482
I01
stbsS'10930737'
p4483
g3
(g4
g5
NtRp4484
((dp4485
S'GO:0008478'
p4486
I01
sS'GO:0042816'
p4487
I01
sS'GO:0031152'
p4488
I01
sS'GO:0008283'
p4489
I01
stbsS'1651931'
p4490
g3
(g4
g5
NtRp4491
((dp4492
S'GO:0005516'
p4493
I01
stbsS'15483055'
p4494
g3
(g4
g5
NtRp4495
((dp4496
S'GO:0007163'
p4497
I01
sS'GO:0000281'
p4498
I01
sS'GO:0031273'
p4499
I01
stbsS'11369235'
p4500
g3
(g4
g5
NtRp4501
((dp4502
S'GO:0005737'
p4503
I01
sS'GO:0005938'
p4504
I01
stbsS'10369671'
p4505
g3
(g4
g5
NtRp4506
((dp4507
S'GO:0033298'
p4508
I01
sS'GO:0006971'
p4509
I01
sS'GO:0031164'
p4510
I01
stbsS'9636072'
p4511
g3
(g4
g5
NtRp4512
((dp4513
S'GO:0030435'
p4514
I01
sS'GO:0005634'
p4515
I01
stbsS'1577798'
p4516
g3
(g4
g5
NtRp4517
((dp4518
S'GO:0005737'
p4519
I01
stbsS'1849108'
p4520
g3
(g4
g5
NtRp4521
((dp4522
S'GO:0031152'
p4523
I01
stbsS'16920105'
p4524
g3
(g4
g5
NtRp4525
((dp4526
S'GO:0031902'
p4527
I01
stbsS'15962002'
p4528
g3
(g4
g5
NtRp4529
((dp4530
S'GO:0050766'
p4531
I01
sS'GO:0007015'
p4532
I01
sS'GO:0050765'
p4533
I01
sS'GO:0045335'
p4534
I01
sS'GO:0005083'
p4535
I01
sS'GO:0030863'
p4536
I01
sS'GO:0006907'
p4537
I01
sS'GO:0008270'
p4538
I01
sS'GO:0030866'
p4539
I01
sS'GO:0005622'
p4540
I01
sS'GO:0043229'
p4541
I01
sS'GO:0005938'
p4542
I01
sS'GO:0005515'
p4543
I01
sS'GO:0046847'
p4544
I01
sS'GO:0005829'
p4545
I01
sS'GO:0001891'
p4546
I01
stbsS'10725225'
p4547
g3
(g4
g5
NtRp4548
((dp4549
S'GO:0008284'
p4550
I01
sS'GO:0042127'
p4551
I01
sS'GO:0051270'
p4552
I01
sS'GO:0000281'
p4553
I01
sS'GO:0006928'
p4554
I01
sS'GO:0050927'
p4555
I01
sS'GO:0045806'
p4556
I01
stbsS'12857872'
p4557
g3
(g4
g5
NtRp4558
((dp4559
S'GO:0031589'
p4560
I01
sS'GO:0030587'
p4561
I01
sS'GO:0006909'
p4562
I01
sS'GO:0008283'
p4563
I01
stbsS'23616924'
p4564
g3
(g4
g5
NtRp4565
((dp4566
S'GO:0031941'
p4567
I01
sS'GO:0016337'
p4568
I01
sS'GO:0060187'
p4569
I01
sS'GO:0030587'
p4570
I01
sS'GO:0005634'
p4571
I01
sS'GO:0043326'
p4572
I01
sS'GO:0010628'
p4573
I01
sS'GO:0005886'
p4574
I01
sS'GO:0016477'
p4575
I01
stbsS'9023987'
p4576
g3
(g4
g5
NtRp4577
((dp4578
S'GO:0005978'
p4579
I01
sS'GO:0004373'
p4580
I01
stbsS'18028904'
p4581
g3
(g4
g5
NtRp4582
((dp4583
S'GO:0043326'
p4584
I01
stbsS'16787542'
p4585
g3
(g4
g5
NtRp4586
((dp4587
S'GO:0000331'
p4588
I01
sS'GO:0006874'
p4589
I01
stbsS'8619862'
p4590
g3
(g4
g5
NtRp4591
((dp4592
S'GO:0008277'
p4593
I01
sS'GO:0004016'
p4594
I01
stbsS'4308724'
p4595
g3
(g4
g5
NtRp4596
((dp4597
S'GO:0042132'
p4598
I01
sS'GO:0006000'
p4599
I01
stbsS'15141168'
p4600
g3
(g4
g5
NtRp4601
((dp4602
S'GO:0005737'
p4603
I01
sS'GO:0040011'
p4604
I01
sS'GO:0005938'
p4605
I01
sS'GO:0048870'
p4606
I01
stbsS'20951045'
p4607
g3
(g4
g5
NtRp4608
((dp4609
S'GO:0030865'
p4610
I01
sS'GO:0008104'
p4611
I01
sS'GO:0072697'
p4612
I01
sS'GO:0032038'
p4613
I01
sS'GO:0071889'
p4614
I01
sS'GO:0000226'
p4615
I01
sS'GO:0005938'
p4616
I01
sS'GO:0036090'
p4617
I01
sS'GO:0032467'
p4618
I01
stbsS'15358773'
p4619
g3
(g4
g5
NtRp4620
((dp4621
S'GO:0048102'
p4622
I01
stbsS'22682495'
p4623
g3
(g4
g5
NtRp4624
((dp4625
S'GO:0000224'
p4626
I01
sS'GO:0003810'
p4627
I01
sS'GO:0005634'
p4628
I01
sS'GO:0006517'
p4629
I01
sS'GO:0031152'
p4630
I01
sS'GO:0005829'
p4631
I01
stbsS'10545500'
p4632
g3
(g4
g5
NtRp4633
((dp4634
S'GO:0005856'
p4635
I01
sS'GO:0006935'
p4636
I01
sS'GO:0045159'
p4637
I01
sS'GO:0000281'
p4638
I01
sS'GO:0043327'
p4639
I01
sS'GO:0031152'
p4640
I01
sS'GO:0032467'
p4641
I01
stbsS'20668166'
p4642
g3
(g4
g5
NtRp4643
((dp4644
S'GO:0030041'
p4645
I01
sS'GO:0043327'
p4646
I01
sS'GO:0051015'
p4647
I01
sS'GO:0030010'
p4648
I01
sS'GO:0005515'
p4649
I01
stbsS'15827084'
p4650
g3
(g4
g5
NtRp4651
((dp4652
S'GO:0030553'
p4653
I01
sS'GO:0030552'
p4654
I01
sS'GO:0031589'
p4655
I01
sS'GO:0031275'
p4656
I01
sS'GO:0007163'
p4657
I01
sS'GO:0050920'
p4658
I01
stbsS'21933174'
p4659
g3
(g4
g5
NtRp4660
((dp4661
S'GO:0031149'
p4662
I01
sS'GO:0042331'
p4663
I01
sS'GO:0005829'
p4664
I01
sS'GO:0031288'
p4665
I01
sS'GO:0010629'
p4666
I01
sS'GO:0031152'
p4667
I01
sS'GO:0005634'
p4668
I01
stbsS'23063531'
p4669
g3
(g4
g5
NtRp4670
((dp4671
S'GO:0005737'
p4672
I01
sS'GO:0019901'
p4673
I01
sS'GO:0005634'
p4674
I01
sS'GO:0005516'
p4675
I01
sS'GO:0005515'
p4676
I01
stbsS'17121815'
p4677
g3
(g4
g5
NtRp4678
((dp4679
S'GO:0030036'
p4680
I01
sS'GO:0042331'
p4681
I01
stbsS'24128258'
p4682
g3
(g4
g5
NtRp4683
((dp4684
S'GO:0042466'
p4685
I01
sS'GO:0005783'
p4686
I01
sS'GO:0031318'
p4687
I01
stbsS'16675552'
p4688
g3
(g4
g5
NtRp4689
((dp4690
S'GO:0045010'
p4691
I01
sS'GO:0051017'
p4692
I01
sS'GO:0051638'
p4693
I01
sS'GO:0005515'
p4694
I01
sS'GO:0030041'
p4695
I01
sS'GO:0046847'
p4696
I01
stbsS'18424909'
p4697
g3
(g4
g5
NtRp4698
((dp4699
S'GO:0005978'
p4700
I01
sS'GO:0030244'
p4701
I01
sS'GO:0000045'
p4702
I01
stbsS'19133302'
p4703
g3
(g4
g5
NtRp4704
((dp4705
S'GO:0048102'
p4706
I01
stbsS'18384150'
p4707
g3
(g4
g5
NtRp4708
((dp4709
S'GO:0046871'
p4710
I01
sS'GO:0016936'
p4711
I01
stbsS'12802059'
p4712
g3
(g4
g5
NtRp4713
((dp4714
S'GO:0007032'
p4715
I01
sS'GO:0008565'
p4716
I01
sS'GO:0005515'
p4717
I01
sS'GO:0006895'
p4718
I01
sS'GO:0030276'
p4719
I01
sS'GO:0006971'
p4720
I01
sS'GO:0007041'
p4721
I01
sS'GO:0030130'
p4722
I01
sS'GO:0030121'
p4723
I01
sS'GO:0007275'
p4724
I01
stbsS'16741867'
p4725
g3
(g4
g5
NtRp4726
((dp4727
S'GO:0003779'
p4728
I01
sS'GO:0031154'
p4729
I01
sS'GO:0015629'
p4730
I01
stbsS'18638468'
p4731
g3
(g4
g5
NtRp4732
((dp4733
S'GO:0051287'
p4734
I01
sS'GO:0031149'
p4735
I01
sS'GO:0070402'
p4736
I01
sS'GO:0030587'
p4737
I01
stbsS'9813183'
p4738
g3
(g4
g5
NtRp4739
((dp4740
S'GO:0031152'
p4741
I01
stbsS'18381083'
p4742
g3
(g4
g5
NtRp4743
((dp4744
S'GO:0018107'
p4745
I01
sS'GO:0018209'
p4746
I01
sS'GO:0005524'
p4747
I01
sS'GO:0004674'
p4748
I01
stbsS'20070309'
p4749
g3
(g4
g5
NtRp4750
((dp4751
S'GO:0040011'
p4752
I01
sS'GO:0005794'
p4753
I01
sS'GO:0006909'
p4754
I01
sS'GO:0008283'
p4755
I01
sS'GO:0009617'
p4756
I01
sS'GO:0031288'
p4757
I01
sS'GO:0005815'
p4758
I01
sS'GO:0031152'
p4759
I01
sS'GO:0031153'
p4760
I01
sS'GO:0005874'
p4761
I01
stbsS'9276759'
p4762
g3
(g4
g5
NtRp4763
((dp4764
S'GO:0005773'
p4765
I01
stbsS'16582628'
p4766
g3
(g4
g5
NtRp4767
((dp4768
S'GO:0005958'
p4769
I01
sS'GO:0006303'
p4770
I01
stbsS'15325281'
p4771
g3
(g4
g5
NtRp4772
((dp4773
S'GO:0005515'
p4774
I01
stbsS'18202452'
p4775
g3
(g4
g5
NtRp4776
((dp4777
S'GO:0034670'
p4778
I01
stbsS'12854977'
p4779
g3
(g4
g5
NtRp4780
((dp4781
S'GO:0050766'
p4782
I01
sS'GO:0051271'
p4783
I01
stbsS'6273404'
p4784
g3
(g4
g5
NtRp4785
((dp4786
S'GO:0004035'
p4787
I01
stbsS'20539780'
p4788
g3
(g4
g5
NtRp4789
((dp4790
S'GO:0005654'
p4791
I01
sS'GO:0005737'
p4792
I01
stbsS'20457612'
p4793
g3
(g4
g5
NtRp4794
((dp4795
S'GO:0010468'
p4796
I01
sS'GO:0005515'
p4797
I01
stbsS'11032815'
p4798
g3
(g4
g5
NtRp4799
((dp4800
S'GO:0004674'
p4801
I01
sS'GO:0005634'
p4802
I01
sS'GO:0046827'
p4803
I01
sS'GO:0006468'
p4804
I01
sS'GO:0018107'
p4805
I01
stbsS'8636212'
p4806
g3
(g4
g5
NtRp4807
((dp4808
S'GO:0051017'
p4809
I01
sS'GO:0006928'
p4810
I01
stbsS'21871890'
p4811
g3
(g4
g5
NtRp4812
((dp4813
S'GO:0006729'
p4814
I01
sS'GO:0004146'
p4815
I01
sS'GO:0004155'
p4816
I01
sS'GO:0006979'
p4817
I01
stbsS'22623154'
p4818
g3
(g4
g5
NtRp4819
((dp4820
S'GO:0005654'
p4821
I01
sS'GO:0005737'
p4822
I01
sS'GO:0005730'
p4823
I01
stbsS'22357942'
p4824
g3
(g4
g5
NtRp4825
((dp4826
S'GO:0032010'
p4827
I01
sS'GO:0006874'
p4828
I01
sS'GO:0001845'
p4829
I01
sS'GO:0017157'
p4830
I01
stbsS'11566853'
p4831
g3
(g4
g5
NtRp4832
((dp4833
S'GO:0040011'
p4834
I01
sS'GO:0030833'
p4835
I01
sS'GO:0006935'
p4836
I01
sS'GO:0030587'
p4837
I01
sS'GO:0006874'
p4838
I01
sS'GO:0030036'
p4839
I01
sS'GO:0006928'
p4840
I01
sS'GO:0030435'
p4841
I01
sS'GO:0046956'
p4842
I01
sS'GO:0008219'
p4843
I01
sS'GO:0031158'
p4844
I01
stbsS'14871937'
p4845
g3
(g4
g5
NtRp4846
((dp4847
S'GO:0005737'
p4848
I01
sS'GO:0005634'
p4849
I01
sS'GO:0007275'
p4850
I01
sS'GO:0043157'
p4851
I01
sS'GO:0005938'
p4852
I01
stbsS'17699611'
p4853
g3
(g4
g5
NtRp4854
((dp4855
S'GO:0031154'
p4856
I01
sS'GO:0072592'
p4857
I01
stbsS'15843041'
p4858
g3
(g4
g5
NtRp4859
((dp4860
S'GO:0003779'
p4861
I01
sS'GO:0040011'
p4862
I01
sS'GO:0005829'
p4863
I01
sS'GO:0005938'
p4864
I01
sS'GO:0005515'
p4865
I01
stbsS'16546177'
p4866
g3
(g4
g5
NtRp4867
((dp4868
S'GO:0045860'
p4869
I01
sS'GO:0004687'
p4870
I01
sS'GO:0050920'
p4871
I01
stbsS'15652353'
p4872
g3
(g4
g5
NtRp4873
((dp4874
S'GO:0031160'
p4875
I01
sS'GO:0005798'
p4876
I01
sS'GO:0005938'
p4877
I01
sS'GO:0005739'
p4878
I01
sS'GO:0005730'
p4879
I01
stbsS'21876387'
p4880
g3
(g4
g5
NtRp4881
((dp4882
S'GO:0005829'
p4883
I01
stbsS'8034739'
p4884
g3
(g4
g5
NtRp4885
((dp4886
S'GO:0007041'
p4887
I01
stbsS'2568162'
p4888
g3
(g4
g5
NtRp4889
((dp4890
S'GO:0004151'
p4891
I01
sS'GO:0004088'
p4892
I01
sS'GO:0006541'
p4893
I01
sS'GO:0004070'
p4894
I01
stbsS'10504413'
p4895
g3
(g4
g5
NtRp4896
((dp4897
S'GO:0016491'
p4898
I01
sS'GO:0006636'
p4899
I01
sS'GO:0005886'
p4900
I01
stbsS'16734666'
p4901
g3
(g4
g5
NtRp4902
((dp4903
S'GO:0005737'
p4904
I01
stbsS'8670894'
p4905
g3
(g4
g5
NtRp4906
((dp4907
S'GO:0030435'
p4908
I01
sS'GO:0031150'
p4909
I01
stbsS'17699599'
p4910
g3
(g4
g5
NtRp4911
((dp4912
S'GO:0006481'
p4913
I01
sS'GO:0008277'
p4914
I01
sS'GO:0004671'
p4915
I01
sS'GO:0060176'
p4916
I01
sS'GO:0030010'
p4917
I01
stbsS'2578450'
p4918
g3
(g4
g5
NtRp4919
((dp4920
S'GO:0005856'
p4921
I01
stbsS'18515835'
p4922
g3
(g4
g5
NtRp4923
((dp4924
S'GO:0005667'
p4925
I01
sS'GO:0003713'
p4926
I01
sS'GO:0001104'
p4927
I01
sS'GO:0006355'
p4928
I01
sS'GO:0006357'
p4929
I01
sS'GO:0006367'
p4930
I01
sS'GO:0006366'
p4931
I01
sS'GO:0016592'
p4932
I01
stbsS'15509655'
p4933
g3
(g4
g5
NtRp4934
((dp4935
S'GO:0050766'
p4936
I01
sS'GO:0006468'
p4937
I01
sS'GO:0006907'
p4938
I01
sS'GO:0000281'
p4939
I01
sS'GO:0031252'
p4940
I01
sS'GO:0019901'
p4941
I01
sS'GO:0004674'
p4942
I01
sS'GO:0048365'
p4943
I01
sS'GO:0005515'
p4944
I01
sS'GO:0001891'
p4945
I01
stbsS'20186335'
p4946
g3
(g4
g5
NtRp4947
((dp4948
S'GO:0005829'
p4949
I01
sS'GO:0031589'
p4950
I01
sS'GO:0006935'
p4951
I01
stbsS'22980139'
p4952
g3
(g4
g5
NtRp4953
((dp4954
S'GO:0000266'
p4955
I01
sS'GO:0048312'
p4956
I01
sS'GO:0008053'
p4957
I01
sS'GO:0090141'
p4958
I01
stbsS'17380187'
p4959
g3
(g4
g5
NtRp4960
((dp4961
S'GO:0005088'
p4962
I01
sS'GO:0007265'
p4963
I01
sS'GO:0003924'
p4964
I01
stbsS'8816286'
p4965
g3
(g4
g5
NtRp4966
((dp4967
S'GO:0005856'
p4968
I01
sS'GO:0030036'
p4969
I01
stbsS'14704357'
p4970
g3
(g4
g5
NtRp4971
((dp4972
S'GO:0003899'
p4973
I01
sS'GO:0016591'
p4974
I01
sS'GO:0003697'
p4975
I01
sS'GO:0006366'
p4976
I01
stbsS'22020250'
p4977
g3
(g4
g5
NtRp4978
((dp4979
S'GO:0006979'
p4980
I01
sS'GO:0004674'
p4981
I01
sS'GO:0010629'
p4982
I01
sS'GO:0006970'
p4983
I01
sS'GO:0004672'
p4984
I01
sS'GO:0061098'
p4985
I01
sS'GO:0071902'
p4986
I01
sS'GO:1901263'
p4987
I01
sS'GO:0046777'
p4988
I01
stbsS'23017206'
p4989
g3
(g4
g5
NtRp4990
((dp4991
S'GO:0004505'
p4992
I01
sS'GO:0051262'
p4993
I01
sS'GO:0042802'
p4994
I01
sS'GO:0008283'
p4995
I01
stbsS'19576222'
p4996
g3
(g4
g5
NtRp4997
((dp4998
S'GO:0016575'
p4999
I01
sS'GO:0004407'
p5000
I01
sS'GO:0005634'
p5001
I01
stbsS'17488289'
p5002
g3
(g4
g5
NtRp5003
((dp5004
S'GO:0005764'
p5005
I01
sS'GO:0045335'
p5006
I01
sS'GO:0001845'
p5007
I01
stbsS'18039932'
p5008
g3
(g4
g5
NtRp5009
((dp5010
S'GO:0005737'
p5011
I01
sS'GO:0032854'
p5012
I01
sS'GO:0031589'
p5013
I01
sS'GO:0051270'
p5014
I01
sS'GO:0030837'
p5015
I01
sS'GO:0030838'
p5016
I01
sS'GO:0030479'
p5017
I01
sS'GO:0032317'
p5018
I01
sS'GO:0031252'
p5019
I01
sS'GO:0032861'
p5020
I01
sS'GO:0045184'
p5021
I01
sS'GO:0051591'
p5022
I01
sS'GO:0007163'
p5023
I01
sS'GO:0005938'
p5024
I01
sS'GO:0005515'
p5025
I01
sS'GO:0046582'
p5026
I01
sS'GO:0043520'
p5027
I01
stbsS'15897458'
p5028
g3
(g4
g5
NtRp5029
((dp5030
S'GO:0009897'
p5031
I01
sS'GO:0006468'
p5032
I01
sS'GO:0006469'
p5033
I01
sS'GO:0019901'
p5034
I01
sS'GO:0000062'
p5035
I01
sS'GO:0004860'
p5036
I01
sS'GO:0030435'
p5037
I01
sS'GO:0005576'
p5038
I01
sS'GO:0009784'
p5039
I01
sS'GO:0006508'
p5040
I01
sS'GO:0008236'
p5041
I01
stbsS'18673380'
p5042
g3
(g4
g5
NtRp5043
((dp5044
S'GO:0008601'
p5045
I01
sS'GO:0045860'
p5046
I01
sS'GO:0030154'
p5047
I01
sS'GO:0000159'
p5048
I01
sS'GO:0030587'
p5049
I01
stbsS'18673382'
p5050
g3
(g4
g5
NtRp5051
((dp5052
S'GO:0030435'
p5053
I01
sS'GO:0031288'
p5054
I01
sS'GO:0042594'
p5055
I01
sS'GO:0031152'
p5056
I01
stbsS'9789030'
p5057
g3
(g4
g5
NtRp5058
((dp5059
S'GO:0005737'
p5060
I01
sS'GO:0019934'
p5061
I01
stbsS'10588668'
p5062
g3
(g4
g5
NtRp5063
((dp5064
S'GO:0005737'
p5065
I01
sS'GO:0006907'
p5066
I01
sS'GO:0000281'
p5067
I01
sS'GO:0007041'
p5068
I01
sS'GO:0000915'
p5069
I01
stbsS'12963116'
p5070
g3
(g4
g5
NtRp5071
((dp5072
S'GO:0009897'
p5073
I01
sS'GO:0000747'
p5074
I01
sS'GO:0008234'
p5075
I01
stbsS'15333995'
p5076
g3
(g4
g5
NtRp5077
((dp5078
S'GO:0031152'
p5079
I01
stbsS'22073313'
p5080
g3
(g4
g5
NtRp5081
((dp5082
S'GO:0050766'
p5083
I01
sS'GO:1900426'
p5084
I01
sS'GO:0070273'
p5085
I01
sS'GO:0010314'
p5086
I01
sS'GO:0061474'
p5087
I01
sS'GO:0032266'
p5088
I01
sS'GO:0046488'
p5089
I01
sS'GO:0005515'
p5090
I01
sS'GO:0001786'
p5091
I01
sS'GO:0031902'
p5092
I01
stbsS'10704840'
p5093
g3
(g4
g5
NtRp5094
((dp5095
S'GO:0007275'
p5096
I01
sS'GO:0009847'
p5097
I01
stbsS'15546981'
p5098
g3
(g4
g5
NtRp5099
((dp5100
S'GO:0005737'
p5101
I01
sS'GO:0000912'
p5102
I01
sS'GO:0005819'
p5103
I01
sS'GO:0030496'
p5104
I01
sS'GO:0005634'
p5105
I01
sS'GO:0000280'
p5106
I01
sS'GO:0031616'
p5107
I01
sS'GO:0005871'
p5108
I01
sS'GO:0000022'
p5109
I01
sS'GO:0003777'
p5110
I01
stbsS'8500761'
p5111
g3
(g4
g5
NtRp5112
((dp5113
S'GO:0004590'
p5114
I01
sS'GO:0004588'
p5115
I01
stbsS'19878291'
p5116
g3
(g4
g5
NtRp5117
((dp5118
S'GO:0001709'
p5119
I01
stbsS'1824843'
p5120
g3
(g4
g5
NtRp5121
((dp5122
S'GO:0005544'
p5123
I01
stbsS'20200225'
p5124
g3
(g4
g5
NtRp5125
((dp5126
S'GO:0050766'
p5127
I01
sS'GO:0032037'
p5128
I01
sS'GO:0097203'
p5129
I01
sS'GO:0097204'
p5130
I01
sS'GO:0032009'
p5131
I01
sS'GO:0019901'
p5132
I01
sS'GO:0045335'
p5133
I01
sS'GO:0050765'
p5134
I01
sS'GO:0016905'
p5135
I01
sS'GO:0005515'
p5136
I01
sS'GO:0005522'
p5137
I01
sS'GO:0001891'
p5138
I01
stbsS'9334183'
p5139
g3
(g4
g5
NtRp5140
((dp5141
S'GO:0005634'
p5142
I01
sS'GO:0000122'
p5143
I01
stbsS'19589376'
p5144
g3
(g4
g5
NtRp5145
((dp5146
S'GO:0031982'
p5147
I01
stbsS'7822274'
p5148
g3
(g4
g5
NtRp5149
((dp5150
S'GO:0016905'
p5151
I01
stbsS'15800059'
p5152
g3
(g4
g5
NtRp5153
((dp5154
S'GO:0015630'
p5155
I01
sS'GO:0005515'
p5156
I01
sS'GO:0045504'
p5157
I01
sS'GO:0017048'
p5158
I01
sS'GO:0031592'
p5159
I01
sS'GO:0051645'
p5160
I01
sS'GO:0051642'
p5161
I01
stbsS'18073238'
p5162
g3
(g4
g5
NtRp5163
((dp5164
S'GO:0031276'
p5165
I01
sS'GO:0006935'
p5166
I01
stbsS'17031001'
p5167
g3
(g4
g5
NtRp5168
((dp5169
S'GO:0016236'
p5170
I01
sS'GO:0046777'
p5171
I01
sS'GO:0004672'
p5172
I01
stbsS'22896810'
p5173
g3
(g4
g5
NtRp5174
((dp5175
S'GO:0031000'
p5176
I01
stbsS'19955408'
p5177
g3
(g4
g5
NtRp5178
((dp5179
S'GO:0033275'
p5180
I01
sS'GO:0000146'
p5181
I01
sS'GO:0030898'
p5182
I01
stbsS'10804029'
p5183
g3
(g4
g5
NtRp5184
((dp5185
S'GO:0045337'
p5186
I01
sS'GO:0005829'
p5187
I01
sS'GO:0004337'
p5188
I01
stbsS'15527790'
p5189
g3
(g4
g5
NtRp5190
((dp5191
S'GO:0005783'
p5192
I01
sS'GO:0005634'
p5193
I01
sS'GO:0007059'
p5194
I01
sS'GO:0001891'
p5195
I01
sS'GO:0005874'
p5196
I01
sS'GO:0015629'
p5197
I01
stbsS'12697064'
p5198
g3
(g4
g5
NtRp5199
((dp5200
S'GO:0005844'
p5201
I01
sS'GO:0006468'
p5202
I01
sS'GO:0048255'
p5203
I01
sS'GO:0005850'
p5204
I01
sS'GO:0006446'
p5205
I01
sS'GO:0005085'
p5206
I01
sS'GO:0005525'
p5207
I01
sS'GO:0005622'
p5208
I01
sS'GO:0031152'
p5209
I01
sS'GO:0019933'
p5210
I01
sS'GO:0006417'
p5211
I01
sS'GO:0003743'
p5212
I01
sS'GO:0031158'
p5213
I01
sS'GO:0005524'
p5214
I01
sS'GO:0004694'
p5215
I01
stbsS'14711408'
p5216
g3
(g4
g5
NtRp5217
((dp5218
S'GO:0031252'
p5219
I01
sS'GO:0015629'
p5220
I01
sS'GO:0051015'
p5221
I01
sS'GO:0030864'
p5222
I01
stbsS'18413611'
p5223
g3
(g4
g5
NtRp5224
((dp5225
S'GO:0034416'
p5226
I01
sS'GO:0034417'
p5227
I01
sS'GO:0005829'
p5228
I01
sS'GO:0006007'
p5229
I01
stbsS'2813371'
p5230
g3
(g4
g5
NtRp5231
((dp5232
S'GO:0050797'
p5233
I01
sS'GO:0006231'
p5234
I01
stbsS'12878591'
p5235
g3
(g4
g5
NtRp5236
((dp5237
S'GO:0046855'
p5238
I01
sS'GO:0004439'
p5239
I01
sS'GO:0000139'
p5240
I01
stbsS'1312226'
p5241
g3
(g4
g5
NtRp5242
((dp5243
S'GO:0030552'
p5244
I01
sS'GO:0008603'
p5245
I01
sS'GO:0030817'
p5246
I01
stbsS'18367554'
p5247
g3
(g4
g5
NtRp5248
((dp5249
S'GO:0006974'
p5250
I01
sS'GO:0005634'
p5251
I01
sS'GO:0005694'
p5252
I01
sS'GO:0005829'
p5253
I01
stbsS'16968699'
p5254
g3
(g4
g5
NtRp5255
((dp5256
S'GO:0006935'
p5257
I01
sS'GO:0030838'
p5258
I01
sS'GO:0031252'
p5259
I01
sS'GO:0045184'
p5260
I01
sS'GO:0048365'
p5261
I01
sS'GO:0019904'
p5262
I01
sS'GO:0005515'
p5263
I01
sS'GO:0014065'
p5264
I01
sS'GO:0016477'
p5265
I01
sS'GO:0005938'
p5266
I01
stbsS'18367552'
p5267
g3
(g4
g5
NtRp5268
((dp5269
S'GO:0005737'
p5270
I01
sS'GO:0031149'
p5271
I01
sS'GO:0005634'
p5272
I01
stbsS'20966074'
p5273
g3
(g4
g5
NtRp5274
((dp5275
S'GO:0044671'
p5276
I01
sS'GO:0005635'
p5277
I01
sS'GO:0031288'
p5278
I01
sS'GO:0005783'
p5279
I01
sS'GO:0004016'
p5280
I01
stbsS'12070154'
p5281
g3
(g4
g5
NtRp5282
((dp5283
S'GO:0030041'
p5284
I01
sS'GO:0007162'
p5285
I01
sS'GO:0006928'
p5286
I01
stbsS'16449327'
p5287
g3
(g4
g5
NtRp5288
((dp5289
S'GO:0003779'
p5290
I01
sS'GO:0031269'
p5291
I01
sS'GO:0030864'
p5292
I01
sS'GO:0031252'
p5293
I01
sS'GO:0006928'
p5294
I01
stbsS'11500376'
p5295
g3
(g4
g5
NtRp5296
((dp5297
S'GO:0030819'
p5298
I01
sS'GO:0045762'
p5299
I01
sS'GO:0003924'
p5300
I01
sS'GO:0007165'
p5301
I01
sS'GO:0031152'
p5302
I01
sS'GO:0051897'
p5303
I01
stbsS'1549373'
p5304
g3
(g4
g5
NtRp5305
((dp5306
S'GO:0003677'
p5307
I01
stbsS'9739079'
p5308
g3
(g4
g5
NtRp5309
((dp5310
S'GO:0048365'
p5311
I01
sS'GO:0005099'
p5312
I01
sS'GO:0030036'
p5313
I01
sS'GO:0005515'
p5314
I01
sS'GO:0048870'
p5315
I01
stbsS'12117815'
p5316
g3
(g4
g5
NtRp5317
((dp5318
S'GO:0016337'
p5319
I01
sS'GO:0030154'
p5320
I01
sS'GO:0006928'
p5321
I01
sS'GO:0005576'
p5322
I01
sS'GO:0007165'
p5323
I01
sS'GO:0004871'
p5324
I01
sS'GO:0045861'
p5325
I01
sS'GO:0031158'
p5326
I01
stbsS'17998288'
p5327
g3
(g4
g5
NtRp5328
((dp5329
S'GO:0006928'
p5330
I01
stbsS'10727946'
p5331
g3
(g4
g5
NtRp5332
((dp5333
S'GO:0016020'
p5334
I01
sS'GO:0005515'
p5335
I01
sS'GO:0005483'
p5336
I01
stbsS'12952069'
p5337
g3
(g4
g5
NtRp5338
((dp5339
S'GO:0004674'
p5340
I01
sS'GO:0006468'
p5341
I01
sS'GO:0004143'
p5342
I01
sS'GO:0016905'
p5343
I01
stbsS'17611045'
p5344
g3
(g4
g5
NtRp5345
((dp5346
S'GO:0030677'
p5347
I01
sS'GO:0004526'
p5348
I01
sS'GO:0008033'
p5349
I01
stbsS'7866389'
p5350
g3
(g4
g5
NtRp5351
((dp5352
S'GO:0005868'
p5353
I01
stbsS'15878331'
p5354
g3
(g4
g5
NtRp5355
((dp5356
S'GO:0031276'
p5357
I01
sS'GO:0043491'
p5358
I01
sS'GO:0001558'
p5359
I01
sS'GO:0030036'
p5360
I01
sS'GO:0006928'
p5361
I01
sS'GO:0043326'
p5362
I01
sS'GO:0043406'
p5363
I01
sS'GO:0007163'
p5364
I01
sS'GO:0051491'
p5365
I01
sS'GO:0007265'
p5366
I01
sS'GO:0005622'
p5367
I01
stbsS'15367206'
p5368
g3
(g4
g5
NtRp5369
((dp5370
S'GO:0045597'
p5371
I01
sS'GO:0005576'
p5372
I01
stbsS'21441344'
p5373
g3
(g4
g5
NtRp5374
((dp5375
S'GO:0031589'
p5376
I01
sS'GO:0015629'
p5377
I01
sS'GO:0005515'
p5378
I01
sS'GO:0005886'
p5379
I01
stbsS'8670893'
p5380
g3
(g4
g5
NtRp5381
((dp5382
S'GO:0007234'
p5383
I01
sS'GO:0000155'
p5384
I01
sS'GO:0000156'
p5385
I01
sS'GO:0030435'
p5386
I01
sS'GO:0000160'
p5387
I01
sS'GO:0035556'
p5388
I01
sS'GO:0016021'
p5389
I01
sS'GO:0023014'
p5390
I01
stbsS'20097741'
p5391
g3
(g4
g5
NtRp5392
((dp5393
S'GO:0006907'
p5394
I01
sS'GO:0009267'
p5395
I01
stbsS'20600701'
p5396
g3
(g4
g5
NtRp5397
((dp5398
S'GO:0005829'
p5399
I01
sS'GO:0016604'
p5400
I01
sS'GO:0005634'
p5401
I01
stbsS'22730904'
p5402
g3
(g4
g5
NtRp5403
((dp5404
S'GO:0016020'
p5405
I01
sS'GO:0017064'
p5406
I01
stbsS'16607013'
p5407
g3
(g4
g5
NtRp5408
((dp5409
S'GO:0043565'
p5410
I01
stbsS'20479885'
p5411
g3
(g4
g5
NtRp5412
((dp5413
S'GO:0050821'
p5414
I01
sS'GO:0006979'
p5415
I01
sS'GO:0060176'
p5416
I01
stbsS'17825085'
p5417
g3
(g4
g5
NtRp5418
((dp5419
S'GO:0031154'
p5420
I01
sS'GO:0030141'
p5421
I01
sS'GO:0005783'
p5422
I01
sS'GO:0031152'
p5423
I01
sS'GO:0019933'
p5424
I01
stbsS'8681950'
p5425
g3
(g4
g5
NtRp5426
((dp5427
S'GO:0005516'
p5428
I01
stbsS'15679845'
p5429
g3
(g4
g5
NtRp5430
((dp5431
S'GO:0006906'
p5432
I01
stbsS'2191567'
p5433
g3
(g4
g5
NtRp5434
((dp5435
S'GO:0015629'
p5436
I01
sS'GO:0048306'
p5437
I01
stbsS'8432731'
p5438
g3
(g4
g5
NtRp5439
((dp5440
S'GO:0051015'
p5441
I01
sS'GO:0045010'
p5442
I01
sS'GO:0005887'
p5443
I01
stbsS'16023096'
p5444
g3
(g4
g5
NtRp5445
((dp5446
S'GO:0043327'
p5447
I01
sS'GO:0031152'
p5448
I01
stbsS'16495217'
p5449
g3
(g4
g5
NtRp5450
((dp5451
S'GO:0035250'
p5452
I01
sS'GO:0006486'
p5453
I01
stbsS'8293475'
p5454
g3
(g4
g5
NtRp5455
((dp5456
S'GO:0015629'
p5457
I01
sS'GO:0051015'
p5458
I01
stbsS'15574880'
p5459
g3
(g4
g5
NtRp5460
((dp5461
S'GO:0002029'
p5462
I01
stbsS'9394012'
p5463
g3
(g4
g5
NtRp5464
((dp5465
S'GO:0005773'
p5466
I01
sS'GO:0006887'
p5467
I01
sS'GO:0005886'
p5468
I01
stbsS'1832674'
p5469
g3
(g4
g5
NtRp5470
((dp5471
S'GO:0005509'
p5472
I01
stbsS'3003365'
p5473
g3
(g4
g5
NtRp5474
((dp5475
S'GO:0005200'
p5476
I01
sS'GO:0015629'
p5477
I01
stbsS'17623773'
p5478
g3
(g4
g5
NtRp5479
((dp5480
S'GO:0051285'
p5481
I01
sS'GO:0006935'
p5482
I01
sS'GO:0006928'
p5483
I01
stbsS'17343681'
p5484
g3
(g4
g5
NtRp5485
((dp5486
S'GO:0005829'
p5487
I01
sS'GO:0008283'
p5488
I01
sS'GO:0006911'
p5489
I01
stbsS'18180289'
p5490
g3
(g4
g5
NtRp5491
((dp5492
S'GO:0031284'
p5493
I01
sS'GO:0008283'
p5494
I01
sS'GO:0032861'
p5495
I01
sS'GO:0043327'
p5496
I01
sS'GO:0007190'
p5497
I01
sS'GO:0051897'
p5498
I01
stbsS'8448193'
p5499
g3
(g4
g5
NtRp5500
((dp5501
S'GO:0006104'
p5502
I01
sS'GO:0004776'
p5503
I01
sS'GO:0016020'
p5504
I01
stbsS'17664333'
p5505
g3
(g4
g5
NtRp5506
((dp5507
S'GO:0006468'
p5508
I01
sS'GO:0006909'
p5509
I01
sS'GO:0030670'
p5510
I01
sS'GO:0018108'
p5511
I01
sS'GO:0004713'
p5512
I01
sS'GO:0032010'
p5513
I01
sS'GO:0001845'
p5514
I01
sS'GO:0005524'
p5515
I01
stbsS'6087882'
p5516
g3
(g4
g5
NtRp5517
((dp5518
S'GO:0051343'
p5519
I01
sS'GO:0043549'
p5520
I01
stbsS'17126332'
p5521
g3
(g4
g5
NtRp5522
((dp5523
S'GO:0001931'
p5524
I01
sS'GO:0031252'
p5525
I01
stbsS'18349074'
p5526
g3
(g4
g5
NtRp5527
((dp5528
S'GO:0032433'
p5529
I01
sS'GO:0010812'
p5530
I01
sS'GO:0015629'
p5531
I01
sS'GO:0030036'
p5532
I01
sS'GO:0048870'
p5533
I01
stbsS'17684569'
p5534
g3
(g4
g5
NtRp5535
((dp5536
S'GO:0006928'
p5537
I01
stbsS'18854143'
p5538
g3
(g4
g5
NtRp5539
((dp5540
S'GO:0005737'
p5541
I01
sS'GO:0050764'
p5542
I01
sS'GO:0005515'
p5543
I01
sS'GO:0048870'
p5544
I01
sS'GO:0030587'
p5545
I01
sS'GO:0030837'
p5546
I01
sS'GO:0030864'
p5547
I01
sS'GO:0045159'
p5548
I01
stbsS'14517243'
p5549
g3
(g4
g5
NtRp5550
((dp5551
S'GO:0031683'
p5552
I01
sS'GO:0008283'
p5553
I01
sS'GO:0005829'
p5554
I01
sS'GO:0043326'
p5555
I01
sS'GO:0043327'
p5556
I01
sS'GO:0008277'
p5557
I01
stbsS'15470246'
p5558
g3
(g4
g5
NtRp5559
((dp5560
S'GO:0019897'
p5561
I01
sS'GO:0005829'
p5562
I01
sS'GO:0005886'
p5563
I01
stbsS'17296313'
p5564
g3
(g4
g5
NtRp5565
((dp5566
S'GO:0005885'
p5567
I01
stbsS'17050736'
p5568
g3
(g4
g5
NtRp5569
((dp5570
S'GO:0000331'
p5571
I01
sS'GO:0005543'
p5572
I01
sS'GO:0030276'
p5573
I01
sS'GO:0006971'
p5574
I01
sS'GO:0005886'
p5575
I01
sS'GO:0030131'
p5576
I01
stbsS'17419997'
p5577
g3
(g4
g5
NtRp5578
((dp5579
S'GO:0050918'
p5580
I01
sS'GO:0005829'
p5581
I01
sS'GO:0019369'
p5582
I01
sS'GO:0047499'
p5583
I01
sS'GO:0031152'
p5584
I01
stbsS'8557714'
p5585
g3
(g4
g5
NtRp5586
((dp5587
S'GO:0050926'
p5588
I01
sS'GO:0009653'
p5589
I01
stbsS'1057168'
p5590
g3
(g4
g5
NtRp5591
((dp5592
S'GO:0005200'
p5593
I01
sS'GO:0005884'
p5594
I01
sS'GO:0017022'
p5595
I01
sS'GO:0015629'
p5596
I01
stbsS'10402673'
p5597
g3
(g4
g5
NtRp5598
((dp5599
S'GO:0031154'
p5600
I01
sS'GO:0045324'
p5601
I01
stbsS'18636095'
p5602
g3
(g4
g5
NtRp5603
((dp5604
S'GO:0000331'
p5605
I01
sS'GO:0005829'
p5606
I01
sS'GO:0032794'
p5607
I01
sS'GO:0017137'
p5608
I01
sS'GO:0005097'
p5609
I01
sS'GO:0033298'
p5610
I01
sS'GO:0031164'
p5611
I01
sS'GO:0034394'
p5612
I01
sS'GO:0005515'
p5613
I01
sS'GO:0032858'
p5614
I01
sS'GO:0006971'
p5615
I01
stbsS'16699495'
p5616
g3
(g4
g5
NtRp5617
((dp5618
S'GO:0009986'
p5619
I01
sS'GO:0006909'
p5620
I01
sS'GO:0031589'
p5621
I01
sS'GO:0005515'
p5622
I01
stbsS'23577638'
p5623
g3
(g4
g5
NtRp5624
((dp5625
S'GO:0031285'
p5626
I01
sS'GO:1901261'
p5627
I01
sS'GO:0010468'
p5628
I01
stbsS'3029131'
p5629
g3
(g4
g5
NtRp5630
((dp5631
S'GO:0004674'
p5632
I01
sS'GO:0019933'
p5633
I01
stbsS'11726513'
p5634
g3
(g4
g5
NtRp5635
((dp5636
S'GO:0005783'
p5637
I01
sS'GO:0005788'
p5638
I01
sS'GO:0005789'
p5639
I01
sS'GO:0042175'
p5640
I01
sS'GO:0005509'
p5641
I01
sS'GO:0006911'
p5642
I01
stbsS'17259548'
p5643
g3
(g4
g5
NtRp5644
((dp5645
S'GO:0031154'
p5646
I01
sS'GO:0000281'
p5647
I01
sS'GO:0006971'
p5648
I01
stbsS'16950926'
p5649
g3
(g4
g5
NtRp5650
((dp5651
S'GO:0005737'
p5652
I01
sS'GO:0046847'
p5653
I01
sS'GO:0006909'
p5654
I01
sS'GO:0030838'
p5655
I01
sS'GO:0006928'
p5656
I01
sS'GO:0030175'
p5657
I01
sS'GO:0005938'
p5658
I01
sS'GO:0032009'
p5659
I01
sS'GO:0032314'
p5660
I01
stbsS'11336701'
p5661
g3
(g4
g5
NtRp5662
((dp5663
S'GO:0005634'
p5664
I01
sS'GO:0042803'
p5665
I01
sS'GO:0045892'
p5666
I01
sS'GO:0005829'
p5667
I01
sS'GO:0007275'
p5668
I01
stbsS'8244981'
p5669
g3
(g4
g5
NtRp5670
((dp5671
S'GO:0005737'
p5672
I01
sS'GO:0005739'
p5673
I01
stbsS'1448100'
p5674
g3
(g4
g5
NtRp5675
((dp5676
S'GO:0004674'
p5677
I01
sS'GO:0006468'
p5678
I01
stbsS'7821221'
p5679
g3
(g4
g5
NtRp5680
((dp5681
S'GO:0006184'
p5682
I01
sS'GO:0003924'
p5683
I01
stbsS'11488929'
p5684
g3
(g4
g5
NtRp5685
((dp5686
S'GO:0030248'
p5687
I01
stbsS'16512895'
p5688
g3
(g4
g5
NtRp5689
((dp5690
S'GO:0031287'
p5691
I01
stbsS'9118250'
p5692
g3
(g4
g5
NtRp5693
((dp5694
S'GO:0030042'
p5695
I01
sS'GO:0003785'
p5696
I01
sS'GO:0051015'
p5697
I01
stbsS'18707607'
p5698
g3
(g4
g5
NtRp5699
((dp5700
S'GO:0005634'
p5701
I01
stbsS'2850494'
p5702
g3
(g4
g5
NtRp5703
((dp5704
S'GO:0046658'
p5705
I01
sS'GO:0016020'
p5706
I01
stbsS'21950343'
p5707
g3
(g4
g5
NtRp5708
((dp5709
S'GO:0046956'
p5710
I01
sS'GO:0060359'
p5711
I01
sS'GO:0043052'
p5712
I01
sS'GO:0040040'
p5713
I01
stbsS'10556070'
p5714
g3
(g4
g5
NtRp5715
((dp5716
S'GO:0030435'
p5717
I01
sS'GO:0006171'
p5718
I01
sS'GO:0004016'
p5719
I01
stbsS'18054409'
p5720
g3
(g4
g5
NtRp5721
((dp5722
S'GO:0030863'
p5723
I01
stbsS'15894626'
p5724
g3
(g4
g5
NtRp5725
((dp5726
S'GO:0030175'
p5727
I01
sS'GO:0030038'
p5728
I01
sS'GO:0030837'
p5729
I01
sS'GO:0030864'
p5730
I01
stbsS'18178563'
p5731
g3
(g4
g5
NtRp5732
((dp5733
S'GO:0033299'
p5734
I01
stbsS'21393547'
p5735
g3
(g4
g5
NtRp5736
((dp5737
S'GO:0061245'
p5738
I01
sS'GO:0009306'
p5739
I01
sS'GO:0051017'
p5740
I01
sS'GO:0051495'
p5741
I01
sS'GO:0034613'
p5742
I01
sS'GO:0045294'
p5743
I01
sS'GO:0008013'
p5744
I01
sS'GO:0031154'
p5745
I01
sS'GO:0031150'
p5746
I01
sS'GO:0051015'
p5747
I01
sS'GO:0005911'
p5748
I01
sS'GO:0045179'
p5749
I01
sS'GO:0051645'
p5750
I01
sS'GO:0051642'
p5751
I01
stbsS'17659086'
p5752
g3
(g4
g5
NtRp5753
((dp5754
S'GO:0031153'
p5755
I01
sS'GO:0031154'
p5756
I01
sS'GO:0019933'
p5757
I01
sS'GO:0030587'
p5758
I01
stbsS'20348387'
p5759
g3
(g4
g5
NtRp5760
((dp5761
S'GO:0036360'
p5762
I01
sS'GO:0031150'
p5763
I01
sS'GO:0005829'
p5764
I01
sS'GO:0031153'
p5765
I01
stbsS'7813009'
p5766
g3
(g4
g5
NtRp5767
((dp5768
S'GO:0030154'
p5769
I01
sS'GO:0031288'
p5770
I01
sS'GO:0007165'
p5771
I01
stbsS'17560550'
p5772
g3
(g4
g5
NtRp5773
((dp5774
S'GO:0006412'
p5775
I01
stbsS'18160177'
p5776
g3
(g4
g5
NtRp5777
((dp5778
S'GO:0005737'
p5779
I01
sS'GO:0005783'
p5780
I01
sS'GO:0005739'
p5781
I01
sS'GO:0006200'
p5782
I01
sS'GO:0016887'
p5783
I01
sS'GO:0003777'
p5784
I01
sS'GO:0042803'
p5785
I01
stbsS'10571182'
p5786
g3
(g4
g5
NtRp5787
((dp5788
S'GO:0006468'
p5789
I01
sS'GO:0033674'
p5790
I01
sS'GO:0001708'
p5791
I01
sS'GO:0031288'
p5792
I01
sS'GO:0018108'
p5793
I01
sS'GO:0030435'
p5794
I01
sS'GO:0004713'
p5795
I01
sS'GO:0046777'
p5796
I01
sS'GO:0007165'
p5797
I01
stbsS'1629238'
p5798
g3
(g4
g5
NtRp5799
((dp5800
S'GO:0000331'
p5801
I01
stbsS'7738034'
p5802
g3
(g4
g5
NtRp5803
((dp5804
S'GO:0005737'
p5805
I01
sS'GO:0001726'
p5806
I01
sS'GO:0015629'
p5807
I01
stbsS'8670837'
p5808
g3
(g4
g5
NtRp5809
((dp5810
S'GO:0005634'
p5811
I01
stbsS'17040207'
p5812
g3
(g4
g5
NtRp5813
((dp5814
S'GO:0046069'
p5815
I01
sS'GO:0004115'
p5816
I01
sS'GO:0005576'
p5817
I01
sS'GO:0047555'
p5818
I01
sS'GO:0006198'
p5819
I01
stbsS'8787732'
p5820
g3
(g4
g5
NtRp5821
((dp5822
S'GO:0005829'
p5823
I01
sS'GO:0005576'
p5824
I01
sS'GO:0050708'
p5825
I01
sS'GO:0007165'
p5826
I01
sS'GO:0007275'
p5827
I01
stbsS'17150370'
p5828
g3
(g4
g5
NtRp5829
((dp5830
S'GO:0070265'
p5831
I01
stbsS'9765592'
p5832
g3
(g4
g5
NtRp5833
((dp5834
S'GO:0006974'
p5835
I01
sS'GO:0009650'
p5836
I01
stbsS'7862164'
p5837
g3
(g4
g5
NtRp5838
((dp5839
S'GO:0000281'
p5840
I01
sS'GO:0030587'
p5841
I01
stbsS'9410873'
p5842
g3
(g4
g5
NtRp5843
((dp5844
S'GO:0005634'
p5845
I01
stbsS'23433110'
p5846
g3
(g4
g5
NtRp5847
((dp5848
S'GO:0006979'
p5849
I01
stbsS'1310316'
p5850
g3
(g4
g5
NtRp5851
((dp5852
S'GO:0005764'
p5853
I01
sS'GO:0004560'
p5854
I01
sS'GO:0005576'
p5855
I01
sS'GO:0033938'
p5856
I01
sS'GO:0006004'
p5857
I01
stbsS'16079174'
p5858
g3
(g4
g5
NtRp5859
((dp5860
S'GO:0032148'
p5861
I01
sS'GO:0031932'
p5862
I01
sS'GO:0005515'
p5863
I01
sS'GO:0030838'
p5864
I01
sS'GO:0043520'
p5865
I01
sS'GO:0043327'
p5866
I01
sS'GO:0031152'
p5867
I01
sS'GO:0007190'
p5868
I01
stbsS'21034843'
p5869
g3
(g4
g5
NtRp5870
((dp5871
S'GO:0071539'
p5872
I01
sS'GO:0019933'
p5873
I01
sS'GO:0005874'
p5874
I01
sS'GO:0030864'
p5875
I01
sS'GO:0005815'
p5876
I01
stbsS'11423539'
p5877
g3
(g4
g5
NtRp5878
((dp5879
S'GO:0031127'
p5880
I01
sS'GO:0006486'
p5881
I01
stbsS'12217653'
p5882
g3
(g4
g5
NtRp5883
((dp5884
S'GO:0005834'
p5885
I01
stbsS'16415044'
p5886
g3
(g4
g5
NtRp5887
((dp5888
S'GO:0008360'
p5889
I01
sS'GO:0006897'
p5890
I01
sS'GO:0000281'
p5891
I01
sS'GO:0031152'
p5892
I01
stbsS'10888671'
p5893
g3
(g4
g5
NtRp5894
((dp5895
S'GO:0008333'
p5896
I01
sS'GO:0006906'
p5897
I01
sS'GO:0016192'
p5898
I01
stbsS'16963635'
p5899
g3
(g4
g5
NtRp5900
((dp5901
S'GO:0031158'
p5902
I01
sS'GO:0003993'
p5903
I01
stbsS'11854403'
p5904
g3
(g4
g5
NtRp5905
((dp5906
S'GO:0035194'
p5907
I01
sS'GO:0010586'
p5908
I01
sS'GO:0070918'
p5909
I01
stbsS'8710499'
p5910
g3
(g4
g5
NtRp5911
((dp5912
S'GO:0005634'
p5913
I01
sS'GO:0003684'
p5914
I01
sS'GO:0006289'
p5915
I01
stbsS'7744252'
p5916
g3
(g4
g5
NtRp5917
((dp5918
S'GO:0042626'
p5919
I01
sS'GO:0030154'
p5920
I01
sS'GO:0016021'
p5921
I01
sS'GO:0006810'
p5922
I01
sS'GO:0045595'
p5923
I01
sS'GO:0006508'
p5924
I01
sS'GO:0007275'
p5925
I01
sS'GO:0008236'
p5926
I01
stbsS'21086149'
p5927
g3
(g4
g5
NtRp5928
((dp5929
S'GO:0000331'
p5930
I01
sS'GO:0031589'
p5931
I01
sS'GO:0016337'
p5932
I01
sS'GO:0031143'
p5933
I01
sS'GO:0060151'
p5934
I01
sS'GO:0071476'
p5935
I01
sS'GO:0045335'
p5936
I01
sS'GO:0005741'
p5937
I01
sS'GO:0016049'
p5938
I01
sS'GO:0005886'
p5939
I01
sS'GO:0006909'
p5940
I01
stbsS'6667031'
p5941
g3
(g4
g5
NtRp5942
((dp5943
S'GO:0051343'
p5944
I01
sS'GO:0005509'
p5945
I01
sS'GO:0031013'
p5946
I01
stbsS'18266910'
p5947
g3
(g4
g5
NtRp5948
((dp5949
S'GO:0006997'
p5950
I01
sS'GO:0000070'
p5951
I01
sS'GO:0005637'
p5952
I01
sS'GO:0005635'
p5953
I01
sS'GO:0005654'
p5954
I01
sS'GO:0003677'
p5955
I01
sS'GO:0003682'
p5956
I01
sS'GO:0051642'
p5957
I01
sS'GO:0042803'
p5958
I01
stbsS'8950185'
p5959
g3
(g4
g5
NtRp5960
((dp5961
S'GO:0005737'
p5962
I01
sS'GO:0005971'
p5963
I01
sS'GO:0005634'
p5964
I01
sS'GO:0006260'
p5965
I01
sS'GO:0004748'
p5966
I01
stbsS'11990506'
p5967
g3
(g4
g5
NtRp5968
((dp5969
S'GO:0030141'
p5970
I01
stbsS'18990192'
p5971
g3
(g4
g5
NtRp5972
((dp5973
S'GO:0006979'
p5974
I01
stbsS'17940044'
p5975
g3
(g4
g5
NtRp5976
((dp5977
S'GO:0016020'
p5978
I01
sS'GO:0007109'
p5979
I01
sS'GO:0008976'
p5980
I01
sS'GO:0006799'
p5981
I01
sS'GO:0031982'
p5982
I01
stbsS'11831389'
p5983
g3
(g4
g5
NtRp5984
((dp5985
S'GO:0005770'
p5986
I01
stbsS'22647904'
p5987
g3
(g4
g5
NtRp5988
((dp5989
S'GO:0050766'
p5990
I01
sS'GO:0005783'
p5991
I01
sS'GO:0016021'
p5992
I01
sS'GO:0005777'
p5993
I01
sS'GO:0004467'
p5994
I01
sS'GO:0001676'
p5995
I01
stbsS'10421841'
p5996
g3
(g4
g5
NtRp5997
((dp5998
S'GO:0006972'
p5999
I01
stbsS'10974109'
p6000
g3
(g4
g5
NtRp6001
((dp6002
S'GO:0030587'
p6003
I01
sS'GO:0030149'
p6004
I01
sS'GO:0008117'
p6005
I01
sS'GO:0007275'
p6006
I01
sS'GO:0006672'
p6007
I01
stbsS'8898200'
p6008
g3
(g4
g5
NtRp6009
((dp6010
S'GO:0003700'
p6011
I01
sS'GO:0006355'
p6012
I01
sS'GO:0005634'
p6013
I01
sS'GO:0045595'
p6014
I01
stbsS'11493573'
p6015
g3
(g4
g5
NtRp6016
((dp6017
S'GO:0030435'
p6018
I01
sS'GO:0005634'
p6019
I01
sS'GO:0006351'
p6020
I01
sS'GO:0007275'
p6021
I01
stbsS'14736886'
p6022
g3
(g4
g5
NtRp6023
((dp6024
S'GO:0005737'
p6025
I01
sS'GO:0004674'
p6026
I01
sS'GO:0006995'
p6027
I01
sS'GO:0030587'
p6028
I01
sS'GO:0016236'
p6029
I01
sS'GO:0031288'
p6030
I01
sS'GO:0005776'
p6031
I01
sS'GO:0030435'
p6032
I01
stbsS'15511086'
p6033
g3
(g4
g5
NtRp6034
((dp6035
S'GO:0005739'
p6036
I01
stbsS'8226777'
p6037
g3
(g4
g5
NtRp6038
((dp6039
S'GO:0006470'
p6040
I01
sS'GO:0004725'
p6041
I01
sS'GO:0016791'
p6042
I01
sS'GO:0031152'
p6043
I01
sS'GO:0035335'
p6044
I01
stbsS'6746725'
p6045
g3
(g4
g5
NtRp6046
((dp6047
S'GO:0030674'
p6048
I01
sS'GO:0005200'
p6049
I01
sS'GO:0051017'
p6050
I01
sS'GO:0005884'
p6051
I01
sS'GO:0051015'
p6052
I01
stbsS'17448496'
p6053
g3
(g4
g5
NtRp6054
((dp6055
S'GO:0006139'
p6056
I01
sS'GO:0004138'
p6057
I01
sS'GO:0004136'
p6058
I01
sS'GO:0004797'
p6059
I01
sS'GO:0006170'
p6060
I01
sS'GO:0006180'
p6061
I01
stbsS'11973270'
p6062
g3
(g4
g5
NtRp6063
((dp6064
S'GO:0007389'
p6065
I01
sS'GO:0016477'
p6066
I01
stbsS'19765570'
p6067
g3
(g4
g5
NtRp6068
((dp6069
S'GO:0005515'
p6070
I01
stbsS'16527408'
p6071
g3
(g4
g5
NtRp6072
((dp6073
S'GO:0006729'
p6074
I01
sS'GO:0003934'
p6075
I01
stbsS'9732292'
p6076
g3
(g4
g5
NtRp6077
((dp6078
S'GO:0008064'
p6079
I01
sS'GO:0031288'
p6080
I01
sS'GO:0016049'
p6081
I01
sS'GO:0031269'
p6082
I01
stbsS'11689442'
p6083
g3
(g4
g5
NtRp6084
((dp6085
S'GO:0019992'
p6086
I01
sS'GO:0005634'
p6087
I01
sS'GO:0016307'
p6088
I01
sS'GO:0031152'
p6089
I01
sS'GO:0046854'
p6090
I01
stbsS'12890554'
p6091
g3
(g4
g5
NtRp6092
((dp6093
S'GO:0031410'
p6094
I01
sS'GO:0016021'
p6095
I01
sS'GO:0030246'
p6096
I01
sS'GO:0051015'
p6097
I01
sS'GO:0005886'
p6098
I01
stbsS'9480045'
p6099
g3
(g4
g5
NtRp6100
((dp6101
S'GO:0043052'
p6102
I01
sS'GO:0042331'
p6103
I01
stbsS'6191197'
p6104
g3
(g4
g5
NtRp6105
((dp6106
S'GO:0009897'
p6107
I01
sS'GO:0016337'
p6108
I01
stbsS'15548420'
p6109
g3
(g4
g5
NtRp6110
((dp6111
S'GO:0005813'
p6112
I01
stbsS'3027076'
p6113
g3
(g4
g5
NtRp6114
((dp6115
S'GO:0031037'
p6116
I01
sS'GO:0006468'
p6117
I01
sS'GO:0016905'
p6118
I01
stbsS'22035794'
p6119
g3
(g4
g5
NtRp6120
((dp6121
S'GO:0016740'
p6122
I01
stbsS'16644729'
p6123
g3
(g4
g5
NtRp6124
((dp6125
S'GO:0004115'
p6126
I01
sS'GO:0030587'
p6127
I01
sS'GO:0006198'
p6128
I01
sS'GO:0005886'
p6129
I01
stbsS'18948008'
p6130
g3
(g4
g5
NtRp6131
((dp6132
S'GO:0005099'
p6133
I01
sS'GO:0046578'
p6134
I01
sS'GO:0005622'
p6135
I01
sS'GO:0030833'
p6136
I01
sS'GO:0050920'
p6137
I01
sS'GO:0051896'
p6138
I01
stbsS'17391056'
p6139
g3
(g4
g5
NtRp6140
((dp6141
S'GO:0005737'
p6142
I01
sS'GO:0005813'
p6143
I01
sS'GO:0005634'
p6144
I01
sS'GO:0003723'
p6145
I01
sS'GO:0003677'
p6146
I01
stbsS'23938384'
p6147
g3
(g4
g5
NtRp6148
((dp6149
S'GO:0033298'
p6150
I01
sS'GO:0006970'
p6151
I01
sS'GO:0031164'
p6152
I01
sS'GO:0005515'
p6153
I01
stbsS'18077554'
p6154
g3
(g4
g5
NtRp6155
((dp6156
S'GO:0048102'
p6157
I01
sS'GO:0030244'
p6158
I01
stbsS'11163223'
p6159
g3
(g4
g5
NtRp6160
((dp6161
S'GO:0031148'
p6162
I01
sS'GO:0008757'
p6163
I01
sS'GO:0031154'
p6164
I01
sS'GO:0030435'
p6165
I01
sS'GO:0045595'
p6166
I01
sS'GO:0008171'
p6167
I01
stbsS'12626710'
p6168
g3
(g4
g5
NtRp6169
((dp6170
S'GO:0008270'
p6171
I01
sS'GO:0006208'
p6172
I01
sS'GO:0004157'
p6173
I01
stbsS'1493336'
p6174
g3
(g4
g5
NtRp6175
((dp6176
S'GO:0000281'
p6177
I01
stbsS'12952082'
p6178
g3
(g4
g5
NtRp6179
((dp6180
S'GO:0009408'
p6181
I01
sS'GO:0031288'
p6182
I01
sS'GO:0005739'
p6183
I01
stbsS'1730409'
p6184
g3
(g4
g5
NtRp6185
((dp6186
S'GO:0030435'
p6187
I01
stbsS'9486804'
p6188
g3
(g4
g5
NtRp6189
((dp6190
S'GO:0045595'
p6191
I01
sS'GO:0009653'
p6192
I01
stbsS'17923679'
p6193
g3
(g4
g5
NtRp6194
((dp6195
S'GO:0005634'
p6196
I01
sS'GO:0000126'
p6197
I01
sS'GO:0006383'
p6198
I01
stbsS'23333327'
p6199
g3
(g4
g5
NtRp6200
((dp6201
S'GO:0035371'
p6202
I01
sS'GO:0007067'
p6203
I01
sS'GO:0005876'
p6204
I01
sS'GO:0003777'
p6205
I01
stbsS'16982629'
p6206
g3
(g4
g5
NtRp6207
((dp6208
S'GO:0030898'
p6209
I01
sS'GO:0051015'
p6210
I01
sS'GO:0000146'
p6211
I01
sS'GO:0005524'
p6212
I01
stbsS'11481037'
p6213
g3
(g4
g5
NtRp6214
((dp6215
S'GO:0005737'
p6216
I01
sS'GO:0016020'
p6217
I01
sS'GO:0005509'
p6218
I01
stbsS'6707016'
p6219
g3
(g4
g5
NtRp6220
((dp6221
S'GO:0051764'
p6222
I01
sS'GO:0051017'
p6223
I01
sS'GO:0051015'
p6224
I01
sS'GO:0005515'
p6225
I01
stbsS'16400165'
p6226
g3
(g4
g5
NtRp6227
((dp6228
S'GO:0031154'
p6229
I01
sS'GO:0003886'
p6230
I01
sS'GO:0032776'
p6231
I01
sS'GO:0090116'
p6232
I01
sS'GO:0030435'
p6233
I01
stbsS'15084313'
p6234
g3
(g4
g5
NtRp6235
((dp6236
S'GO:0005739'
p6237
I01
sS'GO:0006281'
p6238
I01
stbsS'15821129'
p6239
g3
(g4
g5
NtRp6240
((dp6241
S'GO:0004630'
p6242
I01
sS'GO:0007275'
p6243
I01
stbsS'18089562'
p6244
g3
(g4
g5
NtRp6245
((dp6246
S'GO:0000146'
p6247
I01
sS'GO:0033275'
p6248
I01
sS'GO:0030898'
p6249
I01
sS'GO:0016461'
p6250
I01
sS'GO:0051015'
p6251
I01
sS'GO:0005524'
p6252
I01
sS'GO:0042641'
p6253
I01
stbsS'18522444'
p6254
g3
(g4
g5
NtRp6255
((dp6256
S'GO:0007016'
p6257
I01
sS'GO:0016021'
p6258
I01
sS'GO:0051015'
p6259
I01
sS'GO:0043495'
p6260
I01
stbsS'12211111'
p6261
g3
(g4
g5
NtRp6262
((dp6263
S'GO:0007015'
p6264
I01
sS'GO:0006928'
p6265
I01
stbsS'21562226'
p6266
g3
(g4
g5
NtRp6267
((dp6268
S'GO:0005737'
p6269
I01
sS'GO:0007109'
p6270
I01
sS'GO:0004722'
p6271
I01
sS'GO:0060176'
p6272
I01
sS'GO:0043520'
p6273
I01
sS'GO:0043327'
p6274
I01
sS'GO:0034047'
p6275
I01
stbsS'9102307'
p6276
g3
(g4
g5
NtRp6277
((dp6278
S'GO:0031154'
p6279
I01
sS'GO:0040011'
p6280
I01
sS'GO:0017124'
p6281
I01
sS'GO:0031152'
p6282
I01
sS'GO:0042803'
p6283
I01
stbsS'19285397'
p6284
g3
(g4
g5
NtRp6285
((dp6286
S'GO:0016337'
p6287
I01
sS'GO:0009988'
p6288
I01
stbsS'22849378'
p6289
g3
(g4
g5
NtRp6290
((dp6291
S'GO:0042493'
p6292
I01
sS'GO:0005777'
p6293
I01
stbsS'22050483'
p6294
g3
(g4
g5
NtRp6295
((dp6296
S'GO:0005515'
p6297
I01
stbsS'10102987'
p6298
g3
(g4
g5
NtRp6299
((dp6300
S'GO:0004693'
p6301
I01
sS'GO:0006468'
p6302
I01
sS'GO:0005515'
p6303
I01
sS'GO:0005622'
p6304
I01
stbsS'17177855'
p6305
g3
(g4
g5
NtRp6306
((dp6307
S'GO:0031589'
p6308
I01
sS'GO:0016337'
p6309
I01
stbsS'16906151'
p6310
g3
(g4
g5
NtRp6311
((dp6312
S'GO:0031148'
p6313
I01
sS'GO:0030639'
p6314
I01
sS'GO:0005622'
p6315
I01
stbsS'10652263'
p6316
g3
(g4
g5
NtRp6317
((dp6318
S'GO:0042127'
p6319
I01
sS'GO:0051271'
p6320
I01
sS'GO:0006907'
p6321
I01
sS'GO:0030866'
p6322
I01
sS'GO:0006928'
p6323
I01
sS'GO:0045807'
p6324
I01
stbsS'17660362'
p6325
g3
(g4
g5
NtRp6326
((dp6327
S'GO:0043950'
p6328
I01
sS'GO:0031159'
p6329
I01
sS'GO:0031982'
p6330
I01
stbsS'20580724'
p6331
g3
(g4
g5
NtRp6332
((dp6333
S'GO:0070492'
p6334
I01
stbsS'15740615'
p6335
g3
(g4
g5
NtRp6336
((dp6337
S'GO:0005522'
p6338
I01
stbsS'17177856'
p6339
g3
(g4
g5
NtRp6340
((dp6341
S'GO:0031154'
p6342
I01
sS'GO:0030435'
p6343
I01
sS'GO:0016338'
p6344
I01
sS'GO:0031152'
p6345
I01
sS'GO:0045165'
p6346
I01
stbsS'23301051'
p6347
g3
(g4
g5
NtRp6348
((dp6349
S'GO:0050821'
p6350
I01
sS'GO:0061462'
p6351
I01
sS'GO:0072657'
p6352
I01
sS'GO:0007042'
p6353
I01
stbsS'12456012'
p6354
g3
(g4
g5
NtRp6355
((dp6356
S'GO:0043190'
p6357
I01
sS'GO:0042626'
p6358
I01
sS'GO:0016020'
p6359
I01
sS'GO:0006448'
p6360
I01
sS'GO:0005829'
p6361
I01
sS'GO:0005215'
p6362
I01
sS'GO:0016021'
p6363
I01
sS'GO:0006810'
p6364
I01
sS'GO:0005779'
p6365
I01
sS'GO:0005739'
p6366
I01
sS'GO:0019898'
p6367
I01
sS'GO:0015910'
p6368
I01
sS'GO:0005887'
p6369
I01
sS'GO:0006508'
p6370
I01
sS'GO:0015446'
p6371
I01
sS'GO:0005524'
p6372
I01
sS'GO:0008236'
p6373
I01
stbsS'21256841'
p6374
g3
(g4
g5
NtRp6375
((dp6376
S'GO:0000421'
p6377
I01
sS'GO:0005774'
p6378
I01
stbsS'16234315'
p6379
g3
(g4
g5
NtRp6380
((dp6381
S'GO:0006935'
p6382
I01
stbsS'23548898'
p6383
g3
(g4
g5
NtRp6384
((dp6385
S'GO:0005829'
p6386
I01
sS'GO:0005739'
p6387
I01
sS'GO:0016917'
p6388
I01
sS'GO:0005765'
p6389
I01
sS'GO:0031152'
p6390
I01
sS'GO:0005886'
p6391
I01
stbsS'11157987'
p6392
g3
(g4
g5
NtRp6393
((dp6394
S'GO:0006909'
p6395
I01
sS'GO:0005739'
p6396
I01
sS'GO:0043327'
p6397
I01
sS'GO:0031152'
p6398
I01
sS'GO:0016477'
p6399
I01
sS'GO:0031319'
p6400
I01
stbsS'23787121'
p6401
g3
(g4
g5
NtRp6402
((dp6403
S'GO:0007059'
p6404
I01
sS'GO:0072686'
p6405
I01
sS'GO:0000281'
p6406
I01
sS'GO:0051231'
p6407
I01
stbsS'14623897'
p6408
g3
(g4
g5
NtRp6409
((dp6410
S'GO:0005737'
p6411
I01
sS'GO:0008017'
p6412
I01
sS'GO:0051017'
p6413
I01
sS'GO:0031252'
p6414
I01
sS'GO:0051015'
p6415
I01
sS'GO:0030864'
p6416
I01
stbsS'24240571'
p6417
g3
(g4
g5
NtRp6418
((dp6419
S'GO:0016162'
p6420
I01
sS'GO:0031154'
p6421
I01
sS'GO:0030248'
p6422
I01
stbsS'11106661'
p6423
g3
(g4
g5
NtRp6424
((dp6425
S'GO:0045159'
p6426
I01
sS'GO:0005515'
p6427
I01
sS'GO:0046777'
p6428
I01
stbsS'11278493'
p6429
g3
(g4
g5
NtRp6430
((dp6431
S'GO:0004674'
p6432
I01
sS'GO:0005524'
p6433
I01
sS'GO:0018107'
p6434
I01
stbsS'23132928'
p6435
g3
(g4
g5
NtRp6436
((dp6437
S'GO:0045184'
p6438
I01
sS'GO:0043552'
p6439
I01
sS'GO:0031143'
p6440
I01
sS'GO:0005829'
p6441
I01
sS'GO:0003924'
p6442
I01
sS'GO:0044354'
p6443
I01
sS'GO:0043326'
p6444
I01
sS'GO:0005886'
p6445
I01
sS'GO:0007265'
p6446
I01
stbsS'23351158'
p6447
g3
(g4
g5
NtRp6448
((dp6449
S'GO:0042803'
p6450
I01
stbsS'22869547'
p6451
g3
(g4
g5
NtRp6452
((dp6453
S'GO:0031152'
p6454
I01
sS'GO:0008283'
p6455
I01
stbsS'11257435'
p6456
g3
(g4
g5
NtRp6457
((dp6458
S'GO:0031143'
p6459
I01
sS'GO:0031252'
p6460
I01
stbsS'2921242'
p6461
g3
(g4
g5
NtRp6462
((dp6463
S'GO:0042744'
p6464
I01
sS'GO:0006979'
p6465
I01
sS'GO:0004096'
p6466
I01
stbsS'11257439'
p6467
g3
(g4
g5
NtRp6468
((dp6469
S'GO:0007265'
p6470
I01
sS'GO:0005525'
p6471
I01
sS'GO:0003924'
p6472
I01
sS'GO:0005622'
p6473
I01
stbsS'20406883'
p6474
g3
(g4
g5
NtRp6475
((dp6476
S'GO:0043052'
p6477
I01
sS'GO:0042331'
p6478
I01
sS'GO:0005739'
p6479
I01
sS'GO:0005515'
p6480
I01
sS'GO:0032981'
p6481
I01
stbsS'8901579'
p6482
g3
(g4
g5
NtRp6483
((dp6484
S'GO:0000281'
p6485
I01
stbsS'14593072'
p6486
g3
(g4
g5
NtRp6487
((dp6488
S'GO:0005737'
p6489
I01
sS'GO:0015629'
p6490
I01
sS'GO:0050793'
p6491
I01
sS'GO:0000281'
p6492
I01
sS'GO:0030036'
p6493
I01
sS'GO:0006970'
p6494
I01
sS'GO:0004672'
p6495
I01
sS'GO:0006935'
p6496
I01
stbsS'17971415'
p6497
g3
(g4
g5
NtRp6498
((dp6499
S'GO:0005737'
p6500
I01
sS'GO:0042244'
p6501
I01
sS'GO:0009847'
p6502
I01
sS'GO:0005886'
p6503
I01
sS'GO:0030118'
p6504
I01
sS'GO:0035304'
p6505
I01
sS'GO:0030136'
p6506
I01
stbsS'15769592'
p6507
g3
(g4
g5
NtRp6508
((dp6509
S'GO:0005509'
p6510
I01
stbsS'17517120'
p6511
g3
(g4
g5
NtRp6512
((dp6513
S'GO:0006972'
p6514
I01
stbsS'12186953'
p6515
g3
(g4
g5
NtRp6516
((dp6517
S'GO:0031284'
p6518
I01
sS'GO:0017160'
p6519
I01
sS'GO:0046578'
p6520
I01
sS'GO:0031289'
p6521
I01
sS'GO:0005623'
p6522
I01
sS'GO:0006972'
p6523
I01
sS'GO:0009409'
p6524
I01
sS'GO:0005525'
p6525
I01
stbsS'7954798'
p6526
g3
(g4
g5
NtRp6527
((dp6528
S'GO:0030587'
p6529
I01
sS'GO:0030837'
p6530
I01
sS'GO:0000281'
p6531
I01
sS'GO:0006928'
p6532
I01
stbsS'21134080'
p6533
g3
(g4
g5
NtRp6534
((dp6535
S'GO:0072686'
p6536
I01
sS'GO:0005813'
p6537
I01
sS'GO:0044351'
p6538
I01
sS'GO:0005515'
p6539
I01
sS'GO:0031410'
p6540
I01
sS'GO:0060100'
p6541
I01
sS'GO:0048471'
p6542
I01
stbsS'9836437'
p6543
g3
(g4
g5
NtRp6544
((dp6545
S'GO:0003735'
p6546
I01
sS'GO:0005840'
p6547
I01
sS'GO:0006412'
p6548
I01
stbsS'23686520'
p6549
g3
(g4
g5
NtRp6550
((dp6551
S'GO:0043157'
p6552
I01
sS'GO:0031156'
p6553
I01
stbsS'18657170'
p6554
g3
(g4
g5
NtRp6555
((dp6556
S'GO:0006468'
p6557
I01
sS'GO:0031156'
p6558
I01
sS'GO:0004672'
p6559
I01
stbsS'15073273'
p6560
g3
(g4
g5
NtRp6561
((dp6562
S'GO:0051219'
p6563
I01
sS'GO:0003723'
p6564
I01
sS'GO:0006352'
p6565
I01
sS'GO:0003677'
p6566
I01
stbsS'2914932'
p6567
g3
(g4
g5
NtRp6568
((dp6569
S'GO:0015629'
p6570
I01
sS'GO:0005829'
p6571
I01
sS'GO:0051015'
p6572
I01
sS'GO:0003785'
p6573
I01
sS'GO:0005886'
p6574
I01
sS'GO:0030041'
p6575
I01
stbsS'16495485'
p6576
g3
(g4
g5
NtRp6577
((dp6578
S'GO:0005789'
p6579
I01
stbsS'21179207'
p6580
g3
(g4
g5
NtRp6581
((dp6582
S'GO:0005794'
p6583
I01
sS'GO:0005829'
p6584
I01
sS'GO:0045335'
p6585
I01
sS'GO:0044354'
p6586
I01
sS'GO:0005886'
p6587
I01
stbsS'23213391'
p6588
g3
(g4
g5
NtRp6589
((dp6590
S'GO:0007067'
p6591
I01
stbsS'16112620'
p6592
g3
(g4
g5
NtRp6593
((dp6594
S'GO:0006310'
p6595
I01
sS'GO:0006468'
p6596
I01
sS'GO:0006303'
p6597
I01
sS'GO:0006302'
p6598
I01
sS'GO:0000012'
p6599
I01
sS'GO:0004003'
p6600
I01
sS'GO:0005634'
p6601
I01
sS'GO:0004672'
p6602
I01
sS'GO:0008408'
p6603
I01
sS'GO:0006289'
p6604
I01
sS'GO:0006974'
p6605
I01
sS'GO:0006266'
p6606
I01
sS'GO:0005958'
p6607
I01
sS'GO:0003910'
p6608
I01
sS'GO:0003677'
p6609
I01
sS'GO:0003690'
p6610
I01
sS'GO:0005524'
p6611
I01
sS'GO:0045893'
p6612
I01
stbsS'11264536'
p6613
g3
(g4
g5
NtRp6614
((dp6615
S'GO:0005834'
p6616
I01
sS'GO:0001664'
p6617
I01
sS'GO:0008277'
p6618
I01
sS'GO:0005829'
p6619
I01
sS'GO:0005886'
p6620
I01
stbsS'15351882'
p6621
g3
(g4
g5
NtRp6622
((dp6623
S'GO:0006470'
p6624
I01
sS'GO:0004725'
p6625
I01
sS'GO:0035335'
p6626
I01
stbsS'23473502'
p6627
g3
(g4
g5
NtRp6628
((dp6629
S'GO:0010629'
p6630
I01
sS'GO:0010628'
p6631
I01
stbsS'2060029'
p6632
g3
(g4
g5
NtRp6633
((dp6634
S'GO:0051015'
p6635
I01
stbsS'9813063'
p6636
g3
(g4
g5
NtRp6637
((dp6638
S'GO:0004630'
p6639
I01
sS'GO:0016021'
p6640
I01
sS'GO:0016042'
p6641
I01
stbsS'12429831'
p6642
g3
(g4
g5
NtRp6643
((dp6644
S'GO:0047555'
p6645
I01
sS'GO:0005829'
p6646
I01
sS'GO:0007165'
p6647
I01
stbsS'22884799'
p6648
g3
(g4
g5
NtRp6649
((dp6650
S'GO:0008285'
p6651
I01
sS'GO:0061122'
p6652
I01
stbsS'16138906'
p6653
g3
(g4
g5
NtRp6654
((dp6655
S'GO:0005737'
p6656
I01
sS'GO:0005515'
p6657
I01
sS'GO:0016020'
p6658
I01
sS'GO:0005774'
p6659
I01
sS'GO:0005938'
p6660
I01
sS'GO:0012506'
p6661
I01
stbsS'10837033'
p6662
g3
(g4
g5
NtRp6663
((dp6664
S'GO:0043052'
p6665
I01
sS'GO:0042331'
p6666
I01
stbsS'24132237'
p6667
g3
(g4
g5
NtRp6668
((dp6669
S'GO:0030336'
p6670
I01
sS'GO:0016477'
p6671
I01
sS'GO:0033058'
p6672
I01
stbsS'16469305'
p6673
g3
(g4
g5
NtRp6674
((dp6675
S'GO:0005634'
p6676
I01
sS'GO:0040029'
p6677
I01
sS'GO:0016571'
p6678
I01
sS'GO:0031152'
p6679
I01
sS'GO:0051568'
p6680
I01
sS'GO:0042800'
p6681
I01
stbsS'15640146'
p6682
g3
(g4
g5
NtRp6683
((dp6684
S'GO:0031983'
p6685
I01
sS'GO:0016023'
p6686
I01
sS'GO:0031410'
p6687
I01
sS'GO:0003796'
p6688
I01
sS'GO:0050830'
p6689
I01
sS'GO:0009253'
p6690
I01
sS'GO:0006909'
p6691
I01
stbsS'23369714'
p6692
g3
(g4
g5
NtRp6693
((dp6694
S'GO:0005515'
p6695
I01
sS'GO:0061474'
p6696
I01
sS'GO:0006887'
p6697
I01
sS'GO:0061462'
p6698
I01
sS'GO:0044655'
p6699
I01
sS'GO:0030041'
p6700
I01
sS'GO:0071203'
p6701
I01
stbsS'6299402'
p6702
g3
(g4
g5
NtRp6703
((dp6704
S'GO:0030552'
p6705
I01
sS'GO:0004013'
p6706
I01
stbsS'10681463'
p6707
g3
(g4
g5
NtRp6708
((dp6709
S'GO:0031150'
p6710
I01
sS'GO:0016760'
p6711
I01
sS'GO:0030244'
p6712
I01
stbsS'15705570'
p6713
g3
(g4
g5
NtRp6714
((dp6715
S'GO:0005737'
p6716
I01
sS'GO:0018401'
p6717
I01
sS'GO:0031545'
p6718
I01
stbsS'16926192'
p6719
g3
(g4
g5
NtRp6720
((dp6721
S'GO:0032060'
p6722
I01
sS'GO:0006935'
p6723
I01
stbsS'22572958'
p6724
g3
(g4
g5
NtRp6725
((dp6726
S'GO:0034504'
p6727
I01
sS'GO:0006998'
p6728
I01
stbsS'14595117'
p6729
g3
(g4
g5
NtRp6730
((dp6731
S'GO:0007015'
p6732
I01
sS'GO:0005634'
p6733
I01
sS'GO:0005938'
p6734
I01
sS'GO:0000281'
p6735
I01
sS'GO:0005516'
p6736
I01
stbsS'17050732'
p6737
g3
(g4
g5
NtRp6738
((dp6739
S'GO:0031589'
p6740
I01
sS'GO:0000281'
p6741
I01
sS'GO:0000916'
p6742
I01
sS'GO:0005938'
p6743
I01
stbsS'18339368'
p6744
g3
(g4
g5
NtRp6745
((dp6746
S'GO:0003700'
p6747
I01
sS'GO:0006355'
p6748
I01
sS'GO:0043565'
p6749
I01
sS'GO:0019933'
p6750
I01
stbsS'20057961'
p6751
g3
(g4
g5
NtRp6752
((dp6753
S'GO:0000902'
p6754
I01
sS'GO:0031268'
p6755
I01
stbsS'23724097'
p6756
g3
(g4
g5
NtRp6757
((dp6758
S'GO:0030422'
p6759
I01
sS'GO:0036453'
p6760
I01
stbsS'9421912'
p6761
g3
(g4
g5
NtRp6762
((dp6763
S'GO:0016020'
p6764
I01
sS'GO:0008553'
p6765
I01
sS'GO:0015992'
p6766
I01
sS'GO:0016887'
p6767
I01
sS'GO:0005524'
p6768
I01
stbsS'17189480'
p6769
g3
(g4
g5
NtRp6770
((dp6771
S'GO:0043621'
p6772
I01
stbsS'23269477'
p6773
g3
(g4
g5
NtRp6774
((dp6775
S'GO:0030170'
p6776
I01
stbsS'21552328'
p6777
g3
(g4
g5
NtRp6778
((dp6779
S'GO:0072507'
p6780
I01
sS'GO:0016339'
p6781
I01
sS'GO:0030154'
p6782
I01
sS'GO:0060176'
p6783
I01
sS'GO:0031156'
p6784
I01
sS'GO:0006971'
p6785
I01
stbsS'16003496'
p6786
g3
(g4
g5
NtRp6787
((dp6788
S'GO:0043234'
p6789
I01
sS'GO:0006338'
p6790
I01
sS'GO:0005829'
p6791
I01
sS'GO:0006355'
p6792
I01
sS'GO:0016570'
p6793
I01
sS'GO:0031152'
p6794
I01
sS'GO:0003677'
p6795
I01
sS'GO:0005634'
p6796
I01
stbsS'8567716'
p6797
g3
(g4
g5
NtRp6798
((dp6799
S'GO:0031037'
p6800
I01
stbsS'12220630'
p6801
g3
(g4
g5
NtRp6802
((dp6803
S'GO:0031154'
p6804
I01
sS'GO:0048471'
p6805
I01
sS'GO:0071944'
p6806
I01
sS'GO:0008202'
p6807
I01
sS'GO:0005515'
p6808
I01
stbsS'18840649'
p6809
g3
(g4
g5
NtRp6810
((dp6811
S'GO:0005829'
p6812
I01
sS'GO:0035556'
p6813
I01
sS'GO:0030587'
p6814
I01
stbsS'14617352'
p6815
g3
(g4
g5
NtRp6816
((dp6817
S'GO:0009992'
p6818
I01
sS'GO:0006897'
p6819
I01
sS'GO:0006869'
p6820
I01
sS'GO:0006886'
p6821
I01
sS'GO:0000281'
p6822
I01
sS'GO:0031154'
p6823
I01
sS'GO:0048268'
p6824
I01
sS'GO:0006970'
p6825
I01
sS'GO:0006907'
p6826
I01
sS'GO:0030125'
p6827
I01
stbsS'11713866'
p6828
g3
(g4
g5
NtRp6829
((dp6830
S'GO:0005813'
p6831
I01
sS'GO:0005634'
p6832
I01
stbsS'23320427'
p6833
g3
(g4
g5
NtRp6834
((dp6835
S'GO:0006488'
p6836
I01
stbsS'7729526'
p6837
g3
(g4
g5
NtRp6838
((dp6839
S'GO:0005509'
p6840
I01
stbsS'8898241'
p6841
g3
(g4
g5
NtRp6842
((dp6843
S'GO:0030435'
p6844
I01
sS'GO:0009653'
p6845
I01
sS'GO:0004712'
p6846
I01
stbsS'12385972'
p6847
g3
(g4
g5
NtRp6848
((dp6849
S'GO:0007275'
p6850
I01
stbsS'10771103'
p6851
g3
(g4
g5
NtRp6852
((dp6853
S'GO:0005509'
p6854
I01
sS'GO:0005515'
p6855
I01
stbsS'10329620'
p6856
g3
(g4
g5
NtRp6857
((dp6858
S'GO:0009966'
p6859
I01
sS'GO:0006508'
p6860
I01
sS'GO:0005829'
p6861
I01
sS'GO:0070012'
p6862
I01
stbsS'21190565'
p6863
g3
(g4
g5
NtRp6864
((dp6865
S'GO:0006887'
p6866
I01
sS'GO:0006909'
p6867
I01
sS'GO:0030670'
p6868
I01
sS'GO:0001891'
p6869
I01
stbsS'14629118'
p6870
g3
(g4
g5
NtRp6871
((dp6872
S'GO:0005737'
p6873
I01
sS'GO:0006631'
p6874
I01
sS'GO:0004467'
p6875
I01
sS'GO:0001676'
p6876
I01
sS'GO:0005769'
p6877
I01
sS'GO:0010009'
p6878
I01
stbsS'16790492'
p6879
g3
(g4
g5
NtRp6880
((dp6881
S'GO:0031033'
p6882
I01
sS'GO:0015629'
p6883
I01
sS'GO:0004383'
p6884
I01
sS'GO:0031252'
p6885
I01
sS'GO:0006182'
p6886
I01
sS'GO:0006935'
p6887
I01
stbsS'12506009'
p6888
g3
(g4
g5
NtRp6889
((dp6890
S'GO:0005634'
p6891
I01
stbsS'17562315'
p6892
g3
(g4
g5
NtRp6893
((dp6894
S'GO:0008609'
p6895
I01
sS'GO:0050660'
p6896
I01
sS'GO:0043178'
p6897
I01
stbsS'16900100'
p6898
g3
(g4
g5
NtRp6899
((dp6900
S'GO:0005925'
p6901
I01
sS'GO:0031254'
p6902
I01
stbsS'15606490'
p6903
g3
(g4
g5
NtRp6904
((dp6905
S'GO:0005509'
p6906
I01
sS'GO:0030587'
p6907
I01
stbsS'16899077'
p6908
g3
(g4
g5
NtRp6909
((dp6910
S'GO:0031154'
p6911
I01
sS'GO:0045454'
p6912
I01
sS'GO:0006909'
p6913
I01
sS'GO:0004791'
p6914
I01
stbsS'16343335'
p6915
g3
(g4
g5
NtRp6916
((dp6917
S'GO:0030670'
p6918
I01
sS'GO:0005829'
p6919
I01
sS'GO:0005544'
p6920
I01
sS'GO:0031164'
p6921
I01
sS'GO:0005886'
p6922
I01
sS'GO:0031902'
p6923
I01
sS'GO:0031901'
p6924
I01
stbsS'16781009'
p6925
g3
(g4
g5
NtRp6926
((dp6927
S'GO:0051764'
p6928
I01
sS'GO:0005770'
p6929
I01
sS'GO:0006887'
p6930
I01
sS'GO:0005938'
p6931
I01
sS'GO:0051015'
p6932
I01
stbs.