(dp1
S'22311068'
p2
ccopy_reg
_reconstructor
p3
(csets
Set
p4
c__builtin__
object
p5
NtRp6
((dp7
S'Q54HH2'
p8
I01
stbsS'16842885'
p9
g3
(g4
g5
NtRp10
((dp11
S'O61125'
p12
I01
stbsS'10930471'
p13
g3
(g4
g5
NtRp14
((dp15
S'Q23917'
p16
I01
stbsS'15910751'
p17
g3
(g4
g5
NtRp18
((dp19
S'P08799'
p20
I01
stbsS'21193547'
p21
g3
(g4
g5
NtRp22
((dp23
S'Q550K3'
p24
I01
sS'Q54CS2'
p25
I01
sS'B0M0P5'
p26
I01
stbsS'15366765'
p27
g3
(g4
g5
NtRp28
((dp29
S'Q54I71'
p30
I01
sS'P51136'
p31
I01
sS'Q55CT4'
p32
I01
sS'P54657'
p33
I01
sS'P08796'
p34
I01
sS'P54661'
p35
I01
stbsS'9578623'
p36
g3
(g4
g5
NtRp37
((dp38
S'P13773'
p39
I01
sS'P35352'
p40
I01
stbsS'15196949'
p41
g3
(g4
g5
NtRp42
((dp43
S'Q95YH0'
p44
I01
stbsS'2721503'
p45
g3
(g4
g5
NtRp46
((dp47
S'P08799'
p48
I01
stbsS'10331990'
p49
g3
(g4
g5
NtRp50
((dp51
S'Q54TN2'
p52
I01
stbsS'15632431'
p53
g3
(g4
g5
NtRp54
((dp55
S'Q9Y1W0'
p56
I01
stbsS'15194808'
p57
g3
(g4
g5
NtRp58
((dp59
S'P0CE94'
p60
I01
sS'P32254'
p61
I01
sS'Q9U1M8'
p62
I01
sS'Q55FP0'
p63
I01
sS'P15064'
p64
I01
sS'P18613'
p65
I01
sS'Q54QQ1'
p66
I01
stbsS'9802899'
p67
g3
(g4
g5
NtRp68
((dp69
S'O76187'
p70
I01
sS'P34149'
p71
I01
sS'Q23862'
p72
I01
stbsS'17010123'
p73
g3
(g4
g5
NtRp74
((dp75
S'Q9GPF1'
p76
I01
stbsS'15769249'
p77
g3
(g4
g5
NtRp78
((dp79
S'P26355'
p80
I01
stbsS'19861424'
p81
g3
(g4
g5
NtRp82
((dp83
S'Q95NZ8'
p84
I01
stbsS'21819985'
p85
g3
(g4
g5
NtRp86
((dp87
S'Q86A17'
p88
I01
stbsS'8816999'
p89
g3
(g4
g5
NtRp90
((dp91
S'P34036'
p92
I01
sS'P32255'
p93
I01
stbsS'11390363'
p94
g3
(g4
g5
NtRp95
((dp96
S'O60999'
p97
I01
sS'Q9Y0T2'
p98
I01
stbsS'17336445'
p99
g3
(g4
g5
NtRp100
((dp101
S'Q86IZ4'
p102
I01
stbsS'9582328'
p103
g3
(g4
g5
NtRp104
((dp105
S'O61122'
p106
I01
stbsS'16901894'
p107
g3
(g4
g5
NtRp108
((dp109
S'P08799'
p110
I01
stbsS'2161991'
p111
g3
(g4
g5
NtRp112
((dp113
S'P15648'
p114
I01
sS'P15649'
p115
I01
stbsS'16571632'
p116
g3
(g4
g5
NtRp117
((dp118
S'Q54YB7'
p119
I01
sS'Q54Z40'
p120
I01
sS'Q869R9'
p121
I01
sS'Q54K19'
p122
I01
sS'Q54HX6'
p123
I01
sS'Q54T71'
p124
I01
sS'Q54IF9'
p125
I01
stbsS'15883156'
p126
g3
(g4
g5
NtRp127
((dp128
S'Q9GSB0'
p129
I01
stbsS'22366457'
p130
g3
(g4
g5
NtRp131
((dp132
S'P34144'
p133
I01
sS'P13021'
p134
I01
sS'P13022'
p135
I01
sS'P32256'
p136
I01
sS'Q86I66'
p137
I01
sS'Q54WH2'
p138
I01
sS'P32255'
p139
I01
sS'Q54CA8'
p140
I01
sS'O96622'
p141
I01
sS'O96623'
p142
I01
sS'P10733'
p143
I01
stbsS'18634783'
p144
g3
(g4
g5
NtRp145
((dp146
S'Q54JY7'
p147
I01
sS'O00909'
p148
I01
sS'P25870'
p149
I01
sS'Q9GPF1'
p150
I01
sS'Q54NW7'
p151
I01
sS'P54672'
p152
I01
sS'Q54WN0'
p153
I01
sS'Q556J8'
p154
I01
sS'Q54CK6'
p155
I01
sS'Q8MN58'
p156
I01
sS'Q553P5'
p157
I01
stbsS'561722'
p158
g3
(g4
g5
NtRp159
((dp160
S'Q54XG2'
p161
I01
stbsS'20062541'
p162
g3
(g4
g5
NtRp163
((dp164
S'Q551Q8'
p165
I01
sS'Q54WI0'
p166
I01
stbsS'16415352'
p167
g3
(g4
g5
NtRp168
((dp169
S'P34092'
p170
I01
sS'Q54GL7'
p171
I01
stbsS'18650439'
p172
g3
(g4
g5
NtRp173
((dp174
S'P54697'
p175
I01
stbsS'15225305'
p176
g3
(g4
g5
NtRp177
((dp178
S'Q8MQU6'
p179
I01
sS'Q86AV6'
p180
I01
sS'Q9NKW1'
p181
I01
stbsS'11162086'
p182
g3
(g4
g5
NtRp183
((dp184
S'O97101'
p185
I01
stbsS'11872142'
p186
g3
(g4
g5
NtRp187
((dp188
S'Q55DM1'
p189
I01
sS'Q86JF2'
p190
I01
stbsS'15817229'
p191
g3
(g4
g5
NtRp192
((dp193
S'P34145'
p194
I01
sS'Q869W9'
p195
I01
sS'Q54GM7'
p196
I01
sS'Q54BC0'
p197
I01
sS'Q55CA9'
p198
I01
sS'Q5FBC4'
p199
I01
sS'Q54WK1'
p200
I01
sS'Q5FBC3'
p201
I01
sS'Q54ME1'
p202
I01
sS'Q54GD5'
p203
I01
sS'Q54EU5'
p204
I01
sS'Q54X71'
p205
I01
sS'Q557G4'
p206
I01
sS'Q9GPS3'
p207
I01
sS'Q54C82'
p208
I01
sS'Q86HI2'
p209
I01
sS'Q54TI1'
p210
I01
sS'Q55BT7'
p211
I01
sS'Q54P69'
p212
I01
sS'Q55CG7'
p213
I01
sS'Q55BT6'
p214
I01
sS'Q54W35'
p215
I01
sS'P54680'
p216
I01
sS'Q54RK5'
p217
I01
sS'Q54EN4'
p218
I01
stbsS'8290260'
p219
g3
(g4
g5
NtRp220
((dp221
S'P32253'
p222
I01
sS'P32254'
p223
I01
stbsS'9927418'
p224
g3
(g4
g5
NtRp225
((dp226
S'Q550R2'
p227
I01
sS'P24005'
p228
I01
sS'Q54HG2'
p229
I01
stbsS'10725352'
p230
g3
(g4
g5
NtRp231
((dp232
S'Q9Y0T2'
p233
I01
stbsS'17499244'
p234
g3
(g4
g5
NtRp235
((dp236
S'Q76NT9'
p237
I01
stbsS'10427097'
p238
g3
(g4
g5
NtRp239
((dp240
S'P54686'
p241
I01
stbsS'16087752'
p242
g3
(g4
g5
NtRp243
((dp244
S'Q54N80'
p245
I01
sS'Q54N81'
p246
I01
stbsS'16410410'
p247
g3
(g4
g5
NtRp248
((dp249
S'Q54ER9'
p250
I01
sS'Q54XG7'
p251
I01
stbsS'17671169'
p252
g3
(g4
g5
NtRp253
((dp254
S'Q9U1M8'
p255
I01
sS'P0CE94'
p256
I01
stbsS'16410554'
p257
g3
(g4
g5
NtRp258
((dp259
S'Q86KZ5'
p260
I01
stbsS'12176329'
p261
g3
(g4
g5
NtRp262
((dp263
S'Q54R41'
p264
I01
stbsS'21187070'
p265
g3
(g4
g5
NtRp266
((dp267
S'Q55AX2'
p268
I01
stbsS'22992462'
p269
g3
(g4
g5
NtRp270
((dp271
S'Q553K4'
p272
I01
stbsS'18635356'
p273
g3
(g4
g5
NtRp274
((dp275
S'P54644'
p276
I01
sS'P28178'
p277
I01
sS'O77203'
p278
I01
sS'P36408'
p279
I01
stbsS'16750281'
p280
g3
(g4
g5
NtRp281
((dp282
S'Q54WZ2'
p283
I01
sS'O15706'
p284
I01
stbsS'8130037'
p285
g3
(g4
g5
NtRp286
((dp287
S'Q55G04'
p288
I01
sS'Q55GJ6'
p289
I01
sS'P34119'
p290
I01
sS'Q54BC8'
p291
I01
sS'Q54XM7'
p292
I01
sS'Q86A21'
p293
I01
sS'Q55DY7'
p294
I01
sS'Q27563'
p295
I01
sS'Q27562'
p296
I01
sS'P34120'
p297
I01
sS'Q55D66'
p298
I01
sS'Q54DM7'
p299
I01
sS'Q556Q0'
p300
I01
sS'Q54QR2'
p301
I01
stbsS'10473630'
p302
g3
(g4
g5
NtRp303
((dp304
S'P15064'
p305
I01
sS'P54673'
p306
I01
sS'Q9Y0C9'
p307
I01
sS'Q54PQ4'
p308
I01
stbsS'10574761'
p309
g3
(g4
g5
NtRp310
((dp311
S'Q9U1M8'
p312
I01
stbsS'22264729'
p313
g3
(g4
g5
NtRp314
((dp315
S'Q54WH5'
p316
I01
sS'Q86I66'
p317
I01
sS'Q54DW1'
p318
I01
sS'O96621'
p319
I01
sS'P34148'
p320
I01
sS'P36408'
p321
I01
stbsS'17416892'
p322
g3
(g4
g5
NtRp323
((dp324
S'Q9NAX4'
p325
I01
sS'P54704'
p326
I01
stbsS'3139100'
p327
g3
(g4
g5
NtRp328
((dp329
S'P10819'
p330
I01
stbsS'10491202'
p331
g3
(g4
g5
NtRp332
((dp333
S'O97101'
p334
I01
stbsS'21766205'
p335
g3
(g4
g5
NtRp336
((dp337
S'P34117'
p338
I01
sS'Q55CT4'
p339
I01
stbsS'16445684'
p340
g3
(g4
g5
NtRp341
((dp342
S'Q9XYS8'
p343
I01
sS'P36411'
p344
I01
sS'Q869V1'
p345
I01
sS'O15706'
p346
I01
sS'Q54CK6'
p347
I01
sS'Q76NU1'
p348
I01
stbsS'18673369'
p349
g3
(g4
g5
NtRp350
((dp351
S'Q8MVR1'
p352
I01
stbsS'14517319'
p353
g3
(g4
g5
NtRp354
((dp355
S'Q1ZXQ8'
p356
I01
stbsS'14695060'
p357
g3
(g4
g5
NtRp358
((dp359
S'Q8WQ85'
p360
I01
sS'Q03380'
p361
I01
sS'P27133'
p362
I01
sS'P05987'
p363
I01
sS'P34092'
p364
I01
sS'Q23858'
p365
I01
sS'P22467'
p366
I01
stbsS'8643519'
p367
g3
(g4
g5
NtRp368
((dp369
S'P54681'
p370
I01
sS'Q54SM3'
p371
I01
stbsS'18261908'
p372
g3
(g4
g5
NtRp373
((dp374
S'Q54NF8'
p375
I01
sS'Q55FT9'
p376
I01
stbsS'7916591'
p377
g3
(g4
g5
NtRp378
((dp379
S'P51405'
p380
I01
sS'O77082'
p381
I01
stbsS'11690648'
p382
g3
(g4
g5
NtRp383
((dp384
S'Q9NI62'
p385
I01
sS'P54705'
p386
I01
stbsS'1661669'
p387
g3
(g4
g5
NtRp388
((dp389
S'P27133'
p390
I01
stbsS'15643073'
p391
g3
(g4
g5
NtRp392
((dp393
S'Q86KF9'
p394
I01
sS'Q6B516'
p395
I01
stbsS'12372338'
p396
g3
(g4
g5
NtRp397
((dp398
S'Q86L04'
p399
I01
stbsS'8389692'
p400
g3
(g4
g5
NtRp401
((dp402
S'P22887'
p403
I01
stbsS'10452519'
p404
g3
(g4
g5
NtRp405
((dp406
S'Q9XZE5'
p407
I01
sS'Q54QR9'
p408
I01
sS'Q54Q99'
p409
I01
stbsS'16282589'
p410
g3
(g4
g5
NtRp411
((dp412
S'Q54JH6'
p413
I01
stbsS'21239624'
p414
g3
(g4
g5
NtRp415
((dp416
S'Q552S0'
p417
I01
stbsS'18216168'
p418
g3
(g4
g5
NtRp419
((dp420
S'Q86K86'
p421
I01
stbsS'16176950'
p422
g3
(g4
g5
NtRp423
((dp424
S'Q5XM24'
p425
I01
stbsS'16971511'
p426
g3
(g4
g5
NtRp427
((dp428
S'P34092'
p429
I01
sS'O96622'
p430
I01
sS'P42528'
p431
I01
sS'Q54E04'
p432
I01
stbsS'15950752'
p433
g3
(g4
g5
NtRp434
((dp435
S'Q9XYS3'
p436
I01
sS'Q54F44'
p437
I01
sS'Q86GL4'
p438
I01
sS'Q867T7'
p439
I01
sS'Q867X6'
p440
I01
sS'Q95YL4'
p441
I01
stbsS'11865029'
p442
g3
(g4
g5
NtRp443
((dp444
S'Q7YXD4'
p445
I01
sS'P54647'
p446
I01
sS'Q9NIV0'
p447
I01
sS'Q55DM1'
p448
I01
sS'Q86JF2'
p449
I01
stbsS'9226443'
p450
g3
(g4
g5
NtRp451
((dp452
S'O00841'
p453
I01
stbsS'24096661'
p454
g3
(g4
g5
NtRp455
((dp456
S'Q55E72'
p457
I01
sS'Q54FI3'
p458
I01
stbsS'8380174'
p459
g3
(g4
g5
NtRp460
((dp461
S'P27133'
p462
I01
stbsS'15143344'
p463
g3
(g4
g5
NtRp464
((dp465
S'P32253'
p466
I01
sS'P15064'
p467
I01
sS'P13773'
p468
I01
sS'P35352'
p469
I01
sS'P16051'
p470
I01
sS'P36408'
p471
I01
stbsS'9056774'
p472
g3
(g4
g5
NtRp473
((dp474
S'Q54K32'
p475
I01
stbsS'9226449'
p476
g3
(g4
g5
NtRp477
((dp478
S'P54644'
p479
I01
stbsS'8325874'
p480
g3
(g4
g5
NtRp481
((dp482
S'P34109'
p483
I01
stbsS'22699506'
p484
g3
(g4
g5
NtRp485
((dp486
S'P18161'
p487
I01
sS'Q54BD4'
p488
I01
stbsS'20530573'
p489
g3
(g4
g5
NtRp490
((dp491
S'Q54GX7'
p492
I01
sS'Q553U6'
p493
I01
sS'Q54NF8'
p494
I01
sS'Q54X65'
p495
I01
sS'P07829'
p496
I01
sS'Q8WQ86'
p497
I01
sS'P07830'
p498
I01
stbsS'15740584'
p499
g3
(g4
g5
NtRp500
((dp501
S'P26199'
p502
I01
sS'Q8IS21'
p503
I01
sS'O00899'
p504
I01
sS'P32254'
p505
I01
sS'Q54HG2'
p506
I01
stbsS'22891261'
p507
g3
(g4
g5
NtRp508
((dp509
S'P42528'
p510
I01
sS'Q54NF8'
p511
I01
sS'O96621'
p512
I01
sS'O96622'
p513
I01
sS'O96623'
p514
I01
sS'O96624'
p515
I01
sS'O96625'
p516
I01
sS'O96626'
p517
I01
sS'Q54X65'
p518
I01
sS'Q55FT9'
p519
I01
sS'Q869Q3'
p520
I01
sS'Q6UK63'
p521
I01
stbsS'17878305'
p522
g3
(g4
g5
NtRp523
((dp524
S'Q558X5'
p525
I01
sS'Q5FXM5'
p526
I01
sS'Q86CR8'
p527
I01
sS'P16643'
p528
I01
sS'P16642'
p529
I01
sS'P54661'
p530
I01
stbsS'12686622'
p531
g3
(g4
g5
NtRp532
((dp533
S'Q54XQ2'
p534
I01
stbsS'15757670'
p535
g3
(g4
g5
NtRp536
((dp537
S'Q8T7K0'
p538
I01
stbsS'20525180'
p539
g3
(g4
g5
NtRp540
((dp541
S'Q7YXU4'
p542
I01
stbsS'10444594'
p543
g3
(g4
g5
NtRp544
((dp545
S'Q86IV5'
p546
I01
stbsS'20170636'
p547
g3
(g4
g5
NtRp548
((dp549
S'Q54MP1'
p550
I01
stbsS'15123660'
p551
g3
(g4
g5
NtRp552
((dp553
S'Q54RP0'
p554
I01
stbsS'18430243'
p555
g3
(g4
g5
NtRp556
((dp557
S'Q6S002'
p558
I01
sS'Q6S003'
p559
I01
sS'P34036'
p560
I01
sS'Q54NP8'
p561
I01
stbsS'14620745'
p562
g3
(g4
g5
NtRp563
((dp564
S'P08799'
p565
I01
stbsS'23126556'
p566
g3
(g4
g5
NtRp567
((dp568
S'P05817'
p569
I01
stbsS'18640994'
p570
g3
(g4
g5
NtRp571
((dp572
S'Q03101'
p573
I01
stbsS'9201999'
p574
g3
(g4
g5
NtRp575
((dp576
S'P42527'
p577
I01
stbsS'14710184'
p578
g3
(g4
g5
NtRp579
((dp580
S'Q551V8'
p581
I01
sS'Q553Y7'
p582
I01
sS'O96622'
p583
I01
sS'P42528'
p584
I01
stbsS'8830653'
p585
g3
(g4
g5
NtRp586
((dp587
S'Q54K32'
p588
I01
stbsS'15470238'
p589
g3
(g4
g5
NtRp590
((dp591
S'Q9U1M8'
p592
I01
stbsS'22262860'
p593
g3
(g4
g5
NtRp594
((dp595
S'Q54WT8'
p596
I01
stbsS'9832508'
p597
g3
(g4
g5
NtRp598
((dp599
S'Q94490'
p600
I01
sS'Q54R82'
p601
I01
sS'O96612'
p602
I01
stbsS'19632001'
p603
g3
(g4
g5
NtRp604
((dp605
S'Q558Z2'
p606
I01
stbsS'1328220'
p607
g3
(g4
g5
NtRp608
((dp609
S'Q01501'
p610
I01
stbsS'15728724'
p611
g3
(g4
g5
NtRp612
((dp613
S'Q9GSG9'
p614
I01
stbsS'16782229'
p615
g3
(g4
g5
NtRp616
((dp617
S'Q553N8'
p618
I01
stbsS'15821735'
p619
g3
(g4
g5
NtRp620
((dp621
S'Q54WA6'
p622
I01
stbsS'8898113'
p623
g3
(g4
g5
NtRp624
((dp625
S'Q552C6'
p626
I01
sS'Q54I36'
p627
I01
stbsS'14729573'
p628
g3
(g4
g5
NtRp629
((dp630
S'Q54XG7'
p631
I01
stbsS'16507593'
p632
g3
(g4
g5
NtRp633
((dp634
S'Q54S83'
p635
I01
stbsS'16051212'
p636
g3
(g4
g5
NtRp637
((dp638
S'Q54AX5'
p639
I01
stbsS'19763158'
p640
g3
(g4
g5
NtRp641
((dp642
S'Q54PN5'
p643
I01
sS'Q55AZ3'
p644
I01
sS'Q8T145'
p645
I01
sS'Q54WG5'
p646
I01
sS'Q54F00'
p647
I01
sS'Q54BR4'
p648
I01
sS'Q54CR0'
p649
I01
sS'Q55F81'
p650
I01
stbsS'15896312'
p651
g3
(g4
g5
NtRp652
((dp653
S'Q9U7C9'
p654
I01
sS'P02599'
p655
I01
stbsS'8016318'
p656
g3
(g4
g5
NtRp657
((dp658
S'Q54YG2'
p659
I01
sS'P11976'
p660
I01
stbsS'22811266'
p661
g3
(g4
g5
NtRp662
((dp663
S'Q54PT9'
p664
I01
stbsS'21247092'
p665
g3
(g4
g5
NtRp666
((dp667
S'Q8T1C6'
p668
I01
sS'Q9Y0T2'
p669
I01
sS'P52285'
p670
I01
sS'Q86KR9'
p671
I01
stbsS'10593934'
p672
g3
(g4
g5
NtRp673
((dp674
S'Q8T1C6'
p675
I01
stbsS'22864416'
p676
g3
(g4
g5
NtRp677
((dp678
S'Q54R09'
p679
I01
stbsS'15261655'
p680
g3
(g4
g5
NtRp681
((dp682
S'P15270'
p683
I01
sS'P42523'
p684
I01
sS'Q55FP0'
p685
I01
sS'Q7YTA6'
p686
I01
sS'Q9U8Q1'
p687
I01
sS'Q54ZW0'
p688
I01
stbsS'20670432'
p689
g3
(g4
g5
NtRp690
((dp691
S'Q54QV3'
p692
I01
sS'Q03100'
p693
I01
sS'Q86AD8'
p694
I01
stbsS'22722653'
p695
g3
(g4
g5
NtRp696
((dp697
S'Q54PW9'
p698
I01
stbsS'1535025'
p699
g3
(g4
g5
NtRp700
((dp701
S'P09402'
p702
I01
stbsS'12060071'
p703
g3
(g4
g5
NtRp704
((dp705
S'Q86KE7'
p706
I01
sS'Q95YH0'
p707
I01
stbsS'14732403'
p708
g3
(g4
g5
NtRp709
((dp710
S'Q6UUW5'
p711
I01
sS'Q6UUW6'
p712
I01
sS'Q54U75'
p713
I01
stbsS'3288206'
p714
g3
(g4
g5
NtRp715
((dp716
S'P10819'
p717
I01
stbsS'10887966'
p718
g3
(g4
g5
NtRp719
((dp720
S'Q23924'
p721
I01
stbsS'3312238'
p722
g3
(g4
g5
NtRp723
((dp724
S'P54660'
p725
I01
stbsS'14701681'
p726
g3
(g4
g5
NtRp727
((dp728
S'Q70GP4'
p729
I01
stbsS'17606910'
p730
g3
(g4
g5
NtRp731
((dp732
S'O96759'
p733
I01
stbsS'16854454'
p734
g3
(g4
g5
NtRp735
((dp736
S'P34125'
p737
I01
stbsS'21760904'
p738
g3
(g4
g5
NtRp739
((dp740
S'Q8SSS9'
p741
I01
sS'Q5XM24'
p742
I01
sS'Q54LU5'
p743
I01
sS'Q54TR1'
p744
I01
stbsS'15255188'
p745
g3
(g4
g5
NtRp746
((dp747
S'Q65YR8'
p748
I01
sS'Q65YR7'
p749
I01
sS'Q5R1U3'
p750
I01
stbsS'22307974'
p751
g3
(g4
g5
NtRp752
((dp753
S'Q54TM2'
p754
I01
stbsS'9115238'
p755
g3
(g4
g5
NtRp756
((dp757
S'P90648'
p758
I01
stbsS'12204259'
p759
g3
(g4
g5
NtRp760
((dp761
S'Q54U87'
p762
I01
stbsS'19692567'
p763
g3
(g4
g5
NtRp764
((dp765
S'Q86AQ7'
p766
I01
sS'Q54Y50'
p767
I01
sS'Q54EH1'
p768
I01
sS'Q54CK6'
p769
I01
sS'Q1ZXE9'
p770
I01
sS'Q86KI1'
p771
I01
stbsS'12840076'
p772
g3
(g4
g5
NtRp773
((dp774
S'Q55GQ5'
p775
I01
stbsS'16987957'
p776
g3
(g4
g5
NtRp777
((dp778
S'Q556N5'
p779
I01
sS'Q54QQ1'
p780
I01
stbsS'15855234'
p781
g3
(g4
g5
NtRp782
((dp783
S'P08799'
p784
I01
stbsS'16495312'
p785
g3
(g4
g5
NtRp786
((dp787
S'Q54FX2'
p788
I01
stbsS'21169559'
p789
g3
(g4
g5
NtRp790
((dp791
S'P54644'
p792
I01
sS'Q8T9S7'
p793
I01
sS'O77203'
p794
I01
sS'Q55D99'
p795
I01
stbsS'9808785'
p796
g3
(g4
g5
NtRp797
((dp798
S'Q95PI2'
p799
I01
stbsS'16461463'
p800
g3
(g4
g5
NtRp801
((dp802
S'Q9NHF6'
p803
I01
sS'P08799'
p804
I01
stbsS'20197546'
p805
g3
(g4
g5
NtRp806
((dp807
S'P42527'
p808
I01
stbsS'2049870'
p809
g3
(g4
g5
NtRp810
((dp811
S'P12019'
p812
I01
stbsS'8660315'
p813
g3
(g4
g5
NtRp814
((dp815
S'Q54GP3'
p816
I01
sS'Q1ZXI0'
p817
I01
sS'Q94465'
p818
I01
stbsS'17267449'
p819
g3
(g4
g5
NtRp820
((dp821
S'Q03101'
p822
I01
stbsS'7729573'
p823
g3
(g4
g5
NtRp824
((dp825
S'Q54LG5'
p826
I01
sS'Q54LF5'
p827
I01
stbsS'22223109'
p828
g3
(g4
g5
NtRp829
((dp830
S'Q54XP9'
p831
I01
stbsS'21131095'
p832
g3
(g4
g5
NtRp833
((dp834
S'Q55G45'
p835
I01
stbsS'23161062'
p836
g3
(g4
g5
NtRp837
((dp838
S'Q558Z2'
p839
I01
sS'Q555I8'
p840
I01
stbsS'18067324'
p841
g3
(g4
g5
NtRp842
((dp843
S'P08799'
p844
I01
stbsS'15342480'
p845
g3
(g4
g5
NtRp846
((dp847
S'P51136'
p848
I01
stbsS'16962888'
p849
g3
(g4
g5
NtRp850
((dp851
S'Q55CL6'
p852
I01
sS'Q95ZG8'
p853
I01
stbsS'15733068'
p854
g3
(g4
g5
NtRp855
((dp856
S'O00910'
p857
I01
sS'Q54Z60'
p858
I01
sS'Q557X0'
p859
I01
stbsS'9700162'
p860
g3
(g4
g5
NtRp861
((dp862
S'O76329'
p863
I01
stbsS'9639652'
p864
g3
(g4
g5
NtRp865
((dp866
S'P54658'
p867
I01
stbsS'18550798'
p868
g3
(g4
g5
NtRp869
((dp870
S'Q54NL4'
p871
I01
stbsS'9017597'
p872
g3
(g4
g5
NtRp873
((dp874
S'P54680'
p875
I01
stbsS'21327858'
p876
g3
(g4
g5
NtRp877
((dp878
S'Q9U7C9'
p879
I01
stbsS'12538772'
p880
g3
(g4
g5
NtRp881
((dp882
S'Q54KF1'
p883
I01
stbsS'20300194'
p884
g3
(g4
g5
NtRp885
((dp886
S'Q54FX2'
p887
I01
sS'Q54NU5'
p888
I01
sS'Q54ER9'
p889
I01
sS'Q54T71'
p890
I01
stbsS'15752425'
p891
g3
(g4
g5
NtRp892
((dp893
S'Q23917'
p894
I01
stbsS'10793140'
p895
g3
(g4
g5
NtRp896
((dp897
S'Q54XS3'
p898
I01
stbsS'21087028'
p899
g3
(g4
g5
NtRp900
((dp901
S'Q54IT0'
p902
I01
stbsS'17584488'
p903
g3
(g4
g5
NtRp904
((dp905
S'Q1ZXH8'
p906
I01
stbsS'11102804'
p907
g3
(g4
g5
NtRp908
((dp909
S'Q8IS21'
p910
I01
stbsS'16573737'
p911
g3
(g4
g5
NtRp912
((dp913
S'P34145'
p914
I01
sS'P34146'
p915
I01
sS'O96390'
p916
I01
sS'Q9GPS0'
p917
I01
sS'Q9GPS3'
p918
I01
sS'Q23862'
p919
I01
sS'Q9GPQ8'
p920
I01
sS'Q9GPQ9'
p921
I01
stbsS'7589554'
p922
g3
(g4
g5
NtRp923
((dp924
S'P34121'
p925
I01
stbsS'10459012'
p926
g3
(g4
g5
NtRp927
((dp928
S'Q86AQ7'
p929
I01
stbsS'17951519'
p930
g3
(g4
g5
NtRp931
((dp932
S'Q9BLG4'
p933
I01
stbsS'16822579'
p934
g3
(g4
g5
NtRp935
((dp936
S'Q54NF8'
p937
I01
sS'P15064'
p938
I01
sS'Q6UK63'
p939
I01
sS'P32254'
p940
I01
stbsS'2500658'
p941
g3
(g4
g5
NtRp942
((dp943
S'P16894'
p944
I01
stbsS'15470500'
p945
g3
(g4
g5
NtRp946
((dp947
S'Q54NW7'
p948
I01
stbsS'22992464'
p949
g3
(g4
g5
NtRp950
((dp951
S'Q54X82'
p952
I01
sS'Q54H39'
p953
I01
sS'P25870'
p954
I01
sS'P54672'
p955
I01
sS'Q54KI4'
p956
I01
sS'Q86KI1'
p957
I01
stbsS'12796307'
p958
g3
(g4
g5
NtRp959
((dp960
S'Q9Y0T2'
p961
I01
sS'Q54U87'
p962
I01
sS'Q23917'
p963
I01
stbsS'15470506'
p964
g3
(g4
g5
NtRp965
((dp966
S'Q54YZ6'
p967
I01
sS'P34148'
p968
I01
sS'Q55GV3'
p969
I01
stbsS'17085634'
p970
g3
(g4
g5
NtRp971
((dp972
S'Q75JK0'
p973
I01
stbsS'9716534'
p974
g3
(g4
g5
NtRp975
((dp976
S'Q54YU6'
p977
I01
stbsS'18388319'
p978
g3
(g4
g5
NtRp979
((dp980
S'P08799'
p981
I01
stbsS'21045112'
p982
g3
(g4
g5
NtRp983
((dp984
S'Q54S78'
p985
I01
sS'Q54F55'
p986
I01
sS'Q55FX5'
p987
I01
sS'P54673'
p988
I01
sS'P54674'
p989
I01
sS'P54675'
p990
I01
stbsS'11208126'
p991
g3
(g4
g5
NtRp992
((dp993
S'Q9TW28'
p994
I01
stbsS'11737154'
p995
g3
(g4
g5
NtRp996
((dp997
S'Q8WSR7'
p998
I01
stbsS'22114350'
p999
g3
(g4
g5
NtRp1000
((dp1001
S'P08799'
p1002
I01
sS'Q550R2'
p1003
I01
sS'Q54HG2'
p1004
I01
stbsS'3972891'
p1005
g3
(g4
g5
NtRp1006
((dp1007
S'Q03380'
p1008
I01
stbsS'8831554'
p1009
g3
(g4
g5
NtRp1010
((dp1011
S'Q95US4'
p1012
I01
stbsS'23923009'
p1013
g3
(g4
g5
NtRp1014
((dp1015
S'Q54M56'
p1016
I01
stbsS'17625565'
p1017
g3
(g4
g5
NtRp1018
((dp1019
S'Q86JM7'
p1020
I01
stbsS'16765443'
p1021
g3
(g4
g5
NtRp1022
((dp1023
S'Q54WR4'
p1024
I01
sS'Q54KA7'
p1025
I01
stbsS'22266904'
p1026
g3
(g4
g5
NtRp1027
((dp1028
S'O77203'
p1029
I01
sS'Q54D08'
p1030
I01
sS'Q554J2'
p1031
I01
sS'P54644'
p1032
I01
sS'Q55BR7'
p1033
I01
sS'Q9Y0C9'
p1034
I01
sS'Q550Q4'
p1035
I01
sS'Q54VB2'
p1036
I01
stbsS'12062087'
p1037
g3
(g4
g5
NtRp1038
((dp1039
S'Q55CL6'
p1040
I01
sS'Q557I6'
p1041
I01
sS'P42525'
p1042
I01
sS'Q8N0B4'
p1043
I01
stbsS'8099335'
p1044
g3
(g4
g5
NtRp1045
((dp1046
S'P36408'
p1047
I01
stbsS'12756178'
p1048
g3
(g4
g5
NtRp1049
((dp1050
S'Q9GTN7'
p1051
I01
stbsS'18708585'
p1052
g3
(g4
g5
NtRp1053
((dp1054
S'Q55FT4'
p1055
I01
stbsS'11223952'
p1056
g3
(g4
g5
NtRp1057
((dp1058
S'P25870'
p1059
I01
sS'Q8MN58'
p1060
I01
stbsS'17880704'
p1061
g3
(g4
g5
NtRp1062
((dp1063
S'Q552Y2'
p1064
I01
sS'Q55FV9'
p1065
I01
sS'Q94497'
p1066
I01
sS'Q86KP5'
p1067
I01
stbsS'18218133'
p1068
g3
(g4
g5
NtRp1069
((dp1070
S'Q54B10'
p1071
I01
stbsS'19466752'
p1072
g3
(g4
g5
NtRp1073
((dp1074
S'Q54NE5'
p1075
I01
sS'Q54HI5'
p1076
I01
sS'Q54JX0'
p1077
I01
sS'Q86A08'
p1078
I01
sS'Q54RJ3'
p1079
I01
sS'Q54XP9'
p1080
I01
sS'Q86HN7'
p1081
I01
sS'Q54BP1'
p1082
I01
sS'Q54SG2'
p1083
I01
sS'Q54DL5'
p1084
I01
sS'Q54BH4'
p1085
I01
sS'Q54G01'
p1086
I01
sS'Q55CA1'
p1087
I01
stbsS'8647262'
p1088
g3
(g4
g5
NtRp1089
((dp1090
S'Q7M3S9'
p1091
I01
stbsS'16188250'
p1092
g3
(g4
g5
NtRp1093
((dp1094
S'Q8MXY0'
p1095
I01
stbsS'8793298'
p1096
g3
(g4
g5
NtRp1097
((dp1098
S'Q54PQ4'
p1099
I01
stbsS'11956322'
p1100
g3
(g4
g5
NtRp1101
((dp1102
S'Q54E04'
p1103
I01
stbsS'12429832'
p1104
g3
(g4
g5
NtRp1105
((dp1106
S'Q8MLZ3'
p1107
I01
stbsS'21458438'
p1108
g3
(g4
g5
NtRp1109
((dp1110
S'Q54ER9'
p1111
I01
stbsS'11598188'
p1112
g3
(g4
g5
NtRp1113
((dp1114
S'Q9GRX6'
p1115
I01
stbsS'9207087'
p1116
g3
(g4
g5
NtRp1117
((dp1118
S'O15818'
p1119
I01
stbsS'9230077'
p1120
g3
(g4
g5
NtRp1121
((dp1122
S'P0CE94'
p1123
I01
stbsS'11428129'
p1124
g3
(g4
g5
NtRp1125
((dp1126
S'P54704'
p1127
I01
sS'Q9U720'
p1128
I01
sS'P14328'
p1129
I01
sS'Q04503'
p1130
I01
stbsS'12871696'
p1131
g3
(g4
g5
NtRp1132
((dp1133
S'Q54V32'
p1134
I01
sS'Q557B8'
p1135
I01
sS'Q54T92'
p1136
I01
sS'Q54TS2'
p1137
I01
sS'Q54DG1'
p1138
I01
sS'Q86M88'
p1139
I01
stbsS'11274054'
p1140
g3
(g4
g5
NtRp1141
((dp1142
S'Q54RB7'
p1143
I01
stbsS'20071332'
p1144
g3
(g4
g5
NtRp1145
((dp1146
S'O00909'
p1147
I01
sS'Q55E54'
p1148
I01
stbsS'16581519'
p1149
g3
(g4
g5
NtRp1150
((dp1151
S'Q54NF8'
p1152
I01
sS'Q869Q3'
p1153
I01
sS'Q6UK63'
p1154
I01
stbsS'1522112'
p1155
g3
(g4
g5
NtRp1156
((dp1157
S'P25870'
p1158
I01
stbsS'10878573'
p1159
g3
(g4
g5
NtRp1160
((dp1161
S'P54675'
p1162
I01
stbsS'15507682'
p1163
g3
(g4
g5
NtRp1164
((dp1165
S'Q03100'
p1166
I01
sS'P13773'
p1167
I01
stbsS'2161830'
p1168
g3
(g4
g5
NtRp1169
((dp1170
S'P22887'
p1171
I01
stbsS'23187822'
p1172
g3
(g4
g5
NtRp1173
((dp1174
S'Q8MMR8'
p1175
I01
stbsS'14718564'
p1176
g3
(g4
g5
NtRp1177
((dp1178
S'Q03101'
p1179
I01
sS'Q23917'
p1180
I01
stbsS'15059962'
p1181
g3
(g4
g5
NtRp1182
((dp1183
S'Q54R41'
p1184
I01
stbsS'23967067'
p1185
g3
(g4
g5
NtRp1186
((dp1187
S'Q9NGP5'
p1188
I01
sS'Q54CG0'
p1189
I01
sS'Q54R52'
p1190
I01
sS'Q8T664'
p1191
I01
sS'Q8T8P3'
p1192
I01
sS'Q8T6B7'
p1193
I01
sS'Q8T9W2'
p1194
I01
sS'Q54W24'
p1195
I01
sS'Q8T686'
p1196
I01
sS'Q555Z5'
p1197
I01
sS'Q55DA0'
p1198
I01
sS'Q55GB1'
p1199
I01
sS'Q54VJ0'
p1200
I01
sS'Q54V86'
p1201
I01
sS'Q54DT1'
p1202
I01
sS'Q8T675'
p1203
I01
sS'Q54TV2'
p1204
I01
sS'Q8T6B4'
p1205
I01
sS'Q54JR2'
p1206
I01
sS'Q54TV1'
p1207
I01
sS'Q8T6B8'
p1208
I01
sS'Q54HM0'
p1209
I01
sS'Q8ST66'
p1210
I01
sS'Q8T6J1'
p1211
I01
sS'Q8T6J0'
p1212
I01
sS'Q8T6J2'
p1213
I01
sS'Q8T6H3'
p1214
I01
sS'Q556W2'
p1215
I01
sS'Q54BU4'
p1216
I01
sS'Q54P13'
p1217
I01
sS'Q54T02'
p1218
I01
sS'Q54K24'
p1219
I01
sS'Q54BT5'
p1220
I01
stbsS'17635933'
p1221
g3
(g4
g5
NtRp1222
((dp1223
S'P54644'
p1224
I01
sS'P36408'
p1225
I01
stbsS'2176841'
p1226
g3
(g4
g5
NtRp1227
((dp1228
S'P42527'
p1229
I01
stbsS'8662604'
p1230
g3
(g4
g5
NtRp1231
((dp1232
S'Q557E4'
p1233
I01
sS'Q54QG0'
p1234
I01
sS'P52285'
p1235
I01
stbsS'22689969'
p1236
g3
(g4
g5
NtRp1237
((dp1238
S'Q6XHB2'
p1239
I01
stbsS'16339076'
p1240
g3
(g4
g5
NtRp1241
((dp1242
S'P08799'
p1243
I01
sS'Q55GF9'
p1244
I01
sS'Q54WX4'
p1245
I01
stbsS'18504297'
p1246
g3
(g4
g5
NtRp1247
((dp1248
S'P08799'
p1249
I01
sS'P42527'
p1250
I01
sS'Q86G47'
p1251
I01
stbsS'8947030'
p1252
g3
(g4
g5
NtRp1253
((dp1254
S'P25323'
p1255
I01
stbsS'8703943'
p1256
g3
(g4
g5
NtRp1257
((dp1258
S'P20425'
p1259
I01
stbsS'16606621'
p1260
g3
(g4
g5
NtRp1261
((dp1262
S'Q86IV5'
p1263
I01
sS'P54661'
p1264
I01
stbsS'18359017'
p1265
g3
(g4
g5
NtRp1266
((dp1267
S'Q9NA13'
p1268
I01
stbsS'18334553'
p1269
g3
(g4
g5
NtRp1270
((dp1271
S'Q55CK2'
p1272
I01
sS'Q54GD0'
p1273
I01
stbsS'11352940'
p1274
g3
(g4
g5
NtRp1275
((dp1276
S'O76765'
p1277
I01
stbsS'4300706'
p1278
g3
(g4
g5
NtRp1279
((dp1280
S'P90521'
p1281
I01
stbsS'15563608'
p1282
g3
(g4
g5
NtRp1283
((dp1284
S'P36408'
p1285
I01
sS'P35401'
p1286
I01
sS'Q95ZG8'
p1287
I01
sS'P16051'
p1288
I01
stbsS'565823'
p1289
g3
(g4
g5
NtRp1290
((dp1291
S'Q54Y02'
p1292
I01
stbsS'23536703'
p1293
g3
(g4
g5
NtRp1294
((dp1295
S'Q54JW0'
p1296
I01
sS'Q54S83'
p1297
I01
stbsS'8635456'
p1298
g3
(g4
g5
NtRp1299
((dp1300
S'Q03380'
p1301
I01
stbsS'8609164'
p1302
g3
(g4
g5
NtRp1303
((dp1304
S'P34092'
p1305
I01
sS'P42522'
p1306
I01
stbsS'12771188'
p1307
g3
(g4
g5
NtRp1308
((dp1309
S'P54681'
p1310
I01
sS'O00899'
p1311
I01
sS'Q54BD4'
p1312
I01
stbsS'10978342'
p1313
g3
(g4
g5
NtRp1314
((dp1315
S'Q54JY7'
p1316
I01
sS'Q75JI3'
p1317
I01
stbsS'11358877'
p1318
g3
(g4
g5
NtRp1319
((dp1320
S'Q557E4'
p1321
I01
sS'P52285'
p1322
I01
sS'Q86KR9'
p1323
I01
stbsS'21205787'
p1324
g3
(g4
g5
NtRp1325
((dp1326
S'Q552C6'
p1327
I01
sS'Q75JK0'
p1328
I01
sS'P51136'
p1329
I01
stbsS'4278009'
p1330
g3
(g4
g5
NtRp1331
((dp1332
S'P08799'
p1333
I01
sS'P13833'
p1334
I01
sS'P09402'
p1335
I01
stbsS'1989999'
p1336
g3
(g4
g5
NtRp1337
((dp1338
S'P21900'
p1339
I01
stbsS'16151245'
p1340
g3
(g4
g5
NtRp1341
((dp1342
S'Q54EY0'
p1343
I01
sS'Q9NA13'
p1344
I01
sS'Q54HZ8'
p1345
I01
sS'Q558Y3'
p1346
I01
stbsS'10652255'
p1347
g3
(g4
g5
NtRp1348
((dp1349
S'Q9XXV8'
p1350
I01
stbsS'9883904'
p1351
g3
(g4
g5
NtRp1352
((dp1353
S'Q54QT7'
p1354
I01
stbsS'9880334'
p1355
g3
(g4
g5
NtRp1356
((dp1357
S'O96923'
p1358
I01
stbsS'22928977'
p1359
g3
(g4
g5
NtRp1360
((dp1361
S'Q03100'
p1362
I01
sS'Q86H13'
p1363
I01
stbsS'9428745'
p1364
g3
(g4
g5
NtRp1365
((dp1366
S'Q86IA3'
p1367
I01
stbsS'9880338'
p1368
g3
(g4
g5
NtRp1369
((dp1370
S'Q94464'
p1371
I01
stbsS'9885293'
p1372
g3
(g4
g5
NtRp1373
((dp1374
S'P54678'
p1375
I01
stbsS'18603769'
p1376
g3
(g4
g5
NtRp1377
((dp1378
S'Q4W6B5'
p1379
I01
sS'Q86A84'
p1380
I01
stbsS'8126094'
p1381
g3
(g4
g5
NtRp1382
((dp1383
S'P54647'
p1384
I01
sS'Q54E04'
p1385
I01
stbsS'20709790'
p1386
g3
(g4
g5
NtRp1387
((dp1388
S'Q8SSS9'
p1389
I01
stbsS'12956949'
p1390
g3
(g4
g5
NtRp1391
((dp1392
S'Q6UK63'
p1393
I01
stbsS'17077123'
p1394
g3
(g4
g5
NtRp1395
((dp1396
S'Q9NA13'
p1397
I01
stbsS'16899512'
p1398
g3
(g4
g5
NtRp1399
((dp1400
S'Q9GSG9'
p1401
I01
sS'Q55BN3'
p1402
I01
stbsS'15236669'
p1403
g3
(g4
g5
NtRp1404
((dp1405
S'Q55CZ1'
p1406
I01
stbsS'11606416'
p1407
g3
(g4
g5
NtRp1408
((dp1409
S'P32252'
p1410
I01
stbsS'15506982'
p1411
g3
(g4
g5
NtRp1412
((dp1413
S'Q55FT9'
p1414
I01
sS'Q869Q3'
p1415
I01
sS'Q54X65'
p1416
I01
sS'Q6UK63'
p1417
I01
stbsS'12843630'
p1418
g3
(g4
g5
NtRp1419
((dp1420
S'Q86I79'
p1421
I01
stbsS'8951083'
p1422
g3
(g4
g5
NtRp1423
((dp1424
S'P54681'
p1425
I01
stbsS'23773804'
p1426
g3
(g4
g5
NtRp1427
((dp1428
S'Q54LW0'
p1429
I01
stbsS'12654899'
p1430
g3
(g4
g5
NtRp1431
((dp1432
S'Q9U720'
p1433
I01
stbsS'8065317'
p1434
g3
(g4
g5
NtRp1435
((dp1436
S'P36417'
p1437
I01
stbsS'15496465'
p1438
g3
(g4
g5
NtRp1439
((dp1440
S'Q54HE7'
p1441
I01
sS'O96621'
p1442
I01
sS'Q54I79'
p1443
I01
stbsS'16356468'
p1444
g3
(g4
g5
NtRp1445
((dp1446
S'Q54G53'
p1447
I01
stbsS'15155803'
p1448
g3
(g4
g5
NtRp1449
((dp1450
S'Q54RZ5'
p1451
I01
stbsS'16735078'
p1452
g3
(g4
g5
NtRp1453
((dp1454
S'O96923'
p1455
I01
sS'P54644'
p1456
I01
sS'P03967'
p1457
I01
sS'Q54QB1'
p1458
I01
sS'P13466'
p1459
I01
stbsS'16086850'
p1460
g3
(g4
g5
NtRp1461
((dp1462
S'B0M0P8'
p1463
I01
sS'Q8IS18'
p1464
I01
stbsS'10898960'
p1465
g3
(g4
g5
NtRp1466
((dp1467
S'Q9Y0T2'
p1468
I01
stbsS'16299590'
p1469
g3
(g4
g5
NtRp1470
((dp1471
S'Q86KM0'
p1472
I01
sS'Q555B5'
p1473
I01
sS'Q556A8'
p1474
I01
stbsS'9275182'
p1475
g3
(g4
g5
NtRp1476
((dp1477
S'Q55AR3'
p1478
I01
stbsS'2996629'
p1479
g3
(g4
g5
NtRp1480
((dp1481
S'P07670'
p1482
I01
stbsS'22345351'
p1483
g3
(g4
g5
NtRp1484
((dp1485
S'Q55CT4'
p1486
I01
stbsS'7813455'
p1487
g3
(g4
g5
NtRp1488
((dp1489
S'P90521'
p1490
I01
stbsS'19207182'
p1491
g3
(g4
g5
NtRp1492
((dp1493
S'Q54J35'
p1494
I01
stbsS'17057715'
p1495
g3
(g4
g5
NtRp1496
((dp1497
S'P54657'
p1498
I01
stbsS'17725968'
p1499
g3
(g4
g5
NtRp1500
((dp1501
S'Q9U3X4'
p1502
I01
sS'Q54J97'
p1503
I01
stbsS'3576222'
p1504
g3
(g4
g5
NtRp1505
((dp1506
S'P08799'
p1507
I01
stbsS'15014435'
p1508
g3
(g4
g5
NtRp1509
((dp1510
S'Q9NHF6'
p1511
I01
sS'Q54HG2'
p1512
I01
stbsS'21531871'
p1513
g3
(g4
g5
NtRp1514
((dp1515
S'Q54WR4'
p1516
I01
sS'Q8MML5'
p1517
I01
stbsS'11437439'
p1518
g3
(g4
g5
NtRp1519
((dp1520
S'Q54TY7'
p1521
I01
stbsS'16766083'
p1522
g3
(g4
g5
NtRp1523
((dp1524
S'Q54KZ4'
p1525
I01
sS'Q54GK9'
p1526
I01
sS'Q54P63'
p1527
I01
sS'Q54NF1'
p1528
I01
sS'Q55GD9'
p1529
I01
sS'Q55DV8'
p1530
I01
sS'Q54T18'
p1531
I01
sS'Q54RC4'
p1532
I01
sS'Q54LJ3'
p1533
I01
stbsS'19465563'
p1534
g3
(g4
g5
NtRp1535
((dp1536
S'Q54X77'
p1537
I01
stbsS'9765812'
p1538
g3
(g4
g5
NtRp1539
((dp1540
S'Q7YSW8'
p1541
I01
stbsS'22944283'
p1542
g3
(g4
g5
NtRp1543
((dp1544
S'Q54BD4'
p1545
I01
sS'P51136'
p1546
I01
sS'Q54ET8'
p1547
I01
stbsS'16473345'
p1548
g3
(g4
g5
NtRp1549
((dp1550
S'Q86CZ2'
p1551
I01
stbsS'14665466'
p1552
g3
(g4
g5
NtRp1553
((dp1554
S'Q54TY7'
p1555
I01
sS'Q6TU47'
p1556
I01
sS'Q6TU48'
p1557
I01
stbsS'11782526'
p1558
g3
(g4
g5
NtRp1559
((dp1560
S'O77229'
p1561
I01
stbsS'15470429'
p1562
g3
(g4
g5
NtRp1563
((dp1564
S'Q54XG7'
p1565
I01
stbsS'14665465'
p1566
g3
(g4
g5
NtRp1567
((dp1568
S'Q9GPZ7'
p1569
I01
sS'Q54Z54'
p1570
I01
stbsS'21103944'
p1571
g3
(g4
g5
NtRp1572
((dp1573
S'P13773'
p1574
I01
sS'P35352'
p1575
I01
sS'P16051'
p1576
I01
stbsS'17553489'
p1577
g3
(g4
g5
NtRp1578
((dp1579
S'O96621'
p1580
I01
sS'O76765'
p1581
I01
sS'O96623'
p1582
I01
stbsS'15653432'
p1583
g3
(g4
g5
NtRp1584
((dp1585
S'P22685'
p1586
I01
sS'Q75K16'
p1587
I01
sS'Q54CN9'
p1588
I01
sS'Q54Q71'
p1589
I01
sS'P90526'
p1590
I01
sS'Q54N17'
p1591
I01
stbsS'8455930'
p1592
g3
(g4
g5
NtRp1593
((dp1594
S'P32252'
p1595
I01
stbsS'22391412'
p1596
g3
(g4
g5
NtRp1597
((dp1598
S'Q9GPK9'
p1599
I01
sS'P02599'
p1600
I01
stbsS'8743951'
p1601
g3
(g4
g5
NtRp1602
((dp1603
S'Q54E04'
p1604
I01
stbsS'9446571'
p1605
g3
(g4
g5
NtRp1606
((dp1607
S'Q8T638'
p1608
I01
stbsS'9254905'
p1609
g3
(g4
g5
NtRp1610
((dp1611
S'Q23925'
p1612
I01
sS'Q54B10'
p1613
I01
stbsS'16336640'
p1614
g3
(g4
g5
NtRp1615
((dp1616
S'Q8SSQ3'
p1617
I01
stbsS'12018385'
p1618
g3
(g4
g5
NtRp1619
((dp1620
S'Q95ZG4'
p1621
I01
sS'Q95ZG3'
p1622
I01
stbsS'9348538'
p1623
g3
(g4
g5
NtRp1624
((dp1625
S'Q94490'
p1626
I01
stbsS'9435289'
p1627
g3
(g4
g5
NtRp1628
((dp1629
S'Q23917'
p1630
I01
stbsS'15276209'
p1631
g3
(g4
g5
NtRp1632
((dp1633
S'Q8T7K0'
p1634
I01
stbsS'17889831'
p1635
g3
(g4
g5
NtRp1636
((dp1637
S'Q9GPM2'
p1638
I01
stbsS'22875808'
p1639
g3
(g4
g5
NtRp1640
((dp1641
S'Q55FS1'
p1642
I01
sS'Q54UI6'
p1643
I01
stbsS'11927596'
p1644
g3
(g4
g5
NtRp1645
((dp1646
S'Q95YL4'
p1647
I01
sS'Q95YL5'
p1648
I01
stbsS'9425628'
p1649
g3
(g4
g5
NtRp1650
((dp1651
S'P25870'
p1652
I01
sS'Q54Y50'
p1653
I01
sS'Q8MN58'
p1654
I01
stbsS'14651934'
p1655
g3
(g4
g5
NtRp1656
((dp1657
S'P42523'
p1658
I01
sS'Q9U8Q1'
p1659
I01
stbsS'22219373'
p1660
g3
(g4
g5
NtRp1661
((dp1662
S'Q8I7T3'
p1663
I01
sS'Q55FP0'
p1664
I01
sS'Q54KF7'
p1665
I01
stbsS'15788570'
p1666
g3
(g4
g5
NtRp1667
((dp1668
S'Q95US4'
p1669
I01
stbsS'12413895'
p1670
g3
(g4
g5
NtRp1671
((dp1672
S'O77203'
p1673
I01
stbsS'12032065'
p1674
g3
(g4
g5
NtRp1675
((dp1676
S'Q03479'
p1677
I01
stbsS'9837757'
p1678
g3
(g4
g5
NtRp1679
((dp1680
S'O96759'
p1681
I01
stbsS'15507488'
p1682
g3
(g4
g5
NtRp1683
((dp1684
S'Q86L04'
p1685
I01
stbsS'9630545'
p1686
g3
(g4
g5
NtRp1687
((dp1688
S'Q55BM4'
p1689
I01
stbsS'12464622'
p1690
g3
(g4
g5
NtRp1691
((dp1692
S'Q54D97'
p1693
I01
sS'Q8I7P3'
p1694
I01
sS'Q54W40'
p1695
I01
sS'Q54PV1'
p1696
I01
stbsS'15701689'
p1697
g3
(g4
g5
NtRp1698
((dp1699
S'Q54BM7'
p1700
I01
stbsS'19011688'
p1701
g3
(g4
g5
NtRp1702
((dp1703
S'Q8T9S7'
p1704
I01
sS'P54673'
p1705
I01
sS'P54674'
p1706
I01
stbsS'10092866'
p1707
g3
(g4
g5
NtRp1708
((dp1709
S'O97470'
p1710
I01
stbsS'2885843'
p1711
g3
(g4
g5
NtRp1712
((dp1713
S'P03967'
p1714
I01
stbsS'18835579'
p1715
g3
(g4
g5
NtRp1716
((dp1717
S'Q54XS1'
p1718
I01
stbsS'17630977'
p1719
g3
(g4
g5
NtRp1720
((dp1721
S'P13773'
p1722
I01
stbsS'9729488'
p1723
g3
(g4
g5
NtRp1724
((dp1725
S'Q54TY7'
p1726
I01
stbsS'16781008'
p1727
g3
(g4
g5
NtRp1728
((dp1729
S'Q75K24'
p1730
I01
sS'Q54E53'
p1731
I01
sS'Q54QX3'
p1732
I01
sS'Q54C92'
p1733
I01
sS'Q54B82'
p1734
I01
sS'Q55BD5'
p1735
I01
sS'P35352'
p1736
I01
sS'Q54PF3'
p1737
I01
sS'Q54HL6'
p1738
I01
stbsS'9238018'
p1739
g3
(g4
g5
NtRp1740
((dp1741
S'P25870'
p1742
I01
sS'P08799'
p1743
I01
stbsS'16672332'
p1744
g3
(g4
g5
NtRp1745
((dp1746
S'Q54ET0'
p1747
I01
stbsS'11229601'
p1748
g3
(g4
g5
NtRp1749
((dp1750
S'O60950'
p1751
I01
stbsS'19002378'
p1752
g3
(g4
g5
NtRp1753
((dp1754
S'Q54EW0'
p1755
I01
stbsS'10205164'
p1756
g3
(g4
g5
NtRp1757
((dp1758
S'P54644'
p1759
I01
stbsS'17462897'
p1760
g3
(g4
g5
NtRp1761
((dp1762
S'Q54S78'
p1763
I01
sS'Q54F55'
p1764
I01
sS'Q55FX5'
p1765
I01
sS'Q8T9S7'
p1766
I01
sS'P54673'
p1767
I01
sS'P54674'
p1768
I01
sS'P54675'
p1769
I01
stbsS'8769416'
p1770
g3
(g4
g5
NtRp1771
((dp1772
S'P34125'
p1773
I01
stbsS'3032987'
p1774
g3
(g4
g5
NtRp1775
((dp1776
S'P25323'
p1777
I01
stbsS'17056744'
p1778
g3
(g4
g5
NtRp1779
((dp1780
S'Q9GTN7'
p1781
I01
stbsS'10224056'
p1782
g3
(g4
g5
NtRp1783
((dp1784
S'Q54IL5'
p1785
I01
stbsS'16042397'
p1786
g3
(g4
g5
NtRp1787
((dp1788
S'P34125'
p1789
I01
stbsS'8280098'
p1790
g3
(g4
g5
NtRp1791
((dp1792
S'P16894'
p1793
I01
sS'P16051'
p1794
I01
stbsS'17548361'
p1795
g3
(g4
g5
NtRp1796
((dp1797
S'P34036'
p1798
I01
stbsS'20408569'
p1799
g3
(g4
g5
NtRp1800
((dp1801
S'Q54D04'
p1802
I01
sS'Q54PX9'
p1803
I01
sS'Q54D21'
p1804
I01
sS'Q86K89'
p1805
I01
sS'Q8TA03'
p1806
I01
sS'Q54Z13'
p1807
I01
sS'Q55D61'
p1808
I01
sS'Q54KN7'
p1809
I01
sS'Q556G3'
p1810
I01
sS'Q86HW7'
p1811
I01
sS'Q54NE6'
p1812
I01
sS'Q75JR3'
p1813
I01
sS'Q94469'
p1814
I01
sS'Q23921'
p1815
I01
sS'Q54X73'
p1816
I01
sS'P54872'
p1817
I01
sS'Q95UQ1'
p1818
I01
sS'Q54F07'
p1819
I01
sS'Q54YA0'
p1820
I01
sS'Q556P4'
p1821
I01
sS'P83401'
p1822
I01
sS'Q557E0'
p1823
I01
sS'Q54P64'
p1824
I01
sS'Q55GC5'
p1825
I01
sS'P29505'
p1826
I01
sS'Q54DK1'
p1827
I01
sS'Q55FM7'
p1828
I01
sS'P54654'
p1829
I01
sS'O77229'
p1830
I01
sS'Q54DA8'
p1831
I01
sS'P0CT32'
p1832
I01
sS'Q65YR8'
p1833
I01
sS'Q54JK3'
p1834
I01
sS'Q964D8'
p1835
I01
sS'Q23919'
p1836
I01
sS'Q553V1'
p1837
I01
sS'P46794'
p1838
I01
sS'Q55GQ5'
p1839
I01
sS'P42530'
p1840
I01
sS'Q54JD9'
p1841
I01
stbsS'17362909'
p1842
g3
(g4
g5
NtRp1843
((dp1844
S'O61125'
p1845
I01
stbsS'9015266'
p1846
g3
(g4
g5
NtRp1847
((dp1848
S'P16894'
p1849
I01
stbsS'23576747'
p1850
g3
(g4
g5
NtRp1851
((dp1852
S'P34042'
p1853
I01
sS'Q54DU0'
p1854
I01
sS'P16894'
p1855
I01
sS'P16051'
p1856
I01
stbsS'15643062'
p1857
g3
(g4
g5
NtRp1858
((dp1859
S'Q86IV5'
p1860
I01
sS'P54661'
p1861
I01
sS'Q54K22'
p1862
I01
stbsS'15545285'
p1863
g3
(g4
g5
NtRp1864
((dp1865
S'P42527'
p1866
I01
stbsS'22120990'
p1867
g3
(g4
g5
NtRp1868
((dp1869
S'Q54D02'
p1870
I01
sS'Q54D03'
p1871
I01
sS'Q54D04'
p1872
I01
sS'Q54D06'
p1873
I01
sS'Q54D07'
p1874
I01
sS'Q54D08'
p1875
I01
sS'Q8MQU6'
p1876
I01
sS'Q55BE6'
p1877
I01
sS'Q557I9'
p1878
I01
sS'Q54RX9'
p1879
I01
sS'Q54RX6'
p1880
I01
sS'Q54RX7'
p1881
I01
sS'Q54RX2'
p1882
I01
sS'Q54RX0'
p1883
I01
sS'Q557I4'
p1884
I01
sS'Q54MM6'
p1885
I01
sS'Q54PT5'
p1886
I01
sS'Q54PT7'
p1887
I01
sS'Q54DW2'
p1888
I01
sS'Q54MM9'
p1889
I01
sS'Q54N47'
p1890
I01
sS'Q54E36'
p1891
I01
sS'Q54E30'
p1892
I01
sS'Q553Q8'
p1893
I01
sS'Q55ET3'
p1894
I01
sS'Q54JG6'
p1895
I01
sS'P11874'
p1896
I01
sS'Q54RJ1'
p1897
I01
sS'Q8T2Q3'
p1898
I01
sS'Q54B42'
p1899
I01
sS'Q54B43'
p1900
I01
sS'Q55E06'
p1901
I01
sS'Q54CV3'
p1902
I01
sS'Q54BJ7'
p1903
I01
sS'Q552C9'
p1904
I01
sS'Q86K89'
p1905
I01
sS'Q86A21'
p1906
I01
sS'P34045'
p1907
I01
sS'Q869L6'
p1908
I01
sS'P34046'
p1909
I01
sS'P34043'
p1910
I01
sS'P34042'
p1911
I01
sS'Q550A6'
p1912
I01
sS'Q555G2'
p1913
I01
sS'Q555G0'
p1914
I01
sS'Q55F30'
p1915
I01
sS'Q557I5'
p1916
I01
sS'Q557G3'
p1917
I01
sS'Q55BE9'
p1918
I01
sS'Q54GL5'
p1919
I01
sS'Q54KM4'
p1920
I01
sS'Q54KM5'
p1921
I01
sS'Q55FI4'
p1922
I01
sS'Q54HR9'
p1923
I01
sS'Q55FI1'
p1924
I01
sS'Q54KM9'
p1925
I01
sS'Q55GG8'
p1926
I01
sS'Q54UM3'
p1927
I01
sS'Q54UM1'
p1928
I01
sS'Q54FC3'
p1929
I01
sS'Q7KWM5'
p1930
I01
sS'Q8T690'
p1931
I01
sS'Q9TW32'
p1932
I01
sS'Q55DB6'
p1933
I01
sS'Q54JG9'
p1934
I01
sS'Q9BIW5'
p1935
I01
sS'P24005'
p1936
I01
sS'Q54N42'
p1937
I01
sS'O96070'
p1938
I01
sS'Q8T2U3'
p1939
I01
sS'Q55AI5'
p1940
I01
sS'Q54XI2'
p1941
I01
sS'Q54XI5'
p1942
I01
sS'Q54BM1'
p1943
I01
sS'Q54BM0'
p1944
I01
sS'Q54BM3'
p1945
I01
sS'Q54BM2'
p1946
I01
sS'P46794'
p1947
I01
sS'Q54BM7'
p1948
I01
sS'Q54U24'
p1949
I01
sS'Q55ET7'
p1950
I01
sS'P02888'
p1951
I01
sS'Q55BX3'
p1952
I01
sS'Q55BX5'
p1953
I01
sS'Q54QA4'
p1954
I01
sS'Q54R55'
p1955
I01
sS'Q76NW2'
p1956
I01
sS'Q54M03'
p1957
I01
sS'Q54WM4'
p1958
I01
sS'Q86HU8'
p1959
I01
sS'Q86HU9'
p1960
I01
sS'Q95UQ1'
p1961
I01
sS'Q86JA1'
p1962
I01
sS'P90532'
p1963
I01
sS'Q86JA8'
p1964
I01
sS'Q54JV8'
p1965
I01
sS'Q54XS7'
p1966
I01
sS'Q54VW1'
p1967
I01
sS'Q1ZXL7'
p1968
I01
sS'Q54JV6'
p1969
I01
sS'Q54JV0'
p1970
I01
sS'Q54JV1'
p1971
I01
sS'Q54MB5'
p1972
I01
sS'Q54MB4'
p1973
I01
sS'Q02720'
p1974
I01
sS'Q54HV6'
p1975
I01
sS'Q9GS21'
p1976
I01
sS'Q54HV5'
p1977
I01
sS'Q86HC7'
p1978
I01
sS'Q54NF2'
p1979
I01
sS'Q54NF3'
p1980
I01
sS'Q76P29'
p1981
I01
sS'Q54NF8'
p1982
I01
sS'Q54NF9'
p1983
I01
sS'Q54K41'
p1984
I01
sS'Q54K47'
p1985
I01
sS'Q76P23'
p1986
I01
sS'Q54GI7'
p1987
I01
sS'Q54LV8'
p1988
I01
sS'Q54WD9'
p1989
I01
sS'Q54GI9'
p1990
I01
sS'Q54ZW5'
p1991
I01
sS'Q54SM3'
p1992
I01
sS'Q54TU2'
p1993
I01
sS'Q75K16'
p1994
I01
sS'Q54TU4'
p1995
I01
sS'Q54CG0'
p1996
I01
sS'Q54TU8'
p1997
I01
sS'Q54HD4'
p1998
I01
sS'Q75JI5'
p1999
I01
sS'Q54NP6'
p2000
I01
sS'Q54SC9'
p2001
I01
sS'Q54J34'
p2002
I01
sS'O00899'
p2003
I01
sS'O00897'
p2004
I01
sS'Q54G47'
p2005
I01
sS'Q54G46'
p2006
I01
sS'Q55BJ9'
p2007
I01
sS'Q54G42'
p2008
I01
sS'Q54BQ3'
p2009
I01
sS'Q55C16'
p2010
I01
sS'Q54BQ8'
p2011
I01
sS'O76856'
p2012
I01
sS'Q54G75'
p2013
I01
sS'Q8T664'
p2014
I01
sS'Q54D10'
p2015
I01
sS'Q55BD5'
p2016
I01
sS'Q54DT1'
p2017
I01
sS'Q54PX3'
p2018
I01
sS'Q54JX6'
p2019
I01
sS'Q54ML1'
p2020
I01
sS'Q54JX0'
p2021
I01
sS'Q1ZXA8'
p2022
I01
sS'Q54PU7'
p2023
I01
sS'Q8MMS1'
p2024
I01
sS'Q54E22'
p2025
I01
sS'Q54N57'
p2026
I01
sS'Q54E20'
p2027
I01
sS'Q54E24'
p2028
I01
sS'Q553V2'
p2029
I01
sS'Q553V1'
p2030
I01
sS'Q54N59'
p2031
I01
sS'Q54DJ0'
p2032
I01
sS'Q54JJ1'
p2033
I01
sS'Q54JJ8'
p2034
I01
sS'Q54JJ9'
p2035
I01
sS'Q75JD5'
p2036
I01
sS'Q54CU7'
p2037
I01
sS'Q54CU2'
p2038
I01
sS'Q550R6'
p2039
I01
sS'Q23924'
p2040
I01
sS'Q23921'
p2041
I01
sS'Q552B4'
p2042
I01
sS'Q9BKJ9'
p2043
I01
sS'Q552B8'
p2044
I01
sS'Q86L28'
p2045
I01
sS'Q86IX4'
p2046
I01
sS'P29505'
p2047
I01
sS'P02599'
p2048
I01
sS'O77033'
p2049
I01
sS'Q55FF9'
p2050
I01
sS'Q55FF3'
p2051
I01
sS'Q55FF2'
p2052
I01
sS'Q55FF7'
p2053
I01
sS'Q54RK5'
p2054
I01
sS'Q9U3X4'
p2055
I01
sS'Q54YY1'
p2056
I01
sS'B0G108'
p2057
I01
sS'Q54KL5'
p2058
I01
sS'Q55FH2'
p2059
I01
sS'Q86KB7'
p2060
I01
sS'Q86KB4'
p2061
I01
sS'Q558Y7'
p2062
I01
sS'Q54IP5'
p2063
I01
sS'Q54IP4'
p2064
I01
sS'Q54UL9'
p2065
I01
sS'Q55BV1'
p2066
I01
sS'Q00766'
p2067
I01
sS'Q54IP9'
p2068
I01
sS'Q55CN9'
p2069
I01
sS'Q8T683'
p2070
I01
sS'Q54FN9'
p2071
I01
sS'Q54X84'
p2072
I01
sS'Q54X86'
p2073
I01
sS'Q54X80'
p2074
I01
sS'Q54W37'
p2075
I01
sS'Q54W34'
p2076
I01
sS'Q54W35'
p2077
I01
sS'Q54EH1'
p2078
I01
sS'Q54EH2'
p2079
I01
sS'Q55AB6'
p2080
I01
sS'Q54LA5'
p2081
I01
sS'Q8T2T5'
p2082
I01
sS'Q54XF7'
p2083
I01
sS'Q54XF2'
p2084
I01
sS'Q54P88'
p2085
I01
sS'Q54CB3'
p2086
I01
sS'Q54BN4'
p2087
I01
sS'Q54BN0'
p2088
I01
sS'O97470'
p2089
I01
sS'Q54BN3'
p2090
I01
sS'Q54XB6'
p2091
I01
sS'Q54P64'
p2092
I01
sS'Q54P63'
p2093
I01
sS'P19198'
p2094
I01
sS'Q54WL7'
p2095
I01
sS'Q54WL4'
p2096
I01
sS'Q54WL1'
p2097
I01
sS'Q55GJ6'
p2098
I01
sS'Q55GJ7'
p2099
I01
sS'Q55GJ4'
p2100
I01
sS'Q55GJ9'
p2101
I01
sS'Q86HT1'
p2102
I01
sS'Q54FX8'
p2103
I01
sS'Q54S90'
p2104
I01
sS'Q8T1G5'
p2105
I01
sS'Q54S93'
p2106
I01
sS'Q54FX4'
p2107
I01
sS'Q54PQ6'
p2108
I01
sS'Q9GSE7'
p2109
I01
sS'Q55ED3'
p2110
I01
sS'Q55ED1'
p2111
I01
sS'Q86HB8'
p2112
I01
sS'Q54TD0'
p2113
I01
sS'Q54HW8'
p2114
I01
sS'Q54TD3'
p2115
I01
sS'Q8I7T3'
p2116
I01
sS'Q54NG9'
p2117
I01
sS'Q54ZH1'
p2118
I01
sS'Q76P36'
p2119
I01
sS'Q54NG2'
p2120
I01
sS'Q54NG1'
p2121
I01
sS'Q54L07'
p2122
I01
sS'Q54R66'
p2123
I01
sS'Q54R67'
p2124
I01
sS'Q54LW6'
p2125
I01
sS'Q54K91'
p2126
I01
sS'Q54K93'
p2127
I01
sS'Q75K24'
p2128
I01
sS'Q75K27'
p2129
I01
sS'Q54K99'
p2130
I01
sS'Q54TZ4'
p2131
I01
sS'Q54F42'
p2132
I01
sS'Q54CF7'
p2133
I01
sS'Q54SB4'
p2134
I01
sS'Q65YR7'
p2135
I01
sS'Q54SB0'
p2136
I01
sS'Q55G58'
p2137
I01
sS'Q54NQ0'
p2138
I01
sS'Q65YR8'
p2139
I01
sS'Q54NQ7'
p2140
I01
sS'Q54J42'
p2141
I01
sS'Q54J47'
p2142
I01
sS'Q54J48'
p2143
I01
sS'Q55BU8'
p2144
I01
sS'Q54H86'
p2145
I01
sS'Q54H87'
p2146
I01
sS'Q8MML6'
p2147
I01
sS'Q54G34'
p2148
I01
sS'Q54G35'
p2149
I01
sS'Q55C58'
p2150
I01
sS'Q54D63'
p2151
I01
sS'Q54C92'
p2152
I01
sS'Q54D66'
p2153
I01
sS'P22887'
p2154
I01
sS'C7FZY1'
p2155
I01
sS'Q86AE2'
p2156
I01
sS'Q869N9'
p2157
I01
sS'Q54DU1'
p2158
I01
sS'Q54KM7'
p2159
I01
sS'Q54WK3'
p2160
I01
sS'Q869N1'
p2161
I01
sS'Q54DU9'
p2162
I01
sS'Q54RZ4'
p2163
I01
sS'Q54RZ5'
p2164
I01
sS'Q869N6'
p2165
I01
sS'Q54JY7'
p2166
I01
sS'Q54PR9'
p2167
I01
sS'Q54JY1'
p2168
I01
sS'Q55EQ3'
p2169
I01
sS'Q9GSB0'
p2170
I01
sS'Q54PR7'
p2171
I01
sS'Q553W9'
p2172
I01
sS'Q55GV4'
p2173
I01
sS'Q54VB8'
p2174
I01
sS'Q55GV3'
p2175
I01
sS'Q55GV0'
p2176
I01
sS'Q54N68'
p2177
I01
sS'Q54VB5'
p2178
I01
sS'P54660'
p2179
I01
sS'Q559R0'
p2180
I01
sS'Q55GV8'
p2181
I01
sS'Q54VB3'
p2182
I01
sS'Q55CY7'
p2183
I01
sS'Q54B67'
p2184
I01
sS'Q54DK1'
p2185
I01
sS'Q55F29'
p2186
I01
sS'Q55GU7'
p2187
I01
sS'Q54J07'
p2188
I01
sS'Q54JK6'
p2189
I01
sS'Q54JK5'
p2190
I01
sS'Q54JK3'
p2191
I01
sS'Q9NCL8'
p2192
I01
sS'Q550Q4'
p2193
I01
sS'Q23911'
p2194
I01
sS'Q23915'
p2195
I01
sS'Q54AX5'
p2196
I01
sS'Q8MP23'
p2197
I01
sS'O76734'
p2198
I01
sS'Q54EY3'
p2199
I01
sS'Q86IY4'
p2200
I01
sS'Q86IY7'
p2201
I01
sS'Q86L14'
p2202
I01
sS'Q86L17'
p2203
I01
sS'Q86H98'
p2204
I01
sS'Q555I8'
p2205
I01
sS'Q86H96'
p2206
I01
sS'Q54RL3'
p2207
I01
sS'Q869X1'
p2208
I01
sS'Q54YX5'
p2209
I01
sS'Q54YX7'
p2210
I01
sS'Q557E4'
p2211
I01
sS'P52922'
p2212
I01
sS'P09556'
p2213
I01
sS'Q54YX3'
p2214
I01
sS'Q557E0'
p2215
I01
sS'Q55FK2'
p2216
I01
sS'Q55FK4'
p2217
I01
sS'Q4W6B5'
p2218
I01
sS'Q54KC6'
p2219
I01
sS'Q86KC1'
p2220
I01
sS'Q86H79'
p2221
I01
sS'Q54FY1'
p2222
I01
sS'Q54IS5'
p2223
I01
sS'Q6TU48'
p2224
I01
sS'P18613'
p2225
I01
sS'Q54FY3'
p2226
I01
sS'Q54IS9'
p2227
I01
sS'Q559H0'
p2228
I01
sS'Q559H1'
p2229
I01
sS'P26310'
p2230
I01
sS'P14196'
p2231
I01
sS'Q9NH03'
p2232
I01
sS'Q9U641'
p2233
I01
sS'Q6UK63'
p2234
I01
sS'Q54W21'
p2235
I01
sS'Q54W20'
p2236
I01
sS'Q54X97'
p2237
I01
sS'Q54RV9'
p2238
I01
sS'B0G117'
p2239
I01
sS'P27685'
p2240
I01
sS'Q86IK2'
p2241
I01
sS'Q54EK0'
p2242
I01
sS'B0G119'
p2243
I01
sS'Q54LF1'
p2244
I01
sS'Q54QQ8'
p2245
I01
sS'Q54XG4'
p2246
I01
sS'Q54SJ2'
p2247
I01
sS'Q54XG0'
p2248
I01
sS'Q54QQ0'
p2249
I01
sS'Q55DY8'
p2250
I01
sS'Q55FN8'
p2251
I01
sS'O15692'
p2252
I01
sS'Q54P96'
p2253
I01
sS'Q54P95'
p2254
I01
sS'Q55DY7'
p2255
I01
sS'Q54P71'
p2256
I01
sS'Q54P70'
p2257
I01
sS'Q54BA2'
p2258
I01
sS'Q54QC1'
p2259
I01
sS'Q55BZ5'
p2260
I01
sS'Q55BZ4'
p2261
I01
sS'P0DJ26'
p2262
I01
sS'Q54M22'
p2263
I01
sS'Q54WK0'
p2264
I01
sS'Q54S81'
p2265
I01
sS'Q553S7'
p2266
I01
sS'Q7KWQ2'
p2267
I01
sS'Q86JC9'
p2268
I01
sS'Q54T71'
p2269
I01
sS'Q54T73'
p2270
I01
sS'Q54FY2'
p2271
I01
sS'Q54T77'
p2272
I01
sS'Q95US4'
p2273
I01
sS'Q54VQ1'
p2274
I01
sS'Q54VQ7'
p2275
I01
sS'Q1ZXN5'
p2276
I01
sS'Q75JY8'
p2277
I01
sS'Q86JM7'
p2278
I01
sS'Q86JM5'
p2279
I01
sS'Q86JM3'
p2280
I01
sS'Q54L10'
p2281
I01
sS'Q54HT3'
p2282
I01
sS'Q54HT4'
p2283
I01
sS'Q555Z2'
p2284
I01
sS'Q54L19'
p2285
I01
sS'Q54L18'
p2286
I01
sS'Q8T2A6'
p2287
I01
sS'Q54ZI6'
p2288
I01
sS'Q54SS0'
p2289
I01
sS'Q86A88'
p2290
I01
sS'Q54R72'
p2291
I01
sS'Q54R74'
p2292
I01
sS'Q54GG6'
p2293
I01
sS'Q54LT5'
p2294
I01
sS'Q54LT0'
p2295
I01
sS'Q54LT2'
p2296
I01
sS'Q54NR5'
p2297
I01
sS'Q54F59'
p2298
I01
sS'Q54NR1'
p2299
I01
sS'Q54NR3'
p2300
I01
sS'Q54F53'
p2301
I01
sS'Q54F52'
p2302
I01
sS'Q54SA0'
p2303
I01
sS'Q54SA1'
p2304
I01
sS'Q54JS1'
p2305
I01
sS'Q55G29'
p2306
I01
sS'Q54LZ3'
p2307
I01
sS'Q54J51'
p2308
I01
sS'Q54J50'
p2309
I01
sS'Q54J53'
p2310
I01
sS'Q54G21'
p2311
I01
sS'Q54Y63'
p2312
I01
sS'Q54H97'
p2313
I01
sS'Q54G24'
p2314
I01
sS'Q551V0'
p2315
I01
sS'Q54BS2'
p2316
I01
sS'Q54IN9'
p2317
I01
sS'Q54D71'
p2318
I01
sS'Q54IN0'
p2319
I01
sS'Q54IN6'
p2320
I01
sS'P25323'
p2321
I01
sS'Q55BF5'
p2322
I01
sS'Q86AQ3'
p2323
I01
sS'Q553T0'
p2324
I01
sS'Q86AQ7'
p2325
I01
sS'Q54MN6'
p2326
I01
sS'Q54PS3'
p2327
I01
sS'Q54MN4'
p2328
I01
sS'Q54PS7'
p2329
I01
sS'Q54HB2'
p2330
I01
sS'Q55GW4'
p2331
I01
sS'Q54VC9'
p2332
I01
sS'Q54CE0'
p2333
I01
sS'Q54XU9'
p2334
I01
sS'Q54N76'
p2335
I01
sS'Q54N75'
p2336
I01
sS'Q54N74'
p2337
I01
sS'Q8MML5'
p2338
I01
sS'Q54PA2'
p2339
I01
sS'Q54PD6'
p2340
I01
sS'Q8I0H7'
p2341
I01
sS'Q54PA9'
p2342
I01
sS'Q54DH7'
p2343
I01
sS'Q86AC9'
p2344
I01
sS'Q54VM6'
p2345
I01
sS'Q54VM2'
p2346
I01
sS'Q54MX5'
p2347
I01
sS'Q54MX6'
p2348
I01
sS'Q8SSN5'
p2349
I01
sS'Q86KP5'
p2350
I01
sS'Q552L5'
p2351
I01
sS'Q555X4'
p2352
I01
sS'Q555X3'
p2353
I01
sS'P13021'
p2354
I01
sS'P13022'
p2355
I01
sS'P13023'
p2356
I01
sS'Q54EX5'
p2357
I01
sS'Q54EX7'
p2358
I01
sS'Q54EX6'
p2359
I01
sS'Q86IZ2'
p2360
I01
sS'Q54K81'
p2361
I01
sS'Q86KR5'
p2362
I01
sS'Q9NI62'
p2363
I01
sS'Q86H83'
p2364
I01
sS'Q86H82'
p2365
I01
sS'Q555C6'
p2366
I01
sS'Q869Y3'
p2367
I01
sS'Q869Y7'
p2368
I01
sS'Q54JQ8'
p2369
I01
sS'Q54UN6'
p2370
I01
sS'Q54KB8'
p2371
I01
sS'Q55DZ3'
p2372
I01
sS'Q54KB7'
p2373
I01
sS'Q55FJ2'
p2374
I01
sS'Q54KB3'
p2375
I01
sS'Q55FJ0'
p2376
I01
sS'P34124'
p2377
I01
sS'P34123'
p2378
I01
sS'P34120'
p2379
I01
sS'Q54IR8'
p2380
I01
sS'Q54IR0'
p2381
I01
sS'P20790'
p2382
I01
sS'Q86L05'
p2383
I01
sS'Q86L04'
p2384
I01
sS'Q559I6'
p2385
I01
sS'Q86JP3'
p2386
I01
sS'Q54FH7'
p2387
I01
sS'Q54FH4'
p2388
I01
sS'Q55CB6'
p2389
I01
sS'Q54Z69'
p2390
I01
sS'Q54W18'
p2391
I01
sS'Q54W19'
p2392
I01
sS'Q54X66'
p2393
I01
sS'Q54X65'
p2394
I01
sS'Q54X63'
p2395
I01
sS'B0G160'
p2396
I01
sS'B0G167'
p2397
I01
sS'Q9NHF6'
p2398
I01
sS'Q55DJ0'
p2399
I01
sS'Q54LG3'
p2400
I01
sS'Q8T2R4'
p2401
I01
sS'Q54XD8'
p2402
I01
sS'Q55DX6'
p2403
I01
sS'Q54ED0'
p2404
I01
sS'Q86IF6'
p2405
I01
sS'Q54QP6'
p2406
I01
sS'Q54QP2'
p2407
I01
sS'P30815'
p2408
I01
sS'Q54V68'
p2409
I01
sS'Q54V61'
p2410
I01
sS'Q54P42'
p2411
I01
sS'Q54P46'
p2412
I01
sS'Q86A97'
p2413
I01
sS'Q54WJ9'
p2414
I01
sS'P46793'
p2415
I01
sS'Q54WJ1'
p2416
I01
sS'Q6UUW6'
p2417
I01
sS'Q55GH8'
p2418
I01
sS'Q54FZ2'
p2419
I01
sS'Q54FZ3'
p2420
I01
sS'Q86HR3'
p2421
I01
sS'Q55GH1'
p2422
I01
sS'Q55AD9'
p2423
I01
sS'Q86JB6'
p2424
I01
sS'Q86JB5'
p2425
I01
sS'Q86JB4'
p2426
I01
sS'Q54VR8'
p2427
I01
sS'Q54VR9'
p2428
I01
sS'Q9UA41'
p2429
I01
sS'Q54VR1'
p2430
I01
sS'Q54VR2'
p2431
I01
sS'Q76P15'
p2432
I01
sS'P16051'
p2433
I01
sS'Q54SR7'
p2434
I01
sS'Q54NA0'
p2435
I01
sS'Q54XR4'
p2436
I01
sS'Q54R89'
p2437
I01
sS'Q55A19'
p2438
I01
sS'Q54LU2'
p2439
I01
sS'Q54GF3'
p2440
I01
sS'Q54NS3'
p2441
I01
sS'Q54NS1'
p2442
I01
sS'Q54NS7'
p2443
I01
sS'Q54NS5'
p2444
I01
sS'Q54NS9'
p2445
I01
sS'Q54F66'
p2446
I01
sS'Q54GT6'
p2447
I01
sS'Q55G30'
p2448
I01
sS'Q54GT9'
p2449
I01
sS'Q54J68'
p2450
I01
sS'Q54J69'
p2451
I01
sS'O96552'
p2452
I01
sS'Q54J66'
p2453
I01
sS'Q55CR1'
p2454
I01
sS'Q551W8'
p2455
I01
sS'Q55EF7'
p2456
I01
sS'Q54H66'
p2457
I01
sS'Q54BT0'
p2458
I01
sS'Q54BT5'
p2459
I01
sS'Q03409'
p2460
I01
sS'O60950'
p2461
I01
sS'Q551A1'
p2462
I01
sS'Q55BA8'
p2463
I01
sS'Q55BA9'
p2464
I01
sS'Q54PP1'
p2465
I01
sS'Q55BA2'
p2466
I01
sS'Q8T1F9'
p2467
I01
sS'Q75JF3'
p2468
I01
sS'Q553U5'
p2469
I01
sS'Q55EX9'
p2470
I01
sS'Q55GT0'
p2471
I01
sS'P15064'
p2472
I01
sS'Q54HC2'
p2473
I01
sS'Q54CD7'
p2474
I01
sS'Q55GT5'
p2475
I01
sS'Q75JN6'
p2476
I01
sS'Q75JN8'
p2477
I01
sS'Q54N06'
p2478
I01
sS'Q8STF9'
p2479
I01
sS'Q559X6'
p2480
I01
sS'Q86K69'
p2481
I01
sS'Q54B82'
p2482
I01
sS'Q54JM8'
p2483
I01
sS'Q54VN3'
p2484
I01
sS'O77229'
p2485
I01
sS'Q54VN6'
p2486
I01
sS'Q86AQ5'
p2487
I01
sS'Q54JM3'
p2488
I01
sS'Q556P6'
p2489
I01
sS'Q54CZ8'
p2490
I01
sS'O15744'
p2491
I01
sS'Q54I12'
p2492
I01
sS'Q54I10'
p2493
I01
sS'P54641'
p2494
I01
sS'B0M0Q0'
p2495
I01
sS'B0M0Q3'
p2496
I01
sS'Q552Y0'
p2497
I01
sS'Q9U9A3'
p2498
I01
sS'Q54KS1'
p2499
I01
sS'Q54CE4'
p2500
I01
sS'Q54IC2'
p2501
I01
sS'Q54YZ4'
p2502
I01
sS'Q54YZ0'
p2503
I01
sS'Q58A40'
p2504
I01
sS'Q54NM0'
p2505
I01
sS'Q54DI6'
p2506
I01
sS'Q54DI4'
p2507
I01
sS'Q869Z4'
p2508
I01
sS'Q869Z5'
p2509
I01
sS'Q54RN6'
p2510
I01
sS'P29447'
p2511
I01
sS'Q54RN1'
p2512
I01
sS'Q557C7'
p2513
I01
sS'Q54DI8'
p2514
I01
sS'Q54UI0'
p2515
I01
sS'Q86H55'
p2516
I01
sS'Q55FM2'
p2517
I01
sS'Q55FM0'
p2518
I01
sS'Q54KA3'
p2519
I01
sS'Q55FM7'
p2520
I01
sS'Q55FM5'
p2521
I01
sS'Q54YL3'
p2522
I01
sS'P34136'
p2523
I01
sS'Q86JG4'
p2524
I01
sS'Q869T1'
p2525
I01
sS'Q55D81'
p2526
I01
sS'Q54IU0'
p2527
I01
sS'Q54IU1'
p2528
I01
sS'P34139'
p2529
I01
sS'Q54Y17'
p2530
I01
sS'Q54Y14'
p2531
I01
sS'Q86I87'
p2532
I01
sS'Q8MXM8'
p2533
I01
sS'Q54F47'
p2534
I01
sS'Q556Q0'
p2535
I01
sS'Q55FW9'
p2536
I01
sS'Q54SV2'
p2537
I01
sS'Q95UC5'
p2538
I01
sS'Q54Z79'
p2539
I01
sS'Q55CC2'
p2540
I01
sS'Q54Z72'
p2541
I01
sS'Q55CC8'
p2542
I01
sS'Q54EU4'
p2543
I01
sS'Q55FW7'
p2544
I01
sS'Q54EU0'
p2545
I01
sS'Q54X77'
p2546
I01
sS'Q54EU8'
p2547
I01
sS'Q55DR6'
p2548
I01
sS'Q86KA1'
p2549
I01
sS'Q55DI2'
p2550
I01
sS'Q54XE7'
p2551
I01
sS'Q54XE6'
p2552
I01
sS'Q54LD5'
p2553
I01
sS'Q54LD6'
p2554
I01
sS'Q54LD2'
p2555
I01
sS'Q54EG0'
p2556
I01
sS'Q54EG3'
p2557
I01
sS'Q54QS3'
p2558
I01
sS'Q54V77'
p2559
I01
sS'Q54V76'
p2560
I01
sS'Q54V71'
p2561
I01
sS'P28178'
p2562
I01
sS'Q54P59'
p2563
I01
sS'Q54BC6'
p2564
I01
sS'Q54WI8'
p2565
I01
sS'Q54BC2'
p2566
I01
sS'Q54UU2'
p2567
I01
sS'Q54UU3'
p2568
I01
sS'Q54UU1'
p2569
I01
sS'Q54UU8'
p2570
I01
sS'Q54T59'
p2571
I01
sS'Q54IS1'
p2572
I01
sS'P54697'
p2573
I01
sS'Q54MB2'
p2574
I01
sS'Q54HR1'
p2575
I01
sS'Q54HR7'
p2576
I01
sS'Q55GG3'
p2577
I01
sS'P36410'
p2578
I01
sS'P36411'
p2579
I01
sS'P36412'
p2580
I01
sS'P36413'
p2581
I01
sS'Q55F34'
p2582
I01
sS'P36415'
p2583
I01
sS'Q55EC2'
p2584
I01
sS'Q54NB4'
p2585
I01
sS'Q54NB5'
p2586
I01
sS'Q54NB6'
p2587
I01
sS'Q54NB2'
p2588
I01
sS'Q55AW9'
p2589
I01
sS'Q54TK2'
p2590
I01
sS'Q54SQ0'
p2591
I01
sS'Q55BS6'
p2592
I01
sS'Q54QE2'
p2593
I01
sS'Q54QE3'
p2594
I01
sS'Q54XS2'
p2595
I01
sS'P26200'
p2596
I01
sS'Q54QE7'
p2597
I01
sS'Q54QE4'
p2598
I01
sS'Q54GE1'
p2599
I01
sS'Q54GE3'
p2600
I01
sS'Q54R90'
p2601
I01
sS'Q54GE6'
p2602
I01
sS'Q54GE7'
p2603
I01
sS'Q55G04'
p2604
I01
sS'Q55BS3'
p2605
I01
sS'Q54SG2'
p2606
I01
sS'Q54SG3'
p2607
I01
sS'Q54GS8'
p2608
I01
sS'Q54XB5'
p2609
I01
sS'Q54J75'
p2610
I01
sS'Q55BS9'
p2611
I01
sS'Q54G09'
p2612
I01
sS'Q54BU3'
p2613
I01
sS'Q1ZXH9'
p2614
I01
sS'Q54BU4'
p2615
I01
sS'Q54H73'
p2616
I01
sS'Q54J97'
p2617
I01
sS'Q94490'
p2618
I01
sS'Q54QH6'
p2619
I01
sS'Q86I19'
p2620
I01
sS'Q54QR9'
p2621
I01
sS'Q54PQ5'
p2622
I01
sS'Q55D17'
p2623
I01
sS'Q551B5'
p2624
I01
sS'Q54DX3'
p2625
I01
sS'Q54MH8'
p2626
I01
sS'Q54TY5'
p2627
I01
sS'Q54F74'
p2628
I01
sS'Q54K42'
p2629
I01
sS'Q54CK6'
p2630
I01
sS'Q54CK4'
p2631
I01
sS'Q54JC8'
p2632
I01
sS'Q55GU3'
p2633
I01
sS'Q76P24'
p2634
I01
sS'Q54N17'
p2635
I01
sS'Q54F78'
p2636
I01
sS'Q54MZ2'
p2637
I01
sS'Q54MZ1'
p2638
I01
sS'Q54MZ5'
p2639
I01
sS'Q54MZ4'
p2640
I01
sS'Q9TVK6'
p2641
I01
sS'Q54HN1'
p2642
I01
sS'P10733'
p2643
I01
sS'Q54CY9'
p2644
I01
sS'O15757'
p2645
I01
sS'Q54CY6'
p2646
I01
sS'Q54LV1'
p2647
I01
sS'P83401'
p2648
I01
sS'Q03380'
p2649
I01
sS'P34036'
p2650
I01
sS'Q555L5'
p2651
I01
sS'Q54KR6'
p2652
I01
sS'Q54KR1'
p2653
I01
sS'Q54ZW1'
p2654
I01
sS'Q54DN0'
p2655
I01
sS'Q54UH9'
p2656
I01
sS'Q54UH8'
p2657
I01
sS'P25870'
p2658
I01
sS'Q55FL5'
p2659
I01
sS'Q55FL6'
p2660
I01
sS'Q869U7'
p2661
I01
sS'Q869U6'
p2662
I01
sS'Q54RA2'
p2663
I01
sS'Q54IT3'
p2664
I01
sS'Q54RA8'
p2665
I01
sS'Q55CR6'
p2666
I01
sS'Q55CR0'
p2667
I01
sS'Q54Y02'
p2668
I01
sS'Q54PF9'
p2669
I01
sS'Q54TU9'
p2670
I01
sS'Q75JI3'
p2671
I01
sS'Q6IMN8'
p2672
I01
sS'Q86B08'
p2673
I01
sS'Q86B07'
p2674
I01
sS'Q54X49'
p2675
I01
sS'Q54ET7'
p2676
I01
sS'Q54ET6'
p2677
I01
sS'Q86IV4'
p2678
I01
sS'Q86IV5'
p2679
I01
sS'Q86A92'
p2680
I01
sS'Q55DH9'
p2681
I01
sS'B0G145'
p2682
I01
sS'B0G141'
p2683
I01
sS'B0G142'
p2684
I01
sS'Q86AD5'
p2685
I01
sS'Q54QR3'
p2686
I01
sS'Q54QR2'
p2687
I01
sS'Q54QR0'
p2688
I01
sS'Q54LE3'
p2689
I01
sS'Q54LE5'
p2690
I01
sS'Q54QR8'
p2691
I01
sS'Q54U91'
p2692
I01
sS'Q54U95'
p2693
I01
sS'P14132'
p2694
I01
sS'Q54EF1'
p2695
I01
sS'P21900'
p2696
I01
sS'Q54WZ3'
p2697
I01
sS'Q54WZ2'
p2698
I01
sS'Q54WZ5'
p2699
I01
sS'Q54WZ6'
p2700
I01
sS'Q54YA6'
p2701
I01
sS'P09402'
p2702
I01
sS'Q54YA2'
p2703
I01
sS'Q54YA0'
p2704
I01
sS'Q7KWU6'
p2705
I01
sS'Q54FJ8'
p2706
I01
sS'Q54WH2'
p2707
I01
sS'Q54WH0'
p2708
I01
sS'Q8MYF0'
p2709
I01
sS'Q8MYF2'
p2710
I01
sS'Q54P23'
p2711
I01
sS'Q54P24'
p2712
I01
sS'Q55FH3'
p2713
I01
sS'P07830'
p2714
I01
sS'Q75JR3'
p2715
I01
sS'Q54FT8'
p2716
I01
sS'Q54FT2'
p2717
I01
sS'P54680'
p2718
I01
sS'Q8T158'
p2719
I01
sS'Q55GD7'
p2720
I01
sS'Q54HS9'
p2721
I01
sS'Q54S39'
p2722
I01
sS'Q54TH8'
p2723
I01
sS'Q54TH9'
p2724
I01
sS'Q54NC1'
p2725
I01
sS'Q54NC8'
p2726
I01
sS'Q54TH4'
p2727
I01
sS'Q86H60'
p2728
I01
sS'Q54LK1'
p2729
I01
sS'Q86H62'
p2730
I01
sS'Q54GD8'
p2731
I01
sS'Q54XP9'
p2732
I01
sS'Q54QD9'
p2733
I01
sS'Q54XP6'
p2734
I01
sS'Q55FJ5'
p2735
I01
sS'Q54XP2'
p2736
I01
sS'Q55BS7'
p2737
I01
sS'Q55F28'
p2738
I01
sS'Q54LY8'
p2739
I01
sS'Q54GR9'
p2740
I01
sS'Q54GR8'
p2741
I01
sS'Q54SF2'
p2742
I01
sS'Q54LY3'
p2743
I01
sS'Q54SF7'
p2744
I01
sS'Q55BQ8'
p2745
I01
sS'Q8T1V6'
p2746
I01
sS'Q8T1V4'
p2747
I01
sS'Q55BQ2'
p2748
I01
sS'Q54K32'
p2749
I01
sS'Q8T1V8'
p2750
I01
sS'Q55BQ6'
p2751
I01
sS'Q55C99'
p2752
I01
sS'Q55BJ6'
p2753
I01
sS'Q1ZXI0'
p2754
I01
sS'Q55F21'
p2755
I01
sS'Q54H42'
p2756
I01
sS'Q54M91'
p2757
I01
sS'Q55EH2'
p2758
I01
sS'Q54H46'
p2759
I01
sS'Q54H47'
p2760
I01
sS'Q54DY7'
p2761
I01
sS'Q55BC7'
p2762
I01
sS'Q54DY3'
p2763
I01
sS'Q54DY1'
p2764
I01
sS'Q94469'
p2765
I01
sS'Q94464'
p2766
I01
sS'P34121'
p2767
I01
sS'Q55BC8'
p2768
I01
sS'Q54DY8'
p2769
I01
sS'Q54MK4'
p2770
I01
sS'P13833'
p2771
I01
sS'Q54MK8'
p2772
I01
sS'Q54MK9'
p2773
I01
sS'Q54E92'
p2774
I01
sS'P22685'
p2775
I01
sS'Q54N27'
p2776
I01
sS'P22683'
p2777
I01
sS'Q55EZ6'
p2778
I01
sS'Q86AX2'
p2779
I01
sS'Q75JL8'
p2780
I01
sS'Q54CJ9'
p2781
I01
sS'Q54F07'
p2782
I01
sS'Q54F04'
p2783
I01
sS'Q54CJ5'
p2784
I01
sS'Q54F09'
p2785
I01
sS'Q75JL7'
p2786
I01
sS'Q54CJ2'
p2787
I01
sS'Q54PL9'
p2788
I01
sS'O77203'
p2789
I01
sS'Q54MU8'
p2790
I01
sS'Q559Z4'
p2791
I01
sS'Q54PL1'
p2792
I01
sS'Q54PL2'
p2793
I01
sS'Q559Z0'
p2794
I01
sS'Q54MU3'
p2795
I01
sS'Q75JB5'
p2796
I01
sS'Q54CX6'
p2797
I01
sS'P13723'
p2798
I01
sS'Q54RY8'
p2799
I01
sS'Q86KQ6'
p2800
I01
sS'Q54C37'
p2801
I01
sS'Q54C34'
p2802
I01
sS'Q9BI24'
p2803
I01
sS'Q54RY6'
p2804
I01
sS'Q54RP2'
p2805
I01
sS'Q6TMJ9'
p2806
I01
sS'Q86J14'
p2807
I01
sS'Q6TMJ4'
p2808
I01
sS'Q54IE5'
p2809
I01
sS'Q86H36'
p2810
I01
sS'Q54UK2'
p2811
I01
sS'Q869V1'
p2812
I01
sS'Q54RB6'
p2813
I01
sS'P34118'
p2814
I01
sS'Q54YN3'
p2815
I01
sS'Q54YN2'
p2816
I01
sS'P34115'
p2817
I01
sS'Q8T154'
p2818
I01
sS'P34113'
p2819
I01
sS'P34112'
p2820
I01
sS'Q55CS1'
p2821
I01
sS'Q55CS3'
p2822
I01
sS'Q55CS9'
p2823
I01
sS'Q86AH6'
p2824
I01
sS'Q556S5'
p2825
I01
sS'Q86K21'
p2826
I01
sS'Q556E3'
p2827
I01
sS'Q54G78'
p2828
I01
sS'P08799'
p2829
I01
sS'Q54X53'
p2830
I01
sS'Q54X51'
p2831
I01
sS'Q55CA0'
p2832
I01
sS'Q54EW1'
p2833
I01
sS'Q54EW2'
p2834
I01
sS'Q54EW3'
p2835
I01
sS'Q86IW8'
p2836
I01
sS'Q54EW8'
p2837
I01
sS'Q550I8'
p2838
I01
sS'Q54E21'
p2839
I01
sS'Q54KG3'
p2840
I01
sS'Q54VA2'
p2841
I01
sS'Q55E94'
p2842
I01
sS'Q54XC4'
p2843
I01
sS'Q54XC9'
p2844
I01
sS'Q54QU8'
p2845
I01
sS'Q54QU9'
p2846
I01
sS'Q55EU1'
p2847
I01
sS'Q86IA3'
p2848
I01
sS'Q54WY8'
p2849
I01
sS'Q55FU2'
p2850
I01
sS'Q55FQ9'
p2851
I01
sS'Q76NU1'
p2852
I01
sS'Q54FK8'
p2853
I01
sS'Q8MYE6'
p2854
I01
sS'Q8MYE7'
p2855
I01
sS'Q54WG6'
p2856
I01
sS'Q54WG1'
p2857
I01
sS'C7G056'
p2858
I01
sS'Q54UW5'
p2859
I01
sS'P26355'
p2860
I01
sS'Q54FU1'
p2861
I01
sS'Q54FU0'
p2862
I01
sS'Q54Q05'
p2863
I01
sS'Q554G3'
p2864
I01
sS'Q55D79'
p2865
I01
sS'Q95YL5'
p2866
I01
sS'Q54S23'
p2867
I01
sS'Q55GE2'
p2868
I01
sS'Q54HP3'
p2869
I01
sS'Q54XP4'
p2870
I01
sS'P54654'
p2871
I01
sS'Q54L58'
p2872
I01
sS'Q7KWK5'
p2873
I01
sS'P54651'
p2874
I01
sS'Q55AQ9'
p2875
I01
sS'Q54NL4'
p2876
I01
sS'P54659'
p2877
I01
sS'Q54LH7'
p2878
I01
sS'Q54ZM4'
p2879
I01
sS'Q54QG4'
p2880
I01
sS'Q54XQ5'
p2881
I01
sS'Q54SE2'
p2882
I01
sS'Q553B4'
p2883
I01
sS'Q54W11'
p2884
I01
sS'Q54GQ6'
p2885
I01
sS'Q54GQ7'
p2886
I01
sS'O15819'
p2887
I01
sS'Q54BW3'
p2888
I01
sS'Q54H53'
p2889
I01
sS'Q54H52'
p2890
I01
sS'Q55BP2'
p2891
I01
sS'Q55BP5'
p2892
I01
sS'Q55D91'
p2893
I01
sS'Q55EI7'
p2894
I01
sS'Q54M82'
p2895
I01
sS'Q1ZXJ0'
p2896
I01
sS'Q54M86'
p2897
I01
sS'Q55C66'
p2898
I01
sS'Q1ZXD4'
p2899
I01
sS'Q550R2'
p2900
I01
sS'Q54MJ6'
p2901
I01
sS'Q54MJ5'
p2902
I01
sS'Q55D72'
p2903
I01
sS'Q55D70'
p2904
I01
sS'Q964D8'
p2905
I01
sS'Q54RR5'
p2906
I01
sS'Q54N33'
p2907
I01
sS'Q75JS7'
p2908
I01
sS'Q54E85'
p2909
I01
sS'Q54N35'
p2910
I01
sS'Q554U9'
p2911
I01
sS'Q54F10'
p2912
I01
sS'P11022'
p2913
I01
sS'Q54F16'
p2914
I01
sS'Q54CI4'
p2915
I01
sS'Q55GS7'
p2916
I01
sS'Q54CU8'
p2917
I01
sS'O00780'
p2918
I01
sS'Q54MT0'
p2919
I01
sS'Q54MT3'
p2920
I01
sS'Q54MT2'
p2921
I01
sS'Q54HL0'
p2922
I01
sS'Q5XM24'
p2923
I01
sS'Q54VI3'
p2924
I01
sS'Q54VI2'
p2925
I01
sS'Q54VI4'
p2926
I01
sS'Q54VI6'
p2927
I01
sS'Q54LY4'
p2928
I01
sS'Q552H9'
p2929
I01
sS'Q54I26'
p2930
I01
sS'Q7M438'
p2931
I01
sS'Q54I22'
p2932
I01
sS'Q54I20'
p2933
I01
sS'Q94504'
p2934
I01
sS'Q54KP3'
p2935
I01
sS'Q94503'
p2936
I01
sS'Q94502'
p2937
I01
sS'Q54C24'
p2938
I01
sS'Q54C27'
p2939
I01
sS'Q555N6'
p2940
I01
sS'Q552Z0'
p2941
I01
sS'Q54C29'
p2942
I01
sS'Q54C28'
p2943
I01
sS'Q54RQ1'
p2944
I01
sS'Q6TMK3'
p2945
I01
sS'Q54ID0'
p2946
I01
sS'Q54ND1'
p2947
I01
sS'Q54ID5'
p2948
I01
sS'Q54DL5'
p2949
I01
sS'Q86LA2'
p2950
I01
sS'Q54DL0'
p2951
I01
sS'Q5V9F0'
p2952
I01
sS'Q54PM8'
p2953
I01
sS'Q54UJ3'
p2954
I01
sS'Q54UJ0'
p2955
I01
sS'Q54YQ8'
p2956
I01
sS'Q54YQ9'
p2957
I01
sS'Q869W9'
p2958
I01
sS'Q54DB1'
p2959
I01
sS'P0C7B6'
p2960
I01
sS'Q869W6'
p2961
I01
sS'Q54RC3'
p2962
I01
sS'Q54RC0'
p2963
I01
sS'Q54Y20'
p2964
I01
sS'Q86K39'
p2965
I01
sS'Q86L41'
p2966
I01
sS'Q86L45'
p2967
I01
sS'Q86K32'
p2968
I01
sS'Q01501'
p2969
I01
sS'Q86B20'
p2970
I01
sS'Q55CF8'
p2971
I01
sS'Q556D4'
p2972
I01
sS'O76329'
p2973
I01
sS'Q55CF6'
p2974
I01
sS'Q550H7'
p2975
I01
sS'Q550H6'
p2976
I01
sS'Q55DN6'
p2977
I01
sS'Q54EV7'
p2978
I01
sS'P42530'
p2979
I01
sS'Q55FN1'
p2980
I01
sS'Q55FN7'
p2981
I01
sS'P36409'
p2982
I01
sS'Q55FN4'
p2983
I01
sS'P36408'
p2984
I01
sS'Q86KD1'
p2985
I01
sS'Q86IB4'
p2986
I01
sS'Q9GRX6'
p2987
I01
sS'B0G180'
p2988
I01
sS'B0G182'
p2989
I01
sS'B0G185'
p2990
I01
sS'Q55E61'
p2991
I01
sS'Q54UD1'
p2992
I01
sS'Q54UD0'
p2993
I01
sS'Q55FP4'
p2994
I01
sS'Q55FP7'
p2995
I01
sS'Q55FP0'
p2996
I01
sS'Q54YC0'
p2997
I01
sS'Q54FD7'
p2998
I01
sS'Q94465'
p2999
I01
sS'Q54WF8'
p3000
I01
sS'Q54UV2'
p3001
I01
sS'Q54UV0'
p3002
I01
sS'Q54T80'
p3003
I01
sS'Q54T81'
p3004
I01
sS'Q55C75'
p3005
I01
sS'Q54FV5'
p3006
I01
sS'Q54FV6'
p3007
I01
sS'Q54T87'
p3008
I01
sS'Q54Q30'
p3009
I01
sS'Q54Q31'
p3010
I01
sS'Q54Q32'
p3011
I01
sS'Q54S12'
p3012
I01
sS'Q54TN9'
p3013
I01
sS'P54644'
p3014
I01
sS'P54647'
p3015
I01
sS'Q54NM9'
p3016
I01
sS'P54640'
p3017
I01
sS'Q54ZN2'
p3018
I01
sS'P54642'
p3019
I01
sS'P54648'
p3020
I01
sS'Q55AR3'
p3021
I01
sS'Q54GB3'
p3022
I01
sS'Q54XN5'
p3023
I01
sS'Q54LI8'
p3024
I01
sS'Q54F95'
p3025
I01
sS'Q54LI4'
p3026
I01
sS'Q557D2'
p3027
I01
sS'Q54SV6'
p3028
I01
sS'Q54P04'
p3029
I01
sS'Q54BF6'
p3030
I01
sS'Q54P07'
p3031
I01
sS'Q54QF3'
p3032
I01
sS'Q54BF9'
p3033
I01
sS'P22684'
p3034
I01
sS'Q54SD5'
p3035
I01
sS'Q54SD4'
p3036
I01
sS'Q54QH7'
p3037
I01
sS'Q54GP8'
p3038
I01
sS'Q54QH0'
p3039
I01
sS'Q54QH3'
p3040
I01
sS'Q54QH2'
p3041
I01
sS'Q54GP0'
p3042
I01
sS'Q55BS8'
p3043
I01
sS'Q54GP6'
p3044
I01
sS'Q54GY1'
p3045
I01
sS'Q54H23'
p3046
I01
sS'Q54BX7'
p3047
I01
sS'P15112'
p3048
I01
sS'Q54BX0'
p3049
I01
sS'Q55F42'
p3050
I01
sS'Q55EJ2'
p3051
I01
sS'Q55FH5'
p3052
I01
sS'Q55BM7'
p3053
I01
sS'Q55D68'
p3054
I01
sS'Q55D61'
p3055
I01
sS'Q1ZXE8'
p3056
I01
sS'Q55D66'
p3057
I01
sS'Q75JR4'
p3058
I01
sS'Q54CH4'
p3059
I01
sS'Q54CH2'
p3060
I01
sS'Q54CH1'
p3061
I01
sS'Q75JR2'
p3062
I01
sS'Q8T191'
p3063
I01
sS'Q54F29'
p3064
I01
sS'Q54F25'
p3065
I01
sS'Q54F26'
p3066
I01
sS'Q54K35'
p3067
I01
sS'Q54F20'
p3068
I01
sS'Q54K33'
p3069
I01
sS'Q54F23'
p3070
I01
sS'Q54M21'
p3071
I01
sS'Q54VJ0'
p3072
I01
sS'Q54JA5'
p3073
I01
sS'Q54JA0'
p3074
I01
sS'Q8T662'
p3075
I01
sS'O15706'
p3076
I01
sS'Q54TR3'
p3077
I01
sS'Q54TR1'
p3078
I01
sS'Q54HM5'
p3079
I01
sS'Q54HM2'
p3080
I01
sS'Q54TR8'
p3081
I01
sS'Q55GR1'
p3082
I01
sS'Q552K6'
p3083
I01
sS'Q54I58'
p3084
I01
sS'Q54I59'
p3085
I01
sS'Q54I50'
p3086
I01
sS'Q54KW1'
p3087
I01
sS'O77082'
p3088
I01
sS'Q556G4'
p3089
I01
sS'Q54C12'
p3090
I01
sS'Q54C16'
p3091
I01
sS'Q54RR3'
p3092
I01
sS'C7FZZ0'
p3093
I01
sS'Q8SSQ0'
p3094
I01
sS'Q5V9E9'
p3095
I01
sS'Q54DM9'
p3096
I01
sS'Q54PJ1'
p3097
I01
sS'Q54PJ5'
p3098
I01
sS'Q55CG6'
p3099
I01
sS'Q54YP4'
p3100
I01
sS'Q559Z1'
p3101
I01
sS'Q54RD5'
p3102
I01
sS'Q556U6'
p3103
I01
sS'Q55CQ7'
p3104
I01
sS'Q55CQ6'
p3105
I01
sS'P05095'
p3106
I01
sS'Q55DM5'
p3107
I01
sS'Q86K01'
p3108
I01
sS'Q55B06'
p3109
I01
sS'Q86I62'
p3110
I01
sS'P42520'
p3111
I01
sS'Q55DM1'
p3112
I01
sS'Q556G9'
p3113
I01
sS'Q54X39'
p3114
I01
sS'Q556G1'
p3115
I01
sS'Q556G3'
p3116
I01
sS'Q54EQ8'
p3117
I01
sS'P42528'
p3118
I01
sS'Q9GPM4'
p3119
I01
sS'P42522'
p3120
I01
sS'Q54EQ1'
p3121
I01
sS'Q54EQ6'
p3122
I01
sS'P42526'
p3123
I01
sS'P35084'
p3124
I01
sS'P35085'
p3125
I01
sS'Q54VS8'
p3126
I01
sS'Q54KE6'
p3127
I01
sS'Q55DV6'
p3128
I01
sS'Q55DC7'
p3129
I01
sS'Q86IC0'
p3130
I01
sS'Q86IC6'
p3131
I01
sS'Q55DC0'
p3132
I01
sS'Q54QW5'
p3133
I01
sS'Q86IC9'
p3134
I01
sS'Q54XA0'
p3135
I01
sS'Q54QW1'
p3136
I01
sS'B0G197'
p3137
I01
sS'Q54WW0'
p3138
I01
sS'Q86C65'
p3139
I01
sS'Q54UG4'
p3140
I01
sS'Q54FE8'
p3141
I01
sS'Q54YB5'
p3142
I01
sS'Q54FE6'
p3143
I01
sS'Q54YB2'
p3144
I01
sS'Q54FE3'
p3145
I01
sS'Q54WE9'
p3146
I01
sS'Q54WE3'
p3147
I01
sS'Q54T96'
p3148
I01
sS'Q54T94'
p3149
I01
sS'Q54FW2'
p3150
I01
sS'Q54UQ7'
p3151
I01
sS'Q54Q20'
p3152
I01
sS'Q54Q29'
p3153
I01
sS'Q556I6'
p3154
I01
sS'Q54VG4'
p3155
I01
sS'Q86IC8'
p3156
I01
sS'Q553P6'
p3157
I01
sS'Q55GC0'
p3158
I01
sS'Q54S04'
p3159
I01
sS'Q55GC5'
p3160
I01
sS'Q55GC4'
p3161
I01
sS'Q55GC7'
p3162
I01
sS'P54671'
p3163
I01
sS'P54672'
p3164
I01
sS'Q8ST07'
p3165
I01
sS'Q54SU2'
p3166
I01
sS'Q86AU4'
p3167
I01
sS'P54678'
p3168
I01
sS'P54679'
p3169
I01
sS'Q8T2K9'
p3170
I01
sS'Q86K94'
p3171
I01
sS'Q54QY8'
p3172
I01
sS'P51405'
p3173
I01
sS'Q54P13'
p3174
I01
sS'Q54U43'
p3175
I01
sS'Q54P14'
p3176
I01
sS'Q54SK8'
p3177
I01
sS'Q8T295'
p3178
I01
sS'Q8T293'
p3179
I01
sS'Q54QK0'
p3180
I01
sS'Q54QK4'
p3181
I01
sS'Q54BY8'
p3182
I01
sS'Q55F79'
p3183
I01
sS'Q55F77'
p3184
I01
sS'Q55F70'
p3185
I01
sS'Q55C26'
p3186
I01
sS'Q55C24'
p3187
I01
sS'Q55D50'
p3188
I01
sS'Q1ZXF1'
p3189
I01
sS'Q55F94'
p3190
I01
sS'Q55F90'
p3191
I01
sS'Q54JP5'
p3192
I01
sS'Q54MD1'
p3193
I01
sS'Q54X81'
p3194
I01
sS'Q75JQ1'
p3195
I01
sS'Q54PX1'
p3196
I01
sS'Q54X82'
p3197
I01
sS'Q55GQ5'
p3198
I01
sS'Q76NW7'
p3199
I01
sS'Q86AG5'
p3200
I01
sS'Q54NX3'
p3201
I01
sS'Q54L98'
p3202
I01
sS'Q54K22'
p3203
I01
sS'Q54JB8'
p3204
I01
sS'O00909'
p3205
I01
sS'Q54E41'
p3206
I01
sS'Q54E42'
p3207
I01
sS'O77257'
p3208
I01
sS'Q54E49'
p3209
I01
sS'Q54JB6'
p3210
I01
sS'Q54TS5'
p3211
I01
sS'Q54TS4'
p3212
I01
sS'O96759'
p3213
I01
sS'Q54HJ0'
p3214
I01
sS'Q552J0'
p3215
I01
sS'Q54I41'
p3216
I01
sS'Q54I40'
p3217
I01
sS'P13466'
p3218
I01
sS'Q552D1'
p3219
I01
sS'Q5TJ65'
p3220
I01
sS'Q552D9'
p3221
I01
sS'Q54IF0'
p3222
I01
sS'Q54IF7'
p3223
I01
sS'Q23858'
p3224
I01
sS'Q54IF9'
p3225
I01
sS'Q54FE7'
p3226
I01
sS'Q54DR0'
p3227
I01
sS'Q54DR1'
p3228
I01
sS'Q86J23'
p3229
I01
sS'O96621'
p3230
I01
sS'O96622'
p3231
I01
sS'O96623'
p3232
I01
sS'O96624'
p3233
I01
sS'Q54RS2'
p3234
I01
sS'O96626'
p3235
I01
sS'Q86IJ1'
p3236
I01
sS'Q54MV7'
p3237
I01
sS'Q54PK4'
p3238
I01
sS'Q54PK6'
p3239
I01
sS'Q551H6'
p3240
I01
sS'B0G0Y7'
p3241
I01
sS'Q551H5'
p3242
I01
sS'P34144'
p3243
I01
sS'P34140'
p3244
I01
sS'P34142'
p3245
I01
sS'P34143'
p3246
I01
sS'Q54YS8'
p3247
I01
sS'Q54IX6'
p3248
I01
sS'P34148'
p3249
I01
sS'P34149'
p3250
I01
sS'Q54RE9'
p3251
I01
sS'Q869Q8'
p3252
I01
sS'Q869Q3'
p3253
I01
sS'Q8T5Z7'
p3254
I01
sS'Q54RE6'
p3255
I01
sS'Q556T3'
p3256
I01
sS'Q556T4'
p3257
I01
sS'Q556T7'
p3258
I01
sS'Q54Y41'
p3259
I01
sS'Q55CV0'
p3260
I01
sS'Q55CV4'
p3261
I01
sS'Q55CV5'
p3262
I01
sS'Q54CS6'
p3263
I01
sS'Q55CD5'
p3264
I01
sS'Q86I71'
p3265
I01
sS'Q54HH9'
p3266
I01
sS'Q54X04'
p3267
I01
sS'Q556F0'
p3268
I01
sS'Q54X02'
p3269
I01
sS'Q54X03'
p3270
I01
sS'Q86KZ5'
p3271
I01
sS'Q55DL6'
p3272
I01
sS'Q54EP7'
p3273
I01
sS'Q54EP6'
p3274
I01
sS'Q54KD9'
p3275
I01
sS'Q54KD3'
p3276
I01
sS'Q54KD1'
p3277
I01
sS'Q54KD5'
p3278
I01
sS'Q86D86'
p3279
I01
sS'Q54QV8'
p3280
I01
sS'Q55DB1'
p3281
I01
sS'Q86IL9'
p3282
I01
sS'Q54TC9'
p3283
I01
sS'Q54QV0'
p3284
I01
sS'Q55DB9'
p3285
I01
sS'Q54QV4'
p3286
I01
sS'Q54KJ7'
p3287
I01
sS'Q9GRF8'
p3288
I01
sS'Q54WV6'
p3289
I01
sS'Q54KJ9'
p3290
I01
sS'Q55FR9'
p3291
I01
sS'Q55FR8'
p3292
I01
sS'P14326'
p3293
I01
sS'Q54UF7'
p3294
I01
sS'Q54UF6'
p3295
I01
sS'Q54UF3'
p3296
I01
sS'P14329'
p3297
I01
sS'Q8T869'
p3298
I01
sS'Q8WSV6'
p3299
I01
sS'Q54BN8'
p3300
I01
sS'Q54UP4'
p3301
I01
sS'Q54Q51'
p3302
I01
sS'Q55AB5'
p3303
I01
sS'Q554D9'
p3304
I01
sS'Q9XYS8'
p3305
I01
sS'Q54W90'
p3306
I01
sS'Q556H9'
p3307
I01
sS'Q54TL8'
p3308
I01
sS'P34119'
p3309
I01
sS'Q86JJ5'
p3310
I01
sS'Q54RB7'
p3311
I01
sS'Q54TL0'
p3312
I01
sS'Q54ST3'
p3313
I01
sS'P34117'
p3314
I01
sS'Q54ST0'
p3315
I01
sS'Q8T2J5'
p3316
I01
sS'Q54ST6'
p3317
I01
sS'Q54RB9'
p3318
I01
sS'P54661'
p3319
I01
sS'O60952'
p3320
I01
sS'P20609'
p3321
I01
sS'Q54QX3'
p3322
I01
sS'Q6DN52'
p3323
I01
sS'Q54WD2'
p3324
I01
sS'Q54WD1'
p3325
I01
sS'Q55DP8'
p3326
I01
sS'Q54BH6'
p3327
I01
sS'P14197'
p3328
I01
sS'Q54WD8'
p3329
I01
sS'Q54R04'
p3330
I01
sS'Q54SJ8'
p3331
I01
sS'Q8T282'
p3332
I01
sS'Q54ZR7'
p3333
I01
sS'Q54QJ9'
p3334
I01
sS'Q54QJ8'
p3335
I01
sS'Q54XZ0'
p3336
I01
sS'Q553I0'
p3337
I01
sS'Q54M57'
p3338
I01
sS'Q54H06'
p3339
I01
sS'Q54H07'
p3340
I01
sS'Q54PZ2'
p3341
I01
sS'Q54VZ4'
p3342
I01
sS'Q54VZ1'
p3343
I01
sS'Q54VZ3'
p3344
I01
sS'Q1ZXG6'
p3345
I01
sS'Q1ZXG4'
p3346
I01
sS'Q54TB6'
p3347
I01
sS'Q54CN7'
p3348
I01
sS'Q54CN9'
p3349
I01
sS'Q54MA5'
p3350
I01
sS'Q54K19'
p3351
I01
sS'Q54NY6'
p3352
I01
sS'Q54K12'
p3353
I01
sS'Q54E73'
p3354
I01
sS'O00910'
p3355
I01
sS'Q55E35'
p3356
I01
sS'Q55E34'
p3357
I01
sS'Q55E32'
p3358
I01
sS'Q55E31'
p3359
I01
sS'Q7YXD4'
p3360
I01
sS'Q54I76'
p3361
I01
sS'Q54I73'
p3362
I01
sS'Q95VZ3'
p3363
I01
sS'Q86L51'
p3364
I01
sS'Q555Q9'
p3365
I01
sS'Q86KU6'
p3366
I01
sS'Q86KU5'
p3367
I01
sS'Q54M34'
p3368
I01
sS'Q556N5'
p3369
I01
sS'Q54C73'
p3370
I01
sS'Q54C70'
p3371
I01
sS'Q23862'
p3372
I01
sS'Q54II1'
p3373
I01
sS'P13651'
p3374
I01
sS'Q54DS3'
p3375
I01
sS'Q54DS8'
p3376
I01
sS'Q55GT3'
p3377
I01
sS'Q54PH8'
p3378
I01
sS'Q54JC2'
p3379
I01
sS'Q54PH5'
p3380
I01
sS'Q551I4'
p3381
I01
sS'Q54PH3'
p3382
I01
sS'Q54RF5'
p3383
I01
sS'Q54RF6'
p3384
I01
sS'Q54YR8'
p3385
I01
sS'Q54YR4'
p3386
I01
sS'Q869R8'
p3387
I01
sS'Q54PF3'
p3388
I01
sS'Q8T674'
p3389
I01
sS'Q54DA8'
p3390
I01
sS'Q54DA7'
p3391
I01
sS'Q54DA0'
p3392
I01
sS'Q86K61'
p3393
I01
sS'Q86K67'
p3394
I01
sS'Q55CW0'
p3395
I01
sS'Q556W7'
p3396
I01
sS'Q55CW5'
p3397
I01
sS'Q556W2'
p3398
I01
sS'Q54CR4'
p3399
I01
sS'Q54X54'
p3400
I01
sS'P08800'
p3401
I01
sS'Q550W4'
p3402
I01
sS'Q54CR8'
p3403
I01
sS'Q55CE3'
p3404
I01
sS'Q556Y4'
p3405
I01
sS'Q556Y3'
p3406
I01
sS'Q556Y0'
p3407
I01
sS'Q54ES4'
p3408
I01
sS'Q54ES6'
p3409
I01
sS'Q54LN4'
p3410
I01
sS'Q54X13'
p3411
I01
sS'Q54X10'
p3412
I01
sS'Q54ES8'
p3413
I01
sS'Q54ES9'
p3414
I01
sS'Q86A67'
p3415
I01
sS'Q555C8'
p3416
I01
sS'Q552Q3'
p3417
I01
sS'Q552Q7'
p3418
I01
sS'Q55DA4'
p3419
I01
sS'Q9Y1W0'
p3420
I01
sS'Q54EM7'
p3421
I01
sS'Q54KI0'
p3422
I01
sS'Q54WU1'
p3423
I01
sS'Q55FU9'
p3424
I01
sS'Q86KI1'
p3425
I01
sS'Q54T61'
p3426
I01
sS'P14330'
p3427
I01
sS'Q54YD8'
p3428
I01
sS'Q554U7'
p3429
I01
sS'Q554U0'
p3430
I01
sS'Q54YD2'
p3431
I01
sS'Q54YD4'
p3432
I01
sS'Q54IX9'
p3433
I01
sS'Q54Q46'
p3434
I01
sS'Q7KWY3'
p3435
I01
sS'Q7KWY0'
p3436
I01
sS'Q7KWY5'
p3437
I01
sS'P54872'
p3438
I01
sS'Q55FV8'
p3439
I01
sS'Q556K7'
p3440
I01
sS'Q54W88'
p3441
I01
sS'Q7KWW4'
p3442
I01
sS'Q9NKW1'
p3443
I01
sS'Q7KWW3'
p3444
I01
sS'Q54TM2'
p3445
I01
sS'Q55AM9'
p3446
I01
sS'Q7KWW8'
p3447
I01
sS'Q869Z0'
p3448
I01
sS'Q54LL8'
p3449
I01
sS'Q54XM9'
p3450
I01
sS'Q54XM7'
p3451
I01
sS'Q54XM6'
p3452
I01
sS'Q9XYL0'
p3453
I01
sS'Q54BI8'
p3454
I01
sS'Q55BR7'
p3455
I01
sS'Q54U61'
p3456
I01
sS'Q55DW5'
p3457
I01
sS'Q54R17'
p3458
I01
sS'Q54LR4'
p3459
I01
sS'Q54SI3'
p3460
I01
sS'Q54SI5'
p3461
I01
sS'Q54QM8'
p3462
I01
sS'Q553N3'
p3463
I01
sS'Q54H18'
p3464
I01
sS'Q553N9'
p3465
I01
sS'Q553R4'
p3466
I01
sS'Q54M42'
p3467
I01
sS'Q55GP7'
p3468
I01
sS'Q54G81'
p3469
I01
sS'Q86HX0'
p3470
I01
sS'Q54MF3'
p3471
I01
sS'Q54G86'
p3472
I01
sS'Q54MF0'
p3473
I01
sS'Q55C09'
p3474
I01
sS'Q54G88'
p3475
I01
sS'Q551X7'
p3476
I01
sS'Q54JR2'
p3477
I01
sS'Q55EK2'
p3478
I01
sS'Q54TC4'
p3479
I01
sS'Q54K02'
p3480
I01
sS'Q54HZ2'
p3481
I01
sS'Q54CM0'
p3482
I01
sS'Q54CM2'
p3483
I01
sS'Q54NZ0'
p3484
I01
sS'Q8T2G9'
p3485
I01
sS'Q54CC5'
p3486
I01
sS'Q54E67'
p3487
I01
sS'Q54E62'
p3488
I01
sS'Q54VE2'
p3489
I01
sS'Q54NT2'
p3490
I01
sS'Q7KWN0'
p3491
I01
sS'Q54TQ9'
p3492
I01
sS'Q55E41'
p3493
I01
sS'Q54I61'
p3494
I01
sS'Q55E09'
p3495
I01
sS'Q55BN7'
p3496
I01
sS'Q55BN9'
p3497
I01
sS'Q54KT3'
p3498
I01
sS'Q54C69'
p3499
I01
sS'Q54C68'
p3500
I01
sS'Q557J6'
p3501
I01
sS'Q557J7'
p3502
I01
sS'Q54C61'
p3503
I01
sS'P33519'
p3504
I01
sS'Q54DP1'
p3505
I01
sS'Q551J1'
p3506
I01
sS'Q54JD2'
p3507
I01
sS'Q54JD0'
p3508
I01
sS'Q54MP2'
p3509
I01
sS'Q55EQ1'
p3510
I01
sS'Q54JD4'
p3511
I01
sS'Q54JD9'
p3512
I01
sS'Q55EQ8'
p3513
I01
sS'Q55CT1'
p3514
I01
sS'Q55GW5'
p3515
I01
sS'Q869S7'
p3516
I01
sS'Q54PG5'
p3517
I01
sS'Q55CT5'
p3518
I01
sS'Q54PG7'
p3519
I01
sS'Q55CT7'
p3520
I01
sS'Q8T665'
p3521
I01
sS'Q54B10'
p3522
I01
sS'Q54B13'
p3523
I01
sS'Q54DF1'
p3524
I01
sS'Q54DF7'
p3525
I01
sS'Q54DF4'
p3526
I01
sS'Q86K74'
p3527
I01
sS'Q556V1'
p3528
I01
sS'Q556V7'
p3529
I01
sS'Q556V6'
p3530
I01
sS'Q55CT9'
p3531
I01
sS'P34093'
p3532
I01
sS'Q54CQ7'
p3533
I01
sS'Q54CQ9'
p3534
I01
sS'P34098'
p3535
I01
sS'Q55E97'
p3536
I01
sS'Q86A77'
p3537
I01
sS'Q86A72'
p3538
I01
sS'Q55CJ9'
p3539
I01
sS'Q55E91'
p3540
I01
sS'Q55CJ5'
p3541
I01
sS'Q55CJ3'
p3542
I01
sS'Q86I17'
p3543
I01
sS'Q54KZ4'
p3544
I01
sS'Q54KZ1'
p3545
I01
sS'Q86KX9'
p3546
I01
sS'Q54KZ8'
p3547
I01
sS'Q55FB8'
p3548
I01
sS'Q23892'
p3549
I01
sS'Q54IZ9'
p3550
I01
sS'P32252'
p3551
I01
sS'P32253'
p3552
I01
sS'P32256'
p3553
I01
sS'P32254'
p3554
I01
sS'P32255'
p3555
I01
sS'Q559Q5'
p3556
I01
sS'Q54EL2'
p3557
I01
sS'Q54KH9'
p3558
I01
sS'Q54KH8'
p3559
I01
sS'Q58A42'
p3560
I01
sS'Q54YG5'
p3561
I01
sS'Q54UR0'
p3562
I01
sS'Q9NKX1'
p3563
I01
sS'Q8SSU2'
p3564
I01
sS'Q55GQ6'
p3565
I01
sS'Q8T6J5'
p3566
I01
sS'Q5FXM5'
p3567
I01
sS'Q8T6J1'
p3568
I01
sS'Q54Z09'
p3569
I01
sS'Q54Q75'
p3570
I01
sS'Q554J3'
p3571
I01
sS'Q556J9'
p3572
I01
sS'Q556J8'
p3573
I01
sS'Q556J3'
p3574
I01
sS'Q556J2'
p3575
I01
sS'Q556J0'
p3576
I01
sS'Q54Q97'
p3577
I01
sS'Q54Q95'
p3578
I01
sS'Q54NI6'
p3579
I01
sS'Q86JD4'
p3580
I01
sS'Q54LM1'
p3581
I01
sS'Q54LM9'
p3582
I01
sS'Q8T2H0'
p3583
I01
sS'Q54XJ8'
p3584
I01
sS'Q54XJ9'
p3585
I01
sS'P32073'
p3586
I01
sS'Q54QZ5'
p3587
I01
sS'Q54BR2'
p3588
I01
sS'Q55DV9'
p3589
I01
sS'Q54WB6'
p3590
I01
sS'Q9GPR7'
p3591
I01
sS'Q54WB8'
p3592
I01
sS'Q54BJ5'
p3593
I01
sS'Q54U15'
p3594
I01
sS'Q54XX1'
p3595
I01
sS'Q54XX2'
p3596
I01
sS'Q54XX3'
p3597
I01
sS'P10819'
p3598
I01
sS'P16168'
p3599
I01
sS'Q86I14'
p3600
I01
sS'P02886'
p3601
I01
sS'Q54M70'
p3602
I01
sS'P02889'
p3603
I01
sS'Q55EN7'
p3604
I01
sS'Q76NT6'
p3605
I01
sS'Q54M75'
p3606
I01
sS'Q54M76'
p3607
I01
sS'Q55EN3'
p3608
I01
sS'Q54S52'
p3609
I01
sS'Q55GN9'
p3610
I01
sS'Q55GN3'
p3611
I01
sS'Q54T29'
p3612
I01
sS'Q54JS5'
p3613
I01
sS'Q54MA6'
p3614
I01
sS'Q54PX9'
p3615
I01
sS'Q54MA4'
p3616
I01
sS'Q54JS0'
p3617
I01
sS'Q55C17'
p3618
I01
sS'Q54G77'
p3619
I01
sS'Q54PX7'
p3620
I01
sS'Q54G73'
p3621
I01
sS'Q54G71'
p3622
I01
sS'Q54N83'
p3623
I01
sS'Q54N80'
p3624
I01
sS'Q86HF6'
p3625
I01
sS'Q54VT5'
p3626
I01
sS'Q1ZXA6'
p3627
I01
sS'Q54K74'
p3628
I01
sS'Q75JE7'
p3629
I01
sS'Q54CL2'
p3630
I01
sS'Q54VK4'
p3631
I01
sS'Q54SH0'
p3632
I01
sS'Q54CB5'
p3633
I01
sS'Q54CB7'
p3634
I01
sS'Q54E19'
p3635
I01
sS'Q54HI5'
p3636
I01
sS'C7FZY2'
p3637
I01
sS'Q54NU2'
p3638
I01
sS'Q55FB3'
p3639
I01
sS'Q54TV4'
p3640
I01
sS'C7FZW3'
p3641
I01
sS'C7FZW5'
p3642
I01
sS'Q54I98'
p3643
I01
sS'Q54I93'
p3644
I01
sS'Q54I90'
p3645
I01
sS'Q55BI2'
p3646
I01
sS'Q95YL4'
p3647
I01
sS'Q54GZ0'
p3648
I01
sS'Q54D27'
p3649
I01
sS'Q55BY3'
p3650
I01
sS'P13231'
p3651
I01
sS'Q54RV6'
p3652
I01
sS'Q54IK1'
p3653
I01
sS'Q54IK3'
p3654
I01
sS'Q54RZ2'
p3655
I01
sS'B0G0Z1'
p3656
I01
sS'B0G0Z7'
p3657
I01
sS'B0G0Z6'
p3658
I01
sS'B0G0Z5'
p3659
I01
sS'Q54PV8'
p3660
I01
sS'Q54JE3'
p3661
I01
sS'Q54JE4'
p3662
I01
sS'Q86AT8'
p3663
I01
sS'Q55ER7'
p3664
I01
sS'Q54JE8'
p3665
I01
sS'O76173'
p3666
I01
sS'Q54GJ2'
p3667
I01
sS'P15808'
p3668
I01
sS'Q8I8U2'
p3669
I01
sS'Q54YT4'
p3670
I01
sS'Q9NCL7'
p3671
I01
sS'Q54PD3'
p3672
I01
sS'Q54PD4'
p3673
I01
sS'Q54PD5'
p3674
I01
sS'Q54Y98'
p3675
I01
sS'Q54DG1'
p3676
I01
sS'Q54Y95'
p3677
I01
sS'Q54DG5'
p3678
I01
sS'Q8MMR8'
p3679
I01
sS'Q54M12'
p3680
I01
sS'Q86K48'
p3681
I01
sS'P54657'
p3682
I01
sS'Q550U9'
p3683
I01
sS'Q86JI9'
p3684
I01
sS'Q54CP2'
p3685
I01
sS'Q55CK8'
p3686
I01
sS'Q86A08'
p3687
I01
sS'Q55CK0'
p3688
I01
sS'Q55CK3'
p3689
I01
sS'Q550C4'
p3690
I01
sS'Q55G38'
p3691
I01
sS'Q55FE3'
p3692
I01
sS'Q55FE0'
p3693
I01
sS'Q552S7'
p3694
I01
sS'Q552S0'
p3695
I01
sS'Q552S1'
p3696
I01
sS'Q54KY9'
p3697
I01
sS'Q55FE8'
p3698
I01
sS'Q55FE9'
p3699
I01
sS'Q552S8'
p3700
I01
sS'Q555E8'
p3701
I01
sS'Q54HE3'
p3702
I01
sS'Q555E5'
p3703
I01
sS'Q55DG8'
p3704
I01
sS'Q55DG0'
p3705
I01
sS'Q54UC1'
p3706
I01
sS'Q54WT8'
p3707
I01
sS'Q54YF7'
p3708
I01
sS'Q54YF6'
p3709
I01
sS'Q54YF5'
p3710
I01
sS'Q54FA9'
p3711
I01
sS'Q54YF9'
p3712
I01
sS'Q86I20'
p3713
I01
sS'Q86I22'
p3714
I01
sS'Q75JH8'
p3715
I01
sS'P27133'
p3716
I01
sS'Q27563'
p3717
I01
sS'Q8T8M2'
p3718
I01
sS'Q54Q68'
p3719
I01
sS'Q54Z13'
p3720
I01
sS'Q86KT5'
p3721
I01
sS'Q556M2'
p3722
I01
sS'P20054'
p3723
I01
sS'Q556M4'
p3724
I01
sS'Q556M5'
p3725
I01
sS'Q54Q84'
p3726
I01
sS'Q54NJ8'
p3727
I01
sS'P54632'
p3728
I01
sS'Q54B68'
p3729
I01
sS'Q86JG3'
p3730
I01
sS'P54638'
p3731
I01
sS'P54639'
p3732
I01
sS'Q86JG6'
p3733
I01
sS'Q54LB8'
p3734
I01
sS'Q54LB9'
p3735
I01
sS'Q55GL2'
p3736
I01
sS'Q54XK9'
p3737
I01
sS'Q54BK2'
p3738
I01
sS'Q558Z2'
p3739
I01
sS'Q54XK2'
p3740
I01
sS'Q55FY1'
p3741
I01
sS'Q54WA4'
p3742
I01
sS'Q54U07'
p3743
I01
sS'Q54LP8'
p3744
I01
sS'Q54XY5'
p3745
I01
sS'Q54LP3'
p3746
I01
sS'Q54GK6'
p3747
I01
sS'Q54X73'
p3748
I01
sS'P46800'
p3749
I01
sS'Q86HW7'
p3750
I01
sS'Q86HW2'
p3751
I01
sS'Q553L4'
p3752
I01
sS'Q1ZXP3'
p3753
I01
sS'Q76NU3'
p3754
I01
sS'P26199'
p3755
I01
sS'Q769F9'
p3756
I01
sS'Q769F7'
p3757
I01
sS'Q769F6'
p3758
I01
sS'Q553B6'
p3759
I01
sS'Q54JT0'
p3760
I01
sS'Q54JT6'
p3761
I01
sS'Q54JT7'
p3762
I01
sS'Q55D90'
p3763
I01
sS'Q54G54'
p3764
I01
sS'Q54PY7'
p3765
I01
sS'Q55D96'
p3766
I01
sS'Q54VU3'
p3767
I01
sS'P36967'
p3768
I01
sS'Q54ND5'
p3769
I01
sS'P48160'
p3770
I01
sS'Q54ND0'
p3771
I01
sS'Q54TA8'
p3772
I01
sS'Q54TA1'
p3773
I01
sS'Q55E67'
p3774
I01
sS'Q55E60'
p3775
I01
sS'Q54CA5'
p3776
I01
sS'Q54CA6'
p3777
I01
sS'Q75JK6'
p3778
I01
sS'Q54E04'
p3779
I01
sS'O96625'
p3780
I01
sS'Q54RS1'
p3781
I01
sS'Q54NV9'
p3782
I01
sS'Q54F93'
p3783
I01
sS'Q54TW5'
p3784
I01
sS'Q54F94'
p3785
I01
sS'Q54I88'
p3786
I01
sS'Q8T131'
p3787
I01
sS'Q54GY8'
p3788
I01
sS'Q95ZG4'
p3789
I01
sS'Q55BH2'
p3790
I01
sS'Q55BH7'
p3791
I01
sS'Q95ZG8'
p3792
I01
sS'Q55BP9'
p3793
I01
sS'C7FZZ5'
p3794
I01
sS'Q54C47'
p3795
I01
sS'Q54IJ2'
p3796
I01
sS'Q54IJ1'
p3797
I01
sS'Q54C49'
p3798
I01
sS'C7FZZ8'
p3799
I01
sS'C7FZZ9'
p3800
I01
sS'Q54NE6'
p3801
I01
sS'Q03479'
p3802
I01
sS'Q8MXQ2'
p3803
I01
sS'Q557H6'
p3804
I01
sS'Q557H1'
p3805
I01
sS'Q557H3'
p3806
I01
sS'Q54PW3'
p3807
I01
sS'Q54DV3'
p3808
I01
sS'Q54VG5'
p3809
I01
sS'Q54MR8'
p3810
I01
sS'Q553P4'
p3811
I01
sS'Q553P5'
p3812
I01
sS'Q54VG1'
p3813
I01
sS'Q54VG0'
p3814
I01
sS'Q54JF5'
p3815
I01
sS'Q54MR6'
p3816
I01
sS'Q54RI8'
p3817
I01
sS'Q54DD3'
p3818
I01
sS'Q54RI2'
p3819
I01
sS'Q54JH4'
p3820
I01
sS'Q54JH2'
p3821
I01
sS'Q54PE8'
p3822
I01
sS'Q54YS4'
p3823
I01
sS'Q54Y83'
p3824
I01
sS'Q86K57'
p3825
I01
sS'Q54CW1'
p3826
I01
sS'Q86A17'
p3827
I01
sS'Q55CH0'
p3828
I01
sS'Q86A18'
p3829
I01
sS'Q55CH3'
p3830
I01
sS'Q556Z3'
p3831
I01
sS'Q556Z1'
p3832
I01
sS'Q556Z0'
p3833
I01
sS'P16894'
p3834
I01
sS'Q54RN0'
p3835
I01
sS'Q552R6'
p3836
I01
sS'Q557F3'
p3837
I01
sS'Q557F0'
p3838
I01
sS'Q54YW3'
p3839
I01
sS'Q1ZXJ3'
p3840
I01
sS'Q54YW8'
p3841
I01
sS'Q54WR3'
p3842
I01
sS'Q54WR2'
p3843
I01
sS'B0G128'
p3844
I01
sS'Q54WR9'
p3845
I01
sS'B0G127'
p3846
I01
sS'Q8TA03'
p3847
I01
sS'Q55FV9'
p3848
I01
sS'Q54UB0'
p3849
I01
sS'Q54UB7'
p3850
I01
sS'Q54UB6'
p3851
I01
sS'Q54UB5'
p3852
I01
sS'Q55E77'
p3853
I01
sS'Q54KN7'
p3854
I01
sS'Q55E76'
p3855
I01
sS'Q54FB6'
p3856
I01
sS'Q869Q6'
p3857
I01
sS'Q9NIV0'
p3858
I01
sS'Q54FL2'
p3859
I01
sS'P24639'
p3860
I01
sS'C7G028'
p3861
I01
sS'Q554H5'
p3862
I01
sS'Q54Z22'
p3863
I01
sS'Q8T6H3'
p3864
I01
sS'Q54Z26'
p3865
I01
sS'Q86IH2'
p3866
I01
sS'Q54EN4'
p3867
I01
sS'Q556L1'
p3868
I01
sS'Q556L2'
p3869
I01
sS'Q1ZXD3'
p3870
I01
sS'Q54SX7'
p3871
I01
sS'Q7KWR8'
p3872
I01
sS'Q54ZD1'
p3873
I01
sS'Q54ZD6'
p3874
I01
sS'Q1ZXB1'
p3875
I01
sS'Q7KWR6'
p3876
I01
sS'Q55AH5'
p3877
I01
sS'Q55AN3'
p3878
I01
sS'P14797'
p3879
I01
sS'Q54LC0'
p3880
I01
sS'P14794'
p3881
I01
sS'Q54U34'
p3882
I01
sS'Q54BL8'
p3883
I01
sS'Q55DT8'
p3884
I01
sS'Q54U38'
p3885
I01
sS'Q86AV5'
p3886
I01
sS'Q54QN2'
p3887
I01
sS'Q54QN1'
p3888
I01
sS'Q55BY1'
p3889
I01
sS'Q54QN4'
p3890
I01
sS'Q54R41'
p3891
I01
sS'Q54R47'
p3892
I01
sS'Q54XV0'
p3893
I01
sS'Q54R45'
p3894
I01
sS'Q54WN5'
p3895
I01
sS'Q76NV5'
p3896
I01
sS'Q9U9R7'
p3897
I01
sS'Q54WN0'
p3898
I01
sS'Q54M18'
p3899
I01
sS'Q54WN8'
p3900
I01
sS'Q86HV4'
p3901
I01
sS'Q553M7'
p3902
I01
sS'Q1ZXQ4'
p3903
I01
sS'Q54T02'
p3904
I01
sS'P90529'
p3905
I01
sS'Q54T06'
p3906
I01
sS'P90526'
p3907
I01
sS'P90521'
p3908
I01
sS'Q54G58'
p3909
I01
sS'Q54JU2'
p3910
I01
sS'Q55C71'
p3911
I01
sS'Q55C70'
p3912
I01
sS'Q55C73'
p3913
I01
sS'Q54G53'
p3914
I01
sS'Q54MC0'
p3915
I01
sS'Q54G56'
p3916
I01
sS'Q75JT7'
p3917
I01
sS'Q75JT6'
p3918
I01
sS'Q54HY5'
p3919
I01
sS'Q54VV1'
p3920
I01
sS'Q8T137'
p3921
I01
sS'Q86HD3'
p3922
I01
sS'Q54NE5'
p3923
I01
sS'Q54TF9'
p3924
I01
sS'Q54K50'
p3925
I01
sS'Q55FK8'
p3926
I01
sS'Q55G99'
p3927
I01
sS'Q54SN5'
p3928
I01
sS'Q54SN4'
p3929
I01
sS'Q55G90'
p3930
I01
sS'Q75K07'
p3931
I01
sS'Q54HG9'
p3932
I01
sS'Q54HG8'
p3933
I01
sS'Q54HG2'
p3934
I01
sS'Q55G75'
p3935
I01
sS'Q55G70'
p3936
I01
sS'Q54NW9'
p3937
I01
sS'Q54NW7'
p3938
I01
sS'Q54YJ6'
p3939
I01
sS'Q55BK1'
p3940
I01
sS'Q55D85'
p3941
I01
sS'Q55D84'
p3942
I01
sS'Q54BP0'
p3943
I01
sS'O97101'
p3944
I01
sS'Q54J23'
p3945
I01
sS'Q55BK0'
p3946
I01
sS'Q54XJ0'
p3947
I01
sS'Q54J26'
p3948
I01
stbsS'23587254'
p3949
g3
(g4
g5
NtRp3950
((dp3951
S'Q54RF4'
p3952
I01
sS'Q54BF0'
p3953
I01
stbsS'21209787'
p3954
g3
(g4
g5
NtRp3955
((dp3956
S'Q86AD9'
p3957
I01
stbsS'16926386'
p3958
g3
(g4
g5
NtRp3959
((dp3960
S'P32252'
p3961
I01
sS'Q54XI5'
p3962
I01
sS'P32255'
p3963
I01
sS'Q54UH8'
p3964
I01
sS'Q54DA8'
p3965
I01
sS'O00780'
p3966
I01
sS'Q75K18'
p3967
I01
sS'Q55BZ4'
p3968
I01
sS'P0DJ26'
p3969
I01
sS'Q86IF6'
p3970
I01
sS'Q55D63'
p3971
I01
sS'Q54QP6'
p3972
I01
sS'Q54NP6'
p3973
I01
sS'Q54S82'
p3974
I01
sS'Q75JR3'
p3975
I01
sS'Q54H38'
p3976
I01
sS'Q7KWQ2'
p3977
I01
sS'Q55BH2'
p3978
I01
sS'Q54F26'
p3979
I01
sS'Q54PF9'
p3980
I01
sS'Q95US4'
p3981
I01
sS'Q54VQ1'
p3982
I01
sS'Q86A17'
p3983
I01
sS'Q86JE1'
p3984
I01
sS'Q8T662'
p3985
I01
sS'O15706'
p3986
I01
sS'P34118'
p3987
I01
sS'P34115'
p3988
I01
sS'Q54TH8'
p3989
I01
sS'Q54J47'
p3990
I01
sS'Q6TMK3'
p3991
I01
sS'Q54J48'
p3992
I01
sS'Q55CS9'
p3993
I01
sS'Q86A97'
p3994
I01
sS'Q8MML6'
p3995
I01
sS'Q54BI7'
p3996
I01
sS'B0G141'
p3997
I01
sS'Q556J0'
p3998
I01
sS'O00909'
p3999
I01
sS'Q54QR3'
p4000
I01
sS'Q54WR9'
p4001
I01
sS'Q86K89'
p4002
I01
sS'P27133'
p4003
I01
sS'P22887'
p4004
I01
sS'Q54JJ5'
p4005
I01
sS'P34042'
p4006
I01
sS'Q555G2'
p4007
I01
sS'P32073'
p4008
I01
sS'Q54WZ2'
p4009
I01
sS'Q23921'
p4010
I01
sS'Q54Z13'
p4011
I01
sS'Q54TY4'
p4012
I01
sS'Q54YA2'
p4013
I01
sS'Q54YA0'
p4014
I01
sS'P10819'
p4015
I01
sS'Q54D73'
p4016
I01
sS'Q01501'
p4017
I01
sS'Q552D1'
p4018
I01
sS'P24639'
p4019
I01
sS'P36410'
p4020
I01
sS'P36411'
p4021
I01
sS'P36412'
p4022
I01
sS'P54638'
p4023
I01
sS'P36415'
p4024
I01
sS'Q23858'
p4025
I01
sS'Q86IA3'
p4026
I01
sS'Q54HG2'
p4027
I01
sS'Q86AQ3'
p4028
I01
sS'P02886'
p4029
I01
sS'P02887'
p4030
I01
sS'P02888'
p4031
I01
sS'P42530'
p4032
I01
sS'Q54Z26'
p4033
I01
sS'Q54AX5'
p4034
I01
sS'Q9NIF3'
p4035
I01
sS'Q54Q48'
p4036
I01
sS'Q54N76'
p4037
I01
sS'Q54GE3'
p4038
I01
sS'Q54F93'
p4039
I01
sS'P34144'
p4040
I01
sS'Q54KL2'
p4041
I01
sS'Q54PX9'
p4042
I01
sS'Q55DR6'
p4043
I01
sS'Q55GD9'
p4044
I01
sS'Q54PA9'
p4045
I01
sS'Q86L14'
p4046
I01
sS'Q86JA1'
p4047
I01
sS'Q54S38'
p4048
I01
sS'P42526'
p4049
I01
sS'Q54LX0'
p4050
I01
sS'B0G181'
p4051
I01
sS'Q54NU2'
p4052
I01
sS'Q54IP0'
p4053
I01
sS'Q54C70'
p4054
I01
sS'Q556G3'
p4055
I01
sS'P46800'
p4056
I01
sS'P42528'
p4057
I01
sS'Q9GPM4'
p4058
I01
sS'Q55EX9'
p4059
I01
sS'Q76NU1'
p4060
I01
sS'Q55BV5'
p4061
I01
sS'Q94469'
p4062
I01
sS'Q54U38'
p4063
I01
sS'Q54FU0'
p4064
I01
sS'P15064'
p4065
I01
sS'P09556'
p4066
I01
sS'Q557E0'
p4067
I01
sS'Q55BY1'
p4068
I01
sS'Q75JD5'
p4069
I01
sS'Q55GN5'
p4070
I01
sS'Q86IC8'
p4071
I01
sS'Q54M12'
p4072
I01
sS'P54657'
p4073
I01
sS'Q54C92'
p4074
I01
sS'P54651'
p4075
I01
sS'P18613'
p4076
I01
sS'Q556F7'
p4077
I01
sS'P54659'
p4078
I01
sS'Q54BM2'
p4079
I01
sS'Q54X80'
p4080
I01
sS'Q54I98'
p4081
I01
sS'Q55DL5'
p4082
I01
sS'Q55FF3'
p4083
I01
sS'Q54KD9'
p4084
I01
sS'Q54F74'
p4085
I01
sS'P90529'
p4086
I01
sS'Q55BN8'
p4087
I01
sS'Q554F5'
p4088
I01
sS'Q9U9R7'
p4089
I01
sS'Q54MZ3'
p4090
I01
sS'Q54D21'
p4091
I01
sS'P13231'
p4092
I01
sS'Q94464'
p4093
I01
sS'Q94465'
p4094
I01
sS'Q54E04'
p4095
I01
sS'P54647'
p4096
I01
sS'Q54DF9'
p4097
I01
sS'P54641'
p4098
I01
sS'Q54FW2'
p4099
I01
sS'P34121'
p4100
I01
sS'Q9GRF8'
p4101
I01
sS'P21900'
p4102
I01
sS'Q54DF1'
p4103
I01
sS'Q54ES8'
p4104
I01
sS'Q54ES9'
p4105
I01
sS'P10733'
p4106
I01
sS'P22685'
p4107
I01
sS'Q54NE6'
p4108
I01
sS'Q54UF7'
p4109
I01
sS'Q54PV8'
p4110
I01
sS'Q54VG4'
p4111
I01
sS'Q54F07'
p4112
I01
sS'Q8T869'
p4113
I01
sS'Q03380'
p4114
I01
sS'Q75JL7'
p4115
I01
sS'Q86A77'
p4116
I01
sS'Q54UI0'
p4117
I01
sS'Q54MB4'
p4118
I01
sS'Q559R0'
p4119
I01
sS'Q54QH0'
p4120
I01
sS'Q555L5'
p4121
I01
sS'Q54WL7'
p4122
I01
sS'Q54SU8'
p4123
I01
sS'Q95YL5'
p4124
I01
sS'Q54QE9'
p4125
I01
sS'Q76NV5'
p4126
I01
sS'Q554D9'
p4127
I01
sS'P15112'
p4128
I01
sS'Q54K46'
p4129
I01
sS'Q86HU8'
p4130
I01
sS'Q54LV1'
p4131
I01
sS'Q55EU6'
p4132
I01
stbsS'16396914'
p4133
g3
(g4
g5
NtRp4134
((dp4135
S'Q54ER9'
p4136
I01
stbsS'2835631'
p4137
g3
(g4
g5
NtRp4138
((dp4139
S'P09556'
p4140
I01
stbsS'8504170'
p4141
g3
(g4
g5
NtRp4142
((dp4143
S'Q03479'
p4144
I01
stbsS'8486739'
p4145
g3
(g4
g5
NtRp4146
((dp4147
S'P05095'
p4148
I01
stbsS'11330860'
p4149
g3
(g4
g5
NtRp4150
((dp4151
S'P54681'
p4152
I01
stbsS'20351273'
p4153
g3
(g4
g5
NtRp4154
((dp4155
S'Q86AC8'
p4156
I01
stbsS'22302991'
p4157
g3
(g4
g5
NtRp4158
((dp4159
S'P34144'
p4160
I01
sS'Q54K32'
p4161
I01
sS'Q54HG2'
p4162
I01
stbsS'16527814'
p4163
g3
(g4
g5
NtRp4164
((dp4165
S'Q54ET0'
p4166
I01
stbsS'18676957'
p4167
g3
(g4
g5
NtRp4168
((dp4169
S'Q54JA5'
p4170
I01
sS'Q54KF7'
p4171
I01
stbsS'1885577'
p4172
g3
(g4
g5
NtRp4173
((dp4174
S'P32073'
p4175
I01
stbsS'12139770'
p4176
g3
(g4
g5
NtRp4177
((dp4178
S'P90648'
p4179
I01
stbsS'9670017'
p4180
g3
(g4
g5
NtRp4181
((dp4182
S'O00910'
p4183
I01
sS'P13773'
p4184
I01
stbsS'16624291'
p4185
g3
(g4
g5
NtRp4186
((dp4187
S'O96621'
p4188
I01
sS'P08799'
p4189
I01
stbsS'15473840'
p4190
g3
(g4
g5
NtRp4191
((dp4192
S'P34145'
p4193
I01
sS'Q54QV3'
p4194
I01
sS'Q553Y7'
p4195
I01
sS'P54644'
p4196
I01
sS'Q86H13'
p4197
I01
sS'P35352'
p4198
I01
sS'P34042'
p4199
I01
sS'Q23917'
p4200
I01
sS'P35401'
p4201
I01
sS'Q551V8'
p4202
I01
sS'Q03100'
p4203
I01
sS'O76765'
p4204
I01
sS'P13773'
p4205
I01
sS'Q54QB1'
p4206
I01
sS'P12019'
p4207
I01
sS'Q55CL6'
p4208
I01
sS'P34099'
p4209
I01
sS'Q95ZG8'
p4210
I01
sS'P34907'
p4211
I01
sS'Q55D99'
p4212
I01
sS'Q9TX43'
p4213
I01
sS'Q54R41'
p4214
I01
sS'Q8T9S7'
p4215
I01
sS'P54673'
p4216
I01
sS'P54674'
p4217
I01
sS'Q8MVR1'
p4218
I01
sS'Q8MLZ3'
p4219
I01
sS'Q54NF8'
p4220
I01
sS'Q54S40'
p4221
I01
sS'P05987'
p4222
I01
sS'B0G0Y8'
p4223
I01
sS'Q8MM62'
p4224
I01
sS'P36408'
p4225
I01
stbsS'12678488'
p4226
g3
(g4
g5
NtRp4227
((dp4228
S'Q557E4'
p4229
I01
sS'P52285'
p4230
I01
stbsS'10987137'
p4231
g3
(g4
g5
NtRp4232
((dp4233
S'Q54GP3'
p4234
I01
stbsS'15060630'
p4235
g3
(g4
g5
NtRp4236
((dp4237
S'P10733'
p4238
I01
stbsS'7499325'
p4239
g3
(g4
g5
NtRp4240
((dp4241
S'P54678'
p4242
I01
stbsS'12455979'
p4243
g3
(g4
g5
NtRp4244
((dp4245
S'Q9XZJ3'
p4246
I01
sS'P34099'
p4247
I01
sS'P05987'
p4248
I01
stbsS'15476260'
p4249
g3
(g4
g5
NtRp4250
((dp4251
S'Q54RV9'
p4252
I01
stbsS'22008230'
p4253
g3
(g4
g5
NtRp4254
((dp4255
S'P34092'
p4256
I01
sS'Q54GX7'
p4257
I01
sS'Q553U6'
p4258
I01
sS'Q95VZ3'
p4259
I01
sS'Q94464'
p4260
I01
sS'P07829'
p4261
I01
sS'Q557J6'
p4262
I01
sS'P07830'
p4263
I01
stbsS'16478785'
p4264
g3
(g4
g5
NtRp4265
((dp4266
S'Q9NIV0'
p4267
I01
sS'Q8I8U2'
p4268
I01
stbsS'19176583'
p4269
g3
(g4
g5
NtRp4270
((dp4271
S'P34045'
p4272
I01
stbsS'22038042'
p4273
g3
(g4
g5
NtRp4274
((dp4275
S'Q55CT4'
p4276
I01
stbsS'8408201'
p4277
g3
(g4
g5
NtRp4278
((dp4279
S'Q03380'
p4280
I01
stbsS'12175335'
p4281
g3
(g4
g5
NtRp4282
((dp4283
S'Q54JY7'
p4284
I01
sS'Q75JI3'
p4285
I01
sS'Q86AQ7'
p4286
I01
sS'Q54Y50'
p4287
I01
sS'Q54IX6'
p4288
I01
sS'Q54X86'
p4289
I01
sS'O97470'
p4290
I01
sS'Q54NW7'
p4291
I01
sS'Q54R67'
p4292
I01
sS'Q553P5'
p4293
I01
sS'Q54CK6'
p4294
I01
sS'Q54NP6'
p4295
I01
sS'Q9U9R7'
p4296
I01
stbsS'7806571'
p4297
g3
(g4
g5
NtRp4298
((dp4299
S'P13833'
p4300
I01
stbsS'22809629'
p4301
g3
(g4
g5
NtRp4302
((dp4303
S'Q86KX8'
p4304
I01
sS'P27133'
p4305
I01
stbsS'1321427'
p4306
g3
(g4
g5
NtRp4307
((dp4308
S'P34125'
p4309
I01
stbsS'18402932'
p4310
g3
(g4
g5
NtRp4311
((dp4312
S'Q54FI3'
p4313
I01
sS'Q8T638'
p4314
I01
stbsS'16368684'
p4315
g3
(g4
g5
NtRp4316
((dp4317
S'Q54CW7'
p4318
I01
stbsS'6897549'
p4319
g3
(g4
g5
NtRp4320
((dp4321
S'P10733'
p4322
I01
stbsS'15366706'
p4323
g3
(g4
g5
NtRp4324
((dp4325
S'Q55D99'
p4326
I01
sS'P35401'
p4327
I01
sS'P54644'
p4328
I01
sS'Q8T9S7'
p4329
I01
sS'P54673'
p4330
I01
sS'P54674'
p4331
I01
stbsS'21606208'
p4332
g3
(g4
g5
NtRp4333
((dp4334
S'Q76NU1'
p4335
I01
sS'Q54CK9'
p4336
I01
stbsS'9649625'
p4337
g3
(g4
g5
NtRp4338
((dp4339
S'Q55G81'
p4340
I01
sS'B0M0P5'
p4341
I01
sS'O00835'
p4342
I01
stbsS'17916577'
p4343
g3
(g4
g5
NtRp4344
((dp4345
S'Q55FS1'
p4346
I01
sS'Q54UI6'
p4347
I01
stbsS'16678813'
p4348
g3
(g4
g5
NtRp4349
((dp4350
S'Q8T137'
p4351
I01
sS'Q54GP8'
p4352
I01
stbsS'21991393'
p4353
g3
(g4
g5
NtRp4354
((dp4355
S'P22887'
p4356
I01
stbsS'15896778'
p4357
g3
(g4
g5
NtRp4358
((dp4359
S'Q54GP3'
p4360
I01
stbsS'11884033'
p4361
g3
(g4
g5
NtRp4362
((dp4363
S'P05817'
p4364
I01
stbsS'20019080'
p4365
g3
(g4
g5
NtRp4366
((dp4367
S'Q86A84'
p4368
I01
stbsS'20052281'
p4369
g3
(g4
g5
NtRp4370
((dp4371
S'P07829'
p4372
I01
sS'P07830'
p4373
I01
sS'Q54GX7'
p4374
I01
sS'Q54E04'
p4375
I01
sS'Q553U6'
p4376
I01
stbsS'8752217'
p4377
g3
(g4
g5
NtRp4378
((dp4379
S'Q550R2'
p4380
I01
sS'Q54HG2'
p4381
I01
stbsS'11823417'
p4382
g3
(g4
g5
NtRp4383
((dp4384
S'Q94464'
p4385
I01
stbsS'23516620'
p4386
g3
(g4
g5
NtRp4387
((dp4388
S'P12729'
p4389
I01
sS'P02886'
p4390
I01
sS'P42523'
p4391
I01
sS'Q54YG2'
p4392
I01
sS'P36417'
p4393
I01
sS'Q03100'
p4394
I01
sS'P13773'
p4395
I01
sS'P12019'
p4396
I01
stbsS'15383615'
p4397
g3
(g4
g5
NtRp4398
((dp4399
S'Q556T3'
p4400
I01
sS'P13466'
p4401
I01
stbsS'9053320'
p4402
g3
(g4
g5
NtRp4403
((dp4404
S'P25870'
p4405
I01
stbsS'16005849'
p4406
g3
(g4
g5
NtRp4407
((dp4408
S'Q9NH03'
p4409
I01
stbsS'16762449'
p4410
g3
(g4
g5
NtRp4411
((dp4412
S'Q95YL4'
p4413
I01
sS'P54653'
p4414
I01
sS'P24639'
p4415
I01
sS'Q54PW0'
p4416
I01
stbsS'15708561'
p4417
g3
(g4
g5
NtRp4418
((dp4419
S'Q86H98'
p4420
I01
sS'Q8T7K0'
p4421
I01
stbsS'18997329'
p4422
g3
(g4
g5
NtRp4423
((dp4424
S'Q86A17'
p4425
I01
stbsS'2830141'
p4426
g3
(g4
g5
NtRp4427
((dp4428
S'Q869S5'
p4429
I01
stbsS'8838672'
p4430
g3
(g4
g5
NtRp4431
((dp4432
S'P54642'
p4433
I01
stbsS'11371560'
p4434
g3
(g4
g5
NtRp4435
((dp4436
S'Q86IV5'
p4437
I01
stbsS'17371831'
p4438
g3
(g4
g5
NtRp4439
((dp4440
S'P18613'
p4441
I01
sS'Q54QQ1'
p4442
I01
stbsS'9620859'
p4443
g3
(g4
g5
NtRp4444
((dp4445
S'O15816'
p4446
I01
stbsS'8552657'
p4447
g3
(g4
g5
NtRp4448
((dp4449
S'P08799'
p4450
I01
stbsS'16135826'
p4451
g3
(g4
g5
NtRp4452
((dp4453
S'Q71A39'
p4454
I01
stbsS'20472692'
p4455
g3
(g4
g5
NtRp4456
((dp4457
S'Q5FXM5'
p4458
I01
sS'Q75JI3'
p4459
I01
stbsS'11854420'
p4460
g3
(g4
g5
NtRp4461
((dp4462
S'P36410'
p4463
I01
sS'P36411'
p4464
I01
sS'Q54E04'
p4465
I01
sS'Q9XYS8'
p4466
I01
sS'Q86JF2'
p4467
I01
sS'O76856'
p4468
I01
stbsS'16372899'
p4469
g3
(g4
g5
NtRp4470
((dp4471
S'P42527'
p4472
I01
stbsS'7790361'
p4473
g3
(g4
g5
NtRp4474
((dp4475
S'P35401'
p4476
I01
stbsS'7790362'
p4477
g3
(g4
g5
NtRp4478
((dp4479
S'P36408'
p4480
I01
stbsS'15947191'
p4481
g3
(g4
g5
NtRp4482
((dp4483
S'Q7YSJ4'
p4484
I01
sS'Q55GS3'
p4485
I01
sS'P02886'
p4486
I01
stbsS'7589492'
p4487
g3
(g4
g5
NtRp4488
((dp4489
S'P90521'
p4490
I01
stbsS'10769206'
p4491
g3
(g4
g5
NtRp4492
((dp4493
S'Q1ZXQ8'
p4494
I01
stbsS'21401524'
p4495
g3
(g4
g5
NtRp4496
((dp4497
S'P42528'
p4498
I01
sS'C7FZZ0'
p4499
I01
sS'O96621'
p4500
I01
sS'O96622'
p4501
I01
sS'O96623'
p4502
I01
sS'O96624'
p4503
I01
sS'O96625'
p4504
I01
sS'O96626'
p4505
I01
sS'Q54X65'
p4506
I01
sS'Q9GSG9'
p4507
I01
stbsS'23915312'
p4508
g3
(g4
g5
NtRp4509
((dp4510
S'Q86KG9'
p4511
I01
sS'P27133'
p4512
I01
sS'P34119'
p4513
I01
stbsS'16814427'
p4514
g3
(g4
g5
NtRp4515
((dp4516
S'Q551M2'
p4517
I01
stbsS'10712614'
p4518
g3
(g4
g5
NtRp4519
((dp4520
S'O96099'
p4521
I01
stbsS'11959103'
p4522
g3
(g4
g5
NtRp4523
((dp4524
S'P42527'
p4525
I01
stbsS'15186508'
p4526
g3
(g4
g5
NtRp4527
((dp4528
S'Q1ZXQ8'
p4529
I01
sS'P34036'
p4530
I01
sS'Q03380'
p4531
I01
sS'Q8WQ86'
p4532
I01
sS'Q54VS0'
p4533
I01
stbsS'15689527'
p4534
g3
(g4
g5
NtRp4535
((dp4536
S'Q54JH6'
p4537
I01
stbsS'9698452'
p4538
g3
(g4
g5
NtRp4539
((dp4540
S'P36417'
p4541
I01
stbsS'2156849'
p4542
g3
(g4
g5
NtRp4543
((dp4544
S'P20425'
p4545
I01
stbsS'15131307'
p4546
g3
(g4
g5
NtRp4547
((dp4548
S'Q54QB1'
p4549
I01
sS'P05987'
p4550
I01
stbsS'18992223'
p4551
g3
(g4
g5
NtRp4552
((dp4553
S'Q54S04'
p4554
I01
sS'P35084'
p4555
I01
stbsS'12183371'
p4556
g3
(g4
g5
NtRp4557
((dp4558
S'Q75JI3'
p4559
I01
stbsS'17673666'
p4560
g3
(g4
g5
NtRp4561
((dp4562
S'Q54HT1'
p4563
I01
stbsS'12074548'
p4564
g3
(g4
g5
NtRp4565
((dp4566
S'P34117'
p4567
I01
sS'P34112'
p4568
I01
stbsS'18621026'
p4569
g3
(g4
g5
NtRp4570
((dp4571
S'Q54CJ4'
p4572
I01
stbsS'14686953'
p4573
g3
(g4
g5
NtRp4574
((dp4575
S'Q9BLG3'
p4576
I01
sS'Q8MXY0'
p4577
I01
stbsS'19411624'
p4578
g3
(g4
g5
NtRp4579
((dp4580
S'Q967U1'
p4581
I01
stbsS'12912898'
p4582
g3
(g4
g5
NtRp4583
((dp4584
S'Q556R7'
p4585
I01
sS'Q86HE5'
p4586
I01
sS'Q86IV5'
p4587
I01
stbsS'9177484'
p4588
g3
(g4
g5
NtRp4589
((dp4590
S'P90520'
p4591
I01
stbsS'16243037'
p4592
g3
(g4
g5
NtRp4593
((dp4594
S'Q54WG6'
p4595
I01
sS'Q54MA9'
p4596
I01
sS'Q54T85'
p4597
I01
sS'Q54UC0'
p4598
I01
sS'Q54ER4'
p4599
I01
sS'Q54LY5'
p4600
I01
stbsS'17517960'
p4601
g3
(g4
g5
NtRp4602
((dp4603
S'Q02158'
p4604
I01
sS'Q8T9S7'
p4605
I01
sS'P54673'
p4606
I01
sS'P54674'
p4607
I01
stbsS'20422638'
p4608
g3
(g4
g5
NtRp4609
((dp4610
S'Q54LG3'
p4611
I01
sS'Q54Z16'
p4612
I01
sS'Q54LG5'
p4613
I01
sS'Q7Z1I0'
p4614
I01
sS'Q54EL4'
p4615
I01
sS'Q54HD2'
p4616
I01
sS'Q54FI2'
p4617
I01
sS'Q55GD2'
p4618
I01
sS'Q55BZ5'
p4619
I01
sS'Q54EL2'
p4620
I01
sS'Q8T137'
p4621
I01
sS'Q55AQ9'
p4622
I01
sS'Q54ED7'
p4623
I01
sS'Q54ED6'
p4624
I01
sS'Q54TD0'
p4625
I01
sS'Q54HW8'
p4626
I01
sS'Q8T2I5'
p4627
I01
sS'Q557I0'
p4628
I01
sS'P54661'
p4629
I01
sS'Q54ME1'
p4630
I01
sS'Q55EK7'
p4631
I01
sS'Q55DV9'
p4632
I01
sS'Q55EK4'
p4633
I01
sS'Q86HB8'
p4634
I01
sS'Q8MYE6'
p4635
I01
sS'Q54NG9'
p4636
I01
sS'Q54MM1'
p4637
I01
sS'Q55CF8'
p4638
I01
sS'Q54W02'
p4639
I01
sS'Q76P36'
p4640
I01
sS'Q54YG8'
p4641
I01
sS'Q86L05'
p4642
I01
sS'Q54EU8'
p4643
I01
sS'Q54L07'
p4644
I01
sS'Q54G47'
p4645
I01
sS'Q86K73'
p4646
I01
sS'Q54JG8'
p4647
I01
sS'Q54WD2'
p4648
I01
sS'Q95YH0'
p4649
I01
sS'Q54K36'
p4650
I01
sS'Q54T73'
p4651
I01
sS'Q55F77'
p4652
I01
sS'Q555E5'
p4653
I01
sS'Q54BQ8'
p4654
I01
sS'O76856'
p4655
I01
sS'Q94504'
p4656
I01
sS'Q54P42'
p4657
I01
sS'Q54K94'
p4658
I01
sS'Q54VJ1'
p4659
I01
sS'Q94503'
p4660
I01
sS'Q6IMN8'
p4661
I01
sS'Q54JA5'
p4662
I01
sS'Q54CF7'
p4663
I01
sS'Q8T2R4'
p4664
I01
sS'Q65YR7'
p4665
I01
sS'Q86KU5'
p4666
I01
sS'Q54TR1'
p4667
I01
sS'P34116'
p4668
I01
sS'Q55C09'
p4669
I01
sS'Q54RI2'
p4670
I01
sS'P34113'
p4671
I01
sS'P83401'
p4672
I01
sS'Q54L19'
p4673
I01
sS'Q7KWU6'
p4674
I01
sS'Q7KWP5'
p4675
I01
sS'Q54J47'
p4676
I01
sS'Q54P69'
p4677
I01
sS'Q869Q8'
p4678
I01
sS'Q75JQ8'
p4679
I01
sS'Q54EK0'
p4680
I01
sS'Q86HR3'
p4681
I01
sS'Q54VC2'
p4682
I01
sS'Q54FZ8'
p4683
I01
sS'Q75JL8'
p4684
I01
sS'Q54PM6'
p4685
I01
sS'Q54VA2'
p4686
I01
sS'Q86JL4'
p4687
I01
sS'Q86KF4'
p4688
I01
sS'Q54M57'
p4689
I01
sS'Q76NV5'
p4690
I01
sS'Q556J0'
p4691
I01
sS'Q55DF9'
p4692
I01
sS'Q86K81'
p4693
I01
sS'Q54G96'
p4694
I01
sS'Q55B99'
p4695
I01
sS'Q75JX2'
p4696
I01
sS'Q75JJ3'
p4697
I01
sS'Q86IG4'
p4698
I01
sS'Q553M7'
p4699
I01
sS'Q54BC5'
p4700
I01
sS'O77257'
p4701
I01
sS'Q54C94'
p4702
I01
sS'Q54UI0'
p4703
I01
sS'O77082'
p4704
I01
sS'Q54TS5'
p4705
I01
sS'Q54SA1'
p4706
I01
sS'Q54C12'
p4707
I01
sS'Q54DU0'
p4708
I01
sS'Q54UB6'
p4709
I01
sS'P16643'
p4710
I01
sS'Q95US4'
p4711
I01
sS'P08796'
p4712
I01
sS'Q55GQ5'
p4713
I01
sS'Q55D50'
p4714
I01
sS'Q54EW2'
p4715
I01
sS'Q54PR9'
p4716
I01
sS'Q55EM4'
p4717
I01
sS'Q54QZ5'
p4718
I01
sS'Q54R27'
p4719
I01
sS'Q23921'
p4720
I01
sS'Q86IW1'
p4721
I01
sS'Q5VJL3'
p4722
I01
sS'Q54HE7'
p4723
I01
sS'Q54NY0'
p4724
I01
sS'Q8MM62'
p4725
I01
sS'Q55GV2'
p4726
I01
sS'Q8I7T3'
p4727
I01
sS'Q54NY7'
p4728
I01
sS'P10819'
p4729
I01
sS'Q86L42'
p4730
I01
sS'Q54K12'
p4731
I01
sS'Q54SC9'
p4732
I01
sS'Q54BS2'
p4733
I01
sS'Q54I47'
p4734
I01
sS'Q55CY7'
p4735
I01
sS'Q55EZ8'
p4736
I01
sS'Q54VS8'
p4737
I01
sS'Q75JK9'
p4738
I01
sS'Q54JD4'
p4739
I01
sS'P54632'
p4740
I01
sS'Q54IY9'
p4741
I01
sS'P36411'
p4742
I01
sS'Q86IX8'
p4743
I01
sS'Q86A30'
p4744
I01
sS'P54638'
p4745
I01
sS'P54639'
p4746
I01
sS'P36415'
p4747
I01
sS'Q554H5'
p4748
I01
sS'Q55GP7'
p4749
I01
sS'Q557J0'
p4750
I01
sS'Q23858'
p4751
I01
sS'P02599'
p4752
I01
sS'Q55CF6'
p4753
I01
sS'Q86L26'
p4754
I01
sS'Q54TC4'
p4755
I01
sS'Q6S001'
p4756
I01
sS'Q54CM9'
p4757
I01
sS'Q556U5'
p4758
I01
sS'Q55BW8'
p4759
I01
sS'Q86J22'
p4760
I01
sS'Q557H9'
p4761
I01
sS'P42530'
p4762
I01
sS'Q553T9'
p4763
I01
sS'Q86J25'
p4764
I01
sS'Q54RK5'
p4765
I01
sS'Q54EN4'
p4766
I01
sS'Q86K01'
p4767
I01
sS'Q54KF7'
p4768
I01
sS'Q54S53'
p4769
I01
sS'Q54GE1'
p4770
I01
sS'Q556S7'
p4771
I01
sS'Q54MV9'
p4772
I01
sS'Q54KR8'
p4773
I01
sS'Q54DY7'
p4774
I01
sS'Q54G58'
p4775
I01
sS'Q54V27'
p4776
I01
sS'Q86II9'
p4777
I01
sS'O60952'
p4778
I01
sS'Q54MA4'
p4779
I01
sS'Q54G77'
p4780
I01
sS'Q555L5'
p4781
I01
sS'Q54DH5'
p4782
I01
sS'Q75JR3'
p4783
I01
sS'Q5FXM5'
p4784
I01
sS'Q54MX8'
p4785
I01
sS'Q54TQ9'
p4786
I01
sS'Q54JR1'
p4787
I01
sS'Q55E60'
p4788
I01
sS'Q8T5Z7'
p4789
I01
sS'Q54MX7'
p4790
I01
sS'Q556G3'
p4791
I01
sS'Q8MUF9'
p4792
I01
sS'Q553U1'
p4793
I01
sS'P42523'
p4794
I01
sS'Q54BL8'
p4795
I01
sS'P42520'
p4796
I01
sS'Q54EQ6'
p4797
I01
sS'Q54FU0'
p4798
I01
sS'Q55GT0'
p4799
I01
sS'Q54RL3'
p4800
I01
sS'Q95UC5'
p4801
I01
sS'Q54WR3'
p4802
I01
sS'Q54QD9'
p4803
I01
sS'Q54BU3'
p4804
I01
sS'Q55DL0'
p4805
I01
sS'Q552L2'
p4806
I01
sS'Q54RF4'
p4807
I01
sS'Q54EX0'
p4808
I01
sS'Q54CB7'
p4809
I01
sS'P13023'
p4810
I01
sS'Q86IC7'
p4811
I01
sS'Q86I79'
p4812
I01
sS'Q54E80'
p4813
I01
sS'Q55FK8'
p4814
I01
sS'Q54UJ7'
p4815
I01
sS'Q55C60'
p4816
I01
sS'Q86L41'
p4817
I01
sS'Q86KC1'
p4818
I01
sS'Q558X5'
p4819
I01
sS'Q54VR1'
p4820
I01
sS'P54657'
p4821
I01
sS'P54654'
p4822
I01
sS'Q54L58'
p4823
I01
sS'Q557J6'
p4824
I01
sS'Q76NV1'
p4825
I01
sS'Q54ZD1'
p4826
I01
sS'Q54Q99'
p4827
I01
sS'Q8MP20'
p4828
I01
sS'Q8SSW4'
p4829
I01
sS'Q8T6B8'
p4830
I01
sS'Q54BK2'
p4831
I01
sS'Q557M8'
p4832
I01
sS'P46793'
p4833
I01
sS'Q54X80'
p4834
I01
sS'Q54DP5'
p4835
I01
sS'Q86HT1'
p4836
I01
sS'Q76NW2'
p4837
I01
sS'Q55B15'
p4838
I01
sS'Q55F70'
p4839
I01
sS'Q54N76'
p4840
I01
sS'Q54I92'
p4841
I01
sS'Q54FV5'
p4842
I01
sS'Q55BJ6'
p4843
I01
sS'Q8T1V4'
p4844
I01
sS'Q555C6'
p4845
I01
sS'Q9U7C7'
p4846
I01
sS'Q54U91'
p4847
I01
sS'Q54J08'
p4848
I01
sS'Q55GU8'
p4849
I01
sS'Q54T09'
p4850
I01
sS'P90526'
p4851
I01
sS'Q54WD8'
p4852
I01
sS'Q54QG1'
p4853
I01
sS'Q55D91'
p4854
I01
sS'Q55D84'
p4855
I01
sS'P0CG80'
p4856
I01
sS'Q55DC6'
p4857
I01
sS'Q55DB1'
p4858
I01
sS'Q1ZXC5'
p4859
I01
sS'O96070'
p4860
I01
sS'Q55C74'
p4861
I01
sS'Q54R55'
p4862
I01
sS'Q54E04'
p4863
I01
sS'Q556V7'
p4864
I01
sS'Q7KWS9'
p4865
I01
sS'Q54JJ8'
p4866
I01
sS'Q557K3'
p4867
I01
sS'Q54ZN0'
p4868
I01
sS'P54640'
p4869
I01
sS'Q94494'
p4870
I01
sS'Q54KP3'
p4871
I01
sS'Q551C1'
p4872
I01
sS'Q55D04'
p4873
I01
sS'Q86JH5'
p4874
I01
sS'Q55CT9'
p4875
I01
sS'Q54FW9'
p4876
I01
sS'Q86A67'
p4877
I01
sS'P14326'
p4878
I01
sS'Q557E0'
p4879
I01
sS'Q54X91'
p4880
I01
sS'Q54DQ9'
p4881
I01
sS'P22683'
p4882
I01
sS'Q557I4'
p4883
I01
sS'Q54K56'
p4884
I01
sS'Q75K27'
p4885
I01
sS'Q54K50'
p4886
I01
sS'B0G160'
p4887
I01
sS'Q54CY6'
p4888
I01
sS'Q8T2U1'
p4889
I01
sS'P34090'
p4890
I01
sS'Q556I5'
p4891
I01
sS'Q54Z69'
p4892
I01
sS'Q54F07'
p4893
I01
sS'Q8T869'
p4894
I01
sS'Q54XV7'
p4895
I01
sS'P90532'
p4896
I01
sS'P34098'
p4897
I01
sS'P29447'
p4898
I01
sS'Q54RN1'
p4899
I01
sS'Q557C7'
p4900
I01
sS'Q54HA1'
p4901
I01
sS'Q5XM24'
p4902
I01
sS'Q54IJ6'
p4903
I01
sS'Q54TT6'
p4904
I01
sS'Q55E77'
p4905
I01
sS'Q55FQ6'
p4906
I01
sS'Q55EM3'
p4907
I01
sS'Q23892'
p4908
I01
sS'Q54J53'
p4909
I01
sS'Q55GC7'
p4910
I01
sS'Q54HG2'
p4911
I01
sS'Q54UR7'
p4912
I01
sS'Q86B07'
p4913
I01
sS'Q54XG9'
p4914
I01
sS'Q54JA3'
p4915
I01
sS'Q1ZXD1'
p4916
I01
sS'Q9GS21'
p4917
I01
sS'Q55CU9'
p4918
I01
sS'Q9GRF8'
p4919
I01
sS'Q55GS3'
p4920
I01
sS'Q54YZ9'
p4921
I01
sS'Q54XG2'
p4922
I01
sS'Q94469'
p4923
I01
sS'Q54H23'
p4924
I01
sS'Q54YD2'
p4925
I01
sS'Q54KZ1'
p4926
I01
sS'Q54XN0'
p4927
I01
sS'Q54N35'
p4928
I01
sS'Q54IS1'
p4929
I01
sS'Q55AB5'
p4930
I01
sS'Q54P96'
p4931
I01
sS'Q54LN4'
p4932
I01
sS'Q54DV5'
p4933
I01
sS'Q55F41'
p4934
I01
sS'Q550U9'
p4935
I01
sS'Q54F13'
p4936
I01
sS'Q54GI7'
p4937
I01
sS'Q552M0'
p4938
I01
sS'Q54F16'
p4939
I01
sS'Q54YD1'
p4940
I01
sS'Q55EJ2'
p4941
I01
sS'Q54N70'
p4942
I01
sS'Q86AU1'
p4943
I01
sS'P51405'
p4944
I01
sS'Q54ZW5'
p4945
I01
sS'Q86AU2'
p4946
I01
stbsS'20080085'
p4947
g3
(g4
g5
NtRp4948
((dp4949
S'Q54T71'
p4950
I01
sS'Q54ER9'
p4951
I01
stbsS'22744750'
p4952
g3
(g4
g5
NtRp4953
((dp4954
S'Q54G01'
p4955
I01
stbsS'17314411'
p4956
g3
(g4
g5
NtRp4957
((dp4958
S'Q54NF8'
p4959
I01
sS'Q55FT9'
p4960
I01
sS'Q54X65'
p4961
I01
sS'Q6UK63'
p4962
I01
stbsS'2580557'
p4963
g3
(g4
g5
NtRp4964
((dp4965
S'P51173'
p4966
I01
stbsS'16265631'
p4967
g3
(g4
g5
NtRp4968
((dp4969
S'P54680'
p4970
I01
sS'Q54XX0'
p4971
I01
sS'Q75JH9'
p4972
I01
sS'Q55C43'
p4973
I01
stbsS'7822284'
p4974
g3
(g4
g5
NtRp4975
((dp4976
S'P13231'
p4977
I01
sS'P42526'
p4978
I01
stbsS'18611962'
p4979
g3
(g4
g5
NtRp4980
((dp4981
S'Q5XM24'
p4982
I01
sS'Q54TR1'
p4983
I01
stbsS'9191038'
p4984
g3
(g4
g5
NtRp4985
((dp4986
S'Q54U87'
p4987
I01
stbsS'15726806'
p4988
g3
(g4
g5
NtRp4989
((dp4990
S'P27133'
p4991
I01
sS'P07829'
p4992
I01
sS'Q8T8M2'
p4993
I01
sS'P42528'
p4994
I01
sS'Q553U6'
p4995
I01
sS'Q54SP2'
p4996
I01
sS'Q95UQ1'
p4997
I01
sS'P26199'
p4998
I01
sS'Q54WH2'
p4999
I01
sS'Q9GSG9'
p5000
I01
sS'P07830'
p5001
I01
sS'Q54GX7'
p5002
I01
sS'Q95VZ3'
p5003
I01
sS'O96621'
p5004
I01
sS'O96622'
p5005
I01
sS'O96623'
p5006
I01
sS'O96624'
p5007
I01
sS'O96625'
p5008
I01
sS'O96626'
p5009
I01
sS'Q54NF8'
p5010
I01
sS'P26200'
p5011
I01
sS'Q95UP9'
p5012
I01
stbsS'18408056'
p5013
g3
(g4
g5
NtRp5014
((dp5015
S'Q55CS7'
p5016
I01
stbsS'6468764'
p5017
g3
(g4
g5
NtRp5018
((dp5019
S'Q54LP2'
p5020
I01
stbsS'7593282'
p5021
g3
(g4
g5
NtRp5022
((dp5023
S'P09402'
p5024
I01
stbsS'10393118'
p5025
g3
(g4
g5
NtRp5026
((dp5027
S'O00910'
p5028
I01
stbsS'10828443'
p5029
g3
(g4
g5
NtRp5030
((dp5031
S'Q9TW28'
p5032
I01
stbsS'19833731'
p5033
g3
(g4
g5
NtRp5034
((dp5035
S'Q86JM7'
p5036
I01
sS'Q54JH4'
p5037
I01
sS'Q54J33'
p5038
I01
sS'Q553Y1'
p5039
I01
sS'Q553Y0'
p5040
I01
stbsS'2017144'
p5041
g3
(g4
g5
NtRp5042
((dp5043
S'P09556'
p5044
I01
stbsS'18827012'
p5045
g3
(g4
g5
NtRp5046
((dp5047
S'Q54EH1'
p5048
I01
stbsS'17606871'
p5049
g3
(g4
g5
NtRp5050
((dp5051
S'Q8T9S7'
p5052
I01
sS'P35401'
p5053
I01
stbsS'3110159'
p5054
g3
(g4
g5
NtRp5055
((dp5056
S'P34114'
p5057
I01
sS'Q00766'
p5058
I01
stbsS'15993406'
p5059
g3
(g4
g5
NtRp5060
((dp5061
S'Q54PC2'
p5062
I01
stbsS'15053873'
p5063
g3
(g4
g5
NtRp5064
((dp5065
S'O00910'
p5066
I01
stbsS'18204858'
p5067
g3
(g4
g5
NtRp5068
((dp5069
S'Q54BX4'
p5070
I01
sS'Q54BX5'
p5071
I01
sS'P15649'
p5072
I01
stbsS'22644079'
p5073
g3
(g4
g5
NtRp5074
((dp5075
S'P18613'
p5076
I01
sS'Q54YZ6'
p5077
I01
stbsS'15075287'
p5078
g3
(g4
g5
NtRp5079
((dp5080
S'Q02158'
p5081
I01
sS'Q6TMK3'
p5082
I01
sS'Q55DH8'
p5083
I01
sS'P0DJ27'
p5084
I01
sS'Q6TMI9'
p5085
I01
sS'Q02465'
p5086
I01
stbsS'3024983'
p5087
g3
(g4
g5
NtRp5088
((dp5089
S'Q6RYT0'
p5090
I01
stbsS'9397534'
p5091
g3
(g4
g5
NtRp5092
((dp5093
S'Q94502'
p5094
I01
stbsS'12388544'
p5095
g3
(g4
g5
NtRp5096
((dp5097
S'Q5TJ65'
p5098
I01
stbsS'15987738'
p5099
g3
(g4
g5
NtRp5100
((dp5101
S'Q54SF9'
p5102
I01
sS'Q54DK4'
p5103
I01
sS'P42527'
p5104
I01
sS'P90648'
p5105
I01
sS'Q8MY12'
p5106
I01
stbsS'11004503'
p5107
g3
(g4
g5
NtRp5108
((dp5109
S'O77229'
p5110
I01
sS'Q55DH8'
p5111
I01
stbsS'18305004'
p5112
g3
(g4
g5
NtRp5113
((dp5114
S'P54637'
p5115
I01
sS'Q54BD4'
p5116
I01
stbsS'16456031'
p5117
g3
(g4
g5
NtRp5118
((dp5119
S'Q86L44'
p5120
I01
stbsS'16957294'
p5121
g3
(g4
g5
NtRp5122
((dp5123
S'Q54EY3'
p5124
I01
stbsS'2549052'
p5125
g3
(g4
g5
NtRp5126
((dp5127
S'P34125'
p5128
I01
stbsS'16267269'
p5129
g3
(g4
g5
NtRp5130
((dp5131
S'Q03100'
p5132
I01
sS'Q8T9S7'
p5133
I01
sS'P54673'
p5134
I01
sS'P54674'
p5135
I01
sS'P35401'
p5136
I01
stbsS'17467078'
p5137
g3
(g4
g5
NtRp5138
((dp5139
S'P26199'
p5140
I01
sS'Q8T8M2'
p5141
I01
sS'P26200'
p5142
I01
sS'Q5TJ65'
p5143
I01
stbsS'20231486'
p5144
g3
(g4
g5
NtRp5145
((dp5146
S'Q54FI4'
p5147
I01
stbsS'18042625'
p5148
g3
(g4
g5
NtRp5149
((dp5150
S'O61122'
p5151
I01
stbsS'10747962'
p5152
g3
(g4
g5
NtRp5153
((dp5154
S'P54681'
p5155
I01
stbsS'10491107'
p5156
g3
(g4
g5
NtRp5157
((dp5158
S'Q9XZE5'
p5159
I01
sS'Q54QR9'
p5160
I01
sS'Q54Q99'
p5161
I01
stbsS'6243626'
p5162
g3
(g4
g5
NtRp5163
((dp5164
S'P02599'
p5165
I01
stbsS'19065153'
p5166
g3
(g4
g5
NtRp5167
((dp5168
S'Q54MH2'
p5169
I01
sS'P08799'
p5170
I01
sS'Q8MML5'
p5171
I01
stbsS'18164290'
p5172
g3
(g4
g5
NtRp5173
((dp5174
S'Q55DA0'
p5175
I01
sS'Q54P41'
p5176
I01
sS'Q54CT1'
p5177
I01
sS'Q54I71'
p5178
I01
sS'Q54UT6'
p5179
I01
sS'Q556S4'
p5180
I01
sS'Q54Z78'
p5181
I01
sS'Q869S5'
p5182
I01
sS'Q55B61'
p5183
I01
sS'Q54WR4'
p5184
I01
sS'Q54RL3'
p5185
I01
sS'Q557Q0'
p5186
I01
sS'Q54FQ2'
p5187
I01
sS'Q553P4'
p5188
I01
sS'Q557G6'
p5189
I01
sS'Q86AT9'
p5190
I01
sS'Q54HV7'
p5191
I01
sS'Q54DT8'
p5192
I01
sS'Q54V07'
p5193
I01
stbsS'8156999'
p5194
g3
(g4
g5
NtRp5195
((dp5196
S'Q02158'
p5197
I01
stbsS'10026266'
p5198
g3
(g4
g5
NtRp5199
((dp5200
S'P90521'
p5201
I01
stbsS'8224535'
p5202
g3
(g4
g5
NtRp5203
((dp5204
S'Q03101'
p5205
I01
stbsS'18375618'
p5206
g3
(g4
g5
NtRp5207
((dp5208
S'P0CE94'
p5209
I01
sS'Q54K81'
p5210
I01
stbsS'16367873'
p5211
g3
(g4
g5
NtRp5212
((dp5213
S'Q55GK8'
p5214
I01
sS'Q55FP0'
p5215
I01
stbsS'22389384'
p5216
g3
(g4
g5
NtRp5217
((dp5218
S'Q54IT4'
p5219
I01
stbsS'17655921'
p5220
g3
(g4
g5
NtRp5221
((dp5222
S'Q54C46'
p5223
I01
stbsS'8620848'
p5224
g3
(g4
g5
NtRp5225
((dp5226
S'P34043'
p5227
I01
stbsS'23391225'
p5228
g3
(g4
g5
NtRp5229
((dp5230
S'Q55AA6'
p5231
I01
stbsS'10873800'
p5232
g3
(g4
g5
NtRp5233
((dp5234
S'P54644'
p5235
I01
sS'P28178'
p5236
I01
stbsS'8089175'
p5237
g3
(g4
g5
NtRp5238
((dp5239
S'P54660'
p5240
I01
stbsS'8089176'
p5241
g3
(g4
g5
NtRp5242
((dp5243
S'P54660'
p5244
I01
stbsS'23355006'
p5245
g3
(g4
g5
NtRp5246
((dp5247
S'O97101'
p5248
I01
stbsS'16835457'
p5249
g3
(g4
g5
NtRp5250
((dp5251
S'Q54RC0'
p5252
I01
stbsS'8996086'
p5253
g3
(g4
g5
NtRp5254
((dp5255
S'P54672'
p5256
I01
stbsS'16885420'
p5257
g3
(g4
g5
NtRp5258
((dp5259
S'P32253'
p5260
I01
sS'P15064'
p5261
I01
stbsS'17761194'
p5262
g3
(g4
g5
NtRp5263
((dp5264
S'P34036'
p5265
I01
stbsS'18252726'
p5266
g3
(g4
g5
NtRp5267
((dp5268
S'Q54B59'
p5269
I01
sS'Q55E72'
p5270
I01
stbsS'15652354'
p5271
g3
(g4
g5
NtRp5272
((dp5273
S'Q86L04'
p5274
I01
stbsS'18768936'
p5275
g3
(g4
g5
NtRp5276
((dp5277
S'Q54RQ1'
p5278
I01
stbsS'11919178'
p5279
g3
(g4
g5
NtRp5280
((dp5281
S'Q9U7C9'
p5282
I01
sS'P02599'
p5283
I01
stbsS'15366936'
p5284
g3
(g4
g5
NtRp5285
((dp5286
S'P34036'
p5287
I01
stbsS'16597702'
p5288
g3
(g4
g5
NtRp5289
((dp5290
S'Q54NF8'
p5291
I01
sS'Q869Q3'
p5292
I01
stbsS'15358428'
p5293
g3
(g4
g5
NtRp5294
((dp5295
S'P10819'
p5296
I01
stbsS'18326585'
p5297
g3
(g4
g5
NtRp5298
((dp5299
S'Q1ZXQ8'
p5300
I01
sS'Q55GF9'
p5301
I01
sS'Q54WX4'
p5302
I01
stbsS'12529423'
p5303
g3
(g4
g5
NtRp5304
((dp5305
S'Q55E58'
p5306
I01
stbsS'15003488'
p5307
g3
(g4
g5
NtRp5308
((dp5309
S'Q54EW8'
p5310
I01
sS'Q6RYT0'
p5311
I01
stbsS'17588537'
p5312
g3
(g4
g5
NtRp5313
((dp5314
S'Q555X4'
p5315
I01
stbsS'20940261'
p5316
g3
(g4
g5
NtRp5317
((dp5318
S'Q558Y7'
p5319
I01
stbsS'12475956'
p5320
g3
(g4
g5
NtRp5321
((dp5322
S'Q8MY12'
p5323
I01
stbsS'9200609'
p5324
g3
(g4
g5
NtRp5325
((dp5326
S'O00910'
p5327
I01
stbsS'15715993'
p5328
g3
(g4
g5
NtRp5329
((dp5330
S'P16051'
p5331
I01
stbsS'14561408'
p5332
g3
(g4
g5
NtRp5333
((dp5334
S'O15706'
p5335
I01
stbsS'12532328'
p5336
g3
(g4
g5
NtRp5337
((dp5338
S'P90648'
p5339
I01
stbsS'15309638'
p5340
g3
(g4
g5
NtRp5341
((dp5342
S'Q54EX0'
p5343
I01
sS'Q55BZ9'
p5344
I01
sS'Q54JS4'
p5345
I01
sS'Q54JS3'
p5346
I01
sS'Q86KB6'
p5347
I01
sS'Q55BZ7'
p5348
I01
sS'Q54DJ4'
p5349
I01
sS'Q54DJ2'
p5350
I01
sS'Q54DJ3'
p5351
I01
sS'Q54DJ1'
p5352
I01
sS'Q54VM7'
p5353
I01
sS'Q55BZ8'
p5354
I01
sS'Q54U76'
p5355
I01
sS'Q54PW1'
p5356
I01
sS'Q55BZ6'
p5357
I01
sS'Q86K68'
p5358
I01
stbsS'16490188'
p5359
g3
(g4
g5
NtRp5360
((dp5361
S'Q86I19'
p5362
I01
stbsS'23679940'
p5363
g3
(g4
g5
NtRp5364
((dp5365
S'Q9U1M9'
p5366
I01
sS'Q54MH8'
p5367
I01
sS'Q55F94'
p5368
I01
sS'Q94464'
p5369
I01
stbsS'19482547'
p5370
g3
(g4
g5
NtRp5371
((dp5372
S'P32256'
p5373
I01
sS'P32255'
p5374
I01
sS'Q54UH8'
p5375
I01
sS'Q55BM4'
p5376
I01
sS'Q54DA8'
p5377
I01
sS'Q54MT0'
p5378
I01
sS'P0DJ26'
p5379
I01
sS'P0DJ27'
p5380
I01
sS'Q54D04'
p5381
I01
sS'Q54RA8'
p5382
I01
sS'P54661'
p5383
I01
sS'Q54VI6'
p5384
I01
sS'Q75JR3'
p5385
I01
sS'Q7KWQ2'
p5386
I01
sS'Q86JA1'
p5387
I01
sS'P33519'
p5388
I01
sS'Q54PX6'
p5389
I01
sS'Q9UAG7'
p5390
I01
sS'Q86A17'
p5391
I01
sS'Q55C21'
p5392
I01
sS'Q75JY8'
p5393
I01
sS'P34118'
p5394
I01
sS'Q54XZ0'
p5395
I01
sS'Q65YR8'
p5396
I01
sS'Q75JQ1'
p5397
I01
sS'Q55GQ5'
p5398
I01
sS'Q54M58'
p5399
I01
sS'Q554U9'
p5400
I01
sS'Q55CS9'
p5401
I01
sS'Q54VA2'
p5402
I01
sS'Q54BI8'
p5403
I01
sS'Q95YL5'
p5404
I01
sS'Q553V1'
p5405
I01
sS'Q54LT2'
p5406
I01
sS'Q54WR9'
p5407
I01
sS'P27133'
p5408
I01
sS'P22887'
p5409
I01
sS'Q27562'
p5410
I01
sS'Q54X53'
p5411
I01
sS'Q1ZXG4'
p5412
I01
sS'Q54RC0'
p5413
I01
sS'Q550R2'
p5414
I01
sS'P54632'
p5415
I01
sS'Q54EW8'
p5416
I01
sS'Q23921'
p5417
I01
sS'Q54TY4'
p5418
I01
sS'Q54YA2'
p5419
I01
sS'Q54XR4'
p5420
I01
sS'Q54D73'
p5421
I01
sS'Q54XC1'
p5422
I01
sS'Q558Z0'
p5423
I01
sS'P29505'
p5424
I01
sS'P24639'
p5425
I01
sS'P10819'
p5426
I01
sS'P16168'
p5427
I01
sS'Q54HR9'
p5428
I01
sS'Q54B68'
p5429
I01
sS'P36415'
p5430
I01
sS'Q54IF7'
p5431
I01
sS'Q23858'
p5432
I01
sS'Q86IA3'
p5433
I01
sS'Q54MB4'
p5434
I01
sS'Q54UM3'
p5435
I01
sS'P02886'
p5436
I01
sS'Q54J66'
p5437
I01
sS'P42530'
p5438
I01
sS'O96626'
p5439
I01
sS'Q54HB2'
p5440
I01
sS'Q557D2'
p5441
I01
sS'Q54EN4'
p5442
I01
sS'Q9U3X4'
p5443
I01
sS'Q54GE3'
p5444
I01
sS'Q76NU3'
p5445
I01
sS'Q54MA6'
p5446
I01
sS'Q54PX9'
p5447
I01
sS'Q9GRX6'
p5448
I01
sS'Q54PA9'
p5449
I01
sS'Q54JS9'
p5450
I01
sS'Q54NT1'
p5451
I01
sS'Q964D8'
p5452
I01
sS'P13651'
p5453
I01
sS'P42528'
p5454
I01
sS'Q9GPM4'
p5455
I01
sS'Q55EX9'
p5456
I01
sS'Q76NU1'
p5457
I01
sS'Q55BV5'
p5458
I01
sS'P42526'
p5459
I01
sS'Q55GT3'
p5460
I01
sS'P24005'
p5461
I01
sS'P09556'
p5462
I01
sS'Q557E0'
p5463
I01
sS'P13021'
p5464
I01
sS'P13022'
p5465
I01
sS'Q55BY1'
p5466
I01
sS'Q55FK4'
p5467
I01
sS'Q75JD5'
p5468
I01
sS'Q54PN7'
p5469
I01
sS'Q86IC8'
p5470
I01
sS'Q54R45'
p5471
I01
sS'P54657'
p5472
I01
sS'O77229'
p5473
I01
sS'P54651'
p5474
I01
sS'B0G196'
p5475
I01
sS'P54659'
p5476
I01
sS'Q54BM2'
p5477
I01
sS'Q54I98'
p5478
I01
sS'Q54F74'
p5479
I01
sS'P90529'
p5480
I01
sS'Q54JD4'
p5481
I01
sS'P90526'
p5482
I01
sS'Q54JD9'
p5483
I01
sS'Q86IJ1'
p5484
I01
sS'P36408'
p5485
I01
sS'Q94469'
p5486
I01
sS'P13231'
p5487
I01
sS'Q54KB7'
p5488
I01
sS'P54647'
p5489
I01
sS'P34123'
p5490
I01
sS'P34121'
p5491
I01
sS'Q9GRF8'
p5492
I01
sS'Q54F93'
p5493
I01
sS'Q54DF1'
p5494
I01
sS'Q8T131'
p5495
I01
sS'P10733'
p5496
I01
sS'Q86A67'
p5497
I01
sS'P14326'
p5498
I01
sS'P22685'
p5499
I01
sS'Q86HU8'
p5500
I01
sS'Q6IMN8'
p5501
I01
sS'Q58A41'
p5502
I01
sS'Q55EZ6'
p5503
I01
sS'Q95UQ1'
p5504
I01
sS'P34093'
p5505
I01
sS'Q553S7'
p5506
I01
sS'Q55DR6'
p5507
I01
sS'Q54F07'
p5508
I01
sS'Q8T869'
p5509
I01
sS'P90532'
p5510
I01
sS'P83401'
p5511
I01
sS'Q54P64'
p5512
I01
sS'P15808'
p5513
I01
sS'C7FZZ0'
p5514
I01
sS'Q54MB5'
p5515
I01
sS'Q54HG2'
p5516
I01
sS'P54638'
p5517
I01
sS'Q54Y98'
p5518
I01
sS'Q555L5'
p5519
I01
sS'Q54KR1'
p5520
I01
sS'Q54QQ0'
p5521
I01
sS'Q54Z26'
p5522
I01
sS'Q54PF9'
p5523
I01
sS'Q76NV5'
p5524
I01
sS'P15112'
p5525
I01
sS'Q54TG6'
p5526
I01
sS'Q54FX9'
p5527
I01
sS'Q54MR6'
p5528
I01
stbsS'17442478'
p5529
g3
(g4
g5
NtRp5530
((dp5531
S'Q54RB9'
p5532
I01
stbsS'15193148'
p5533
g3
(g4
g5
NtRp5534
((dp5535
S'Q550U9'
p5536
I01
sS'O00909'
p5537
I01
stbsS'18701541'
p5538
g3
(g4
g5
NtRp5539
((dp5540
S'Q55BY9'
p5541
I01
sS'Q54KJ1'
p5542
I01
sS'Q54LR0'
p5543
I01
sS'O00841'
p5544
I01
sS'Q54LR3'
p5545
I01
stbsS'12082150'
p5546
g3
(g4
g5
NtRp5547
((dp5548
S'Q54E04'
p5549
I01
stbsS'8870645'
p5550
g3
(g4
g5
NtRp5551
((dp5552
S'Q94465'
p5553
I01
stbsS'11956323'
p5554
g3
(g4
g5
NtRp5555
((dp5556
S'Q55BN8'
p5557
I01
stbsS'23264736'
p5558
g3
(g4
g5
NtRp5559
((dp5560
S'O00909'
p5561
I01
sS'Q54WI0'
p5562
I01
stbsS'21085675'
p5563
g3
(g4
g5
NtRp5564
((dp5565
S'P34144'
p5566
I01
sS'O00899'
p5567
I01
sS'P13466'
p5568
I01
sS'Q54HG2'
p5569
I01
stbsS'22253818'
p5570
g3
(g4
g5
NtRp5571
((dp5572
S'Q54ER9'
p5573
I01
stbsS'15363631'
p5574
g3
(g4
g5
NtRp5575
((dp5576
S'Q9GPM4'
p5577
I01
stbsS'16599905'
p5578
g3
(g4
g5
NtRp5579
((dp5580
S'Q54N49'
p5581
I01
stbsS'15826949'
p5582
g3
(g4
g5
NtRp5583
((dp5584
S'Q9U1M8'
p5585
I01
sS'P0CE94'
p5586
I01
stbsS'12954783'
p5587
g3
(g4
g5
NtRp5588
((dp5589
S'Q8SSS9'
p5590
I01
stbsS'9778249'
p5591
g3
(g4
g5
NtRp5592
((dp5593
S'P35401'
p5594
I01
stbsS'15470642'
p5595
g3
(g4
g5
NtRp5596
((dp5597
S'O00910'
p5598
I01
stbsS'12499361'
p5599
g3
(g4
g5
NtRp5600
((dp5601
S'Q8I7T3'
p5602
I01
stbsS'12244115'
p5603
g3
(g4
g5
NtRp5604
((dp5605
S'Q8T1C6'
p5606
I01
stbsS'11352578'
p5607
g3
(g4
g5
NtRp5608
((dp5609
S'Q55G87'
p5610
I01
sS'Q7YSW8'
p5611
I01
stbsS'10744862'
p5612
g3
(g4
g5
NtRp5613
((dp5614
S'P0DJ26'
p5615
I01
stbsS'16421252'
p5616
g3
(g4
g5
NtRp5617
((dp5618
S'P54673'
p5619
I01
sS'P54674'
p5620
I01
stbsS'7926779'
p5621
g3
(g4
g5
NtRp5622
((dp5623
S'P42523'
p5624
I01
stbsS'15629062'
p5625
g3
(g4
g5
NtRp5626
((dp5627
S'Q554C5'
p5628
I01
stbsS'11179674'
p5629
g3
(g4
g5
NtRp5630
((dp5631
S'Q54HS9'
p5632
I01
sS'Q9GPF1'
p5633
I01
sS'Q9GPF0'
p5634
I01
stbsS'15352238'
p5635
g3
(g4
g5
NtRp5636
((dp5637
S'P15064'
p5638
I01
stbsS'9422733'
p5639
g3
(g4
g5
NtRp5640
((dp5641
S'P36411'
p5642
I01
stbsS'17606989'
p5643
g3
(g4
g5
NtRp5644
((dp5645
S'Q86JF2'
p5646
I01
stbsS'9171087'
p5647
g3
(g4
g5
NtRp5648
((dp5649
S'Q55G81'
p5650
I01
sS'O00835'
p5651
I01
stbsS'22902739'
p5652
g3
(g4
g5
NtRp5653
((dp5654
S'Q550R2'
p5655
I01
sS'Q54I71'
p5656
I01
sS'Q54MH2'
p5657
I01
sS'Q54HG2'
p5658
I01
sS'P08799'
p5659
I01
sS'Q54K32'
p5660
I01
stbsS'17587329'
p5661
g3
(g4
g5
NtRp5662
((dp5663
S'Q9GPR7'
p5664
I01
sS'Q54WZ2'
p5665
I01
stbsS'23441816'
p5666
g3
(g4
g5
NtRp5667
((dp5668
S'P54657'
p5669
I01
sS'P02599'
p5670
I01
stbsS'15883042'
p5671
g3
(g4
g5
NtRp5672
((dp5673
S'Q27564'
p5674
I01
sS'P02599'
p5675
I01
stbsS'9389653'
p5676
g3
(g4
g5
NtRp5677
((dp5678
S'O77203'
p5679
I01
stbsS'17535967'
p5680
g3
(g4
g5
NtRp5681
((dp5682
S'Q02158'
p5683
I01
sS'P54673'
p5684
I01
sS'P54674'
p5685
I01
stbsS'14706699'
p5686
g3
(g4
g5
NtRp5687
((dp5688
S'Q54TY7'
p5689
I01
stbsS'17501984'
p5690
g3
(g4
g5
NtRp5691
((dp5692
S'Q75JT4'
p5693
I01
stbsS'9169048'
p5694
g3
(g4
g5
NtRp5695
((dp5696
S'Q94489'
p5697
I01
stbsS'17332500'
p5698
g3
(g4
g5
NtRp5699
((dp5700
S'Q54YF2'
p5701
I01
stbsS'21040356'
p5702
g3
(g4
g5
NtRp5703
((dp5704
S'Q54X63'
p5705
I01
stbsS'11728467'
p5706
g3
(g4
g5
NtRp5707
((dp5708
S'P10819'
p5709
I01
stbsS'16835443'
p5710
g3
(g4
g5
NtRp5711
((dp5712
S'Q9BLG4'
p5713
I01
stbsS'21402150'
p5714
g3
(g4
g5
NtRp5715
((dp5716
S'Q9GPK9'
p5717
I01
sS'P02599'
p5718
I01
stbsS'18809930'
p5719
g3
(g4
g5
NtRp5720
((dp5721
S'Q54MH8'
p5722
I01
sS'Q55AX0'
p5723
I01
sS'Q55F94'
p5724
I01
stbsS'8125261'
p5725
g3
(g4
g5
NtRp5726
((dp5727
S'P36417'
p5728
I01
stbsS'23998118'
p5729
g3
(g4
g5
NtRp5730
((dp5731
S'Q54JI6'
p5732
I01
stbsS'18712789'
p5733
g3
(g4
g5
NtRp5734
((dp5735
S'Q6RZZ9'
p5736
I01
stbsS'20887559'
p5737
g3
(g4
g5
NtRp5738
((dp5739
S'Q54MI3'
p5740
I01
stbsS'16524908'
p5741
g3
(g4
g5
NtRp5742
((dp5743
S'Q54RQ4'
p5744
I01
sS'Q54RN0'
p5745
I01
stbsS'15259052'
p5746
g3
(g4
g5
NtRp5747
((dp5748
S'Q95UQ1'
p5749
I01
sS'P08799'
p5750
I01
sS'Q54S20'
p5751
I01
stbsS'14551196'
p5752
g3
(g4
g5
NtRp5753
((dp5754
S'Q6IMN8'
p5755
I01
stbsS'11220631'
p5756
g3
(g4
g5
NtRp5757
((dp5758
S'Q9NIV0'
p5759
I01
sS'P54647'
p5760
I01
sS'P02599'
p5761
I01
stbsS'17172447'
p5762
g3
(g4
g5
NtRp5763
((dp5764
S'P10819'
p5765
I01
stbsS'19875452'
p5766
g3
(g4
g5
NtRp5767
((dp5768
S'P54657'
p5769
I01
stbsS'293714'
p5770
g3
(g4
g5
NtRp5771
((dp5772
S'Q554S6'
p5773
I01
stbsS'17897809'
p5774
g3
(g4
g5
NtRp5775
((dp5776
S'P54671'
p5777
I01
sS'Q54K32'
p5778
I01
stbsS'17950724'
p5779
g3
(g4
g5
NtRp5780
((dp5781
S'Q55AP1'
p5782
I01
stbsS'10209124'
p5783
g3
(g4
g5
NtRp5784
((dp5785
S'Q54K81'
p5786
I01
stbsS'24137657'
p5787
g3
(g4
g5
NtRp5788
((dp5789
S'Q54DU0'
p5790
I01
stbsS'15821137'
p5791
g3
(g4
g5
NtRp5792
((dp5793
S'Q03100'
p5794
I01
stbsS'15086784'
p5795
g3
(g4
g5
NtRp5796
((dp5797
S'Q55DM1'
p5798
I01
stbsS'15668169'
p5799
g3
(g4
g5
NtRp5800
((dp5801
S'P35401'
p5802
I01
stbsS'9784196'
p5803
g3
(g4
g5
NtRp5804
((dp5805
S'P51136'
p5806
I01
stbsS'15289548'
p5807
g3
(g4
g5
NtRp5808
((dp5809
S'P20790'
p5810
I01
sS'P20791'
p5811
I01
stbsS'20658257'
p5812
g3
(g4
g5
NtRp5813
((dp5814
S'Q1ZXQ8'
p5815
I01
sS'Q553N8'
p5816
I01
stbsS'14706075'
p5817
g3
(g4
g5
NtRp5818
((dp5819
S'Q54QT7'
p5820
I01
sS'Q54QT9'
p5821
I01
sS'Q54QT8'
p5822
I01
sS'Q869S9'
p5823
I01
sS'Q966Q9'
p5824
I01
sS'P54653'
p5825
I01
sS'Q9GYD9'
p5826
I01
sS'Q966R0'
p5827
I01
stbsS'9660787'
p5828
g3
(g4
g5
NtRp5829
((dp5830
S'Q557E4'
p5831
I01
sS'P52285'
p5832
I01
stbsS'10749929'
p5833
g3
(g4
g5
NtRp5834
((dp5835
S'Q54NW4'
p5836
I01
stbsS'17481898'
p5837
g3
(g4
g5
NtRp5838
((dp5839
S'Q86D86'
p5840
I01
sS'P16894'
p5841
I01
stbsS'15728726'
p5842
g3
(g4
g5
NtRp5843
((dp5844
S'Q6B9X6'
p5845
I01
stbsS'12717731'
p5846
g3
(g4
g5
NtRp5847
((dp5848
S'Q54Y02'
p5849
I01
stbsS'11479029'
p5850
g3
(g4
g5
NtRp5851
((dp5852
S'Q9GRF8'
p5853
I01
stbsS'17606987'
p5854
g3
(g4
g5
NtRp5855
((dp5856
S'Q75JI3'
p5857
I01
stbsS'22090348'
p5858
g3
(g4
g5
NtRp5859
((dp5860
S'Q54HI5'
p5861
I01
stbsS'16107728'
p5862
g3
(g4
g5
NtRp5863
((dp5864
S'Q54I18'
p5865
I01
stbsS'17353263'
p5866
g3
(g4
g5
NtRp5867
((dp5868
S'Q86IL5'
p5869
I01
sS'Q9Y0B7'
p5870
I01
sS'Q54I18'
p5871
I01
stbsS'14680693'
p5872
g3
(g4
g5
NtRp5873
((dp5874
S'P34099'
p5875
I01
stbsS'6259174'
p5876
g3
(g4
g5
NtRp5877
((dp5878
S'P02599'
p5879
I01
stbsS'15851518'
p5880
g3
(g4
g5
NtRp5881
((dp5882
S'Q552S0'
p5883
I01
stbsS'22119747'
p5884
g3
(g4
g5
NtRp5885
((dp5886
S'Q8MVR1'
p5887
I01
stbsS'9546041'
p5888
g3
(g4
g5
NtRp5889
((dp5890
S'Q9GRF8'
p5891
I01
stbsS'16777069'
p5892
g3
(g4
g5
NtRp5893
((dp5894
S'Q54JC0'
p5895
I01
stbsS'2745547'
p5896
g3
(g4
g5
NtRp5897
((dp5898
S'P08799'
p5899
I01
stbsS'17237363'
p5900
g3
(g4
g5
NtRp5901
((dp5902
S'Q54T71'
p5903
I01
stbsS'12134070'
p5904
g3
(g4
g5
NtRp5905
((dp5906
S'Q1ZXQ8'
p5907
I01
sS'Q8WQ86'
p5908
I01
stbsS'10896781'
p5909
g3
(g4
g5
NtRp5910
((dp5911
S'Q54RF4'
p5912
I01
sS'P42529'
p5913
I01
stbsS'10970875'
p5914
g3
(g4
g5
NtRp5915
((dp5916
S'Q9NA13'
p5917
I01
stbsS'23223240'
p5918
g3
(g4
g5
NtRp5919
((dp5920
S'O96621'
p5921
I01
stbsS'16622066'
p5922
g3
(g4
g5
NtRp5923
((dp5924
S'P54657'
p5925
I01
sS'P15064'
p5926
I01
stbsS'8986798'
p5927
g3
(g4
g5
NtRp5928
((dp5929
S'Q54MY9'
p5930
I01
sS'Q23868'
p5931
I01
stbsS'19213599'
p5932
g3
(g4
g5
NtRp5933
((dp5934
S'Q8MML5'
p5935
I01
stbsS'16155255'
p5936
g3
(g4
g5
NtRp5937
((dp5938
S'Q8MML5'
p5939
I01
stbsS'11784104'
p5940
g3
(g4
g5
NtRp5941
((dp5942
S'Q54DD0'
p5943
I01
stbsS'7733916'
p5944
g3
(g4
g5
NtRp5945
((dp5946
S'P22887'
p5947
I01
stbsS'18718841'
p5948
g3
(g4
g5
NtRp5949
((dp5950
S'P54651'
p5951
I01
stbsS'14597204'
p5952
g3
(g4
g5
NtRp5953
((dp5954
S'P32252'
p5955
I01
sS'P54632'
p5956
I01
sS'Q54HC6'
p5957
I01
stbsS'7657724'
p5958
g3
(g4
g5
NtRp5959
((dp5960
S'P24639'
p5961
I01
stbsS'9585512'
p5962
g3
(g4
g5
NtRp5963
((dp5964
S'O15743'
p5965
I01
stbsS'11447112'
p5966
g3
(g4
g5
NtRp5967
((dp5968
S'P34144'
p5969
I01
sS'Q550R2'
p5970
I01
sS'Q54K32'
p5971
I01
sS'Q54HG2'
p5972
I01
stbsS'20375146'
p5973
g3
(g4
g5
NtRp5974
((dp5975
S'Q54SK5'
p5976
I01
stbsS'17086450'
p5977
g3
(g4
g5
NtRp5978
((dp5979
S'Q54WZ6'
p5980
I01
stbsS'12913271'
p5981
g3
(g4
g5
NtRp5982
((dp5983
S'Q54RQ1'
p5984
I01
sS'Q54RN1'
p5985
I01
sS'Q55GQ5'
p5986
I01
stbsS'11719559'
p5987
g3
(g4
g5
NtRp5988
((dp5989
S'P54681'
p5990
I01
sS'Q8ST66'
p5991
I01
sS'Q9NGP5'
p5992
I01
stbsS'15059942'
p5993
g3
(g4
g5
NtRp5994
((dp5995
S'Q55A00'
p5996
I01
stbsS'17207566'
p5997
g3
(g4
g5
NtRp5998
((dp5999
S'Q3ZE13'
p6000
I01
stbsS'16325504'
p6001
g3
(g4
g5
NtRp6002
((dp6003
S'Q54QQ1'
p6004
I01
stbsS'2163458'
p6005
g3
(g4
g5
NtRp6006
((dp6007
S'P34093'
p6008
I01
stbsS'12244067'
p6009
g3
(g4
g5
NtRp6010
((dp6011
S'Q54QG0'
p6012
I01
stbsS'10564654'
p6013
g3
(g4
g5
NtRp6014
((dp6015
S'Q9NAX4'
p6016
I01
sS'P54704'
p6017
I01
stbsS'19325115'
p6018
g3
(g4
g5
NtRp6019
((dp6020
S'Q9GPR7'
p6021
I01
stbsS'11029049'
p6022
g3
(g4
g5
NtRp6023
((dp6024
S'Q86IA3'
p6025
I01
stbsS'10880352'
p6026
g3
(g4
g5
NtRp6027
((dp6028
S'Q556Y4'
p6029
I01
stbsS'17905919'
p6030
g3
(g4
g5
NtRp6031
((dp6032
S'P13773'
p6033
I01
stbsS'11267868'
p6034
g3
(g4
g5
NtRp6035
((dp6036
S'Q9U1M8'
p6037
I01
stbsS'11090633'
p6038
g3
(g4
g5
NtRp6039
((dp6040
S'Q86IV5'
p6041
I01
stbsS'18676953'
p6042
g3
(g4
g5
NtRp6043
((dp6044
S'Q54JL7'
p6045
I01
stbsS'18703517'
p6046
g3
(g4
g5
NtRp6047
((dp6048
S'Q8MVR1'
p6049
I01
stbsS'9582274'
p6050
g3
(g4
g5
NtRp6051
((dp6052
S'Q54RR8'
p6053
I01
sS'Q03100'
p6054
I01
stbsS'1326523'
p6055
g3
(g4
g5
NtRp6056
((dp6057
S'Q02158'
p6058
I01
stbsS'16769729'
p6059
g3
(g4
g5
NtRp6060
((dp6061
S'Q54S40'
p6062
I01
stbsS'2451126'
p6063
g3
(g4
g5
NtRp6064
((dp6065
S'P09402'
p6066
I01
stbsS'16443752'
p6067
g3
(g4
g5
NtRp6068
((dp6069
S'Q03479'
p6070
I01
stbsS'11686306'
p6071
g3
(g4
g5
NtRp6072
((dp6073
S'P36412'
p6074
I01
stbsS'17004322'
p6075
g3
(g4
g5
NtRp6076
((dp6077
S'Q9GPR7'
p6078
I01
stbsS'10651904'
p6079
g3
(g4
g5
NtRp6080
((dp6081
S'Q54S20'
p6082
I01
stbsS'17031003'
p6083
g3
(g4
g5
NtRp6084
((dp6085
S'Q6T486'
p6086
I01
stbsS'12626495'
p6087
g3
(g4
g5
NtRp6088
((dp6089
S'Q86CR6'
p6090
I01
sS'Q54NA3'
p6091
I01
sS'Q557H7'
p6092
I01
sS'Q54GT9'
p6093
I01
sS'Q86CR9'
p6094
I01
stbsS'11683919'
p6095
g3
(g4
g5
NtRp6096
((dp6097
S'Q966T6'
p6098
I01
stbsS'3243026'
p6099
g3
(g4
g5
NtRp6100
((dp6101
S'P12729'
p6102
I01
stbsS'8089184'
p6103
g3
(g4
g5
NtRp6104
((dp6105
S'P35401'
p6106
I01
stbsS'1972546'
p6107
g3
(g4
g5
NtRp6108
((dp6109
S'P18160'
p6110
I01
sS'P18161'
p6111
I01
stbsS'16781869'
p6112
g3
(g4
g5
NtRp6113
((dp6114
S'P13466'
p6115
I01
stbsS'15908944'
p6116
g3
(g4
g5
NtRp6117
((dp6118
S'P34144'
p6119
I01
sS'Q54K32'
p6120
I01
sS'Q54N00'
p6121
I01
sS'P26200'
p6122
I01
stbsS'10930737'
p6123
g3
(g4
g5
NtRp6124
((dp6125
S'Q55EK9'
p6126
I01
stbsS'1651931'
p6127
g3
(g4
g5
NtRp6128
((dp6129
S'P25323'
p6130
I01
stbsS'15483055'
p6131
g3
(g4
g5
NtRp6132
((dp6133
S'Q55GV3'
p6134
I01
stbsS'11369235'
p6135
g3
(g4
g5
NtRp6136
((dp6137
S'P42527'
p6138
I01
stbsS'10369671'
p6139
g3
(g4
g5
NtRp6140
((dp6141
S'O96904'
p6142
I01
stbsS'9636072'
p6143
g3
(g4
g5
NtRp6144
((dp6145
S'Q55FB8'
p6146
I01
stbsS'1577798'
p6147
g3
(g4
g5
NtRp6148
((dp6149
S'Q557E4'
p6150
I01
sS'P52285'
p6151
I01
stbsS'1849108'
p6152
g3
(g4
g5
NtRp6153
((dp6154
S'P13773'
p6155
I01
stbsS'16920105'
p6156
g3
(g4
g5
NtRp6157
((dp6158
S'Q7YXD4'
p6159
I01
stbsS'15962002'
p6160
g3
(g4
g5
NtRp6161
((dp6162
S'Q86I44'
p6163
I01
sS'P34142'
p6164
I01
sS'P13466'
p6165
I01
sS'Q55GV9'
p6166
I01
stbsS'10725225'
p6167
g3
(g4
g5
NtRp6168
((dp6169
S'P32252'
p6170
I01
sS'P15064'
p6171
I01
sS'P03967'
p6172
I01
stbsS'12857872'
p6173
g3
(g4
g5
NtRp6174
((dp6175
S'Q54ZW0'
p6176
I01
sS'Q55FP0'
p6177
I01
stbsS'23616924'
p6178
g3
(g4
g5
NtRp6179
((dp6180
S'Q54TP5'
p6181
I01
stbsS'9023987'
p6182
g3
(g4
g5
NtRp6183
((dp6184
S'Q55GH4'
p6185
I01
stbsS'18028904'
p6186
g3
(g4
g5
NtRp6187
((dp6188
S'P34042'
p6189
I01
stbsS'16787542'
p6190
g3
(g4
g5
NtRp6191
((dp6192
S'Q55DM1'
p6193
I01
sS'Q06885'
p6194
I01
stbsS'8619862'
p6195
g3
(g4
g5
NtRp6196
((dp6197
S'Q03100'
p6198
I01
sS'Q94465'
p6199
I01
stbsS'4308724'
p6200
g3
(g4
g5
NtRp6201
((dp6202
S'Q6RYT0'
p6203
I01
stbsS'15141168'
p6204
g3
(g4
g5
NtRp6205
((dp6206
S'Q54K81'
p6207
I01
stbsS'20951045'
p6208
g3
(g4
g5
NtRp6209
((dp6210
S'P08799'
p6211
I01
sS'Q23862'
p6212
I01
sS'P54632'
p6213
I01
stbsS'15358773'
p6214
g3
(g4
g5
NtRp6215
((dp6216
S'Q86CS2'
p6217
I01
stbsS'22682495'
p6218
g3
(g4
g5
NtRp6219
((dp6220
S'Q55FC8'
p6221
I01
stbsS'10545500'
p6222
g3
(g4
g5
NtRp6223
((dp6224
S'Q55D99'
p6225
I01
stbsS'20668166'
p6226
g3
(g4
g5
NtRp6227
((dp6228
S'Q552S0'
p6229
I01
sS'P54686'
p6230
I01
stbsS'15827084'
p6231
g3
(g4
g5
NtRp6232
((dp6233
S'Q54S40'
p6234
I01
sS'Q8MVR1'
p6235
I01
stbsS'21933174'
p6236
g3
(g4
g5
NtRp6237
((dp6238
S'Q555X5'
p6239
I01
stbsS'23063531'
p6240
g3
(g4
g5
NtRp6241
((dp6242
S'P34117'
p6243
I01
sS'Q55CT4'
p6244
I01
sS'P02599'
p6245
I01
stbsS'17121815'
p6246
g3
(g4
g5
NtRp6247
((dp6248
S'P13466'
p6249
I01
stbsS'24128258'
p6250
g3
(g4
g5
NtRp6251
((dp6252
S'Q86K54'
p6253
I01
stbsS'16675552'
p6254
g3
(g4
g5
NtRp6255
((dp6256
S'Q5TJ65'
p6257
I01
sS'Q54N00'
p6258
I01
stbsS'18424909'
p6259
g3
(g4
g5
NtRp6260
((dp6261
S'Q55GH4'
p6262
I01
sS'Q54YZ0'
p6263
I01
stbsS'19133302'
p6264
g3
(g4
g5
NtRp6265
((dp6266
S'Q54K81'
p6267
I01
sS'P36417'
p6268
I01
stbsS'18384150'
p6269
g3
(g4
g5
NtRp6270
((dp6271
S'P42530'
p6272
I01
stbsS'12802059'
p6273
g3
(g4
g5
NtRp6274
((dp6275
S'Q54HS9'
p6276
I01
sS'P25870'
p6277
I01
sS'Q8I8U2'
p6278
I01
stbsS'16741867'
p6279
g3
(g4
g5
NtRp6280
((dp6281
S'Q54T47'
p6282
I01
stbsS'18638468'
p6283
g3
(g4
g5
NtRp6284
((dp6285
S'Q54LW0'
p6286
I01
stbsS'9813183'
p6287
g3
(g4
g5
NtRp6288
((dp6289
S'O96042'
p6290
I01
stbsS'18381083'
p6291
g3
(g4
g5
NtRp6292
((dp6293
S'P42527'
p6294
I01
sS'P90648'
p6295
I01
sS'Q6B9X6'
p6296
I01
stbsS'20070309'
p6297
g3
(g4
g5
NtRp6298
((dp6299
S'Q54NA3'
p6300
I01
stbsS'9276759'
p6301
g3
(g4
g5
NtRp6302
((dp6303
S'O15706'
p6304
I01
stbsS'16582628'
p6305
g3
(g4
g5
NtRp6306
((dp6307
S'Q54MA9'
p6308
I01
sS'Q54BN2'
p6309
I01
sS'Q54YJ7'
p6310
I01
sS'Q54UC0'
p6311
I01
sS'Q54U78'
p6312
I01
sS'Q54LY5'
p6313
I01
sS'Q54CR9'
p6314
I01
sS'Q54CS9'
p6315
I01
stbsS'15325281'
p6316
g3
(g4
g5
NtRp6317
((dp6318
S'Q54RF4'
p6319
I01
sS'Q9U7C9'
p6320
I01
stbsS'18202452'
p6321
g3
(g4
g5
NtRp6322
((dp6323
S'Q9NA13'
p6324
I01
stbsS'12854977'
p6325
g3
(g4
g5
NtRp6326
((dp6327
S'Q8IS21'
p6328
I01
sS'P32254'
p6329
I01
stbsS'6273404'
p6330
g3
(g4
g5
NtRp6331
((dp6332
S'Q54Y02'
p6333
I01
stbsS'20539780'
p6334
g3
(g4
g5
NtRp6335
((dp6336
S'Q54X77'
p6337
I01
stbsS'20457612'
p6338
g3
(g4
g5
NtRp6339
((dp6340
S'Q54JS2'
p6341
I01
sS'P54632'
p6342
I01
sS'Q54XJ7'
p6343
I01
stbsS'11032815'
p6344
g3
(g4
g5
NtRp6345
((dp6346
S'O00910'
p6347
I01
sS'P51136'
p6348
I01
stbsS'8636212'
p6349
g3
(g4
g5
NtRp6350
((dp6351
S'P0DJ26'
p6352
I01
stbsS'21871890'
p6353
g3
(g4
g5
NtRp6354
((dp6355
S'Q86A17'
p6356
I01
sS'Q54LA0'
p6357
I01
stbsS'22623154'
p6358
g3
(g4
g5
NtRp6359
((dp6360
S'Q556Z0'
p6361
I01
stbsS'22357942'
p6362
g3
(g4
g5
NtRp6363
((dp6364
S'Q54EY0'
p6365
I01
stbsS'11566853'
p6366
g3
(g4
g5
NtRp6367
((dp6368
S'Q54RV9'
p6369
I01
stbsS'14871937'
p6370
g3
(g4
g5
NtRp6371
((dp6372
S'Q7Z1I0'
p6373
I01
sS'Q54BF5'
p6374
I01
sS'Q7Z202'
p6375
I01
sS'Q7Z203'
p6376
I01
sS'Q7Z1Z9'
p6377
I01
sS'Q55FW5'
p6378
I01
stbsS'17699611'
p6379
g3
(g4
g5
NtRp6380
((dp6381
S'Q86KR9'
p6382
I01
stbsS'15843041'
p6383
g3
(g4
g5
NtRp6384
((dp6385
S'P07830'
p6386
I01
sS'Q54QT7'
p6387
I01
stbsS'16546177'
p6388
g3
(g4
g5
NtRp6389
((dp6390
S'P25323'
p6391
I01
sS'Q8MVR1'
p6392
I01
stbsS'15652353'
p6393
g3
(g4
g5
NtRp6394
((dp6395
S'Q86L04'
p6396
I01
sS'Q9NKX1'
p6397
I01
stbsS'21876387'
p6398
g3
(g4
g5
NtRp6399
((dp6400
S'Q556J0'
p6401
I01
stbsS'8034739'
p6402
g3
(g4
g5
NtRp6403
((dp6404
S'P25870'
p6405
I01
stbsS'2568162'
p6406
g3
(g4
g5
NtRp6407
((dp6408
S'P20054'
p6409
I01
stbsS'10504413'
p6410
g3
(g4
g5
NtRp6411
((dp6412
S'Q9Y1W0'
p6413
I01
stbsS'16734666'
p6414
g3
(g4
g5
NtRp6415
((dp6416
S'Q8MN58'
p6417
I01
stbsS'8670894'
p6418
g3
(g4
g5
NtRp6419
((dp6420
S'Q54U87'
p6421
I01
stbsS'17699599'
p6422
g3
(g4
g5
NtRp6423
((dp6424
S'Q558K8'
p6425
I01
stbsS'2578450'
p6426
g3
(g4
g5
NtRp6427
((dp6428
S'P08799'
p6429
I01
stbsS'18515835'
p6430
g3
(g4
g5
NtRp6431
((dp6432
S'Q54D00'
p6433
I01
sS'Q54DD4'
p6434
I01
sS'Q54XB0'
p6435
I01
sS'Q54NI7'
p6436
I01
sS'Q54SI1'
p6437
I01
sS'Q54B97'
p6438
I01
sS'Q54VV8'
p6439
I01
sS'Q54HN4'
p6440
I01
sS'Q55BA4'
p6441
I01
sS'Q54S20'
p6442
I01
sS'Q55BX7'
p6443
I01
sS'Q54KY8'
p6444
I01
sS'Q55BN0'
p6445
I01
sS'Q55DQ5'
p6446
I01
sS'Q54FL3'
p6447
I01
sS'Q54WH4'
p6448
I01
sS'Q54PN3'
p6449
I01
sS'Q552X2'
p6450
I01
sS'Q54PD9'
p6451
I01
sS'Q54B46'
p6452
I01
sS'Q54GV0'
p6453
I01
sS'Q54X75'
p6454
I01
sS'P0CB66'
p6455
I01
sS'Q54MR3'
p6456
I01
sS'Q54U49'
p6457
I01
sS'Q54GE5'
p6458
I01
stbsS'15509655'
p6459
g3
(g4
g5
NtRp6460
((dp6461
S'P34144'
p6462
I01
sS'P34145'
p6463
I01
sS'P34146'
p6464
I01
sS'P34147'
p6465
I01
sS'P34143'
p6466
I01
sS'O96390'
p6467
I01
sS'P34149'
p6468
I01
sS'Q9GPS3'
p6469
I01
sS'Q869N2'
p6470
I01
stbsS'20186335'
p6471
g3
(g4
g5
NtRp6472
((dp6473
S'Q54KA7'
p6474
I01
stbsS'22980139'
p6475
g3
(g4
g5
NtRp6476
((dp6477
S'Q94464'
p6478
I01
sS'Q54S83'
p6479
I01
sS'O15818'
p6480
I01
stbsS'17380187'
p6481
g3
(g4
g5
NtRp6482
((dp6483
S'P32253'
p6484
I01
sS'P15064'
p6485
I01
sS'Q8SSQ0'
p6486
I01
sS'Q54PQ4'
p6487
I01
stbsS'8816286'
p6488
g3
(g4
g5
NtRp6489
((dp6490
S'P22887'
p6491
I01
stbsS'14704357'
p6492
g3
(g4
g5
NtRp6493
((dp6494
S'Q54P04'
p6495
I01
stbsS'22020250'
p6496
g3
(g4
g5
NtRp6497
((dp6498
S'Q54WJ0'
p6499
I01
sS'P51136'
p6500
I01
stbsS'23017206'
p6501
g3
(g4
g5
NtRp6502
((dp6503
S'Q54XS1'
p6504
I01
stbsS'19576222'
p6505
g3
(g4
g5
NtRp6506
((dp6507
S'Q55BW2'
p6508
I01
stbsS'17488289'
p6509
g3
(g4
g5
NtRp6510
((dp6511
S'Q86JF2'
p6512
I01
stbsS'18039932'
p6513
g3
(g4
g5
NtRp6514
((dp6515
S'P18613'
p6516
I01
sS'Q550R2'
p6517
I01
sS'Q75J96'
p6518
I01
sS'Q54HG2'
p6519
I01
stbsS'15897458'
p6520
g3
(g4
g5
NtRp6521
((dp6522
S'Q5FXM5'
p6523
I01
sS'Q23868'
p6524
I01
sS'Q54U87'
p6525
I01
stbsS'18673380'
p6526
g3
(g4
g5
NtRp6527
((dp6528
S'Q54VB6'
p6529
I01
stbsS'18673382'
p6530
g3
(g4
g5
NtRp6531
((dp6532
S'A2V850'
p6533
I01
stbsS'9789030'
p6534
g3
(g4
g5
NtRp6535
((dp6536
S'P25323'
p6537
I01
stbsS'10588668'
p6538
g3
(g4
g5
NtRp6539
((dp6540
S'P08799'
p6541
I01
sS'Q55DM1'
p6542
I01
sS'Q23862'
p6543
I01
stbsS'12963116'
p6544
g3
(g4
g5
NtRp6545
((dp6546
S'Q54ME1'
p6547
I01
stbsS'15333995'
p6548
g3
(g4
g5
NtRp6549
((dp6550
S'Q54QB1'
p6551
I01
stbsS'22073313'
p6552
g3
(g4
g5
NtRp6553
((dp6554
S'Q86D86'
p6555
I01
sS'P54647'
p6556
I01
sS'Q54E04'
p6557
I01
stbsS'10704840'
p6558
g3
(g4
g5
NtRp6559
((dp6560
S'O76329'
p6561
I01
stbsS'15546981'
p6562
g3
(g4
g5
NtRp6563
((dp6564
S'Q6S000'
p6565
I01
stbsS'8500761'
p6566
g3
(g4
g5
NtRp6567
((dp6568
S'P09556'
p6569
I01
stbsS'19878291'
p6570
g3
(g4
g5
NtRp6571
((dp6572
S'Q54D84'
p6573
I01
stbsS'1824843'
p6574
g3
(g4
g5
NtRp6575
((dp6576
S'P24639'
p6577
I01
stbsS'20200225'
p6578
g3
(g4
g5
NtRp6579
((dp6580
S'P42528'
p6581
I01
sS'Q9XXV8'
p6582
I01
sS'Q9BKJ9'
p6583
I01
sS'P42522'
p6584
I01
sS'P27133'
p6585
I01
sS'P34092'
p6586
I01
sS'P26199'
p6587
I01
sS'P54647'
p6588
I01
sS'P08799'
p6589
I01
sS'P26200'
p6590
I01
sS'Q557J6'
p6591
I01
sS'Q869N2'
p6592
I01
sS'Q94464'
p6593
I01
stbsS'9334183'
p6594
g3
(g4
g5
NtRp6595
((dp6596
S'P34127'
p6597
I01
stbsS'19589376'
p6598
g3
(g4
g5
NtRp6599
((dp6600
S'P32253'
p6601
I01
sS'Q4W6B5'
p6602
I01
sS'P02887'
p6603
I01
sS'P27133'
p6604
I01
sS'O96623'
p6605
I01
sS'P42530'
p6606
I01
sS'O96625'
p6607
I01
sS'P36415'
p6608
I01
sS'P54657'
p6609
I01
sS'P15064'
p6610
I01
sS'P18613'
p6611
I01
sS'P14132'
p6612
I01
sS'Q9BKJ9'
p6613
I01
sS'Q54HG2'
p6614
I01
sS'P54654'
p6615
I01
sS'P36408'
p6616
I01
stbsS'7822274'
p6617
g3
(g4
g5
NtRp6618
((dp6619
S'P42527'
p6620
I01
stbsS'15800059'
p6621
g3
(g4
g5
NtRp6622
((dp6623
S'P34144'
p6624
I01
sS'Q1ZXQ8'
p6625
I01
sS'P34036'
p6626
I01
sS'Q8I0F4'
p6627
I01
sS'P32255'
p6628
I01
stbsS'18073238'
p6629
g3
(g4
g5
NtRp6630
((dp6631
S'Q551V8'
p6632
I01
sS'Q553Y7'
p6633
I01
stbsS'17031001'
p6634
g3
(g4
g5
NtRp6635
((dp6636
S'Q86CS2'
p6637
I01
stbsS'22896810'
p6638
g3
(g4
g5
NtRp6639
((dp6640
S'Q54XY1'
p6641
I01
stbsS'19955408'
p6642
g3
(g4
g5
NtRp6643
((dp6644
S'P08799'
p6645
I01
stbsS'10804029'
p6646
g3
(g4
g5
NtRp6647
((dp6648
S'Q9NH03'
p6649
I01
stbsS'15527790'
p6650
g3
(g4
g5
NtRp6651
((dp6652
S'Q54LP8'
p6653
I01
sS'Q55BA8'
p6654
I01
sS'O60952'
p6655
I01
sS'P13466'
p6656
I01
sS'P32255'
p6657
I01
stbsS'12697064'
p6658
g3
(g4
g5
NtRp6659
((dp6660
S'Q54EY2'
p6661
I01
sS'Q558U1'
p6662
I01
sS'Q869N9'
p6663
I01
sS'Q550L8'
p6664
I01
stbsS'14711408'
p6665
g3
(g4
g5
NtRp6666
((dp6667
S'P42528'
p6668
I01
sS'O60952'
p6669
I01
sS'P13466'
p6670
I01
stbsS'18413611'
p6671
g3
(g4
g5
NtRp6672
((dp6673
S'Q54ND5'
p6674
I01
stbsS'2813371'
p6675
g3
(g4
g5
NtRp6676
((dp6677
S'P15808'
p6678
I01
stbsS'12878591'
p6679
g3
(g4
g5
NtRp6680
((dp6681
S'Q86IG3'
p6682
I01
stbsS'1312226'
p6683
g3
(g4
g5
NtRp6684
((dp6685
S'P05987'
p6686
I01
stbsS'18367554'
p6687
g3
(g4
g5
NtRp6688
((dp6689
S'Q54UC0'
p6690
I01
sS'Q54LY5'
p6691
I01
sS'Q54K47'
p6692
I01
stbsS'16968699'
p6693
g3
(g4
g5
NtRp6694
((dp6695
S'P34144'
p6696
I01
sS'P34145'
p6697
I01
sS'P34149'
p6698
I01
sS'P54644'
p6699
I01
sS'Q9GSG9'
p6700
I01
sS'P54674'
p6701
I01
stbsS'18367552'
p6702
g3
(g4
g5
NtRp6703
((dp6704
S'Q75JZ1'
p6705
I01
stbsS'20966074'
p6706
g3
(g4
g5
NtRp6707
((dp6708
S'Q55F68'
p6709
I01
stbsS'12070154'
p6710
g3
(g4
g5
NtRp6711
((dp6712
S'Q86IV5'
p6713
I01
stbsS'16449327'
p6714
g3
(g4
g5
NtRp6715
((dp6716
S'Q557J6'
p6717
I01
stbsS'11500376'
p6718
g3
(g4
g5
NtRp6719
((dp6720
S'P32253'
p6721
I01
sS'Q8IS21'
p6722
I01
sS'Q54PQ4'
p6723
I01
stbsS'1549373'
p6724
g3
(g4
g5
NtRp6725
((dp6726
S'P34127'
p6727
I01
stbsS'9739079'
p6728
g3
(g4
g5
NtRp6729
((dp6730
S'P34144'
p6731
I01
sS'Q54K32'
p6732
I01
sS'Q23862'
p6733
I01
stbsS'12117815'
p6734
g3
(g4
g5
NtRp6735
((dp6736
S'Q556R7'
p6737
I01
stbsS'17998288'
p6738
g3
(g4
g5
NtRp6739
((dp6740
S'Q54QC8'
p6741
I01
stbsS'10727946'
p6742
g3
(g4
g5
NtRp6743
((dp6744
S'Q75JI3'
p6745
I01
sS'Q54NP6'
p6746
I01
sS'Q9U9R7'
p6747
I01
stbsS'12952069'
p6748
g3
(g4
g5
NtRp6749
((dp6750
S'Q54SF9'
p6751
I01
sS'P34125'
p6752
I01
stbsS'17611045'
p6753
g3
(g4
g5
NtRp6754
((dp6755
S'Q54W23'
p6756
I01
sS'Q54HY6'
p6757
I01
stbsS'7866389'
p6758
g3
(g4
g5
NtRp6759
((dp6760
S'P34036'
p6761
I01
stbsS'15878331'
p6762
g3
(g4
g5
NtRp6763
((dp6764
S'P32253'
p6765
I01
stbsS'15367206'
p6766
g3
(g4
g5
NtRp6767
((dp6768
S'Q968Z6'
p6769
I01
stbsS'21441344'
p6770
g3
(g4
g5
NtRp6771
((dp6772
S'Q8I7T3'
p6773
I01
sS'Q54HG2'
p6774
I01
stbsS'8670893'
p6775
g3
(g4
g5
NtRp6776
((dp6777
S'Q869S5'
p6778
I01
stbsS'20097741'
p6779
g3
(g4
g5
NtRp6780
((dp6781
S'Q9GPF1'
p6782
I01
sS'Q86JF2'
p6783
I01
stbsS'20600701'
p6784
g3
(g4
g5
NtRp6785
((dp6786
S'Q55BP0'
p6787
I01
sS'Q54RJ2'
p6788
I01
sS'Q54RN0'
p6789
I01
sS'Q55FS1'
p6790
I01
stbsS'22730904'
p6791
g3
(g4
g5
NtRp6792
((dp6793
S'Q8MMR8'
p6794
I01
stbsS'16607013'
p6795
g3
(g4
g5
NtRp6796
((dp6797
S'O97101'
p6798
I01
stbsS'20479885'
p6799
g3
(g4
g5
NtRp6800
((dp6801
S'Q86KE7'
p6802
I01
sS'Q95YH0'
p6803
I01
stbsS'17825085'
p6804
g3
(g4
g5
NtRp6805
((dp6806
S'O96042'
p6807
I01
stbsS'8681950'
p6808
g3
(g4
g5
NtRp6809
((dp6810
S'Q7YSW8'
p6811
I01
stbsS'15679845'
p6812
g3
(g4
g5
NtRp6813
((dp6814
S'P54681'
p6815
I01
stbsS'2191567'
p6816
g3
(g4
g5
NtRp6817
((dp6818
S'P10733'
p6819
I01
stbsS'8432731'
p6820
g3
(g4
g5
NtRp6821
((dp6822
S'P54660'
p6823
I01
stbsS'16023096'
p6824
g3
(g4
g5
NtRp6825
((dp6826
S'P32253'
p6827
I01
sS'P54677'
p6828
I01
stbsS'16495217'
p6829
g3
(g4
g5
NtRp6830
((dp6831
S'Q54RP0'
p6832
I01
stbsS'8293475'
p6833
g3
(g4
g5
NtRp6834
((dp6835
S'P34121'
p6836
I01
stbsS'15574880'
p6837
g3
(g4
g5
NtRp6838
((dp6839
S'P13773'
p6840
I01
stbsS'9394012'
p6841
g3
(g4
g5
NtRp6842
((dp6843
S'Q54WZ2'
p6844
I01
stbsS'1832674'
p6845
g3
(g4
g5
NtRp6846
((dp6847
S'P24639'
p6848
I01
stbsS'3003365'
p6849
g3
(g4
g5
NtRp6850
((dp6851
S'P07828'
p6852
I01
stbsS'17623773'
p6853
g3
(g4
g5
NtRp6854
((dp6855
S'Q8T9S7'
p6856
I01
stbsS'17343681'
p6857
g3
(g4
g5
NtRp6858
((dp6859
S'Q8I7P3'
p6860
I01
stbsS'18180289'
p6861
g3
(g4
g5
NtRp6862
((dp6863
S'P32253'
p6864
I01
sS'P15064'
p6865
I01
stbsS'8448193'
p6866
g3
(g4
g5
NtRp6867
((dp6868
S'P36967'
p6869
I01
stbsS'17664333'
p6870
g3
(g4
g5
NtRp6871
((dp6872
S'Q54TA1'
p6873
I01
stbsS'6087882'
p6874
g3
(g4
g5
NtRp6875
((dp6876
S'P02599'
p6877
I01
stbsS'17126332'
p6878
g3
(g4
g5
NtRp6879
((dp6880
S'P34092'
p6881
I01
sS'P42528'
p6882
I01
sS'P08799'
p6883
I01
sS'P54686'
p6884
I01
sS'P35401'
p6885
I01
stbsS'18349074'
p6886
g3
(g4
g5
NtRp6887
((dp6888
S'Q54EW0'
p6889
I01
sS'P0CE94'
p6890
I01
sS'Q8MML5'
p6891
I01
stbsS'17684569'
p6892
g3
(g4
g5
NtRp6893
((dp6894
S'Q54QC8'
p6895
I01
stbsS'18854143'
p6896
g3
(g4
g5
NtRp6897
((dp6898
S'P08799'
p6899
I01
sS'Q54YW1'
p6900
I01
stbsS'14517243'
p6901
g3
(g4
g5
NtRp6902
((dp6903
S'Q71A39'
p6904
I01
sS'Q71A38'
p6905
I01
stbsS'15470246'
p6906
g3
(g4
g5
NtRp6907
((dp6908
S'P54644'
p6909
I01
sS'P35401'
p6910
I01
stbsS'17296313'
p6911
g3
(g4
g5
NtRp6912
((dp6913
S'P42528'
p6914
I01
sS'O96621'
p6915
I01
sS'O96622'
p6916
I01
sS'O96623'
p6917
I01
sS'O96624'
p6918
I01
sS'O96625'
p6919
I01
sS'O96626'
p6920
I01
stbsS'17050736'
p6921
g3
(g4
g5
NtRp6922
((dp6923
S'Q54Y50'
p6924
I01
stbsS'17419997'
p6925
g3
(g4
g5
NtRp6926
((dp6927
S'Q54XY1'
p6928
I01
stbsS'8557714'
p6929
g3
(g4
g5
NtRp6930
((dp6931
S'P34125'
p6932
I01
stbsS'1057168'
p6933
g3
(g4
g5
NtRp6934
((dp6935
S'P07830'
p6936
I01
sS'Q54GX7'
p6937
I01
stbsS'10402673'
p6938
g3
(g4
g5
NtRp6939
((dp6940
S'Q551S0'
p6941
I01
sS'O15736'
p6942
I01
sS'Q55FG3'
p6943
I01
stbsS'18636095'
p6944
g3
(g4
g5
NtRp6945
((dp6946
S'P20790'
p6947
I01
sS'Q550H6'
p6948
I01
sS'P36410'
p6949
I01
sS'P36412'
p6950
I01
sS'Q55AV3'
p6951
I01
sS'Q55DM1'
p6952
I01
sS'Q54UM5'
p6953
I01
sS'O96904'
p6954
I01
stbsS'16699495'
p6955
g3
(g4
g5
NtRp6956
((dp6957
S'P0CE94'
p6958
I01
sS'Q54JA5'
p6959
I01
sS'Q54JA4'
p6960
I01
sS'Q54JA3'
p6961
I01
sS'Q54JE1'
p6962
I01
sS'Q54KF7'
p6963
I01
stbsS'23577638'
p6964
g3
(g4
g5
NtRp6965
((dp6966
S'Q55F37'
p6967
I01
stbsS'3029131'
p6968
g3
(g4
g5
NtRp6969
((dp6970
S'P25323'
p6971
I01
stbsS'11726513'
p6972
g3
(g4
g5
NtRp6973
((dp6974
S'Q23858'
p6975
I01
sS'Q55BA8'
p6976
I01
stbsS'17259548'
p6977
g3
(g4
g5
NtRp6978
((dp6979
S'Q7YXU4'
p6980
I01
stbsS'16950926'
p6981
g3
(g4
g5
NtRp6982
((dp6983
S'Q9GPS0'
p6984
I01
sS'P42528'
p6985
I01
stbsS'11336701'
p6986
g3
(g4
g5
NtRp6987
((dp6988
S'Q54BD4'
p6989
I01
stbsS'8244981'
p6990
g3
(g4
g5
NtRp6991
((dp6992
S'P34093'
p6993
I01
sS'P22887'
p6994
I01
stbsS'1448100'
p6995
g3
(g4
g5
NtRp6996
((dp6997
S'Q02720'
p6998
I01
stbsS'7821221'
p6999
g3
(g4
g5
NtRp7000
((dp7001
S'P16894'
p7002
I01
stbsS'11488929'
p7003
g3
(g4
g5
NtRp7004
((dp7005
S'Q54LG5'
p7006
I01
sS'Q54DJ1'
p7007
I01
stbsS'16512895'
p7008
g3
(g4
g5
NtRp7009
((dp7010
S'Q55G87'
p7011
I01
stbsS'9118250'
p7012
g3
(g4
g5
NtRp7013
((dp7014
S'P0DJ26'
p7015
I01
stbsS'18707607'
p7016
g3
(g4
g5
NtRp7017
((dp7018
S'Q55DB0'
p7019
I01
stbsS'2850494'
p7020
g3
(g4
g5
NtRp7021
((dp7022
S'P12729'
p7023
I01
stbsS'21950343'
p7024
g3
(g4
g5
NtRp7025
((dp7026
S'Q7YXU4'
p7027
I01
stbsS'10556070'
p7028
g3
(g4
g5
NtRp7029
((dp7030
S'Q03100'
p7031
I01
sS'Q55F68'
p7032
I01
stbsS'18054409'
p7033
g3
(g4
g5
NtRp7034
((dp7035
S'P27133'
p7036
I01
sS'P24005'
p7037
I01
sS'P54686'
p7038
I01
stbsS'15894626'
p7039
g3
(g4
g5
NtRp7040
((dp7041
S'P42528'
p7042
I01
sS'O60952'
p7043
I01
sS'O96621'
p7044
I01
sS'O96622'
p7045
I01
sS'O96623'
p7046
I01
sS'O96624'
p7047
I01
sS'O96625'
p7048
I01
sS'O96626'
p7049
I01
sS'P08799'
p7050
I01
sS'P13466'
p7051
I01
stbsS'18178563'
p7052
g3
(g4
g5
NtRp7053
((dp7054
S'Q54ZW0'
p7055
I01
sS'Q55FP0'
p7056
I01
stbsS'21393547'
p7057
g3
(g4
g5
NtRp7058
((dp7059
S'Q54MH2'
p7060
I01
sS'Q54I71'
p7061
I01
sS'Q9U720'
p7062
I01
stbsS'17659086'
p7063
g3
(g4
g5
NtRp7064
((dp7065
S'Q54JN7'
p7066
I01
sS'Q54C50'
p7067
I01
sS'Q54E42'
p7068
I01
sS'Q54QV3'
p7069
I01
sS'Q9GV71'
p7070
I01
sS'Q54DH4'
p7071
I01
sS'Q54FI4'
p7072
I01
sS'Q54SK0'
p7073
I01
sS'Q94489'
p7074
I01
sS'Q54Q13'
p7075
I01
sS'Q54XN8'
p7076
I01
sS'Q54T91'
p7077
I01
sS'Q54TS2'
p7078
I01
sS'Q76P07'
p7079
I01
sS'Q54B33'
p7080
I01
sS'O15736'
p7081
I01
sS'Q54PE1'
p7082
I01
sS'Q551S0'
p7083
I01
sS'Q54DX3'
p7084
I01
sS'Q8T191'
p7085
I01
sS'P35401'
p7086
I01
sS'Q23925'
p7087
I01
sS'Q54RA9'
p7088
I01
sS'Q55BI3'
p7089
I01
sS'Q54XY4'
p7090
I01
sS'Q54EJ9'
p7091
I01
sS'P42525'
p7092
I01
sS'Q54YA6'
p7093
I01
sS'Q54SH6'
p7094
I01
sS'O76765'
p7095
I01
sS'Q86JF2'
p7096
I01
sS'Q54NL0'
p7097
I01
sS'Q86A78'
p7098
I01
sS'Q55BN0'
p7099
I01
sS'Q54RN4'
p7100
I01
sS'P34098'
p7101
I01
sS'Q54NL1'
p7102
I01
sS'Q1ZXJ0'
p7103
I01
sS'Q55C49'
p7104
I01
sS'P13466'
p7105
I01
sS'Q54T23'
p7106
I01
sS'Q55GV1'
p7107
I01
sS'Q54NS0'
p7108
I01
sS'O77203'
p7109
I01
sS'Q54FJ6'
p7110
I01
sS'Q86M88'
p7111
I01
sS'O00910'
p7112
I01
sS'B0M0P8'
p7113
I01
sS'Q54HP0'
p7114
I01
sS'P36417'
p7115
I01
sS'Q1ZXD6'
p7116
I01
sS'Q55AV3'
p7117
I01
sS'Q54KI3'
p7118
I01
sS'P18160'
p7119
I01
sS'Q551Y7'
p7120
I01
sS'Q54U87'
p7121
I01
sS'Q54PQ4'
p7122
I01
sS'Q54DG1'
p7123
I01
sS'Q54LY5'
p7124
I01
sS'Q54C04'
p7125
I01
sS'Q55CL6'
p7126
I01
sS'Q54HV0'
p7127
I01
sS'Q54IQ9'
p7128
I01
sS'Q553M8'
p7129
I01
sS'Q54W34'
p7130
I01
sS'Q8T6J2'
p7131
I01
sS'Q86AS3'
p7132
I01
sS'Q54K32'
p7133
I01
sS'Q54Y53'
p7134
I01
sS'Q54RQ8'
p7135
I01
sS'Q23917'
p7136
I01
sS'Q54RR8'
p7137
I01
sS'P54683'
p7138
I01
sS'Q55F68'
p7139
I01
sS'Q54G37'
p7140
I01
sS'Q54V32'
p7141
I01
sS'Q869Q6'
p7142
I01
sS'Q55GS3'
p7143
I01
sS'Q55FD8'
p7144
I01
sS'Q54DL1'
p7145
I01
sS'Q557J7'
p7146
I01
stbsS'20348387'
p7147
g3
(g4
g5
NtRp7148
((dp7149
S'Q6XHA5'
p7150
I01
sS'Q6XHB2'
p7151
I01
stbsS'7813009'
p7152
g3
(g4
g5
NtRp7153
((dp7154
S'P51136'
p7155
I01
stbsS'17560550'
p7156
g3
(g4
g5
NtRp7157
((dp7158
S'Q54JV1'
p7159
I01
stbsS'18160177'
p7160
g3
(g4
g5
NtRp7161
((dp7162
S'Q54UC9'
p7163
I01
stbsS'10571182'
p7164
g3
(g4
g5
NtRp7165
((dp7166
S'Q75JK0'
p7167
I01
sS'P51136'
p7168
I01
stbsS'1629238'
p7169
g3
(g4
g5
NtRp7170
((dp7171
S'P02599'
p7172
I01
stbsS'7738034'
p7173
g3
(g4
g5
NtRp7174
((dp7175
S'P0DJ26'
p7176
I01
stbsS'8670837'
p7177
g3
(g4
g5
NtRp7178
((dp7179
S'Q54QB1'
p7180
I01
stbsS'17040207'
p7181
g3
(g4
g5
NtRp7182
((dp7183
S'Q54HY0'
p7184
I01
sS'P12019'
p7185
I01
stbsS'8787732'
p7186
g3
(g4
g5
NtRp7187
((dp7188
S'P54661'
p7189
I01
stbsS'17150370'
p7190
g3
(g4
g5
NtRp7191
((dp7192
S'Q86CS2'
p7193
I01
stbsS'9765592'
p7194
g3
(g4
g5
NtRp7195
((dp7196
S'O00835'
p7197
I01
stbsS'7862164'
p7198
g3
(g4
g5
NtRp7199
((dp7200
S'Q55BV5'
p7201
I01
stbsS'9410873'
p7202
g3
(g4
g5
NtRp7203
((dp7204
S'P0DJ26'
p7205
I01
stbsS'23433110'
p7206
g3
(g4
g5
NtRp7207
((dp7208
S'Q54GP3'
p7209
I01
sS'Q1ZXI0'
p7210
I01
sS'Q94465'
p7211
I01
stbsS'1310316'
p7212
g3
(g4
g5
NtRp7213
((dp7214
S'P10901'
p7215
I01
stbsS'16079174'
p7216
g3
(g4
g5
NtRp7217
((dp7218
S'O77203'
p7219
I01
sS'P54632'
p7220
I01
sS'Q54D08'
p7221
I01
sS'P36415'
p7222
I01
sS'P54651'
p7223
I01
sS'Q9Y0C9'
p7224
I01
sS'Q86C65'
p7225
I01
stbsS'21034843'
p7226
g3
(g4
g5
NtRp7227
((dp7228
S'Q8I0F4'
p7229
I01
sS'Q550F6'
p7230
I01
stbsS'11423539'
p7231
g3
(g4
g5
NtRp7232
((dp7233
S'Q54QG0'
p7234
I01
stbsS'12217653'
p7235
g3
(g4
g5
NtRp7236
((dp7237
S'P16051'
p7238
I01
stbsS'16415044'
p7239
g3
(g4
g5
NtRp7240
((dp7241
S'P34145'
p7242
I01
stbsS'10888671'
p7243
g3
(g4
g5
NtRp7244
((dp7245
S'Q54NW7'
p7246
I01
stbsS'16963635'
p7247
g3
(g4
g5
NtRp7248
((dp7249
S'Q54PR9'
p7250
I01
stbsS'11854403'
p7251
g3
(g4
g5
NtRp7252
((dp7253
S'Q54H25'
p7254
I01
stbsS'8710499'
p7255
g3
(g4
g5
NtRp7256
((dp7257
S'B0M0P5'
p7258
I01
stbsS'7744252'
p7259
g3
(g4
g5
NtRp7260
((dp7261
S'P54683'
p7262
I01
sS'Q23868'
p7263
I01
stbsS'21086149'
p7264
g3
(g4
g5
NtRp7265
((dp7266
S'Q9U1M9'
p7267
I01
stbsS'6667031'
p7268
g3
(g4
g5
NtRp7269
((dp7270
S'P02599'
p7271
I01
stbsS'18266910'
p7272
g3
(g4
g5
NtRp7273
((dp7274
S'Q558Z2'
p7275
I01
sS'O76329'
p7276
I01
stbsS'8950185'
p7277
g3
(g4
g5
NtRp7278
((dp7279
S'P42521'
p7280
I01
stbsS'11990506'
p7281
g3
(g4
g5
NtRp7282
((dp7283
S'P22887'
p7284
I01
stbsS'18990192'
p7285
g3
(g4
g5
NtRp7286
((dp7287
S'Q6IMN8'
p7288
I01
stbsS'17940044'
p7289
g3
(g4
g5
NtRp7290
((dp7291
S'Q54BM7'
p7292
I01
stbsS'11831389'
p7293
g3
(g4
g5
NtRp7294
((dp7295
S'Q7YXD4'
p7296
I01
stbsS'22647904'
p7297
g3
(g4
g5
NtRp7298
((dp7299
S'Q1ZXQ4'
p7300
I01
stbsS'10421841'
p7301
g3
(g4
g5
NtRp7302
((dp7303
S'P0DJ26'
p7304
I01
stbsS'10974109'
p7305
g3
(g4
g5
NtRp7306
((dp7307
S'Q54RV9'
p7308
I01
sS'Q23917'
p7309
I01
stbsS'8898200'
p7310
g3
(g4
g5
NtRp7311
((dp7312
S'Q550D5'
p7313
I01
stbsS'11493573'
p7314
g3
(g4
g5
NtRp7315
((dp7316
S'Q54YU6'
p7317
I01
stbsS'14736886'
p7318
g3
(g4
g5
NtRp7319
((dp7320
S'Q55CC5'
p7321
I01
sS'Q86CR8'
p7322
I01
sS'Q86CS2'
p7323
I01
stbsS'15511086'
p7324
g3
(g4
g5
NtRp7325
((dp7326
S'Q54KR8'
p7327
I01
stbsS'8226777'
p7328
g3
(g4
g5
NtRp7329
((dp7330
S'P34138'
p7331
I01
stbsS'6746725'
p7332
g3
(g4
g5
NtRp7333
((dp7334
S'P05095'
p7335
I01
stbsS'17448496'
p7336
g3
(g4
g5
NtRp7337
((dp7338
S'Q54YL2'
p7339
I01
sS'Q27564'
p7340
I01
sS'Q54UT2'
p7341
I01
stbsS'11973270'
p7342
g3
(g4
g5
NtRp7343
((dp7344
S'P05817'
p7345
I01
stbsS'19765570'
p7346
g3
(g4
g5
NtRp7347
((dp7348
S'Q54QB1'
p7349
I01
sS'P34042'
p7350
I01
stbsS'16527408'
p7351
g3
(g4
g5
NtRp7352
((dp7353
S'Q94465'
p7354
I01
stbsS'9732292'
p7355
g3
(g4
g5
NtRp7356
((dp7357
S'Q54NF8'
p7358
I01
stbsS'11689442'
p7359
g3
(g4
g5
NtRp7360
((dp7361
S'Q86A02'
p7362
I01
stbsS'12890554'
p7363
g3
(g4
g5
NtRp7364
((dp7365
S'Q54M25'
p7366
I01
stbsS'9480045'
p7367
g3
(g4
g5
NtRp7368
((dp7369
S'P13466'
p7370
I01
stbsS'6191197'
p7371
g3
(g4
g5
NtRp7372
((dp7373
S'P08796'
p7374
I01
stbsS'15548420'
p7375
g3
(g4
g5
NtRp7376
((dp7377
S'Q556Y4'
p7378
I01
sS'P32256'
p7379
I01
sS'P32255'
p7380
I01
sS'Q55C16'
p7381
I01
sS'Q54QR9'
p7382
I01
sS'Q54IK9'
p7383
I01
sS'P54703'
p7384
I01
sS'Q54UL8'
p7385
I01
sS'Q54WX4'
p7386
I01
sS'Q76P38'
p7387
I01
sS'Q553N8'
p7388
I01
sS'Q54Y08'
p7389
I01
sS'Q95ZG4'
p7390
I01
sS'P34099'
p7391
I01
sS'P34036'
p7392
I01
sS'Q54J96'
p7393
I01
sS'Q54VD6'
p7394
I01
sS'Q54IY3'
p7395
I01
sS'Q55BD8'
p7396
I01
sS'P33519'
p7397
I01
sS'Q1ZXQ8'
p7398
I01
sS'Q54I71'
p7399
I01
sS'Q6S004'
p7400
I01
sS'Q54I79'
p7401
I01
sS'P05987'
p7402
I01
sS'Q54N50'
p7403
I01
sS'Q55GS2'
p7404
I01
sS'Q554U9'
p7405
I01
stbsS'3027076'
p7406
g3
(g4
g5
NtRp7407
((dp7408
S'P42527'
p7409
I01
stbsS'22035794'
p7410
g3
(g4
g5
NtRp7411
((dp7412
S'Q54B85'
p7413
I01
stbsS'16644729'
p7414
g3
(g4
g5
NtRp7415
((dp7416
S'Q86H13'
p7417
I01
stbsS'18948008'
p7418
g3
(g4
g5
NtRp7419
((dp7420
S'Q55AR6'
p7421
I01
stbsS'17391056'
p7422
g3
(g4
g5
NtRp7423
((dp7424
S'Q54RQ4'
p7425
I01
sS'Q55CU7'
p7426
I01
sS'Q54RN0'
p7427
I01
stbsS'23938384'
p7428
g3
(g4
g5
NtRp7429
((dp7430
S'Q9GPM2'
p7431
I01
sS'Q54E04'
p7432
I01
stbsS'18077554'
p7433
g3
(g4
g5
NtRp7434
((dp7435
S'Q9NA13'
p7436
I01
stbsS'11163223'
p7437
g3
(g4
g5
NtRp7438
((dp7439
S'Q8T638'
p7440
I01
stbsS'12626710'
p7441
g3
(g4
g5
NtRp7442
((dp7443
S'Q55DL0'
p7444
I01
stbsS'1493336'
p7445
g3
(g4
g5
NtRp7446
((dp7447
S'P02599'
p7448
I01
stbsS'12952082'
p7449
g3
(g4
g5
NtRp7450
((dp7451
S'Q54J97'
p7452
I01
stbsS'1730409'
p7453
g3
(g4
g5
NtRp7454
((dp7455
S'P34042'
p7456
I01
stbsS'9486804'
p7457
g3
(g4
g5
NtRp7458
((dp7459
S'Q54F46'
p7460
I01
stbsS'17923679'
p7461
g3
(g4
g5
NtRp7462
((dp7463
S'Q54R53'
p7464
I01
sS'Q54U85'
p7465
I01
sS'P26355'
p7466
I01
stbsS'23333327'
p7467
g3
(g4
g5
NtRp7468
((dp7469
S'Q6S001'
p7470
I01
stbsS'16982629'
p7471
g3
(g4
g5
NtRp7472
((dp7473
S'P08799'
p7474
I01
stbsS'11481037'
p7475
g3
(g4
g5
NtRp7476
((dp7477
S'Q95YL4'
p7478
I01
sS'Q95YL5'
p7479
I01
stbsS'6707016'
p7480
g3
(g4
g5
NtRp7481
((dp7482
S'P07829'
p7483
I01
sS'P07830'
p7484
I01
sS'Q54GX7'
p7485
I01
sS'P24005'
p7486
I01
sS'Q553U6'
p7487
I01
stbsS'16400165'
p7488
g3
(g4
g5
NtRp7489
((dp7490
S'Q54JH6'
p7491
I01
stbsS'15084313'
p7492
g3
(g4
g5
NtRp7493
((dp7494
S'Q75JL2'
p7495
I01
stbsS'15821129'
p7496
g3
(g4
g5
NtRp7497
((dp7498
S'Q54WR4'
p7499
I01
stbsS'18089562'
p7500
g3
(g4
g5
NtRp7501
((dp7502
S'P34092'
p7503
I01
stbsS'18522444'
p7504
g3
(g4
g5
NtRp7505
((dp7506
S'P54660'
p7507
I01
stbsS'12211111'
p7508
g3
(g4
g5
NtRp7509
((dp7510
S'Q8IS21'
p7511
I01
sS'P32254'
p7512
I01
stbsS'21562226'
p7513
g3
(g4
g5
NtRp7514
((dp7515
S'Q76P24'
p7516
I01
sS'Q9XZE5'
p7517
I01
sS'Q54QR9'
p7518
I01
sS'Q54Q99'
p7519
I01
stbsS'9102307'
p7520
g3
(g4
g5
NtRp7521
((dp7522
S'Q94491'
p7523
I01
stbsS'19285397'
p7524
g3
(g4
g5
NtRp7525
((dp7526
S'P42523'
p7527
I01
sS'P54657'
p7528
I01
sS'P08796'
p7529
I01
sS'Q54V07'
p7530
I01
sS'Q9U8Q1'
p7531
I01
stbsS'22849378'
p7532
g3
(g4
g5
NtRp7533
((dp7534
S'Q9NH03'
p7535
I01
stbsS'22050483'
p7536
g3
(g4
g5
NtRp7537
((dp7538
S'Q54HS9'
p7539
I01
sS'P54672'
p7540
I01
sS'Q54X82'
p7541
I01
stbsS'10102987'
p7542
g3
(g4
g5
NtRp7543
((dp7544
S'P34117'
p7545
I01
sS'P34112'
p7546
I01
stbsS'17177855'
p7547
g3
(g4
g5
NtRp7548
((dp7549
S'Q558U1'
p7550
I01
sS'Q550L8'
p7551
I01
stbsS'16906151'
p7552
g3
(g4
g5
NtRp7553
((dp7554
S'Q55E72'
p7555
I01
sS'Q54FI3'
p7556
I01
stbsS'10652263'
p7557
g3
(g4
g5
NtRp7558
((dp7559
S'P32254'
p7560
I01
stbsS'17660362'
p7561
g3
(g4
g5
NtRp7562
((dp7563
S'P0DJ29'
p7564
I01
stbsS'20580724'
p7565
g3
(g4
g5
NtRp7566
((dp7567
S'P42530'
p7568
I01
sS'P02886'
p7569
I01
stbsS'15740615'
p7570
g3
(g4
g5
NtRp7571
((dp7572
S'Q54WH2'
p7573
I01
sS'Q5TJ55'
p7574
I01
sS'Q5TJ57'
p7575
I01
sS'Q5TJ56'
p7576
I01
sS'Q54SP2'
p7577
I01
sS'Q54PI9'
p7578
I01
sS'Q54ER5'
p7579
I01
sS'Q1ZXK2'
p7580
I01
stbsS'17177856'
p7581
g3
(g4
g5
NtRp7582
((dp7583
S'Q54D84'
p7584
I01
stbsS'23301051'
p7585
g3
(g4
g5
NtRp7586
((dp7587
S'Q54ZW0'
p7588
I01
sS'Q55FP0'
p7589
I01
stbsS'12456012'
p7590
g3
(g4
g5
NtRp7591
((dp7592
S'Q8T675'
p7593
I01
sS'Q55BC0'
p7594
I01
sS'Q9GTN7'
p7595
I01
sS'Q9NGP5'
p7596
I01
sS'Q54CG0'
p7597
I01
sS'Q54R52'
p7598
I01
sS'Q54LE6'
p7599
I01
sS'Q8T9W1'
p7600
I01
sS'Q8T663'
p7601
I01
sS'Q8T662'
p7602
I01
sS'Q23868'
p7603
I01
sS'Q8T664'
p7604
I01
sS'Q86HQ2'
p7605
I01
sS'Q8T8P3'
p7606
I01
sS'Q8T5Z7'
p7607
I01
sS'Q54W20'
p7608
I01
sS'Q8T9W2'
p7609
I01
sS'Q54W24'
p7610
I01
sS'Q54GU0'
p7611
I01
sS'Q8T665'
p7612
I01
sS'Q8T690'
p7613
I01
sS'Q8T6J0'
p7614
I01
sS'Q55DR1'
p7615
I01
sS'Q8T689'
p7616
I01
sS'Q8T686'
p7617
I01
sS'Q8T685'
p7618
I01
sS'Q54HM0'
p7619
I01
sS'Q8T683'
p7620
I01
sS'Q54BU4'
p7621
I01
sS'Q54EK2'
p7622
I01
sS'Q8T6J5'
p7623
I01
sS'Q55GB1'
p7624
I01
sS'Q54VJ0'
p7625
I01
sS'Q8ST87'
p7626
I01
sS'Q54V86'
p7627
I01
sS'Q8T673'
p7628
I01
sS'Q54DT1'
p7629
I01
sS'Q8T674'
p7630
I01
sS'Q54BT3'
p7631
I01
sS'Q54TV2'
p7632
I01
sS'Q8T6B4'
p7633
I01
sS'Q54JR2'
p7634
I01
sS'Q54TV1'
p7635
I01
sS'Q8T9W4'
p7636
I01
sS'Q8T6B8'
p7637
I01
sS'Q54NL1'
p7638
I01
sS'Q8ST66'
p7639
I01
sS'Q8T6J1'
p7640
I01
sS'Q54W19'
p7641
I01
sS'Q8T6H8'
p7642
I01
sS'Q8T6J2'
p7643
I01
sS'Q8T6H3'
p7644
I01
sS'Q556W2'
p7645
I01
sS'Q555Z5'
p7646
I01
sS'Q54P13'
p7647
I01
sS'Q54U44'
p7648
I01
sS'Q55DQ2'
p7649
I01
sS'Q54K24'
p7650
I01
sS'Q552P3'
p7651
I01
sS'Q55DW4'
p7652
I01
sS'Q54BT5'
p7653
I01
stbsS'21256841'
p7654
g3
(g4
g5
NtRp7655
((dp7656
S'Q9BLG4'
p7657
I01
stbsS'16234315'
p7658
g3
(g4
g5
NtRp7659
((dp7660
S'Q54CF9'
p7661
I01
sS'Q55DA7'
p7662
I01
sS'Q23925'
p7663
I01
sS'Q54XG7'
p7664
I01
sS'Q8T8P2'
p7665
I01
sS'Q54BU4'
p7666
I01
stbsS'23548898'
p7667
g3
(g4
g5
NtRp7668
((dp7669
S'Q86HH3'
p7670
I01
sS'Q54VQ5'
p7671
I01
sS'Q54IJ3'
p7672
I01
sS'Q54CB3'
p7673
I01
sS'Q55FI1'
p7674
I01
stbsS'11157987'
p7675
g3
(g4
g5
NtRp7676
((dp7677
S'Q8T133'
p7678
I01
stbsS'23787121'
p7679
g3
(g4
g5
NtRp7680
((dp7681
S'P51136'
p7682
I01
stbsS'14623897'
p7683
g3
(g4
g5
NtRp7684
((dp7685
S'Q8T135'
p7686
I01
stbsS'24240571'
p7687
g3
(g4
g5
NtRp7688
((dp7689
S'Q55FE6'
p7690
I01
stbsS'11106661'
p7691
g3
(g4
g5
NtRp7692
((dp7693
S'P08799'
p7694
I01
sS'P42527'
p7695
I01
sS'P90648'
p7696
I01
stbsS'11278493'
p7697
g3
(g4
g5
NtRp7698
((dp7699
S'P42527'
p7700
I01
sS'P90648'
p7701
I01
sS'Q8MY12'
p7702
I01
stbsS'23132928'
p7703
g3
(g4
g5
NtRp7704
((dp7705
S'P32253'
p7706
I01
sS'O60952'
p7707
I01
sS'P35401'
p7708
I01
sS'P27133'
p7709
I01
sS'Q02158'
p7710
I01
sS'Q8T9S7'
p7711
I01
sS'Q54HG2'
p7712
I01
sS'P15064'
p7713
I01
sS'P08799'
p7714
I01
sS'P54674'
p7715
I01
sS'Q9NHF6'
p7716
I01
sS'P54673'
p7717
I01
stbsS'23351158'
p7718
g3
(g4
g5
NtRp7719
((dp7720
S'Q27564'
p7721
I01
stbsS'22869547'
p7722
g3
(g4
g5
NtRp7723
((dp7724
S'Q54VL5'
p7725
I01
stbsS'11257435'
p7726
g3
(g4
g5
NtRp7727
((dp7728
S'P07830'
p7729
I01
sS'Q54GX7'
p7730
I01
stbsS'2921242'
p7731
g3
(g4
g5
NtRp7732
((dp7733
S'O77229'
p7734
I01
stbsS'11257439'
p7735
g3
(g4
g5
NtRp7736
((dp7737
S'P32252'
p7738
I01
sS'P32253'
p7739
I01
sS'P32254'
p7740
I01
sS'Q55CB7'
p7741
I01
sS'P15064'
p7742
I01
sS'P03967'
p7743
I01
sS'Q55CA9'
p7744
I01
sS'Q55CB8'
p7745
I01
stbsS'20406883'
p7746
g3
(g4
g5
NtRp7747
((dp7748
S'Q54S83'
p7749
I01
stbsS'8901579'
p7750
g3
(g4
g5
NtRp7751
((dp7752
S'P25323'
p7753
I01
stbsS'14593072'
p7754
g3
(g4
g5
NtRp7755
((dp7756
S'Q86AT8'
p7757
I01
stbsS'17971415'
p7758
g3
(g4
g5
NtRp7759
((dp7760
S'Q54EH1'
p7761
I01
sS'Q1ZXE9'
p7762
I01
stbsS'15769592'
p7763
g3
(g4
g5
NtRp7764
((dp7765
S'Q54QT7'
p7766
I01
stbsS'17517120'
p7767
g3
(g4
g5
NtRp7768
((dp7769
S'B0G108'
p7770
I01
sS'Q54BC6'
p7771
I01
sS'P27133'
p7772
I01
sS'P34123'
p7773
I01
sS'Q54UB5'
p7774
I01
sS'Q869Q3'
p7775
I01
sS'Q75J86'
p7776
I01
sS'Q55FE0'
p7777
I01
sS'O00899'
p7778
I01
sS'Q6TMJ3'
p7779
I01
sS'Q54W87'
p7780
I01
sS'Q55E30'
p7781
I01
sS'Q54BU4'
p7782
I01
sS'P13466'
p7783
I01
sS'Q86JP5'
p7784
I01
sS'Q54BD4'
p7785
I01
sS'Q86B08'
p7786
I01
sS'Q54ZC9'
p7787
I01
sS'Q6TMK2'
p7788
I01
sS'P07830'
p7789
I01
sS'Q55FW3'
p7790
I01
sS'Q54I98'
p7791
I01
sS'Q5R1U3'
p7792
I01
sS'O96621'
p7793
I01
sS'P54681'
p7794
I01
sS'Q9XYL0'
p7795
I01
sS'P26200'
p7796
I01
sS'O61122'
p7797
I01
sS'P04988'
p7798
I01
sS'Q8T673'
p7799
I01
stbsS'12186953'
p7800
g3
(g4
g5
NtRp7801
((dp7802
S'P18613'
p7803
I01
stbsS'7954798'
p7804
g3
(g4
g5
NtRp7805
((dp7806
S'P26199'
p7807
I01
sS'P26200'
p7808
I01
stbsS'21134080'
p7809
g3
(g4
g5
NtRp7810
((dp7811
S'Q769F7'
p7812
I01
sS'Q54Y26'
p7813
I01
sS'Q54XJ0'
p7814
I01
sS'Q54CR8'
p7815
I01
stbsS'9836437'
p7816
g3
(g4
g5
NtRp7817
((dp7818
S'Q54UG4'
p7819
I01
sS'P48160'
p7820
I01
stbsS'23686520'
p7821
g3
(g4
g5
NtRp7822
((dp7823
S'Q55G87'
p7824
I01
sS'Q7YSW8'
p7825
I01
stbsS'18657170'
p7826
g3
(g4
g5
NtRp7827
((dp7828
S'Q54I36'
p7829
I01
stbsS'15073273'
p7830
g3
(g4
g5
NtRp7831
((dp7832
S'Q54U31'
p7833
I01
sS'Q55A48'
p7834
I01
sS'Q70GP4'
p7835
I01
sS'Q54Y55'
p7836
I01
sS'Q54IP4'
p7837
I01
sS'Q54G43'
p7838
I01
sS'Q54RB7'
p7839
I01
sS'Q86I20'
p7840
I01
stbsS'2914932'
p7841
g3
(g4
g5
NtRp7842
((dp7843
S'P13231'
p7844
I01
stbsS'16495485'
p7845
g3
(g4
g5
NtRp7846
((dp7847
S'Q54NW7'
p7848
I01
sS'Q86AQ7'
p7849
I01
stbsS'21179207'
p7850
g3
(g4
g5
NtRp7851
((dp7852
S'O00909'
p7853
I01
sS'Q54CH1'
p7854
I01
stbsS'23213391'
p7855
g3
(g4
g5
NtRp7856
((dp7857
S'Q555I8'
p7858
I01
stbsS'16112620'
p7859
g3
(g4
g5
NtRp7860
((dp7861
S'Q86KS1'
p7862
I01
sS'Q54MA9'
p7863
I01
sS'Q54YJ7'
p7864
I01
sS'Q54UC0'
p7865
I01
sS'Q54LY5'
p7866
I01
sS'Q54CR9'
p7867
I01
stbsS'11264536'
p7868
g3
(g4
g5
NtRp7869
((dp7870
S'P36408'
p7871
I01
sS'P13773'
p7872
I01
sS'Q95ZG8'
p7873
I01
sS'P16051'
p7874
I01
stbsS'15351882'
p7875
g3
(g4
g5
NtRp7876
((dp7877
S'Q54QM6'
p7878
I01
stbsS'23473502'
p7879
g3
(g4
g5
NtRp7880
((dp7881
S'Q03100'
p7882
I01
sS'P34099'
p7883
I01
sS'Q54PQ4'
p7884
I01
stbsS'2060029'
p7885
g3
(g4
g5
NtRp7886
((dp7887
S'P54660'
p7888
I01
stbsS'9813063'
p7889
g3
(g4
g5
NtRp7890
((dp7891
S'Q54K50'
p7892
I01
stbsS'12429831'
p7893
g3
(g4
g5
NtRp7894
((dp7895
S'Q8MLZ3'
p7896
I01
stbsS'22884799'
p7897
g3
(g4
g5
NtRp7898
((dp7899
S'P02599'
p7900
I01
stbsS'16138906'
p7901
g3
(g4
g5
NtRp7902
((dp7903
S'Q869V1'
p7904
I01
sS'P54647'
p7905
I01
sS'P54654'
p7906
I01
sS'Q8MML6'
p7907
I01
stbsS'10837033'
p7908
g3
(g4
g5
NtRp7909
((dp7910
S'P03967'
p7911
I01
stbsS'24132237'
p7912
g3
(g4
g5
NtRp7913
((dp7914
S'Q54F87'
p7915
I01
stbsS'16469305'
p7916
g3
(g4
g5
NtRp7917
((dp7918
S'Q54HS3'
p7919
I01
stbsS'15640146'
p7920
g3
(g4
g5
NtRp7921
((dp7922
S'Q556Y7'
p7923
I01
sS'Q8T1G5'
p7924
I01
sS'Q8T1G4'
p7925
I01
sS'Q8T1G6'
p7926
I01
stbsS'23369714'
p7927
g3
(g4
g5
NtRp7928
((dp7929
S'P13021'
p7930
I01
sS'Q552E2'
p7931
I01
sS'Q54IR8'
p7932
I01
sS'Q55FU3'
p7933
I01
sS'Q54CK9'
p7934
I01
sS'Q54R74'
p7935
I01
stbsS'6299402'
p7936
g3
(g4
g5
NtRp7937
((dp7938
S'P10819'
p7939
I01
stbsS'10681463'
p7940
g3
(g4
g5
NtRp7941
((dp7942
S'Q9U720'
p7943
I01
stbsS'15705570'
p7944
g3
(g4
g5
NtRp7945
((dp7946
S'Q86KR9'
p7947
I01
stbsS'16926192'
p7948
g3
(g4
g5
NtRp7949
((dp7950
S'P08799'
p7951
I01
stbsS'22572958'
p7952
g3
(g4
g5
NtRp7953
((dp7954
S'Q558K8'
p7955
I01
stbsS'14595117'
p7956
g3
(g4
g5
NtRp7957
((dp7958
S'Q54T86'
p7959
I01
stbsS'17050732'
p7960
g3
(g4
g5
NtRp7961
((dp7962
S'Q75JH9'
p7963
I01
sS'Q54HG2'
p7964
I01
stbsS'18339368'
p7965
g3
(g4
g5
NtRp7966
((dp7967
S'Q54RY6'
p7968
I01
stbsS'20057961'
p7969
g3
(g4
g5
NtRp7970
((dp7971
S'Q54N00'
p7972
I01
stbsS'23724097'
p7973
g3
(g4
g5
NtRp7974
((dp7975
S'Q55FS1'
p7976
I01
sS'Q54UI6'
p7977
I01
stbsS'9421912'
p7978
g3
(g4
g5
NtRp7979
((dp7980
S'P54679'
p7981
I01
stbsS'17189480'
p7982
g3
(g4
g5
NtRp7983
((dp7984
S'Q9U1M8'
p7985
I01
stbsS'23269477'
p7986
g3
(g4
g5
NtRp7987
((dp7988
S'Q54HH2'
p7989
I01
stbsS'21552328'
p7990
g3
(g4
g5
NtRp7991
((dp7992
S'Q76P24'
p7993
I01
stbsS'16003496'
p7994
g3
(g4
g5
NtRp7995
((dp7996
S'Q54PN9'
p7997
I01
sS'P54651'
p7998
I01
stbsS'8567716'
p7999
g3
(g4
g5
NtRp8000
((dp8001
S'P42527'
p8002
I01
stbsS'12220630'
p8003
g3
(g4
g5
NtRp8004
((dp8005
S'P54637'
p8006
I01
sS'Q8MPQ7'
p8007
I01
sS'Q54BD4'
p8008
I01
stbsS'18840649'
p8009
g3
(g4
g5
NtRp8010
((dp8011
S'Q557E7'
p8012
I01
stbsS'14617352'
p8013
g3
(g4
g5
NtRp8014
((dp8015
S'P25870'
p8016
I01
sS'Q8MN58'
p8017
I01
stbsS'11713866'
p8018
g3
(g4
g5
NtRp8019
((dp8020
S'Q54IY3'
p8021
I01
stbsS'23320427'
p8022
g3
(g4
g5
NtRp8023
((dp8024
S'Q54WW9'
p8025
I01
stbsS'7729526'
p8026
g3
(g4
g5
NtRp8027
((dp8028
S'P42529'
p8029
I01
stbsS'8898241'
p8030
g3
(g4
g5
NtRp8031
((dp8032
S'P18160'
p8033
I01
stbsS'12385972'
p8034
g3
(g4
g5
NtRp8035
((dp8036
S'Q86HV8'
p8037
I01
stbsS'10771103'
p8038
g3
(g4
g5
NtRp8039
((dp8040
S'Q54RF4'
p8041
I01
sS'Q9GYD9'
p8042
I01
sS'P42529'
p8043
I01
stbsS'10329620'
p8044
g3
(g4
g5
NtRp8045
((dp8046
S'Q86AS5'
p8047
I01
stbsS'21190565'
p8048
g3
(g4
g5
NtRp8049
((dp8050
S'P34092'
p8051
I01
sS'P42528'
p8052
I01
sS'Q54GX7'
p8053
I01
sS'Q553U6'
p8054
I01
sS'C7FZZ0'
p8055
I01
sS'O96621'
p8056
I01
sS'O96622'
p8057
I01
sS'O96623'
p8058
I01
sS'O96624'
p8059
I01
sS'O96625'
p8060
I01
sS'O96626'
p8061
I01
sS'P07829'
p8062
I01
sS'P07830'
p8063
I01
sS'P27133'
p8064
I01
stbsS'14629118'
p8065
g3
(g4
g5
NtRp8066
((dp8067
S'Q55DR6'
p8068
I01
sS'Q1ZXQ4'
p8069
I01
stbsS'16790492'
p8070
g3
(g4
g5
NtRp8071
((dp8072
S'Q551V8'
p8073
I01
sS'Q553Y7'
p8074
I01
stbsS'12506009'
p8075
g3
(g4
g5
NtRp8076
((dp8077
S'O00910'
p8078
I01
sS'Q54BD4'
p8079
I01
stbsS'17562315'
p8080
g3
(g4
g5
NtRp8081
((dp8082
S'O96759'
p8083
I01
stbsS'16900100'
p8084
g3
(g4
g5
NtRp8085
((dp8086
S'Q8T9S7'
p8087
I01
sS'Q8MML5'
p8088
I01
stbsS'15606490'
p8089
g3
(g4
g5
NtRp8090
((dp8091
S'Q54RF4'
p8092
I01
sS'P42529'
p8093
I01
sS'Q86IV7'
p8094
I01
sS'Q55C62'
p8095
I01
sS'P02599'
p8096
I01
sS'Q54LX0'
p8097
I01
sS'Q75K28'
p8098
I01
sS'Q6DN52'
p8099
I01
stbsS'16899077'
p8100
g3
(g4
g5
NtRp8101
((dp8102
S'Q54UU8'
p8103
I01
stbsS'16343335'
p8104
g3
(g4
g5
NtRp8105
((dp8106
S'Q7YXU4'
p8107
I01
stbsS'16781009'
p8108
g3
(g4
g5
NtRp8109
((dp8110
S'Q55E26'
p8111
I01
stbs.